
8aaaf200-2450-11e4-abe20002a5d5c51b.elf:     file format elf64-littleaarch64
8aaaf200-2450-11e4-abe20002a5d5c51b.elf
architecture: aarch64, flags 0x00000150:
HAS_SYMS, DYNAMIC, D_PAGED
start address 0x0000000000000020

Program Header:
    LOAD off    0x0000000000010000 vaddr 0x0000000000000000 paddr 0x0000000000000000 align 2**16
         filesz 0x000000000000e904 memsz 0x000000000000e904 flags r-x
    LOAD off    0x000000000001e908 vaddr 0x000000000000e908 paddr 0x000000000000e908 align 2**16
         filesz 0x0000000000002144 memsz 0x0000000000002144 flags r--
    LOAD off    0x0000000000021000 vaddr 0x0000000000011000 paddr 0x0000000000011000 align 2**16
         filesz 0x000000000000012c memsz 0x000000000000ad20 flags rw-
 DYNAMIC off    0x0000000000020780 vaddr 0x0000000000010780 paddr 0x0000000000010780 align 2**3
         filesz 0x00000000000000f0 memsz 0x00000000000000f0 flags rw-

Dynamic Section:
  HASH                 0x0000000000010a08
  STRTAB               0x0000000000010990
  SYMTAB               0x0000000000010870
  STRSZ                0x0000000000000078
  SYMENT               0x0000000000000018
  DEBUG                0x0000000000000000
  RELA                 0x0000000000010400
  RELASZ               0x0000000000000318
  RELAENT              0x0000000000000018
  RELACOUNT            0x0000000000000018
private flags = 0:

Sections:
Idx Name          Size      VMA               LMA               File off  Algn
  0 .ta_head      00000020  0000000000000000  0000000000000000  00010000  2**3
                  CONTENTS, ALLOC, LOAD, DATA
  1 .text         0000e8e4  0000000000000020  0000000000000020  00010020  2**2
                  CONTENTS, ALLOC, LOAD, READONLY, CODE
  2 .rodata       00001af8  000000000000e908  000000000000e908  0001e908  2**3
                  CONTENTS, ALLOC, LOAD, READONLY, DATA
  3 .dynsym       00000120  0000000000010870  0000000000010870  00020870  2**3
                  CONTENTS, ALLOC, LOAD, READONLY, DATA
  4 .rela.dyn     00000240  0000000000010400  0000000000010400  00020400  2**3
                  CONTENTS, ALLOC, LOAD, READONLY, DATA
  5 .got          00000068  0000000000010640  0000000000010640  00020640  2**3
                  CONTENTS, ALLOC, LOAD, DATA
  6 .rela.got     000000d8  00000000000106a8  00000000000106a8  000206a8  2**3
                  CONTENTS, ALLOC, LOAD, READONLY, DATA
  7 .dynamic      000000f0  0000000000010780  0000000000010780  00020780  2**3
                  CONTENTS, ALLOC, LOAD, DATA
  8 .dynstr       00000078  0000000000010990  0000000000010990  00020990  2**0
                  CONTENTS, ALLOC, LOAD, READONLY, DATA
  9 .hash         00000044  0000000000010a08  0000000000010a08  00020a08  2**3
                  CONTENTS, ALLOC, LOAD, READONLY, DATA
 10 .data         0000012c  0000000000011000  0000000000011000  00021000  2**3
                  CONTENTS, ALLOC, LOAD, DATA
 11 .bss          0000abf0  0000000000011130  0000000000011130  0002112c  2**3
                  ALLOC
 12 .debug_info   0000979f  0000000000000000  0000000000000000  0002112c  2**0
                  CONTENTS, READONLY, DEBUGGING
 13 .debug_abbrev 00002ab2  0000000000000000  0000000000000000  0002a8cb  2**0
                  CONTENTS, READONLY, DEBUGGING
 14 .debug_aranges 000006f0  0000000000000000  0000000000000000  0002d37d  2**0
                  CONTENTS, READONLY, DEBUGGING
 15 .debug_macro  00004cd9  0000000000000000  0000000000000000  0002da6d  2**0
                  CONTENTS, READONLY, DEBUGGING
 16 .debug_line   0000641c  0000000000000000  0000000000000000  00032746  2**0
                  CONTENTS, READONLY, DEBUGGING
 17 .debug_str    0000ee34  0000000000000000  0000000000000000  00038b62  2**0
                  CONTENTS, READONLY, DEBUGGING
 18 .comment      0000002d  0000000000000000  0000000000000000  00047996  2**0
                  CONTENTS, READONLY
 19 .debug_frame  00002968  0000000000000000  0000000000000000  000479c8  2**3
                  CONTENTS, READONLY, DEBUGGING
SYMBOL TABLE:
0000000000000000 l    d  .ta_head	0000000000000000 .ta_head
0000000000000020 l    d  .text	0000000000000000 .text
000000000000e908 l    d  .rodata	0000000000000000 .rodata
0000000000010400 l    d  .rela.dyn	0000000000000000 .rela.dyn
0000000000010640 l    d  .got	0000000000000000 .got
00000000000106a8 l    d  .rela.got	0000000000000000 .rela.got
0000000000010780 l    d  .dynamic	0000000000000000 .dynamic
0000000000010870 l    d  .dynsym	0000000000000000 .dynsym
0000000000010990 l    d  .dynstr	0000000000000000 .dynstr
0000000000010a08 l    d  .hash	0000000000000000 .hash
0000000000011000 l    d  .data	0000000000000000 .data
0000000000011130 l    d  .bss	0000000000000000 .bss
0000000000000000 l    d  .debug_info	0000000000000000 .debug_info
0000000000000000 l    d  .debug_abbrev	0000000000000000 .debug_abbrev
0000000000000000 l    d  .debug_aranges	0000000000000000 .debug_aranges
0000000000000000 l    d  .debug_macro	0000000000000000 .debug_macro
0000000000000000 l    d  .debug_line	0000000000000000 .debug_line
0000000000000000 l    d  .debug_str	0000000000000000 .debug_str
0000000000000000 l    d  .comment	0000000000000000 .comment
0000000000000000 l    d  .debug_frame	0000000000000000 .debug_frame
0000000000000000 l    df *ABS*	0000000000000000 user_ta_header.c
000000000000e9f8 l     O .rodata	0000000000000001 __compound_literal.0
000000000000e9f9 l     O .rodata	0000000000000001 __compound_literal.1
000000000000e9fa l     O .rodata	0000000000000001 __compound_literal.2
000000000000e9fc l     O .rodata	0000000000000004 __compound_literal.3
000000000000ea00 l     O .rodata	0000000000000004 __compound_literal.4
000000000000ea04 l     O .rodata	0000000000000004 __compound_literal.5
0000000000000000 l    df *ABS*	0000000000000000 hello_world_ta.c
000000000000e968 l     O .rodata	0000000000000014 __func__.3516
000000000000e980 l     O .rodata	0000000000000015 __func__.3520
000000000000e998 l     O .rodata	0000000000000019 __func__.3527
000000000000e9b8 l     O .rodata	000000000000001a __func__.3531
000000000000012c l     F .text	00000000000000d4 inc_value
000000000000e9d8 l     O .rodata	000000000000000a __func__.3537
0000000000000000 l    df *ABS*	0000000000000000 user_ta_entry.c
00000000000110d8 l     O .data	0000000000000010 ta_sessions
000000000001bd18 l     O .bss	0000000000000004 ta_ref_count
000000000001bd1c l     O .bss	0000000000000001 context_init
0000000000000248 l     F .text	0000000000000064 ta_header_save_params
00000000000002ac l     F .text	000000000000005c ta_header_get_session
0000000000000308 l     F .text	0000000000000150 ta_header_add_session
0000000000000458 l     F .text	00000000000000ec ta_header_remove_session
0000000000000544 l     F .text	00000000000000c8 entry_open_session
000000000000060c l     F .text	000000000000004c entry_close_session
0000000000000658 l     F .text	00000000000000a0 entry_invoke_command
000000000000eb28 l     O .rodata	000000000000000d __func__.4031
0000000000000000 l    df *ABS*	0000000000000000 tee_api_arith.c
0000000000019178 l     O .bss	0000000000001b40 mempool_u32
00000000000110e8 l     O .data	0000000000000008 mempool
00000000000007bc l     F .text	0000000000000058 TEE_BigInt_Panic
000000000000ebb0 l     O .rodata	0000000000000011 __func__.3819
000000000000ebc8 l     O .rodata	0000000000000021 __func__.3855
000000000000ebf0 l     O .rodata	000000000000001f __func__.3864
000000000000ec10 l     O .rodata	0000000000000017 __func__.3876
0000000000000000 l    df *ABS*	0000000000000000 tee_api.c
000000000000ec28 l     O .rodata	0000000000000004 DEFAULT_TEE_MALLOC_HINT
000000000001acb8 l     O .bss	0000000000000008 tee_api_instance_data
000000000000ec78 l     O .rodata	0000000000000013 __func__.4001
000000000000ec90 l     O .rodata	0000000000000014 __func__.4013
000000000000eca8 l     O .rodata	0000000000000017 __func__.4024
000000000000ecc0 l     O .rodata	0000000000000015 __func__.4030
000000000000ecd8 l     O .rodata	0000000000000012 __func__.4063
000000000000ecf0 l     O .rodata	0000000000000009 __func__.4068
000000000000ed00 l     O .rodata	0000000000000018 __func__.4073
000000000000ed18 l     O .rodata	0000000000000018 __func__.4078
000000000000ed30 l     O .rodata	000000000000000f __func__.4083
0000000000000000 l    df *ABS*	0000000000000000 tee_api_panic.c
0000000000000000 l    df *ABS*	0000000000000000 utee_misc.c
0000000000000000 l    df *ABS*	0000000000000000 tee_user_mem.c
000000000000ed40 l     O .rodata	0000000000000004 DEFAULT_TEE_MALLOC_HINT
00000000000110f0 l     O .data	0000000000000008 ARTIST
000000000000ed48 l     O .rodata	0000000000000008 CANARY_LINE_SIZE
000000000000210c l     F .text	0000000000000018 buf_addr
0000000000002124 l     F .text	0000000000000024 buf_size
0000000000002148 l     F .text	0000000000000018 elem_addr
0000000000002160 l     F .text	0000000000000064 is_buffer_valid
00000000000021c4 l     F .text	000000000000008c print_buf
000000000001acc0 l     O .bss	0000000000000008 heap_level
000000000001acc8 l     O .bss	0000000000000010 global_stats
0000000000002250 l     F .text	0000000000000070 heap_inc
00000000000022c0 l     F .text	0000000000000070 heap_dec
0000000000002330 l     F .text	0000000000000088 check_elem_end
000000000000ee70 l     O .rodata	000000000000000f __func__.3633
00000000000023b8 l     F .text	0000000000000124 check_elem
000000000000ee80 l     O .rodata	000000000000000b __func__.3638
00000000000024dc l     F .text	000000000000006c is_mem_coherent
000000000000ee90 l     O .rodata	0000000000000013 __func__.3657
000000000000eea8 l     O .rodata	0000000000000012 __func__.3674
000000000000eec0 l     O .rodata	0000000000000018 __func__.3682
0000000000002a20 l     F .text	0000000000000090 tee_user_mem_status
000000000000eed8 l     O .rodata	0000000000000014 __func__.3687
0000000000000000 l    df *ABS*	0000000000000000 trace_ext.c
000000000000eef0 l     O .rodata	000000000000000a prefix.3362
000000000000ef00 l     O .rodata	0000000000000011 failed.3363
000000000000ef18 l     O .rodata	0000000000000005 trunc.3364
0000000000000000 l    df *ABS*	0000000000000000 assert.c
000000000000ef40 l     O .rodata	000000000000000c __func__.3826
0000000000000000 l    df *ABS*	0000000000000000 bget_malloc.c
0000000000011108 l     O .data	0000000000000020 freelist
000000000001acd8 l     O .bss	0000000000000008 totalloc
000000000001ace0 l     O .bss	0000000000000008 numget
000000000001ace8 l     O .bss	0000000000000008 numrel
00000000000038c8 l     F .text	0000000000000008 malloc_lock
00000000000038d0 l     F .text	0000000000000008 malloc_unlock
000000000001acf0 l     O .bss	0000000000000008 malloc_pool
000000000001acf8 l     O .bss	0000000000000008 malloc_pool_len
000000000001ad00 l     O .bss	0000000000000008 max_alloc_heap
00000000000038d8 l     F .text	0000000000000048 raw_malloc_save_max_alloced_size
0000000000003a14 l     F .text	0000000000000008 raw_malloc_validate_pools
0000000000003a1c l     F .text	0000000000000034 bpool_foreach_iterator_init
0000000000003a50 l     F .text	0000000000000120 bpool_foreach_pool
0000000000003b70 l     F .text	00000000000000c4 bpool_foreach
0000000000003c34 l     F .text	0000000000000080 raw_malloc
0000000000003cb4 l     F .text	0000000000000030 raw_free
0000000000003ce4 l     F .text	0000000000000098 raw_calloc
0000000000003d7c l     F .text	0000000000000088 raw_realloc
0000000000003e04 l     F .text	0000000000000188 create_free_block
0000000000003f8c l     F .text	00000000000001b8 brel_before
0000000000004144 l     F .text	00000000000002cc brel_after
0000000000004410 l     F .text	00000000000001ec raw_memalign
00000000000045fc l     F .text	0000000000000068 bget_buf_size
00000000000046fc l     F .text	000000000000002c realloc_unlocked
0000000000004798 l     F .text	0000000000000030 get_payload_start_size
0000000000000000 l    df *ABS*	0000000000000000 snprintf.c
0000000000000000 l    df *ABS*	0000000000000000 memcmp.c
0000000000000000 l    df *ABS*	0000000000000000 memcpy.c
0000000000000000 l    df *ABS*	0000000000000000 memmove.c
0000000000000000 l    df *ABS*	0000000000000000 memset.c
0000000000000000 l    df *ABS*	0000000000000000 strlen.c
0000000000000000 l    df *ABS*	0000000000000000 snprintk.c
000000000000f3a8 l     O .rodata	0000000000000011 hexdigits
000000000000f3c0 l     O .rodata	0000000000000011 HEXDIGITS
00000000000056a8 l     F .text	0000000000001eb0 kprintf
00000000000055b8 l     F .text	00000000000000f0 uuid2str
0000000000000000 l    df *ABS*	0000000000000000 strlcpy.c
0000000000000000 l    df *ABS*	0000000000000000 trace.c
0000000000007670 l     F .text	0000000000000074 trace_level_to_string
000000000000f5d0 l     O .rodata	000000000000002d lvl_strs.2926
0000000000000000 l    df *ABS*	0000000000000000 memchr.c
0000000000000000 l    df *ABS*	0000000000000000 mpa_misc.c
0000000000000000 l    df *ABS*	0000000000000000 mpa_montgomery.c
0000000000000000 l    df *ABS*	0000000000000000 mpa_primetest.c
0000000000010270 l     O .rodata	00000000000000b8 const_small_prime_factors
0000000000010328 l     O .rodata	0000000000000010 const_miller_rabin_proof_limit
0000000000010338 l     O .rodata	000000000000000c const_two
00000000000086f8 l     F .text	00000000000000d4 is_small_prime
00000000000087cc l     F .text	0000000000000070 has_small_factors
000000000000883c l     F .text	0000000000000370 primality_test_miller_rabin
00000000000086c0 l     F .text	0000000000000038 check_table
0000000000010348 l     O .rodata	000000000000001c proof_a.3299
0000000000000000 l    df *ABS*	0000000000000000 mpa_conv.c
0000000000000000 l    df *ABS*	0000000000000000 mpa_div.c
0000000000008d7c l     F .text	00000000000000cc __mpa_soft_div
0000000000008e8c l     F .text	00000000000009bc __mpa_div_q_r_internal
0000000000000000 l    df *ABS*	0000000000000000 mpa_gcd.c
0000000000009d80 l     F .text	0000000000000180 __mpa_divby2
0000000000009f00 l     F .text	000000000000039c __mpa_egcd
000000000000a29c l     F .text	00000000000001b0 __mpa_gcd
0000000000000000 l    df *ABS*	0000000000000000 mpa_mem_static.c
0000000000000000 l    df *ABS*	0000000000000000 mpa_mul.c
0000000000000000 l    df *ABS*	0000000000000000 mpa_random.c
000000000001ad08 l     O .bss	0000000000000008 get_rng_array
000000000000b2a0 l     F .text	0000000000000038 get_random_byte
0000000000000000 l    df *ABS*	0000000000000000 mpa_shift.c
0000000000000000 l    df *ABS*	0000000000000000 mpa_addsub.c
0000000000000000 l    df *ABS*	0000000000000000 mpa_cmp.c
0000000000000000 l    df *ABS*	0000000000000000 mpa_expmod.c
0000000000000000 l    df *ABS*	0000000000000000 mpa_init.c
0000000000000000 l    df *ABS*	0000000000000000 mpa_io.c
000000000000d45c l     F .text	0000000000000058 __mpa_isspace
000000000000d4b4 l     F .text	00000000000000d0 __mpa_is_char_in_base
000000000000d584 l     F .text	0000000000000080 __mpa_digit_value
000000000000d604 l     F .text	000000000000001c __mpa_digitstr_to_binary_wsize_base_16
000000000000d620 l     F .text	0000000000000070 __mpa_nibble_to_char
000000000000d690 l     F .text	0000000000000084 __mpa_word_to_hexstr
000000000000d714 l     F .text	00000000000001c0 __mpa_mpanum_to_hexstr
000000000000d8d4 l     F .text	0000000000000064 __mpa_count_leading_zero_bits
000000000000d938 l     F .text	000000000000008c __mpa_size_in_base_255
000000000001ad10 l     O .bss	0000000000001002 buf.3336
000000000000ded4 l     F .text	0000000000000084 set_word
000000000000e0d0 l     F .text	0000000000000060 get_word
0000000000000000 l    df *ABS*	0000000000000000 mpa_modulus.c
0000000000000000 l    df *ABS*	0000000000000000 utee_syscalls_a64.o
0000000000000000 l    df *ABS*	0000000000000000 
0000000000010780 l     O *ABS*	0000000000000000 _DYNAMIC
0000000000010658 l     O *ABS*	0000000000000000 _GLOBAL_OFFSET_TABLE_
000000000000e8e0 g     F .text	000000000000000c utee_se_channel_transmit
000000000000d318 g     F .text	0000000000000060 mpa_init_static
0000000000007d5c g     F .text	0000000000000074 mpa_copy
0000000000001414 g     F .text	000000000000007c TEE_BigIntConvertToFMM
00000000000011e4 g     F .text	0000000000000034 TEE_BigIntSquareMod
0000000000000c0c g     F .text	0000000000000044 TEE_BigIntShiftRight
0000000000008c14 g     F .text	00000000000000e8 mpa_get_S32
0000000000007e1c g     F .text	00000000000000b8 mpa_highest_bit_index
000000000000e7a8 g     F .text	000000000000000c utee_storage_obj_create
000000000000e8bc g     F .text	000000000000000c utee_se_session_close
000000000000e5b0 g     F .text	000000000000000c utee_return
0000000000003920 g     F .text	0000000000000028 malloc_reset_max_allocated
000000000000e85c g     F .text	000000000000000c utee_se_service_get_readers
0000000000001f74 g     F .text	0000000000000028 TEE_Realloc
0000000000009848 g     F .text	00000000000001e4 __mpa_div_q_r_internal_word
0000000000002718 g     F .text	0000000000000110 tee_user_mem_realloc
00000000000039a0 g     F .text	0000000000000074 malloc_get_heap_size
000000000000c66c g     F .text	00000000000002f8 mpa_sub
0000000000002b2c g     F .text	00000000000001d0 printf
0000000000002828 g     F .text	0000000000000160 tee_user_mem_free
000000000000e5bc g     F .text	000000000000000c utee_log
000000000000f634 g     O .rodata	0000000000000004 NR_STORED_PRIMES
00000000000019a0 g     F .text	00000000000000f4 TEE_InvokeTACommand
0000000000007f68 g     F .text	0000000000000038 mpa_can_hold
000000000000ad94 g     F .text	0000000000000118 __mpa_abs_mul_word
00000000000085e0 g     F .text	000000000000006c mpa_montgomery_mul
000000000000547c g     F .text	0000000000000064 vsnprintk
0000000000007fa0 g     F .text	0000000000000028 mpa_parity
0000000000004f08 g     F .text	000000000000020c memmove
000000000000be6c g     F .text	0000000000000068 __mpa_full_adder_ackum
0000000000004b40 g     F .text	00000000000000bc snprintf
0000000000000be0 g     F .text	000000000000002c TEE_BigIntCmpS32
0000000000000cb0 g     F .text	0000000000000058 TEE_BigIntAdd
000000000000e5e0 g     F .text	000000000000000c utee_get_property_name_to_index
000000000000e9f0 g     O .rodata	0000000000000008 ta_heap_size
000000000000f630 g     O .rodata	0000000000000004 MAX_TABULATED_PRIME
0000000000002064 g     F .text	000000000000001c utee_malloc
000000000000e664 g     F .text	000000000000000c utee_cryp_state_alloc
000000000000e76c g     F .text	000000000000000c utee_authenc_enc_final
000000000000ad20 g     F .text	0000000000000074 __mpa_mul_add_word_cum
0000000000000d60 g     F .text	0000000000000038 TEE_BigIntNeg
0000000000009c38 g     F .text	0000000000000148 mpa_div
000000000000f620 g     O .rodata	000000000000000c const_one
0000000000004a30 g     F .text	0000000000000110 malloc_buffer_overlaps_heap
000000000000cf4c g     F .text	000000000000002c __mpa_abs_less_than
000000000000102c g     F .text	00000000000000bc TEE_BigIntSubMod
000000000000b2d8 g     F .text	00000000000001d4 mpa_get_random
00000000000020e8 g     F .text	0000000000000024 get_rng_array
00000000000076e4 g     F .text	00000000000003dc trace_printf
000000000000e844 g     F .text	000000000000000c utee_se_service_open
0000000000004d88 g     F .text	0000000000000180 memcpy
000000000000e67c g     F .text	000000000000000c utee_cryp_state_free
0000000000007d14 g     F .text	0000000000000048 mpa_wipe
0000000000001490 g     F .text	00000000000000c0 TEE_BigIntConvertFromFMM
0000000000002048 g     F .text	0000000000000014 TEE_Panic
000000000000e8d4 g     F .text	000000000000000c utee_se_channel_get_select_resp
0000000000002cfc g     F .text	000000000000002c puts
0000000000001550 g     F .text	0000000000000080 TEE_BigIntComputeFMM
0000000000008cfc g     F .text	0000000000000040 mpa_set_word
000000000000b70c g     F .text	0000000000000388 mpa_shift_left
000000000000e6c4 g     F .text	000000000000000c utee_cipher_final
000000000000b04c g     F .text	0000000000000130 mpa_mul
0000000000001eec g     F .text	0000000000000064 TEE_GetREETime
0000000000011000 g     O .data	00000000000000d8 ta_props
0000000000004664 g     F .text	0000000000000034 malloc
000000000000e700 g     F .text	000000000000000c utee_cryp_obj_close
000000000000e880 g     F .text	000000000000000c utee_se_reader_open_session
0000000000004bfc g     F .text	0000000000000064 vsnprintf
0000000000011128 g     O .data	0000000000000004 trace_level
000000000000205c g     F .text	0000000000000008 utee_get_ta_exec_id
0000000000000bac g     F .text	0000000000000034 TEE_BigIntCmp
0000000000002080 g     F .text	0000000000000024 utee_realloc
000000000000eb10 g     O .rodata	0000000000000008 ta_num_props
0000000000003168 g     F .text	00000000000000dc bgetr
000000000000e760 g     F .text	000000000000000c utee_authenc_update_payload
0000000000000a28 g     F .text	00000000000000c0 TEE_BigIntConvertToOctetString
000000000000e8f8 g     F .text	000000000000000c utee_cache_operation
000000000000e748 g     F .text	000000000000000c utee_authenc_init
0000000000000c50 g     F .text	0000000000000038 TEE_BigIntGetBit
000000000000e9e8 g     O .rodata	0000000000000008 trace_ext_prefix
000000000000bed4 g     F .text	00000000000001e4 __mpa_abs_add
00000000000030a0 g     F .text	00000000000000c8 bgetz
0000000000001c28 g     F .text	0000000000000010 TEE_GetInstanceData
0000000000001d30 g     F .text	0000000000000070 TEE_Wait
000000000000e814 g     F .text	000000000000000c utee_storage_obj_write
000000000000abb4 g     F .text	0000000000000108 mpa_free_static_temp_var
0000000000003974 g     F .text	000000000000002c malloc_get_allocated
000000000000864c g     F .text	0000000000000074 mpa_is_prob_prime
000000000000e8ec g     F .text	000000000000000c utee_se_channel_close
000000000000b17c g     F .text	0000000000000100 mpa_mul_word
0000000000001fe4 g     F .text	0000000000000028 TEE_CacheFlush
0000000000000058 g     F .text	0000000000000038 TA_DestroyEntryPoint
0000000000002d28 g     F .text	0000000000000050 _assert_log
0000000000000950 g     F .text	0000000000000024 TEE_BigIntFMMContextSizeInU32
0000000000009a2c g     F .text	000000000000020c __mpa_div_q_r
0000000000000814 g     F .text	0000000000000038 _TEE_MathAPI_Init
000000000000e7fc g     F .text	000000000000000c utee_storage_next_enum
0000000000011130 g     O .bss	0000000000008000 ta_heap
0000000000001218 g     F .text	000000000000008c TEE_BigIntInvMod
00000000000000f0 g     F .text	000000000000003c TA_CloseSessionEntryPoint
000000000000e670 g     F .text	000000000000000c utee_cryp_state_copy
0000000000000200 g     F .text	0000000000000040 TA_InvokeCommandEntryPoint
000000000000df58 g     F .text	0000000000000178 mpa_set_oct_str
000000000000e8b0 g     F .text	000000000000000c utee_se_session_open_channel
000000000000b4ac g     F .text	0000000000000130 __mpa_shift_words_left
000000000000e6f4 g     F .text	000000000000000c utee_cryp_obj_alloc
000000000000e658 g     F .text	000000000000000c utee_set_ta_time
000000000000e6e8 g     F .text	000000000000000c utee_cryp_obj_get_attr
000000000000811c g     F .text	0000000000000158 __mpa_montgomery_sub_ack
00000000000046c0 g     F .text	000000000000003c calloc
0000000000001f50 g     F .text	0000000000000024 TEE_Malloc
000000000000e634 g     F .text	000000000000000c utee_mask_cancellation
000000000000e70c g     F .text	000000000000000c utee_cryp_obj_reset
0000000000001ba0 g     F .text	0000000000000064 TEE_CheckMemoryAccessRights
000000000000c964 g     F .text	000000000000003c mpa_neg
000000000000f638 g     O .rodata	0000000000000c38 PRIME_TABLE
0000000000000090 g     F .text	0000000000000060 TA_OpenSessionEntryPoint
000000000000a44c g     F .text	0000000000000188 mpa_gcd
0000000000007dd0 g     F .text	000000000000004c mpa_abs
000000000000e7f0 g     F .text	000000000000000c utee_storage_start_enum
000000000000d9cc g     F .text	0000000000000448 mpa_set_str
000000000000e7c0 g     F .text	000000000000000c utee_storage_obj_rename
0000000000019130 g     O .bss	0000000000000004 ta_param_types
00000000000013b0 g     F .text	0000000000000064 TEE_BigIntIsProbablePrime
000000000000ab88 g     F .text	000000000000002c mpa_alloc_static_temp_var
000000000000b27c g     F .text	0000000000000024 mpa_set_random_generator
000000000000e5d4 g     F .text	000000000000000c utee_get_property
000000000000084c g     F .text	0000000000000028 TEE_BigIntInit
0000000000001c38 g     F .text	0000000000000030 TEE_MemMove
0000000000000974 g     F .text	00000000000000b4 TEE_BigIntConvertFromOctetString
0000000000007ae4 g     F .text	00000000000001c8 memchr
0000000000001ad0 g     F .text	0000000000000068 TEE_UnmaskCancellation
000000000000e40c g     F .text	0000000000000070 mpa_mul_mod
000000000000e7b4 g     F .text	000000000000000c utee_storage_obj_del
000000000000e82c g     F .text	000000000000000c utee_storage_obj_seek
0000000000008454 g     F .text	000000000000018c mpa_compute_fmm_context
000000000000e694 g     F .text	000000000000000c utee_hash_update
000000000000a8e4 g     F .text	0000000000000074 mpa_init_scratch_mem_sync
0000000000000ec4 g     F .text	00000000000000ac TEE_BigIntMod
000000000000e8c8 g     F .text	000000000000000c utee_se_channel_select_next
000000000000e5f8 g     F .text	000000000000000c utee_close_ta_session
0000000000000e3c g     F .text	0000000000000088 TEE_BigIntDiv
0000000000007558 g     F .text	00000000000000b8 strlcpy
000000000000e6b8 g     F .text	000000000000000c utee_cipher_update
000000000000e8a4 g     F .text	000000000000000c utee_se_session_get_atr
0000000000004728 g     F .text	0000000000000034 realloc
000000000000c0b8 g     F .text	0000000000000160 __mpa_abs_add_ackum
000000000000e790 g     F .text	000000000000000c utee_asymm_verify
0000000000000d98 g     F .text	0000000000000058 TEE_BigIntMul
0000000000008d3c g     F .text	0000000000000040 mpa_get_word
0000000000001c98 g     F .text	0000000000000034 TEE_MemFill
0000000000004c60 g     F .text	0000000000000128 memcmp
00000000000047c8 g     F .text	000000000000019c malloc_add_pool
0000000000007660 g     F .text	0000000000000010 trace_get_level
000000000000e73c g     F .text	000000000000000c utee_cryp_random_number_generate
0000000000000930 g     F .text	0000000000000020 TEE_BigIntFMMSizeInU32
0000000000000874 g     F .text	0000000000000050 TEE_BigIntInitFMM
000000000000e784 g     F .text	000000000000000c utee_asymm_operate
00000000000006f8 g     F .text	00000000000000c4 __utee_entry
00000000000012a4 g     F .text	0000000000000094 TEE_BigIntRelativePrime
000000000000364c g     F .text	0000000000000160 bpool
0000000000008bac g     F .text	0000000000000068 mpa_set_S32
000000000000d378 g     F .text	00000000000000e4 mpa_init_static_fmm_context
0000000000001a94 g     F .text	000000000000003c TEE_GetCancellationFlag
000000000000e850 g     F .text	000000000000000c utee_se_service_close
0000000000002548 g     F .text	00000000000001d0 tee_user_mem_alloc
00000000000110f8 g     O .data	0000000000000010 user_mem_head
0000000000001e6c g     F .text	0000000000000080 TEE_SetTAPersistentTime
000000000000c9a0 g     F .text	00000000000001f8 mpa_add_word
000000000000e868 g     F .text	000000000000000c utee_se_reader_get_prop
0000000000005114 g     F .text	00000000000001cc memset
0000000000001da0 g     F .text	00000000000000cc TEE_GetTAPersistentTime
0000000000007ac0 g     F .text	0000000000000024 dhex_dump
0000000000001b38 g     F .text	0000000000000068 TEE_MaskCancellation
000000000000be08 g     F .text	0000000000000064 __mpa_full_sub
000000000000e808 g     F .text	000000000000000c utee_storage_obj_read
00000000000020a4 g     F .text	0000000000000024 utee_calloc
000000000000e718 g     F .text	000000000000000c utee_cryp_obj_populate
000000000000cf78 g     F .text	00000000000000dc mpa_cmp
000000000000e47c g     F .text	0000000000000134 mpa_inv_mod
000000000000cb98 g     F .text	0000000000000200 mpa_sub_word
000000000000acbc g     F .text	0000000000000064 __mpa_mul_add_word
000000000000c3b0 g     F .text	00000000000002bc mpa_add
000000000000d160 g     F .text	00000000000001b8 mpa_exp_mod
000000000000b5dc g     F .text	0000000000000130 __mpa_shift_words_right
0000000000007610 g     F .text	0000000000000050 trace_set_level
000000000000e898 g     F .text	000000000000000c utee_se_session_is_closed
000000000000e6d0 g     F .text	000000000000000c utee_cryp_obj_get_info
000000000000e7cc g     F .text	000000000000000c utee_storage_alloc_enum
000000000000e7e4 g     F .text	000000000000000c utee_storage_reset_enum
000000000000e820 g     F .text	000000000000000c utee_storage_obj_trunc
000000000000e2f0 g     F .text	000000000000003c mpa_mod
000000000000cf1c g     F .text	0000000000000030 __mpa_abs_greater_than
0000000000000b18 g     F .text	0000000000000094 TEE_BigIntConvertToS32
0000000000000d08 g     F .text	0000000000000058 TEE_BigIntSub
000000000000e610 g     F .text	000000000000000c utee_get_cancellation_flag
000000000000e688 g     F .text	000000000000000c utee_hash_init
0000000000000240 g     F .text	0000000000000008 tahead_get_trace_level
00000000000015d0 g     F .text	0000000000000188 __utee_from_param
000000000000f610 g     O .rodata	0000000000000010 Const_1_LShift_Base
0000000000001758 g     F .text	0000000000000140 __utee_to_param
000000000000475c g     F .text	000000000000003c memalign
0000000000000ae8 g     F .text	0000000000000030 TEE_BigIntConvertFromS32
000000000000e39c g     F .text	0000000000000070 mpa_sub_mod
000000000000e6dc g     F .text	000000000000000c utee_cryp_obj_restrict_usage
0000000000004964 g     F .text	00000000000000cc malloc_buffer_is_within_alloced
000000000000e724 g     F .text	000000000000000c utee_cryp_obj_copy
000000000000ba94 g     F .text	0000000000000310 mpa_shift_right
00000000000008c4 g     F .text	000000000000006c TEE_BigIntInitFMMContext
000000000000e730 g     F .text	000000000000000c utee_cryp_derive_key
0000000000008274 g     F .text	00000000000001e0 __mpa_montgomery_mul
000000000000e130 g     F .text	00000000000001c0 mpa_get_oct_str
000000000000d054 g     F .text	000000000000010c mpa_cmp_short
000000000000e778 g     F .text	000000000000000c utee_authenc_dec_final
000000000000cd98 g     F .text	0000000000000184 __mpa_abs_cmp
0000000000000df0 g     F .text	000000000000004c TEE_BigIntSquare
0000000000000020 g     F .text	0000000000000038 TA_CreateEntryPoint
00000000000053c4 g     F .text	00000000000000b8 snprintk
0000000000000c88 g     F .text	0000000000000028 TEE_BigIntGetBitCount
00000000000010e8 g     F .text	00000000000000fc TEE_BigIntMulMod
0000000000002034 g     F .text	0000000000000014 __TEE_Panic
0000000000019138 g     O .bss	0000000000000040 ta_params
000000000000aeac g     F .text	00000000000001a0 __mpa_abs_mul
0000000000002d88 g     F .text	0000000000000318 bget
0000000000001f9c g     F .text	0000000000000020 TEE_Free
000000000000e874 g     F .text	000000000000000c utee_se_reader_get_name
000000000000200c g     F .text	0000000000000028 TEE_CacheInvalidate
000000000000e6ac g     F .text	000000000000000c utee_cipher_init
0000000000002d78 g     F .text	0000000000000010 _assert_break
0000000000000f70 g     F .text	00000000000000bc TEE_BigIntAddMod
000000000000e7d8 g     F .text	000000000000000c utee_storage_free_enum
000000000000e754 g     F .text	000000000000000c utee_authenc_update_aad
0000000000007ed4 g     F .text	0000000000000094 mpa_get_bit
000000000000a958 g     F .text	000000000000003c mpa_init_scratch_mem
0000000000001c68 g     F .text	0000000000000030 TEE_MemCompare
00000000000054e0 g     F .text	00000000000000d8 __vsnprintf
0000000000001898 g     F .text	000000000000009c TEE_OpenTASession
000000000000e5c8 g     F .text	000000000000000c utee_panic
0000000000002af8 g     F .text	000000000000002c trace_ext_puts
0000000000002ab0 g     F .text	0000000000000048 tee_user_mem_garbage
0000000000002b24 g     F .text	0000000000000008 trace_ext_get_thread_id
0000000000001fbc g     F .text	0000000000000028 TEE_CacheClean
000000000000e5ec g     F .text	000000000000000c utee_open_ta_session
0000000000008e48 g     F .text	0000000000000044 __mpa_div_dword
0000000000007cac g     F .text	0000000000000068 __mpa_set_unused_digits_to_zero
000000000000f600 g     O .rodata	000000000000000c const_largest_deci_base
000000000000d9c4 g     F .text	0000000000000008 mpa_get_str_size
000000000000299c g     F .text	0000000000000084 tee_user_mem_check_heap
000000000000e6a0 g     F .text	000000000000000c utee_hash_final
00000000000052e0 g     F .text	00000000000000e4 strlen
0000000000001338 g     F .text	0000000000000078 TEE_BigIntComputeExtendedGcd
000000000000a5d4 g     F .text	0000000000000310 mpa_extended_gcd
000000000000e32c g     F .text	0000000000000070 mpa_add_mod
000000000000e79c g     F .text	000000000000000c utee_storage_obj_open
000000000000e604 g     F .text	000000000000000c utee_invoke_ta_command
000000000000de14 g     F .text	00000000000000c0 mpa_get_str
000000000000e640 g     F .text	000000000000000c utee_wait
00000000000020c8 g     F .text	0000000000000020 utee_free
0000000000002988 g     F .text	0000000000000014 tee_user_mem_mark_heap
0000000000001ccc g     F .text	0000000000000064 TEE_GetSystemTime
0000000000000000 g     O .ta_head	0000000000000020 ta_head
0000000000003244 g     F .text	0000000000000408 brel
000000000000a994 g     F .text	00000000000001f4 mpa_alloc_static_temp_var_size
000000000000e64c g     F .text	000000000000000c utee_get_time
0000000000007fd4 g     F .text	0000000000000148 __mpa_montgomery_mul_add
0000000000001c04 g     F .text	0000000000000024 TEE_SetInstanceData
000000000000e628 g     F .text	000000000000000c utee_unmask_cancellation
000000000000e61c g     F .text	000000000000000c utee_check_access_rights
000000000000e88c g     F .text	000000000000000c utee_se_reader_close_sessions
000000000000e838 g     F .text	000000000000000c utee_cryp_obj_generate_key
0000000000001934 g     F .text	000000000000006c TEE_CloseTASession
0000000000007fc8 g     F .text	000000000000000c mpa_constant_one
0000000000003948 g     F .text	000000000000002c malloc_get_max_allocated
000000000000bda4 g     F .text	0000000000000064 __mpa_full_adder
000000000000c218 g     F .text	0000000000000198 __mpa_abs_sub
0000000000004698 g     F .text	0000000000000028 free
00000000000037ac g     F .text	000000000000011c bstats



Disassembly of section .text:

0000000000000020 <TA_CreateEntryPoint>:
TA_CreateEntryPoint():
/home/optee/RPi3/hello_world/ta/hello_world_ta.c:40
      20:	a9bf7bfd 	stp	x29, x30, [sp,#-16]!
      24:	910003fd 	mov	x29, sp
/home/optee/RPi3/hello_world/ta/hello_world_ta.c:41
      28:	d0000060 	adrp	x0, e000 <mpa_set_oct_str+0xa8>
      2c:	91242001 	add	x1, x0, #0x908
      30:	d0000060 	adrp	x0, e000 <mpa_set_oct_str+0xa8>
      34:	9125a000 	add	x0, x0, #0x968
      38:	aa0103e4 	mov	x4, x1
      3c:	52800023 	mov	w3, #0x1                   	// #1
      40:	52800062 	mov	w2, #0x3                   	// #3
      44:	52800521 	mov	w1, #0x29                  	// #41
      48:	94001da7 	bl	76e4 <trace_printf>
/home/optee/RPi3/hello_world/ta/hello_world_ta.c:42
      4c:	52800000 	mov	w0, #0x0                   	// #0
/home/optee/RPi3/hello_world/ta/hello_world_ta.c:43
      50:	a8c17bfd 	ldp	x29, x30, [sp],#16
      54:	d65f03c0 	ret

0000000000000058 <TA_DestroyEntryPoint>:
TA_DestroyEntryPoint():
/home/optee/RPi3/hello_world/ta/hello_world_ta.c:50
      58:	a9bf7bfd 	stp	x29, x30, [sp,#-16]!
      5c:	910003fd 	mov	x29, sp
/home/optee/RPi3/hello_world/ta/hello_world_ta.c:51
      60:	d0000060 	adrp	x0, e000 <mpa_set_oct_str+0xa8>
      64:	91242001 	add	x1, x0, #0x908
      68:	d0000060 	adrp	x0, e000 <mpa_set_oct_str+0xa8>
      6c:	91260000 	add	x0, x0, #0x980
      70:	aa0103e4 	mov	x4, x1
      74:	52800023 	mov	w3, #0x1                   	// #1
      78:	52800062 	mov	w2, #0x3                   	// #3
      7c:	52800661 	mov	w1, #0x33                  	// #51
      80:	94001d99 	bl	76e4 <trace_printf>
/home/optee/RPi3/hello_world/ta/hello_world_ta.c:52
      84:	d503201f 	nop
      88:	a8c17bfd 	ldp	x29, x30, [sp],#16
      8c:	d65f03c0 	ret

0000000000000090 <TA_OpenSessionEntryPoint>:
TA_OpenSessionEntryPoint():
/home/optee/RPi3/hello_world/ta/hello_world_ta.c:71
      90:	a9bc7bfd 	stp	x29, x30, [sp,#-64]!
      94:	910003fd 	mov	x29, sp
      98:	b9002fa0 	str	w0, [x29,#44]
      9c:	f90013a1 	str	x1, [x29,#32]
      a0:	f9000fa2 	str	x2, [x29,#24]
/home/optee/RPi3/hello_world/ta/hello_world_ta.c:72
      a4:	b9003fbf 	str	wzr, [x29,#60]
/home/optee/RPi3/hello_world/ta/hello_world_ta.c:81
      a8:	b9402fa1 	ldr	w1, [x29,#44]
      ac:	b9403fa0 	ldr	w0, [x29,#60]
      b0:	6b00003f 	cmp	w1, w0
      b4:	54000060 	b.eq	c0 <TA_OpenSessionEntryPoint+0x30>
/home/optee/RPi3/hello_world/ta/hello_world_ta.c:82
      b8:	129fff20 	mov	w0, #0xffff0006            	// #-65530
      bc:	1400000b 	b	e8 <TA_OpenSessionEntryPoint+0x58>
/home/optee/RPi3/hello_world/ta/hello_world_ta.c:92
      c0:	d0000060 	adrp	x0, e000 <mpa_set_oct_str+0xa8>
      c4:	91246001 	add	x1, x0, #0x918
      c8:	d0000060 	adrp	x0, e000 <mpa_set_oct_str+0xa8>
      cc:	91266000 	add	x0, x0, #0x998
      d0:	aa0103e4 	mov	x4, x1
      d4:	52800023 	mov	w3, #0x1                   	// #1
      d8:	52800062 	mov	w2, #0x3                   	// #3
      dc:	52800b81 	mov	w1, #0x5c                  	// #92
      e0:	94001d81 	bl	76e4 <trace_printf>
/home/optee/RPi3/hello_world/ta/hello_world_ta.c:95
      e4:	52800000 	mov	w0, #0x0                   	// #0
/home/optee/RPi3/hello_world/ta/hello_world_ta.c:96
      e8:	a8c47bfd 	ldp	x29, x30, [sp],#64
      ec:	d65f03c0 	ret

00000000000000f0 <TA_CloseSessionEntryPoint>:
TA_CloseSessionEntryPoint():
/home/optee/RPi3/hello_world/ta/hello_world_ta.c:103
      f0:	a9be7bfd 	stp	x29, x30, [sp,#-32]!
      f4:	910003fd 	mov	x29, sp
      f8:	f9000fa0 	str	x0, [x29,#24]
/home/optee/RPi3/hello_world/ta/hello_world_ta.c:105
      fc:	d0000060 	adrp	x0, e000 <mpa_set_oct_str+0xa8>
     100:	9124a001 	add	x1, x0, #0x928
     104:	d0000060 	adrp	x0, e000 <mpa_set_oct_str+0xa8>
     108:	9126e000 	add	x0, x0, #0x9b8
     10c:	aa0103e4 	mov	x4, x1
     110:	52800023 	mov	w3, #0x1                   	// #1
     114:	52800062 	mov	w2, #0x3                   	// #3
     118:	52800d21 	mov	w1, #0x69                  	// #105
     11c:	94001d72 	bl	76e4 <trace_printf>
/home/optee/RPi3/hello_world/ta/hello_world_ta.c:106
     120:	d503201f 	nop
     124:	a8c27bfd 	ldp	x29, x30, [sp],#32
     128:	d65f03c0 	ret

000000000000012c <inc_value>:
inc_value():
/home/optee/RPi3/hello_world/ta/hello_world_ta.c:110
     12c:	a9bd7bfd 	stp	x29, x30, [sp,#-48]!
     130:	910003fd 	mov	x29, sp
     134:	b9001fa0 	str	w0, [x29,#28]
     138:	f9000ba1 	str	x1, [x29,#16]
/home/optee/RPi3/hello_world/ta/hello_world_ta.c:111
     13c:	52800e60 	mov	w0, #0x73                  	// #115
     140:	b9002fa0 	str	w0, [x29,#44]
/home/optee/RPi3/hello_world/ta/hello_world_ta.c:116
     144:	d0000060 	adrp	x0, e000 <mpa_set_oct_str+0xa8>
     148:	91242001 	add	x1, x0, #0x908
     14c:	d0000060 	adrp	x0, e000 <mpa_set_oct_str+0xa8>
     150:	91276000 	add	x0, x0, #0x9d8
     154:	aa0103e4 	mov	x4, x1
     158:	52800023 	mov	w3, #0x1                   	// #1
     15c:	52800062 	mov	w2, #0x3                   	// #3
     160:	52800e81 	mov	w1, #0x74                  	// #116
     164:	94001d60 	bl	76e4 <trace_printf>
/home/optee/RPi3/hello_world/ta/hello_world_ta.c:117
     168:	b9401fa1 	ldr	w1, [x29,#28]
     16c:	b9402fa0 	ldr	w0, [x29,#44]
     170:	6b00003f 	cmp	w1, w0
     174:	54000060 	b.eq	180 <inc_value+0x54>
/home/optee/RPi3/hello_world/ta/hello_world_ta.c:118
     178:	129fff20 	mov	w0, #0xffff0006            	// #-65530
     17c:	1400001f 	b	1f8 <inc_value+0xcc>
/home/optee/RPi3/hello_world/ta/hello_world_ta.c:120
     180:	f9400ba0 	ldr	x0, [x29,#16]
     184:	b9400002 	ldr	w2, [x0]
     188:	d0000060 	adrp	x0, e000 <mpa_set_oct_str+0xa8>
     18c:	9124e001 	add	x1, x0, #0x938
     190:	d0000060 	adrp	x0, e000 <mpa_set_oct_str+0xa8>
     194:	91276000 	add	x0, x0, #0x9d8
     198:	2a0203e5 	mov	w5, w2
     19c:	aa0103e4 	mov	x4, x1
     1a0:	52800023 	mov	w3, #0x1                   	// #1
     1a4:	52800062 	mov	w2, #0x3                   	// #3
     1a8:	52800f01 	mov	w1, #0x78                  	// #120
     1ac:	94001d4e 	bl	76e4 <trace_printf>
/home/optee/RPi3/hello_world/ta/hello_world_ta.c:121
     1b0:	f9400ba0 	ldr	x0, [x29,#16]
     1b4:	b9400000 	ldr	w0, [x0]
     1b8:	11000401 	add	w1, w0, #0x1
     1bc:	f9400ba0 	ldr	x0, [x29,#16]
     1c0:	b9000001 	str	w1, [x0]
/home/optee/RPi3/hello_world/ta/hello_world_ta.c:122
     1c4:	f9400ba0 	ldr	x0, [x29,#16]
     1c8:	b9400002 	ldr	w2, [x0]
     1cc:	d0000060 	adrp	x0, e000 <mpa_set_oct_str+0xa8>
     1d0:	91254001 	add	x1, x0, #0x950
     1d4:	d0000060 	adrp	x0, e000 <mpa_set_oct_str+0xa8>
     1d8:	91276000 	add	x0, x0, #0x9d8
     1dc:	2a0203e5 	mov	w5, w2
     1e0:	aa0103e4 	mov	x4, x1
     1e4:	52800023 	mov	w3, #0x1                   	// #1
     1e8:	52800062 	mov	w2, #0x3                   	// #3
     1ec:	52800f41 	mov	w1, #0x7a                  	// #122
     1f0:	94001d3d 	bl	76e4 <trace_printf>
/home/optee/RPi3/hello_world/ta/hello_world_ta.c:123
     1f4:	52800000 	mov	w0, #0x0                   	// #0
/home/optee/RPi3/hello_world/ta/hello_world_ta.c:124
     1f8:	a8c37bfd 	ldp	x29, x30, [sp],#48
     1fc:	d65f03c0 	ret

0000000000000200 <TA_InvokeCommandEntryPoint>:
TA_InvokeCommandEntryPoint():
/home/optee/RPi3/hello_world/ta/hello_world_ta.c:134
     200:	a9bd7bfd 	stp	x29, x30, [sp,#-48]!
     204:	910003fd 	mov	x29, sp
     208:	f90017a0 	str	x0, [x29,#40]
     20c:	b90027a1 	str	w1, [x29,#36]
     210:	b90023a2 	str	w2, [x29,#32]
     214:	f9000fa3 	str	x3, [x29,#24]
/home/optee/RPi3/hello_world/ta/hello_world_ta.c:137
     218:	b94027a0 	ldr	w0, [x29,#36]
     21c:	6b1f001f 	cmp	w0, wzr
     220:	540000a1 	b.ne	234 <TA_InvokeCommandEntryPoint+0x34>
/home/optee/RPi3/hello_world/ta/hello_world_ta.c:139
     224:	f9400fa1 	ldr	x1, [x29,#24]
     228:	b94023a0 	ldr	w0, [x29,#32]
     22c:	97ffffc0 	bl	12c <inc_value>
     230:	14000002 	b	238 <TA_InvokeCommandEntryPoint+0x38>
/home/optee/RPi3/hello_world/ta/hello_world_ta.c:153
     234:	129fff20 	mov	w0, #0xffff0006            	// #-65530
/home/optee/RPi3/hello_world/ta/hello_world_ta.c:155
     238:	a8c37bfd 	ldp	x29, x30, [sp],#48
     23c:	d65f03c0 	ret

0000000000000240 <tahead_get_trace_level>:
tahead_get_trace_level():
/home/optee/RPi3/optee_os/out/arm/export-ta_arm64/src/user_ta_header.c:132
     240:	52800080 	mov	w0, #0x4                   	// #4
/home/optee/RPi3/optee_os/out/arm/export-ta_arm64/src/user_ta_header.c:133
     244:	d65f03c0 	ret

0000000000000248 <ta_header_save_params>:
ta_header_save_params():
/home/optee/RPi3/optee_os/lib/libutee/arch/arm/user_ta_entry.c:62
     248:	a9be7bfd 	stp	x29, x30, [sp,#-32]!
     24c:	910003fd 	mov	x29, sp
     250:	b9001fa0 	str	w0, [x29,#28]
     254:	f9000ba1 	str	x1, [x29,#16]
/home/optee/RPi3/optee_os/lib/libutee/arch/arm/user_ta_entry.c:63
     258:	90000080 	adrp	x0, 10000 <PRIME_TABLE+0x9c8>
     25c:	f9434800 	ldr	x0, [x0,#1680]
     260:	b9401fa1 	ldr	w1, [x29,#28]
     264:	b9000001 	str	w1, [x0]
/home/optee/RPi3/optee_os/lib/libutee/arch/arm/user_ta_entry.c:65
     268:	f9400ba0 	ldr	x0, [x29,#16]
     26c:	eb1f001f 	cmp	x0, xzr
     270:	540000e0 	b.eq	28c <ta_header_save_params+0x44>
/home/optee/RPi3/optee_os/lib/libutee/arch/arm/user_ta_entry.c:66
     274:	90000080 	adrp	x0, 10000 <PRIME_TABLE+0x9c8>
     278:	f9435000 	ldr	x0, [x0,#1696]
     27c:	d2800802 	mov	x2, #0x40                  	// #64
     280:	f9400ba1 	ldr	x1, [x29,#16]
     284:	940012c1 	bl	4d88 <memcpy>
/home/optee/RPi3/optee_os/lib/libutee/arch/arm/user_ta_entry.c:69
     288:	14000006 	b	2a0 <ta_header_save_params+0x58>
/home/optee/RPi3/optee_os/lib/libutee/arch/arm/user_ta_entry.c:68
     28c:	90000080 	adrp	x0, 10000 <PRIME_TABLE+0x9c8>
     290:	f9435000 	ldr	x0, [x0,#1696]
     294:	d2800802 	mov	x2, #0x40                  	// #64
     298:	52800001 	mov	w1, #0x0                   	// #0
     29c:	9400139e 	bl	5114 <memset>
/home/optee/RPi3/optee_os/lib/libutee/arch/arm/user_ta_entry.c:69
     2a0:	d503201f 	nop
     2a4:	a8c27bfd 	ldp	x29, x30, [sp],#32
     2a8:	d65f03c0 	ret

00000000000002ac <ta_header_get_session>:
ta_header_get_session():
/home/optee/RPi3/optee_os/lib/libutee/arch/arm/user_ta_entry.c:72
     2ac:	d10083ff 	sub	sp, sp, #0x20
     2b0:	b9000fe0 	str	w0, [sp,#12]
/home/optee/RPi3/optee_os/lib/libutee/arch/arm/user_ta_entry.c:75
     2b4:	b0000080 	adrp	x0, 11000 <ta_props>
     2b8:	91036000 	add	x0, x0, #0xd8
     2bc:	f9400000 	ldr	x0, [x0]
     2c0:	f9000fe0 	str	x0, [sp,#24]
     2c4:	1400000b 	b	2f0 <ta_header_get_session+0x44>
/home/optee/RPi3/optee_os/lib/libutee/arch/arm/user_ta_entry.c:76
     2c8:	f9400fe0 	ldr	x0, [sp,#24]
     2cc:	b9400001 	ldr	w1, [x0]
     2d0:	b9400fe0 	ldr	w0, [sp,#12]
     2d4:	6b00003f 	cmp	w1, w0
     2d8:	54000061 	b.ne	2e4 <ta_header_get_session+0x38>
/home/optee/RPi3/optee_os/lib/libutee/arch/arm/user_ta_entry.c:77
     2dc:	f9400fe0 	ldr	x0, [sp,#24]
     2e0:	14000008 	b	300 <ta_header_get_session+0x54>
/home/optee/RPi3/optee_os/lib/libutee/arch/arm/user_ta_entry.c:75 (discriminator 2)
     2e4:	f9400fe0 	ldr	x0, [sp,#24]
     2e8:	f9400800 	ldr	x0, [x0,#16]
     2ec:	f9000fe0 	str	x0, [sp,#24]
/home/optee/RPi3/optee_os/lib/libutee/arch/arm/user_ta_entry.c:75 (discriminator 1)
     2f0:	f9400fe0 	ldr	x0, [sp,#24]
     2f4:	eb1f001f 	cmp	x0, xzr
     2f8:	54fffe81 	b.ne	2c8 <ta_header_get_session+0x1c>
/home/optee/RPi3/optee_os/lib/libutee/arch/arm/user_ta_entry.c:79
     2fc:	d2800000 	mov	x0, #0x0                   	// #0
/home/optee/RPi3/optee_os/lib/libutee/arch/arm/user_ta_entry.c:80
     300:	910083ff 	add	sp, sp, #0x20
     304:	d65f03c0 	ret

0000000000000308 <ta_header_add_session>:
ta_header_add_session():
/home/optee/RPi3/optee_os/lib/libutee/arch/arm/user_ta_entry.c:83
     308:	a9bd7bfd 	stp	x29, x30, [sp,#-48]!
     30c:	910003fd 	mov	x29, sp
     310:	b9001fa0 	str	w0, [x29,#28]
/home/optee/RPi3/optee_os/lib/libutee/arch/arm/user_ta_entry.c:84
     314:	b9401fa0 	ldr	w0, [x29,#28]
     318:	97ffffe5 	bl	2ac <ta_header_get_session>
     31c:	f90017a0 	str	x0, [x29,#40]
/home/optee/RPi3/optee_os/lib/libutee/arch/arm/user_ta_entry.c:86
     320:	f94017a0 	ldr	x0, [x29,#40]
     324:	eb1f001f 	cmp	x0, xzr
     328:	54000060 	b.eq	334 <ta_header_add_session+0x2c>
/home/optee/RPi3/optee_os/lib/libutee/arch/arm/user_ta_entry.c:87
     32c:	52800000 	mov	w0, #0x0                   	// #0
     330:	14000048 	b	450 <ta_header_add_session+0x148>
/home/optee/RPi3/optee_os/lib/libutee/arch/arm/user_ta_entry.c:89
     334:	f00000c0 	adrp	x0, 1b000 <buf.3336+0x2f0>
     338:	91346000 	add	x0, x0, #0xd18
     33c:	b9400000 	ldr	w0, [x0]
     340:	11000401 	add	w1, w0, #0x1
     344:	f00000c0 	adrp	x0, 1b000 <buf.3336+0x2f0>
     348:	91346000 	add	x0, x0, #0xd18
     34c:	b9000001 	str	w1, [x0]
/home/optee/RPi3/optee_os/lib/libutee/arch/arm/user_ta_entry.c:91
     350:	f00000c0 	adrp	x0, 1b000 <buf.3336+0x2f0>
     354:	91346000 	add	x0, x0, #0xd18
     358:	b9400000 	ldr	w0, [x0]
     35c:	7100041f 	cmp	w0, #0x1
     360:	54000381 	b.ne	3d0 <ta_header_add_session+0xc8>
/home/optee/RPi3/optee_os/lib/libutee/arch/arm/user_ta_entry.c:94
     364:	f00000c0 	adrp	x0, 1b000 <buf.3336+0x2f0>
     368:	91347000 	add	x0, x0, #0xd1c
     36c:	39400000 	ldrb	w0, [x0]
     370:	52000000 	eor	w0, w0, #0x1
     374:	53001c00 	uxtb	w0, w0
     378:	6b1f001f 	cmp	w0, wzr
     37c:	540001c0 	b.eq	3b4 <ta_header_add_session+0xac>
/home/optee/RPi3/optee_os/lib/libutee/arch/arm/user_ta_entry.c:95
     380:	97ffffb0 	bl	240 <tahead_get_trace_level>
     384:	94001ca3 	bl	7610 <trace_set_level>
/home/optee/RPi3/optee_os/lib/libutee/arch/arm/user_ta_entry.c:96
     388:	90000080 	adrp	x0, 10000 <PRIME_TABLE+0x9c8>
     38c:	f9433000 	ldr	x0, [x0,#1632]
     390:	f9400001 	ldr	x1, [x0]
     394:	90000080 	adrp	x0, 10000 <PRIME_TABLE+0x9c8>
     398:	f9434400 	ldr	x0, [x0,#1672]
     39c:	9400110b 	bl	47c8 <malloc_add_pool>
/home/optee/RPi3/optee_os/lib/libutee/arch/arm/user_ta_entry.c:97
     3a0:	9400011d 	bl	814 <_TEE_MathAPI_Init>
/home/optee/RPi3/optee_os/lib/libutee/arch/arm/user_ta_entry.c:98
     3a4:	f00000c0 	adrp	x0, 1b000 <buf.3336+0x2f0>
     3a8:	91347000 	add	x0, x0, #0xd1c
     3ac:	52800021 	mov	w1, #0x1                   	// #1
     3b0:	39000001 	strb	w1, [x0]
/home/optee/RPi3/optee_os/lib/libutee/arch/arm/user_ta_entry.c:101
     3b4:	97ffff1b 	bl	20 <TA_CreateEntryPoint>
     3b8:	b90027a0 	str	w0, [x29,#36]
/home/optee/RPi3/optee_os/lib/libutee/arch/arm/user_ta_entry.c:102
     3bc:	b94027a0 	ldr	w0, [x29,#36]
     3c0:	6b1f001f 	cmp	w0, wzr
     3c4:	54000060 	b.eq	3d0 <ta_header_add_session+0xc8>
/home/optee/RPi3/optee_os/lib/libutee/arch/arm/user_ta_entry.c:103
     3c8:	b94027a0 	ldr	w0, [x29,#36]
     3cc:	14000021 	b	450 <ta_header_add_session+0x148>
/home/optee/RPi3/optee_os/lib/libutee/arch/arm/user_ta_entry.c:106
     3d0:	52b00001 	mov	w1, #0x80000000            	// #-2147483648
     3d4:	52800400 	mov	w0, #0x20                  	// #32
     3d8:	940006de 	bl	1f50 <TEE_Malloc>
     3dc:	f90017a0 	str	x0, [x29,#40]
/home/optee/RPi3/optee_os/lib/libutee/arch/arm/user_ta_entry.c:108
     3e0:	f94017a0 	ldr	x0, [x29,#40]
     3e4:	eb1f001f 	cmp	x0, xzr
     3e8:	54000061 	b.ne	3f4 <ta_header_add_session+0xec>
/home/optee/RPi3/optee_os/lib/libutee/arch/arm/user_ta_entry.c:109
     3ec:	129ffe60 	mov	w0, #0xffff000c            	// #-65524
     3f0:	14000018 	b	450 <ta_header_add_session+0x148>
/home/optee/RPi3/optee_os/lib/libutee/arch/arm/user_ta_entry.c:110
     3f4:	f94017a0 	ldr	x0, [x29,#40]
     3f8:	b9401fa1 	ldr	w1, [x29,#28]
     3fc:	b9000001 	str	w1, [x0]
/home/optee/RPi3/optee_os/lib/libutee/arch/arm/user_ta_entry.c:111
     400:	f94017a0 	ldr	x0, [x29,#40]
     404:	f900041f 	str	xzr, [x0,#8]
/home/optee/RPi3/optee_os/lib/libutee/arch/arm/user_ta_entry.c:112
     408:	f94017a0 	ldr	x0, [x29,#40]
     40c:	f900081f 	str	xzr, [x0,#16]
     410:	b0000080 	adrp	x0, 11000 <ta_props>
     414:	91036000 	add	x0, x0, #0xd8
     418:	f9400401 	ldr	x1, [x0,#8]
     41c:	f94017a0 	ldr	x0, [x29,#40]
     420:	f9000c01 	str	x1, [x0,#24]
     424:	b0000080 	adrp	x0, 11000 <ta_props>
     428:	91036000 	add	x0, x0, #0xd8
     42c:	f9400400 	ldr	x0, [x0,#8]
     430:	f94017a1 	ldr	x1, [x29,#40]
     434:	f9000001 	str	x1, [x0]
     438:	f94017a0 	ldr	x0, [x29,#40]
     43c:	91004001 	add	x1, x0, #0x10
     440:	b0000080 	adrp	x0, 11000 <ta_props>
     444:	91036000 	add	x0, x0, #0xd8
     448:	f9000401 	str	x1, [x0,#8]
/home/optee/RPi3/optee_os/lib/libutee/arch/arm/user_ta_entry.c:114
     44c:	52800000 	mov	w0, #0x0                   	// #0
/home/optee/RPi3/optee_os/lib/libutee/arch/arm/user_ta_entry.c:115
     450:	a8c37bfd 	ldp	x29, x30, [sp],#48
     454:	d65f03c0 	ret

0000000000000458 <ta_header_remove_session>:
ta_header_remove_session():
/home/optee/RPi3/optee_os/lib/libutee/arch/arm/user_ta_entry.c:118
     458:	a9bd7bfd 	stp	x29, x30, [sp,#-48]!
     45c:	910003fd 	mov	x29, sp
     460:	b9001fa0 	str	w0, [x29,#28]
/home/optee/RPi3/optee_os/lib/libutee/arch/arm/user_ta_entry.c:121
     464:	b0000080 	adrp	x0, 11000 <ta_props>
     468:	91036000 	add	x0, x0, #0xd8
     46c:	f9400000 	ldr	x0, [x0]
     470:	f90017a0 	str	x0, [x29,#40]
     474:	1400002d 	b	528 <ta_header_remove_session+0xd0>
/home/optee/RPi3/optee_os/lib/libutee/arch/arm/user_ta_entry.c:122
     478:	f94017a0 	ldr	x0, [x29,#40]
     47c:	b9400001 	ldr	w1, [x0]
     480:	b9401fa0 	ldr	w0, [x29,#28]
     484:	6b00003f 	cmp	w1, w0
     488:	540004a1 	b.ne	51c <ta_header_remove_session+0xc4>
/home/optee/RPi3/optee_os/lib/libutee/arch/arm/user_ta_entry.c:123
     48c:	f94017a0 	ldr	x0, [x29,#40]
     490:	f9400800 	ldr	x0, [x0,#16]
     494:	eb1f001f 	cmp	x0, xzr
     498:	540000e0 	b.eq	4b4 <ta_header_remove_session+0x5c>
/home/optee/RPi3/optee_os/lib/libutee/arch/arm/user_ta_entry.c:123 (discriminator 1)
     49c:	f94017a0 	ldr	x0, [x29,#40]
     4a0:	f9400800 	ldr	x0, [x0,#16]
     4a4:	f94017a1 	ldr	x1, [x29,#40]
     4a8:	f9400c21 	ldr	x1, [x1,#24]
     4ac:	f9000c01 	str	x1, [x0,#24]
     4b0:	14000006 	b	4c8 <ta_header_remove_session+0x70>
/home/optee/RPi3/optee_os/lib/libutee/arch/arm/user_ta_entry.c:123 (discriminator 2)
     4b4:	f94017a0 	ldr	x0, [x29,#40]
     4b8:	f9400c01 	ldr	x1, [x0,#24]
     4bc:	b0000080 	adrp	x0, 11000 <ta_props>
     4c0:	91036000 	add	x0, x0, #0xd8
     4c4:	f9000401 	str	x1, [x0,#8]
/home/optee/RPi3/optee_os/lib/libutee/arch/arm/user_ta_entry.c:123 (discriminator 4)
     4c8:	f94017a0 	ldr	x0, [x29,#40]
     4cc:	f9400c00 	ldr	x0, [x0,#24]
     4d0:	f94017a1 	ldr	x1, [x29,#40]
     4d4:	f9400821 	ldr	x1, [x1,#16]
     4d8:	f9000001 	str	x1, [x0]
/home/optee/RPi3/optee_os/lib/libutee/arch/arm/user_ta_entry.c:124 (discriminator 4)
     4dc:	f94017a0 	ldr	x0, [x29,#40]
     4e0:	940006af 	bl	1f9c <TEE_Free>
/home/optee/RPi3/optee_os/lib/libutee/arch/arm/user_ta_entry.c:126 (discriminator 4)
     4e4:	f00000c0 	adrp	x0, 1b000 <buf.3336+0x2f0>
     4e8:	91346000 	add	x0, x0, #0xd18
     4ec:	b9400000 	ldr	w0, [x0]
     4f0:	51000401 	sub	w1, w0, #0x1
     4f4:	f00000c0 	adrp	x0, 1b000 <buf.3336+0x2f0>
     4f8:	91346000 	add	x0, x0, #0xd18
     4fc:	b9000001 	str	w1, [x0]
/home/optee/RPi3/optee_os/lib/libutee/arch/arm/user_ta_entry.c:127 (discriminator 4)
     500:	f00000c0 	adrp	x0, 1b000 <buf.3336+0x2f0>
     504:	91346000 	add	x0, x0, #0xd18
     508:	b9400000 	ldr	w0, [x0]
     50c:	6b1f001f 	cmp	w0, wzr
     510:	54000141 	b.ne	538 <ta_header_remove_session+0xe0>
/home/optee/RPi3/optee_os/lib/libutee/arch/arm/user_ta_entry.c:128
     514:	97fffed1 	bl	58 <TA_DestroyEntryPoint>
/home/optee/RPi3/optee_os/lib/libutee/arch/arm/user_ta_entry.c:130
     518:	14000008 	b	538 <ta_header_remove_session+0xe0>
/home/optee/RPi3/optee_os/lib/libutee/arch/arm/user_ta_entry.c:121 (discriminator 2)
     51c:	f94017a0 	ldr	x0, [x29,#40]
     520:	f9400800 	ldr	x0, [x0,#16]
     524:	f90017a0 	str	x0, [x29,#40]
/home/optee/RPi3/optee_os/lib/libutee/arch/arm/user_ta_entry.c:121 (discriminator 1)
     528:	f94017a0 	ldr	x0, [x29,#40]
     52c:	eb1f001f 	cmp	x0, xzr
     530:	54fffa41 	b.ne	478 <ta_header_remove_session+0x20>
     534:	14000002 	b	53c <ta_header_remove_session+0xe4>
/home/optee/RPi3/optee_os/lib/libutee/arch/arm/user_ta_entry.c:130
     538:	d503201f 	nop
/home/optee/RPi3/optee_os/lib/libutee/arch/arm/user_ta_entry.c:133
     53c:	a8c37bfd 	ldp	x29, x30, [sp],#48
     540:	d65f03c0 	ret

0000000000000544 <entry_open_session>:
entry_open_session():
/home/optee/RPi3/optee_os/lib/libutee/arch/arm/user_ta_entry.c:137
     544:	a9b87bfd 	stp	x29, x30, [sp,#-128]!
     548:	910003fd 	mov	x29, sp
     54c:	f9000fa0 	str	x0, [x29,#24]
     550:	f9000ba1 	str	x1, [x29,#16]
/home/optee/RPi3/optee_os/lib/libutee/arch/arm/user_ta_entry.c:143
     554:	f9400fa0 	ldr	x0, [x29,#24]
     558:	97ffff6c 	bl	308 <ta_header_add_session>
     55c:	b9007fa0 	str	w0, [x29,#124]
/home/optee/RPi3/optee_os/lib/libutee/arch/arm/user_ta_entry.c:144
     560:	b9407fa0 	ldr	w0, [x29,#124]
     564:	6b1f001f 	cmp	w0, wzr
     568:	54000060 	b.eq	574 <entry_open_session+0x30>
/home/optee/RPi3/optee_os/lib/libutee/arch/arm/user_ta_entry.c:145
     56c:	b9407fa0 	ldr	w0, [x29,#124]
     570:	14000025 	b	604 <entry_open_session+0xc0>
/home/optee/RPi3/optee_os/lib/libutee/arch/arm/user_ta_entry.c:147
     574:	f9400fa0 	ldr	x0, [x29,#24]
     578:	97ffff4d 	bl	2ac <ta_header_get_session>
     57c:	f9003ba0 	str	x0, [x29,#112]
/home/optee/RPi3/optee_os/lib/libutee/arch/arm/user_ta_entry.c:148
     580:	f9403ba0 	ldr	x0, [x29,#112]
     584:	eb1f001f 	cmp	x0, xzr
     588:	54000061 	b.ne	594 <entry_open_session+0x50>
/home/optee/RPi3/optee_os/lib/libutee/arch/arm/user_ta_entry.c:149
     58c:	129fff00 	mov	w0, #0xffff0007            	// #-65529
     590:	1400001d 	b	604 <entry_open_session+0xc0>
/home/optee/RPi3/optee_os/lib/libutee/arch/arm/user_ta_entry.c:151
     594:	9101b3a1 	add	x1, x29, #0x6c
     598:	9100a3a0 	add	x0, x29, #0x28
     59c:	f9400ba2 	ldr	x2, [x29,#16]
     5a0:	9400046e 	bl	1758 <__utee_to_param>
/home/optee/RPi3/optee_os/lib/libutee/arch/arm/user_ta_entry.c:152
     5a4:	b9406fa0 	ldr	w0, [x29,#108]
     5a8:	9100a3a1 	add	x1, x29, #0x28
     5ac:	97ffff27 	bl	248 <ta_header_save_params>
/home/optee/RPi3/optee_os/lib/libutee/arch/arm/user_ta_entry.c:154
     5b0:	b9406fa3 	ldr	w3, [x29,#108]
     5b4:	f9403ba0 	ldr	x0, [x29,#112]
     5b8:	91002001 	add	x1, x0, #0x8
     5bc:	9100a3a0 	add	x0, x29, #0x28
     5c0:	aa0103e2 	mov	x2, x1
     5c4:	aa0003e1 	mov	x1, x0
     5c8:	2a0303e0 	mov	w0, w3
     5cc:	97fffeb1 	bl	90 <TA_OpenSessionEntryPoint>
     5d0:	b9007fa0 	str	w0, [x29,#124]
/home/optee/RPi3/optee_os/lib/libutee/arch/arm/user_ta_entry.c:157
     5d4:	b9406fa0 	ldr	w0, [x29,#108]
     5d8:	9100a3a1 	add	x1, x29, #0x28
     5dc:	aa0103e2 	mov	x2, x1
     5e0:	2a0003e1 	mov	w1, w0
     5e4:	f9400ba0 	ldr	x0, [x29,#16]
     5e8:	940003fa 	bl	15d0 <__utee_from_param>
/home/optee/RPi3/optee_os/lib/libutee/arch/arm/user_ta_entry.c:159
     5ec:	b9407fa0 	ldr	w0, [x29,#124]
     5f0:	6b1f001f 	cmp	w0, wzr
     5f4:	54000060 	b.eq	600 <entry_open_session+0xbc>
/home/optee/RPi3/optee_os/lib/libutee/arch/arm/user_ta_entry.c:160
     5f8:	f9400fa0 	ldr	x0, [x29,#24]
     5fc:	97ffff97 	bl	458 <ta_header_remove_session>
/home/optee/RPi3/optee_os/lib/libutee/arch/arm/user_ta_entry.c:161
     600:	b9407fa0 	ldr	w0, [x29,#124]
/home/optee/RPi3/optee_os/lib/libutee/arch/arm/user_ta_entry.c:162 (discriminator 1)
     604:	a8c87bfd 	ldp	x29, x30, [sp],#128
     608:	d65f03c0 	ret

000000000000060c <entry_close_session>:
entry_close_session():
/home/optee/RPi3/optee_os/lib/libutee/arch/arm/user_ta_entry.c:165
     60c:	a9bd7bfd 	stp	x29, x30, [sp,#-48]!
     610:	910003fd 	mov	x29, sp
     614:	f9000fa0 	str	x0, [x29,#24]
/home/optee/RPi3/optee_os/lib/libutee/arch/arm/user_ta_entry.c:166
     618:	f9400fa0 	ldr	x0, [x29,#24]
     61c:	97ffff24 	bl	2ac <ta_header_get_session>
     620:	f90017a0 	str	x0, [x29,#40]
/home/optee/RPi3/optee_os/lib/libutee/arch/arm/user_ta_entry.c:168
     624:	f94017a0 	ldr	x0, [x29,#40]
     628:	eb1f001f 	cmp	x0, xzr
     62c:	54000061 	b.ne	638 <entry_close_session+0x2c>
/home/optee/RPi3/optee_os/lib/libutee/arch/arm/user_ta_entry.c:169
     630:	129fff00 	mov	w0, #0xffff0007            	// #-65529
     634:	14000007 	b	650 <entry_close_session+0x44>
/home/optee/RPi3/optee_os/lib/libutee/arch/arm/user_ta_entry.c:171
     638:	f94017a0 	ldr	x0, [x29,#40]
     63c:	f9400400 	ldr	x0, [x0,#8]
     640:	97fffeac 	bl	f0 <TA_CloseSessionEntryPoint>
/home/optee/RPi3/optee_os/lib/libutee/arch/arm/user_ta_entry.c:173
     644:	f9400fa0 	ldr	x0, [x29,#24]
     648:	97ffff84 	bl	458 <ta_header_remove_session>
/home/optee/RPi3/optee_os/lib/libutee/arch/arm/user_ta_entry.c:174
     64c:	52800000 	mov	w0, #0x0                   	// #0
/home/optee/RPi3/optee_os/lib/libutee/arch/arm/user_ta_entry.c:175
     650:	a8c37bfd 	ldp	x29, x30, [sp],#48
     654:	d65f03c0 	ret

0000000000000658 <entry_invoke_command>:
entry_invoke_command():
/home/optee/RPi3/optee_os/lib/libutee/arch/arm/user_ta_entry.c:179
     658:	a9b87bfd 	stp	x29, x30, [sp,#-128]!
     65c:	910003fd 	mov	x29, sp
     660:	f90017a0 	str	x0, [x29,#40]
     664:	f90013a1 	str	x1, [x29,#32]
     668:	f9000fa2 	str	x2, [x29,#24]
/home/optee/RPi3/optee_os/lib/libutee/arch/arm/user_ta_entry.c:183
     66c:	f94017a0 	ldr	x0, [x29,#40]
     670:	97ffff0f 	bl	2ac <ta_header_get_session>
     674:	f9003fa0 	str	x0, [x29,#120]
/home/optee/RPi3/optee_os/lib/libutee/arch/arm/user_ta_entry.c:185
     678:	f9403fa0 	ldr	x0, [x29,#120]
     67c:	eb1f001f 	cmp	x0, xzr
     680:	54000061 	b.ne	68c <entry_invoke_command+0x34>
/home/optee/RPi3/optee_os/lib/libutee/arch/arm/user_ta_entry.c:186
     684:	129fff00 	mov	w0, #0xffff0007            	// #-65529
     688:	1400001a 	b	6f0 <entry_invoke_command+0x98>
/home/optee/RPi3/optee_os/lib/libutee/arch/arm/user_ta_entry.c:188
     68c:	9101c3a1 	add	x1, x29, #0x70
     690:	9100c3a0 	add	x0, x29, #0x30
     694:	f94013a2 	ldr	x2, [x29,#32]
     698:	94000430 	bl	1758 <__utee_to_param>
/home/optee/RPi3/optee_os/lib/libutee/arch/arm/user_ta_entry.c:189
     69c:	b94073a0 	ldr	w0, [x29,#112]
     6a0:	9100c3a1 	add	x1, x29, #0x30
     6a4:	97fffee9 	bl	248 <ta_header_save_params>
/home/optee/RPi3/optee_os/lib/libutee/arch/arm/user_ta_entry.c:191
     6a8:	f9403fa0 	ldr	x0, [x29,#120]
     6ac:	f9400400 	ldr	x0, [x0,#8]
     6b0:	f9400fa1 	ldr	x1, [x29,#24]
     6b4:	2a0103e4 	mov	w4, w1
     6b8:	b94073a1 	ldr	w1, [x29,#112]
     6bc:	9100c3a2 	add	x2, x29, #0x30
     6c0:	aa0203e3 	mov	x3, x2
     6c4:	2a0103e2 	mov	w2, w1
     6c8:	2a0403e1 	mov	w1, w4
     6cc:	97fffecd 	bl	200 <TA_InvokeCommandEntryPoint>
     6d0:	b90077a0 	str	w0, [x29,#116]
/home/optee/RPi3/optee_os/lib/libutee/arch/arm/user_ta_entry.c:194
     6d4:	b94073a0 	ldr	w0, [x29,#112]
     6d8:	9100c3a1 	add	x1, x29, #0x30
     6dc:	aa0103e2 	mov	x2, x1
     6e0:	2a0003e1 	mov	w1, w0
     6e4:	f94013a0 	ldr	x0, [x29,#32]
     6e8:	940003ba 	bl	15d0 <__utee_from_param>
/home/optee/RPi3/optee_os/lib/libutee/arch/arm/user_ta_entry.c:195
     6ec:	b94077a0 	ldr	w0, [x29,#116]
/home/optee/RPi3/optee_os/lib/libutee/arch/arm/user_ta_entry.c:196 (discriminator 1)
     6f0:	a8c87bfd 	ldp	x29, x30, [sp],#128
     6f4:	d65f03c0 	ret

00000000000006f8 <__utee_entry>:
__utee_entry():
/home/optee/RPi3/optee_os/lib/libutee/arch/arm/user_ta_entry.c:200
     6f8:	a9bc7bfd 	stp	x29, x30, [sp,#-64]!
     6fc:	910003fd 	mov	x29, sp
     700:	f90017a0 	str	x0, [x29,#40]
     704:	f90013a1 	str	x1, [x29,#32]
     708:	f9000fa2 	str	x2, [x29,#24]
     70c:	f9000ba3 	str	x3, [x29,#16]
/home/optee/RPi3/optee_os/lib/libutee/arch/arm/user_ta_entry.c:203
     710:	f94017a0 	ldr	x0, [x29,#40]
     714:	f100041f 	cmp	x0, #0x1
     718:	54000160 	b.eq	744 <__utee_entry+0x4c>
     71c:	f100041f 	cmp	x0, #0x1
     720:	54000083 	b.cc	730 <__utee_entry+0x38>
     724:	f100081f 	cmp	x0, #0x2
     728:	54000160 	b.eq	754 <__utee_entry+0x5c>
     72c:	14000010 	b	76c <__utee_entry+0x74>
/home/optee/RPi3/optee_os/lib/libutee/arch/arm/user_ta_entry.c:205
     730:	f9400fa1 	ldr	x1, [x29,#24]
     734:	f94013a0 	ldr	x0, [x29,#32]
     738:	97ffff83 	bl	544 <entry_open_session>
     73c:	b9003fa0 	str	w0, [x29,#60]
/home/optee/RPi3/optee_os/lib/libutee/arch/arm/user_ta_entry.c:206
     740:	1400001a 	b	7a8 <__utee_entry+0xb0>
/home/optee/RPi3/optee_os/lib/libutee/arch/arm/user_ta_entry.c:208
     744:	f94013a0 	ldr	x0, [x29,#32]
     748:	97ffffb1 	bl	60c <entry_close_session>
     74c:	b9003fa0 	str	w0, [x29,#60]
/home/optee/RPi3/optee_os/lib/libutee/arch/arm/user_ta_entry.c:209
     750:	14000016 	b	7a8 <__utee_entry+0xb0>
/home/optee/RPi3/optee_os/lib/libutee/arch/arm/user_ta_entry.c:211
     754:	f9400ba2 	ldr	x2, [x29,#16]
     758:	f9400fa1 	ldr	x1, [x29,#24]
     75c:	f94013a0 	ldr	x0, [x29,#32]
     760:	97ffffbe 	bl	658 <entry_invoke_command>
     764:	b9003fa0 	str	w0, [x29,#60]
/home/optee/RPi3/optee_os/lib/libutee/arch/arm/user_ta_entry.c:212
     768:	14000010 	b	7a8 <__utee_entry+0xb0>
/home/optee/RPi3/optee_os/lib/libutee/arch/arm/user_ta_entry.c:214
     76c:	12800000 	mov	w0, #0xffffffff            	// #-1
     770:	b9003fa0 	str	w0, [x29,#60]
/home/optee/RPi3/optee_os/lib/libutee/arch/arm/user_ta_entry.c:215
     774:	d0000060 	adrp	x0, e000 <mpa_set_oct_str+0xa8>
     778:	912c6001 	add	x1, x0, #0xb18
     77c:	d0000060 	adrp	x0, e000 <mpa_set_oct_str+0xa8>
     780:	912ca000 	add	x0, x0, #0xb28
     784:	52800005 	mov	w5, #0x0                   	// #0
     788:	aa0103e4 	mov	x4, x1
     78c:	52800023 	mov	w3, #0x1                   	// #1
     790:	52800022 	mov	w2, #0x1                   	// #1
     794:	52801ae1 	mov	w1, #0xd7                  	// #215
     798:	94001bd3 	bl	76e4 <trace_printf>
     79c:	52800000 	mov	w0, #0x0                   	// #0
     7a0:	94000625 	bl	2034 <__TEE_Panic>
/home/optee/RPi3/optee_os/lib/libutee/arch/arm/user_ta_entry.c:216
     7a4:	d503201f 	nop
/home/optee/RPi3/optee_os/lib/libutee/arch/arm/user_ta_entry.c:218
     7a8:	d2800001 	mov	x1, #0x0                   	// #0
     7ac:	52800000 	mov	w0, #0x0                   	// #0
     7b0:	97fffea6 	bl	248 <ta_header_save_params>
/home/optee/RPi3/optee_os/lib/libutee/arch/arm/user_ta_entry.c:219
     7b4:	b9403fa0 	ldr	w0, [x29,#60]
     7b8:	9400377e 	bl	e5b0 <utee_return>

00000000000007bc <TEE_BigInt_Panic>:
TEE_BigInt_Panic():
/home/optee/RPi3/optee_os/lib/libutee/tee_api_arith.c:63
     7bc:	a9be7bfd 	stp	x29, x30, [sp,#-32]!
     7c0:	910003fd 	mov	x29, sp
     7c4:	f9000fa0 	str	x0, [x29,#24]
/home/optee/RPi3/optee_os/lib/libutee/tee_api_arith.c:64
     7c8:	d0000060 	adrp	x0, e000 <mpa_set_oct_str+0xa8>
     7cc:	912ce000 	add	x0, x0, #0xb38
     7d0:	f9400fa1 	ldr	x1, [x29,#24]
     7d4:	940008d6 	bl	2b2c <printf>
/home/optee/RPi3/optee_os/lib/libutee/tee_api_arith.c:65
     7d8:	d0000060 	adrp	x0, e000 <mpa_set_oct_str+0xa8>
     7dc:	912d2001 	add	x1, x0, #0xb48
     7e0:	d0000060 	adrp	x0, e000 <mpa_set_oct_str+0xa8>
     7e4:	912ec000 	add	x0, x0, #0xbb0
     7e8:	528c24e5 	mov	w5, #0x6127                	// #24871
     7ec:	72a01625 	movk	w5, #0xb1, lsl #16
     7f0:	aa0103e4 	mov	x4, x1
     7f4:	52800023 	mov	w3, #0x1                   	// #1
     7f8:	52800022 	mov	w2, #0x1                   	// #1
     7fc:	52800821 	mov	w1, #0x41                  	// #65
     800:	94001bb9 	bl	76e4 <trace_printf>
     804:	528c24e0 	mov	w0, #0x6127                	// #24871
     808:	72a01620 	movk	w0, #0xb1, lsl #16
     80c:	9400060a 	bl	2034 <__TEE_Panic>
/home/optee/RPi3/optee_os/lib/libutee/tee_api_arith.c:67 (discriminator 1)
     810:	14000000 	b	810 <TEE_BigInt_Panic+0x54>

0000000000000814 <_TEE_MathAPI_Init>:
_TEE_MathAPI_Init():
/home/optee/RPi3/optee_os/lib/libutee/tee_api_arith.c:78
     814:	a9bf7bfd 	stp	x29, x30, [sp,#-16]!
     818:	910003fd 	mov	x29, sp
/home/optee/RPi3/optee_os/lib/libutee/tee_api_arith.c:79
     81c:	b0000080 	adrp	x0, 11000 <ta_props>
     820:	9103a000 	add	x0, x0, #0xe8
     824:	f9400000 	ldr	x0, [x0]
     828:	52810002 	mov	w2, #0x800                 	// #2048
     82c:	d2836801 	mov	x1, #0x1b40                	// #6976
     830:	9400284a 	bl	a958 <mpa_init_scratch_mem>
/home/optee/RPi3/optee_os/lib/libutee/tee_api_arith.c:81
     834:	90000080 	adrp	x0, 10000 <PRIME_TABLE+0x9c8>
     838:	f9433800 	ldr	x0, [x0,#1648]
     83c:	94002a90 	bl	b27c <mpa_set_random_generator>
/home/optee/RPi3/optee_os/lib/libutee/tee_api_arith.c:82
     840:	d503201f 	nop
     844:	a8c17bfd 	ldp	x29, x30, [sp],#16
     848:	d65f03c0 	ret

000000000000084c <TEE_BigIntInit>:
TEE_BigIntInit():
/home/optee/RPi3/optee_os/lib/libutee/tee_api_arith.c:88
     84c:	a9be7bfd 	stp	x29, x30, [sp,#-32]!
     850:	910003fd 	mov	x29, sp
     854:	f9000fa0 	str	x0, [x29,#24]
     858:	b90017a1 	str	w1, [x29,#20]
/home/optee/RPi3/optee_os/lib/libutee/tee_api_arith.c:89
     85c:	b94017a1 	ldr	w1, [x29,#20]
     860:	f9400fa0 	ldr	x0, [x29,#24]
     864:	940032ad 	bl	d318 <mpa_init_static>
/home/optee/RPi3/optee_os/lib/libutee/tee_api_arith.c:90
     868:	d503201f 	nop
     86c:	a8c27bfd 	ldp	x29, x30, [sp],#32
     870:	d65f03c0 	ret

0000000000000874 <TEE_BigIntInitFMM>:
TEE_BigIntInitFMM():
/home/optee/RPi3/optee_os/lib/libutee/tee_api_arith.c:96
     874:	d10083ff 	sub	sp, sp, #0x20
     878:	f90007e0 	str	x0, [sp,#8]
     87c:	b90007e1 	str	w1, [sp,#4]
/home/optee/RPi3/optee_os/lib/libutee/tee_api_arith.c:97
     880:	f94007e0 	ldr	x0, [sp,#8]
     884:	f9000fe0 	str	x0, [sp,#24]
/home/optee/RPi3/optee_os/lib/libutee/tee_api_arith.c:99
     888:	b94007e1 	ldr	w1, [sp,#4]
     88c:	321f73e0 	mov	w0, #0x3ffffffe            	// #1073741822
     890:	0b000020 	add	w0, w1, w0
     894:	531e7400 	lsl	w0, w0, #2
     898:	2a0003e0 	mov	w0, w0
     89c:	91000c00 	add	x0, x0, #0x3
     8a0:	d342fc00 	lsr	x0, x0, #2
     8a4:	2a0003e1 	mov	w1, w0
     8a8:	f9400fe0 	ldr	x0, [sp,#24]
     8ac:	b9000001 	str	w1, [x0]
/home/optee/RPi3/optee_os/lib/libutee/tee_api_arith.c:100
     8b0:	f9400fe0 	ldr	x0, [sp,#24]
     8b4:	b900041f 	str	wzr, [x0,#4]
/home/optee/RPi3/optee_os/lib/libutee/tee_api_arith.c:101
     8b8:	d503201f 	nop
     8bc:	910083ff 	add	sp, sp, #0x20
     8c0:	d65f03c0 	ret

00000000000008c4 <TEE_BigIntInitFMMContext>:
TEE_BigIntInitFMMContext():
/home/optee/RPi3/optee_os/lib/libutee/tee_api_arith.c:108
     8c4:	a9bc7bfd 	stp	x29, x30, [sp,#-64]!
     8c8:	910003fd 	mov	x29, sp
     8cc:	f90017a0 	str	x0, [x29,#40]
     8d0:	b90027a1 	str	w1, [x29,#36]
     8d4:	f9000fa2 	str	x2, [x29,#24]
/home/optee/RPi3/optee_os/lib/libutee/tee_api_arith.c:109
     8d8:	f94017a0 	ldr	x0, [x29,#40]
     8dc:	f9001fa0 	str	x0, [x29,#56]
/home/optee/RPi3/optee_os/lib/libutee/tee_api_arith.c:110
     8e0:	f9400fa0 	ldr	x0, [x29,#24]
     8e4:	f9001ba0 	str	x0, [x29,#48]
/home/optee/RPi3/optee_os/lib/libutee/tee_api_arith.c:112
     8e8:	b94027a1 	ldr	w1, [x29,#36]
     8ec:	f9401fa0 	ldr	x0, [x29,#56]
     8f0:	940032a2 	bl	d378 <mpa_init_static_fmm_context>
/home/optee/RPi3/optee_os/lib/libutee/tee_api_arith.c:113
     8f4:	f9401fa0 	ldr	x0, [x29,#56]
     8f8:	f9400001 	ldr	x1, [x0]
     8fc:	f9401fa0 	ldr	x0, [x29,#56]
     900:	f9400402 	ldr	x2, [x0,#8]
     904:	f9401fa0 	ldr	x0, [x29,#56]
     908:	91004003 	add	x3, x0, #0x10
     90c:	b0000080 	adrp	x0, 11000 <ta_props>
     910:	9103a000 	add	x0, x0, #0xe8
     914:	f9400000 	ldr	x0, [x0]
     918:	aa0003e4 	mov	x4, x0
     91c:	f9401ba0 	ldr	x0, [x29,#48]
     920:	94001ecd 	bl	8454 <mpa_compute_fmm_context>
/home/optee/RPi3/optee_os/lib/libutee/tee_api_arith.c:116
     924:	d503201f 	nop
     928:	a8c47bfd 	ldp	x29, x30, [sp],#64
     92c:	d65f03c0 	ret

0000000000000930 <TEE_BigIntFMMSizeInU32>:
TEE_BigIntFMMSizeInU32():
/home/optee/RPi3/optee_os/lib/libutee/tee_api_arith.c:126
     930:	d10043ff 	sub	sp, sp, #0x10
     934:	b9000fe0 	str	w0, [sp,#12]
/home/optee/RPi3/optee_os/lib/libutee/tee_api_arith.c:127
     938:	b9400fe0 	ldr	w0, [sp,#12]
     93c:	11007c00 	add	w0, w0, #0x1f
     940:	53057c00 	lsr	w0, w0, #5
     944:	11000c00 	add	w0, w0, #0x3
/home/optee/RPi3/optee_os/lib/libutee/tee_api_arith.c:128
     948:	910043ff 	add	sp, sp, #0x10
     94c:	d65f03c0 	ret

0000000000000950 <TEE_BigIntFMMContextSizeInU32>:
TEE_BigIntFMMContextSizeInU32():
/home/optee/RPi3/optee_os/lib/libutee/tee_api_arith.c:134
     950:	d10043ff 	sub	sp, sp, #0x10
     954:	b9000fe0 	str	w0, [sp,#12]
/home/optee/RPi3/optee_os/lib/libutee/tee_api_arith.c:135
     958:	b9400fe0 	ldr	w0, [sp,#12]
     95c:	11007c00 	add	w0, w0, #0x1f
     960:	53057c00 	lsr	w0, w0, #5
     964:	11001c00 	add	w0, w0, #0x7
     968:	531f7800 	lsl	w0, w0, #1
/home/optee/RPi3/optee_os/lib/libutee/tee_api_arith.c:136
     96c:	910043ff 	add	sp, sp, #0x10
     970:	d65f03c0 	ret

0000000000000974 <TEE_BigIntConvertFromOctetString>:
TEE_BigIntConvertFromOctetString():
/home/optee/RPi3/optee_os/lib/libutee/tee_api_arith.c:149
     974:	a9bb7bfd 	stp	x29, x30, [sp,#-80]!
     978:	910003fd 	mov	x29, sp
     97c:	f90017a0 	str	x0, [x29,#40]
     980:	f90013a1 	str	x1, [x29,#32]
     984:	b9001fa2 	str	w2, [x29,#28]
     988:	b9001ba3 	str	w3, [x29,#24]
/home/optee/RPi3/optee_os/lib/libutee/tee_api_arith.c:151
     98c:	f94017a0 	ldr	x0, [x29,#40]
     990:	f90023a0 	str	x0, [x29,#64]
/home/optee/RPi3/optee_os/lib/libutee/tee_api_arith.c:152
     994:	b9401ba0 	ldr	w0, [x29,#24]
     998:	531f7c00 	lsr	w0, w0, #31
     99c:	3900ffa0 	strb	w0, [x29,#63]
/home/optee/RPi3/optee_os/lib/libutee/tee_api_arith.c:154
     9a0:	b9401fa0 	ldr	w0, [x29,#28]
     9a4:	3940ffa3 	ldrb	w3, [x29,#63]
     9a8:	aa0003e2 	mov	x2, x0
     9ac:	f94013a1 	ldr	x1, [x29,#32]
     9b0:	f94023a0 	ldr	x0, [x29,#64]
     9b4:	94003569 	bl	df58 <mpa_set_oct_str>
     9b8:	6b1f001f 	cmp	w0, wzr
     9bc:	54000080 	b.eq	9cc <TEE_BigIntConvertFromOctetString+0x58>
/home/optee/RPi3/optee_os/lib/libutee/tee_api_arith.c:155
     9c0:	1299fe00 	mov	w0, #0xffff300f            	// #-53233
     9c4:	b9004fa0 	str	w0, [x29,#76]
     9c8:	14000002 	b	9d0 <TEE_BigIntConvertFromOctetString+0x5c>
/home/optee/RPi3/optee_os/lib/libutee/tee_api_arith.c:157
     9cc:	b9004fbf 	str	wzr, [x29,#76]
/home/optee/RPi3/optee_os/lib/libutee/tee_api_arith.c:159
     9d0:	b9404fa0 	ldr	w0, [x29,#76]
     9d4:	6b1f001f 	cmp	w0, wzr
     9d8:	54000220 	b.eq	a1c <TEE_BigIntConvertFromOctetString+0xa8>
/home/optee/RPi3/optee_os/lib/libutee/tee_api_arith.c:159 (discriminator 1)
     9dc:	b9404fa1 	ldr	w1, [x29,#76]
     9e0:	1299fe00 	mov	w0, #0xffff300f            	// #-53233
     9e4:	6b00003f 	cmp	w1, w0
     9e8:	540001a0 	b.eq	a1c <TEE_BigIntConvertFromOctetString+0xa8>
/home/optee/RPi3/optee_os/lib/libutee/tee_api_arith.c:161
     9ec:	d0000060 	adrp	x0, e000 <mpa_set_oct_str+0xa8>
     9f0:	912d2001 	add	x1, x0, #0xb48
     9f4:	d0000060 	adrp	x0, e000 <mpa_set_oct_str+0xa8>
     9f8:	912f2000 	add	x0, x0, #0xbc8
     9fc:	b9404fa5 	ldr	w5, [x29,#76]
     a00:	aa0103e4 	mov	x4, x1
     a04:	52800023 	mov	w3, #0x1                   	// #1
     a08:	52800022 	mov	w2, #0x1                   	// #1
     a0c:	52801421 	mov	w1, #0xa1                  	// #161
     a10:	94001b35 	bl	76e4 <trace_printf>
     a14:	b9404fa0 	ldr	w0, [x29,#76]
     a18:	94000587 	bl	2034 <__TEE_Panic>
/home/optee/RPi3/optee_os/lib/libutee/tee_api_arith.c:163
     a1c:	b9404fa0 	ldr	w0, [x29,#76]
/home/optee/RPi3/optee_os/lib/libutee/tee_api_arith.c:164
     a20:	a8c57bfd 	ldp	x29, x30, [sp],#80
     a24:	d65f03c0 	ret

0000000000000a28 <TEE_BigIntConvertToOctetString>:
TEE_BigIntConvertToOctetString():
/home/optee/RPi3/optee_os/lib/libutee/tee_api_arith.c:172
     a28:	a9bb7bfd 	stp	x29, x30, [sp,#-80]!
     a2c:	910003fd 	mov	x29, sp
     a30:	f90017a0 	str	x0, [x29,#40]
     a34:	f90013a1 	str	x1, [x29,#32]
     a38:	f9000fa2 	str	x2, [x29,#24]
/home/optee/RPi3/optee_os/lib/libutee/tee_api_arith.c:173
     a3c:	f9400fa0 	ldr	x0, [x29,#24]
     a40:	f90023a0 	str	x0, [x29,#64]
/home/optee/RPi3/optee_os/lib/libutee/tee_api_arith.c:174
     a44:	f94013a0 	ldr	x0, [x29,#32]
     a48:	b9400000 	ldr	w0, [x0]
     a4c:	2a0003e0 	mov	w0, w0
     a50:	f9001fa0 	str	x0, [x29,#56]
/home/optee/RPi3/optee_os/lib/libutee/tee_api_arith.c:177
     a54:	9100e3a0 	add	x0, x29, #0x38
     a58:	f94023a2 	ldr	x2, [x29,#64]
     a5c:	aa0003e1 	mov	x1, x0
     a60:	f94017a0 	ldr	x0, [x29,#40]
     a64:	940035b3 	bl	e130 <mpa_get_oct_str>
     a68:	6b1f001f 	cmp	w0, wzr
     a6c:	54000080 	b.eq	a7c <TEE_BigIntConvertToOctetString+0x54>
/home/optee/RPi3/optee_os/lib/libutee/tee_api_arith.c:178
     a70:	129ffde0 	mov	w0, #0xffff0010            	// #-65520
     a74:	b9004fa0 	str	w0, [x29,#76]
     a78:	14000002 	b	a80 <TEE_BigIntConvertToOctetString+0x58>
/home/optee/RPi3/optee_os/lib/libutee/tee_api_arith.c:180
     a7c:	b9004fbf 	str	wzr, [x29,#76]
/home/optee/RPi3/optee_os/lib/libutee/tee_api_arith.c:182
     a80:	f9401fa0 	ldr	x0, [x29,#56]
     a84:	2a0003e1 	mov	w1, w0
     a88:	f94013a0 	ldr	x0, [x29,#32]
     a8c:	b9000001 	str	w1, [x0]
/home/optee/RPi3/optee_os/lib/libutee/tee_api_arith.c:184
     a90:	b9404fa0 	ldr	w0, [x29,#76]
     a94:	6b1f001f 	cmp	w0, wzr
     a98:	54000220 	b.eq	adc <TEE_BigIntConvertToOctetString+0xb4>
/home/optee/RPi3/optee_os/lib/libutee/tee_api_arith.c:184 (discriminator 1)
     a9c:	b9404fa1 	ldr	w1, [x29,#76]
     aa0:	129ffde0 	mov	w0, #0xffff0010            	// #-65520
     aa4:	6b00003f 	cmp	w1, w0
     aa8:	540001a0 	b.eq	adc <TEE_BigIntConvertToOctetString+0xb4>
/home/optee/RPi3/optee_os/lib/libutee/tee_api_arith.c:186
     aac:	d0000060 	adrp	x0, e000 <mpa_set_oct_str+0xa8>
     ab0:	912d2001 	add	x1, x0, #0xb48
     ab4:	d0000060 	adrp	x0, e000 <mpa_set_oct_str+0xa8>
     ab8:	912fc000 	add	x0, x0, #0xbf0
     abc:	b9404fa5 	ldr	w5, [x29,#76]
     ac0:	aa0103e4 	mov	x4, x1
     ac4:	52800023 	mov	w3, #0x1                   	// #1
     ac8:	52800022 	mov	w2, #0x1                   	// #1
     acc:	52801741 	mov	w1, #0xba                  	// #186
     ad0:	94001b05 	bl	76e4 <trace_printf>
     ad4:	b9404fa0 	ldr	w0, [x29,#76]
     ad8:	94000557 	bl	2034 <__TEE_Panic>
/home/optee/RPi3/optee_os/lib/libutee/tee_api_arith.c:188
     adc:	b9404fa0 	ldr	w0, [x29,#76]
/home/optee/RPi3/optee_os/lib/libutee/tee_api_arith.c:189
     ae0:	a8c57bfd 	ldp	x29, x30, [sp],#80
     ae4:	d65f03c0 	ret

0000000000000ae8 <TEE_BigIntConvertFromS32>:
TEE_BigIntConvertFromS32():
/home/optee/RPi3/optee_os/lib/libutee/tee_api_arith.c:195
     ae8:	a9bd7bfd 	stp	x29, x30, [sp,#-48]!
     aec:	910003fd 	mov	x29, sp
     af0:	f9000fa0 	str	x0, [x29,#24]
     af4:	b90017a1 	str	w1, [x29,#20]
/home/optee/RPi3/optee_os/lib/libutee/tee_api_arith.c:196
     af8:	f9400fa0 	ldr	x0, [x29,#24]
     afc:	f90017a0 	str	x0, [x29,#40]
/home/optee/RPi3/optee_os/lib/libutee/tee_api_arith.c:199
     b00:	b94017a1 	ldr	w1, [x29,#20]
     b04:	f94017a0 	ldr	x0, [x29,#40]
     b08:	94002029 	bl	8bac <mpa_set_S32>
/home/optee/RPi3/optee_os/lib/libutee/tee_api_arith.c:203
     b0c:	d503201f 	nop
     b10:	a8c37bfd 	ldp	x29, x30, [sp],#48
     b14:	d65f03c0 	ret

0000000000000b18 <TEE_BigIntConvertToS32>:
TEE_BigIntConvertToS32():
/home/optee/RPi3/optee_os/lib/libutee/tee_api_arith.c:209
     b18:	a9bd7bfd 	stp	x29, x30, [sp,#-48]!
     b1c:	910003fd 	mov	x29, sp
     b20:	f9000fa0 	str	x0, [x29,#24]
     b24:	f9000ba1 	str	x1, [x29,#16]
/home/optee/RPi3/optee_os/lib/libutee/tee_api_arith.c:211
     b28:	f9400ba0 	ldr	x0, [x29,#16]
     b2c:	f90013a0 	str	x0, [x29,#32]
/home/optee/RPi3/optee_os/lib/libutee/tee_api_arith.c:213
     b30:	f94013a1 	ldr	x1, [x29,#32]
     b34:	f9400fa0 	ldr	x0, [x29,#24]
     b38:	94002037 	bl	8c14 <mpa_get_S32>
     b3c:	6b1f001f 	cmp	w0, wzr
     b40:	54000061 	b.ne	b4c <TEE_BigIntConvertToS32+0x34>
/home/optee/RPi3/optee_os/lib/libutee/tee_api_arith.c:214
     b44:	b9002fbf 	str	wzr, [x29,#44]
     b48:	14000003 	b	b54 <TEE_BigIntConvertToS32+0x3c>
/home/optee/RPi3/optee_os/lib/libutee/tee_api_arith.c:216
     b4c:	1299fe00 	mov	w0, #0xffff300f            	// #-53233
     b50:	b9002fa0 	str	w0, [x29,#44]
/home/optee/RPi3/optee_os/lib/libutee/tee_api_arith.c:218
     b54:	b9402fa0 	ldr	w0, [x29,#44]
     b58:	6b1f001f 	cmp	w0, wzr
     b5c:	54000220 	b.eq	ba0 <TEE_BigIntConvertToS32+0x88>
/home/optee/RPi3/optee_os/lib/libutee/tee_api_arith.c:218 (discriminator 1)
     b60:	b9402fa1 	ldr	w1, [x29,#44]
     b64:	1299fe00 	mov	w0, #0xffff300f            	// #-53233
     b68:	6b00003f 	cmp	w1, w0
     b6c:	540001a0 	b.eq	ba0 <TEE_BigIntConvertToS32+0x88>
/home/optee/RPi3/optee_os/lib/libutee/tee_api_arith.c:220
     b70:	d0000060 	adrp	x0, e000 <mpa_set_oct_str+0xa8>
     b74:	912d2001 	add	x1, x0, #0xb48
     b78:	d0000060 	adrp	x0, e000 <mpa_set_oct_str+0xa8>
     b7c:	91304000 	add	x0, x0, #0xc10
     b80:	b9402fa5 	ldr	w5, [x29,#44]
     b84:	aa0103e4 	mov	x4, x1
     b88:	52800023 	mov	w3, #0x1                   	// #1
     b8c:	52800022 	mov	w2, #0x1                   	// #1
     b90:	52801b81 	mov	w1, #0xdc                  	// #220
     b94:	94001ad4 	bl	76e4 <trace_printf>
     b98:	b9402fa0 	ldr	w0, [x29,#44]
     b9c:	94000526 	bl	2034 <__TEE_Panic>
/home/optee/RPi3/optee_os/lib/libutee/tee_api_arith.c:222
     ba0:	b9402fa0 	ldr	w0, [x29,#44]
/home/optee/RPi3/optee_os/lib/libutee/tee_api_arith.c:223
     ba4:	a8c37bfd 	ldp	x29, x30, [sp],#48
     ba8:	d65f03c0 	ret

0000000000000bac <TEE_BigIntCmp>:
TEE_BigIntCmp():
/home/optee/RPi3/optee_os/lib/libutee/tee_api_arith.c:233
     bac:	a9bd7bfd 	stp	x29, x30, [sp,#-48]!
     bb0:	910003fd 	mov	x29, sp
     bb4:	f9000fa0 	str	x0, [x29,#24]
     bb8:	f9000ba1 	str	x1, [x29,#16]
/home/optee/RPi3/optee_os/lib/libutee/tee_api_arith.c:234
     bbc:	f9400fa0 	ldr	x0, [x29,#24]
     bc0:	f90017a0 	str	x0, [x29,#40]
/home/optee/RPi3/optee_os/lib/libutee/tee_api_arith.c:235
     bc4:	f9400ba0 	ldr	x0, [x29,#16]
     bc8:	f90013a0 	str	x0, [x29,#32]
/home/optee/RPi3/optee_os/lib/libutee/tee_api_arith.c:237
     bcc:	f94013a1 	ldr	x1, [x29,#32]
     bd0:	f94017a0 	ldr	x0, [x29,#40]
     bd4:	940030e9 	bl	cf78 <mpa_cmp>
/home/optee/RPi3/optee_os/lib/libutee/tee_api_arith.c:238
     bd8:	a8c37bfd 	ldp	x29, x30, [sp],#48
     bdc:	d65f03c0 	ret

0000000000000be0 <TEE_BigIntCmpS32>:
TEE_BigIntCmpS32():
/home/optee/RPi3/optee_os/lib/libutee/tee_api_arith.c:244
     be0:	a9bd7bfd 	stp	x29, x30, [sp,#-48]!
     be4:	910003fd 	mov	x29, sp
     be8:	f9000fa0 	str	x0, [x29,#24]
     bec:	b90017a1 	str	w1, [x29,#20]
/home/optee/RPi3/optee_os/lib/libutee/tee_api_arith.c:245
     bf0:	f9400fa0 	ldr	x0, [x29,#24]
     bf4:	f90017a0 	str	x0, [x29,#40]
/home/optee/RPi3/optee_os/lib/libutee/tee_api_arith.c:247
     bf8:	b94017a1 	ldr	w1, [x29,#20]
     bfc:	f94017a0 	ldr	x0, [x29,#40]
     c00:	94003115 	bl	d054 <mpa_cmp_short>
/home/optee/RPi3/optee_os/lib/libutee/tee_api_arith.c:248
     c04:	a8c37bfd 	ldp	x29, x30, [sp],#48
     c08:	d65f03c0 	ret

0000000000000c0c <TEE_BigIntShiftRight>:
TEE_BigIntShiftRight():
/home/optee/RPi3/optee_os/lib/libutee/tee_api_arith.c:255
     c0c:	a9bc7bfd 	stp	x29, x30, [sp,#-64]!
     c10:	910003fd 	mov	x29, sp
     c14:	f90017a0 	str	x0, [x29,#40]
     c18:	f90013a1 	str	x1, [x29,#32]
     c1c:	f9000fa2 	str	x2, [x29,#24]
/home/optee/RPi3/optee_os/lib/libutee/tee_api_arith.c:256
     c20:	f94017a0 	ldr	x0, [x29,#40]
     c24:	f9001fa0 	str	x0, [x29,#56]
/home/optee/RPi3/optee_os/lib/libutee/tee_api_arith.c:257
     c28:	f94013a0 	ldr	x0, [x29,#32]
     c2c:	f9001ba0 	str	x0, [x29,#48]
/home/optee/RPi3/optee_os/lib/libutee/tee_api_arith.c:259
     c30:	f9400fa0 	ldr	x0, [x29,#24]
     c34:	2a0003e2 	mov	w2, w0
     c38:	f9401ba1 	ldr	x1, [x29,#48]
     c3c:	f9401fa0 	ldr	x0, [x29,#56]
     c40:	94002b95 	bl	ba94 <mpa_shift_right>
/home/optee/RPi3/optee_os/lib/libutee/tee_api_arith.c:260
     c44:	d503201f 	nop
     c48:	a8c47bfd 	ldp	x29, x30, [sp],#64
     c4c:	d65f03c0 	ret

0000000000000c50 <TEE_BigIntGetBit>:
TEE_BigIntGetBit():
/home/optee/RPi3/optee_os/lib/libutee/tee_api_arith.c:266
     c50:	a9bd7bfd 	stp	x29, x30, [sp,#-48]!
     c54:	910003fd 	mov	x29, sp
     c58:	f9000fa0 	str	x0, [x29,#24]
     c5c:	b90017a1 	str	w1, [x29,#20]
/home/optee/RPi3/optee_os/lib/libutee/tee_api_arith.c:267
     c60:	f9400fa0 	ldr	x0, [x29,#24]
     c64:	f90017a0 	str	x0, [x29,#40]
/home/optee/RPi3/optee_os/lib/libutee/tee_api_arith.c:269
     c68:	b94017a1 	ldr	w1, [x29,#20]
     c6c:	f94017a0 	ldr	x0, [x29,#40]
     c70:	94001c99 	bl	7ed4 <mpa_get_bit>
     c74:	6b1f001f 	cmp	w0, wzr
     c78:	1a9f07e0 	cset	w0, ne
     c7c:	53001c00 	uxtb	w0, w0
/home/optee/RPi3/optee_os/lib/libutee/tee_api_arith.c:270
     c80:	a8c37bfd 	ldp	x29, x30, [sp],#48
     c84:	d65f03c0 	ret

0000000000000c88 <TEE_BigIntGetBitCount>:
TEE_BigIntGetBitCount():
/home/optee/RPi3/optee_os/lib/libutee/tee_api_arith.c:276
     c88:	a9bd7bfd 	stp	x29, x30, [sp,#-48]!
     c8c:	910003fd 	mov	x29, sp
     c90:	f9000fa0 	str	x0, [x29,#24]
/home/optee/RPi3/optee_os/lib/libutee/tee_api_arith.c:277
     c94:	f9400fa0 	ldr	x0, [x29,#24]
     c98:	f90017a0 	str	x0, [x29,#40]
/home/optee/RPi3/optee_os/lib/libutee/tee_api_arith.c:279
     c9c:	f94017a0 	ldr	x0, [x29,#40]
     ca0:	94001c5f 	bl	7e1c <mpa_highest_bit_index>
     ca4:	11000400 	add	w0, w0, #0x1
/home/optee/RPi3/optee_os/lib/libutee/tee_api_arith.c:280
     ca8:	a8c37bfd 	ldp	x29, x30, [sp],#48
     cac:	d65f03c0 	ret

0000000000000cb0 <TEE_BigIntAdd>:
TEE_BigIntAdd():
/home/optee/RPi3/optee_os/lib/libutee/tee_api_arith.c:291
     cb0:	a9bb7bfd 	stp	x29, x30, [sp,#-80]!
     cb4:	910003fd 	mov	x29, sp
     cb8:	f90017a0 	str	x0, [x29,#40]
     cbc:	f90013a1 	str	x1, [x29,#32]
     cc0:	f9000fa2 	str	x2, [x29,#24]
/home/optee/RPi3/optee_os/lib/libutee/tee_api_arith.c:292
     cc4:	f94017a0 	ldr	x0, [x29,#40]
     cc8:	f90027a0 	str	x0, [x29,#72]
/home/optee/RPi3/optee_os/lib/libutee/tee_api_arith.c:293
     ccc:	f94013a0 	ldr	x0, [x29,#32]
     cd0:	f90023a0 	str	x0, [x29,#64]
/home/optee/RPi3/optee_os/lib/libutee/tee_api_arith.c:294
     cd4:	f9400fa0 	ldr	x0, [x29,#24]
     cd8:	f9001fa0 	str	x0, [x29,#56]
/home/optee/RPi3/optee_os/lib/libutee/tee_api_arith.c:296
     cdc:	b0000080 	adrp	x0, 11000 <ta_props>
     ce0:	9103a000 	add	x0, x0, #0xe8
     ce4:	f9400000 	ldr	x0, [x0]
     ce8:	aa0003e3 	mov	x3, x0
     cec:	f9401fa2 	ldr	x2, [x29,#56]
     cf0:	f94023a1 	ldr	x1, [x29,#64]
     cf4:	f94027a0 	ldr	x0, [x29,#72]
     cf8:	94002dae 	bl	c3b0 <mpa_add>
/home/optee/RPi3/optee_os/lib/libutee/tee_api_arith.c:297
     cfc:	d503201f 	nop
     d00:	a8c57bfd 	ldp	x29, x30, [sp],#80
     d04:	d65f03c0 	ret

0000000000000d08 <TEE_BigIntSub>:
TEE_BigIntSub():
/home/optee/RPi3/optee_os/lib/libutee/tee_api_arith.c:304
     d08:	a9bb7bfd 	stp	x29, x30, [sp,#-80]!
     d0c:	910003fd 	mov	x29, sp
     d10:	f90017a0 	str	x0, [x29,#40]
     d14:	f90013a1 	str	x1, [x29,#32]
     d18:	f9000fa2 	str	x2, [x29,#24]
/home/optee/RPi3/optee_os/lib/libutee/tee_api_arith.c:305
     d1c:	f94017a0 	ldr	x0, [x29,#40]
     d20:	f90027a0 	str	x0, [x29,#72]
/home/optee/RPi3/optee_os/lib/libutee/tee_api_arith.c:306
     d24:	f94013a0 	ldr	x0, [x29,#32]
     d28:	f90023a0 	str	x0, [x29,#64]
/home/optee/RPi3/optee_os/lib/libutee/tee_api_arith.c:307
     d2c:	f9400fa0 	ldr	x0, [x29,#24]
     d30:	f9001fa0 	str	x0, [x29,#56]
/home/optee/RPi3/optee_os/lib/libutee/tee_api_arith.c:309
     d34:	b0000080 	adrp	x0, 11000 <ta_props>
     d38:	9103a000 	add	x0, x0, #0xe8
     d3c:	f9400000 	ldr	x0, [x0]
     d40:	aa0003e3 	mov	x3, x0
     d44:	f9401fa2 	ldr	x2, [x29,#56]
     d48:	f94023a1 	ldr	x1, [x29,#64]
     d4c:	f94027a0 	ldr	x0, [x29,#72]
     d50:	94002e47 	bl	c66c <mpa_sub>
/home/optee/RPi3/optee_os/lib/libutee/tee_api_arith.c:310
     d54:	d503201f 	nop
     d58:	a8c57bfd 	ldp	x29, x30, [sp],#80
     d5c:	d65f03c0 	ret

0000000000000d60 <TEE_BigIntNeg>:
TEE_BigIntNeg():
/home/optee/RPi3/optee_os/lib/libutee/tee_api_arith.c:316
     d60:	a9bd7bfd 	stp	x29, x30, [sp,#-48]!
     d64:	910003fd 	mov	x29, sp
     d68:	f9000fa0 	str	x0, [x29,#24]
     d6c:	f9000ba1 	str	x1, [x29,#16]
/home/optee/RPi3/optee_os/lib/libutee/tee_api_arith.c:317
     d70:	f9400fa0 	ldr	x0, [x29,#24]
     d74:	f90017a0 	str	x0, [x29,#40]
/home/optee/RPi3/optee_os/lib/libutee/tee_api_arith.c:318
     d78:	f9400ba0 	ldr	x0, [x29,#16]
     d7c:	f90013a0 	str	x0, [x29,#32]
/home/optee/RPi3/optee_os/lib/libutee/tee_api_arith.c:320
     d80:	f94013a1 	ldr	x1, [x29,#32]
     d84:	f94017a0 	ldr	x0, [x29,#40]
     d88:	94002ef7 	bl	c964 <mpa_neg>
/home/optee/RPi3/optee_os/lib/libutee/tee_api_arith.c:321
     d8c:	d503201f 	nop
     d90:	a8c37bfd 	ldp	x29, x30, [sp],#48
     d94:	d65f03c0 	ret

0000000000000d98 <TEE_BigIntMul>:
TEE_BigIntMul():
/home/optee/RPi3/optee_os/lib/libutee/tee_api_arith.c:328
     d98:	a9bb7bfd 	stp	x29, x30, [sp,#-80]!
     d9c:	910003fd 	mov	x29, sp
     da0:	f90017a0 	str	x0, [x29,#40]
     da4:	f90013a1 	str	x1, [x29,#32]
     da8:	f9000fa2 	str	x2, [x29,#24]
/home/optee/RPi3/optee_os/lib/libutee/tee_api_arith.c:329
     dac:	f94017a0 	ldr	x0, [x29,#40]
     db0:	f90027a0 	str	x0, [x29,#72]
/home/optee/RPi3/optee_os/lib/libutee/tee_api_arith.c:330
     db4:	f94013a0 	ldr	x0, [x29,#32]
     db8:	f90023a0 	str	x0, [x29,#64]
/home/optee/RPi3/optee_os/lib/libutee/tee_api_arith.c:331
     dbc:	f9400fa0 	ldr	x0, [x29,#24]
     dc0:	f9001fa0 	str	x0, [x29,#56]
/home/optee/RPi3/optee_os/lib/libutee/tee_api_arith.c:333
     dc4:	b0000080 	adrp	x0, 11000 <ta_props>
     dc8:	9103a000 	add	x0, x0, #0xe8
     dcc:	f9400000 	ldr	x0, [x0]
     dd0:	aa0003e3 	mov	x3, x0
     dd4:	f9401fa2 	ldr	x2, [x29,#56]
     dd8:	f94023a1 	ldr	x1, [x29,#64]
     ddc:	f94027a0 	ldr	x0, [x29,#72]
     de0:	9400289b 	bl	b04c <mpa_mul>
/home/optee/RPi3/optee_os/lib/libutee/tee_api_arith.c:334
     de4:	d503201f 	nop
     de8:	a8c57bfd 	ldp	x29, x30, [sp],#80
     dec:	d65f03c0 	ret

0000000000000df0 <TEE_BigIntSquare>:
TEE_BigIntSquare():
/home/optee/RPi3/optee_os/lib/libutee/tee_api_arith.c:340
     df0:	a9bd7bfd 	stp	x29, x30, [sp,#-48]!
     df4:	910003fd 	mov	x29, sp
     df8:	f9000fa0 	str	x0, [x29,#24]
     dfc:	f9000ba1 	str	x1, [x29,#16]
/home/optee/RPi3/optee_os/lib/libutee/tee_api_arith.c:341
     e00:	f9400fa0 	ldr	x0, [x29,#24]
     e04:	f90017a0 	str	x0, [x29,#40]
/home/optee/RPi3/optee_os/lib/libutee/tee_api_arith.c:342
     e08:	f9400ba0 	ldr	x0, [x29,#16]
     e0c:	f90013a0 	str	x0, [x29,#32]
/home/optee/RPi3/optee_os/lib/libutee/tee_api_arith.c:344
     e10:	b0000080 	adrp	x0, 11000 <ta_props>
     e14:	9103a000 	add	x0, x0, #0xe8
     e18:	f9400000 	ldr	x0, [x0]
     e1c:	aa0003e3 	mov	x3, x0
     e20:	f94013a2 	ldr	x2, [x29,#32]
     e24:	f94013a1 	ldr	x1, [x29,#32]
     e28:	f94017a0 	ldr	x0, [x29,#40]
     e2c:	94002888 	bl	b04c <mpa_mul>
/home/optee/RPi3/optee_os/lib/libutee/tee_api_arith.c:345
     e30:	d503201f 	nop
     e34:	a8c37bfd 	ldp	x29, x30, [sp],#48
     e38:	d65f03c0 	ret

0000000000000e3c <TEE_BigIntDiv>:
TEE_BigIntDiv():
/home/optee/RPi3/optee_os/lib/libutee/tee_api_arith.c:352
     e3c:	a9bb7bfd 	stp	x29, x30, [sp,#-80]!
     e40:	910003fd 	mov	x29, sp
     e44:	f90017a0 	str	x0, [x29,#40]
     e48:	f90013a1 	str	x1, [x29,#32]
     e4c:	f9000fa2 	str	x2, [x29,#24]
     e50:	f9000ba3 	str	x3, [x29,#16]
/home/optee/RPi3/optee_os/lib/libutee/tee_api_arith.c:353
     e54:	f94017a0 	ldr	x0, [x29,#40]
     e58:	f90027a0 	str	x0, [x29,#72]
/home/optee/RPi3/optee_os/lib/libutee/tee_api_arith.c:354
     e5c:	f94013a0 	ldr	x0, [x29,#32]
     e60:	f90023a0 	str	x0, [x29,#64]
/home/optee/RPi3/optee_os/lib/libutee/tee_api_arith.c:355
     e64:	f9400fa0 	ldr	x0, [x29,#24]
     e68:	f9001fa0 	str	x0, [x29,#56]
/home/optee/RPi3/optee_os/lib/libutee/tee_api_arith.c:356
     e6c:	f9400ba0 	ldr	x0, [x29,#16]
     e70:	f9001ba0 	str	x0, [x29,#48]
/home/optee/RPi3/optee_os/lib/libutee/tee_api_arith.c:358
     e74:	52800001 	mov	w1, #0x0                   	// #0
     e78:	f9400ba0 	ldr	x0, [x29,#16]
     e7c:	97ffff59 	bl	be0 <TEE_BigIntCmpS32>
     e80:	6b1f001f 	cmp	w0, wzr
     e84:	54000081 	b.ne	e94 <TEE_BigIntDiv+0x58>
/home/optee/RPi3/optee_os/lib/libutee/tee_api_arith.c:359
     e88:	d0000060 	adrp	x0, e000 <mpa_set_oct_str+0xa8>
     e8c:	912d6000 	add	x0, x0, #0xb58
     e90:	97fffe4b 	bl	7bc <TEE_BigInt_Panic>
/home/optee/RPi3/optee_os/lib/libutee/tee_api_arith.c:361
     e94:	b0000080 	adrp	x0, 11000 <ta_props>
     e98:	9103a000 	add	x0, x0, #0xe8
     e9c:	f9400000 	ldr	x0, [x0]
     ea0:	aa0003e4 	mov	x4, x0
     ea4:	f9401ba3 	ldr	x3, [x29,#48]
     ea8:	f9401fa2 	ldr	x2, [x29,#56]
     eac:	f94023a1 	ldr	x1, [x29,#64]
     eb0:	f94027a0 	ldr	x0, [x29,#72]
     eb4:	94002361 	bl	9c38 <mpa_div>
/home/optee/RPi3/optee_os/lib/libutee/tee_api_arith.c:362
     eb8:	d503201f 	nop
     ebc:	a8c57bfd 	ldp	x29, x30, [sp],#80
     ec0:	d65f03c0 	ret

0000000000000ec4 <TEE_BigIntMod>:
TEE_BigIntMod():
/home/optee/RPi3/optee_os/lib/libutee/tee_api_arith.c:373
     ec4:	a9bb7bfd 	stp	x29, x30, [sp,#-80]!
     ec8:	910003fd 	mov	x29, sp
     ecc:	f90017a0 	str	x0, [x29,#40]
     ed0:	f90013a1 	str	x1, [x29,#32]
     ed4:	f9000fa2 	str	x2, [x29,#24]
/home/optee/RPi3/optee_os/lib/libutee/tee_api_arith.c:374
     ed8:	f94017a0 	ldr	x0, [x29,#40]
     edc:	f90027a0 	str	x0, [x29,#72]
/home/optee/RPi3/optee_os/lib/libutee/tee_api_arith.c:375
     ee0:	f94013a0 	ldr	x0, [x29,#32]
     ee4:	f90023a0 	str	x0, [x29,#64]
/home/optee/RPi3/optee_os/lib/libutee/tee_api_arith.c:376
     ee8:	f9400fa0 	ldr	x0, [x29,#24]
     eec:	f9001fa0 	str	x0, [x29,#56]
/home/optee/RPi3/optee_os/lib/libutee/tee_api_arith.c:378
     ef0:	52800041 	mov	w1, #0x2                   	// #2
     ef4:	f9400fa0 	ldr	x0, [x29,#24]
     ef8:	97ffff3a 	bl	be0 <TEE_BigIntCmpS32>
     efc:	6b1f001f 	cmp	w0, wzr
     f00:	5400008a 	b.ge	f10 <TEE_BigIntMod+0x4c>
/home/optee/RPi3/optee_os/lib/libutee/tee_api_arith.c:379
     f04:	d0000060 	adrp	x0, e000 <mpa_set_oct_str+0xa8>
     f08:	912da000 	add	x0, x0, #0xb68
     f0c:	97fffe2c 	bl	7bc <TEE_BigInt_Panic>
/home/optee/RPi3/optee_os/lib/libutee/tee_api_arith.c:381
     f10:	b0000080 	adrp	x0, 11000 <ta_props>
     f14:	9103a000 	add	x0, x0, #0xe8
     f18:	f9400000 	ldr	x0, [x0]
     f1c:	aa0003e3 	mov	x3, x0
     f20:	f9401fa2 	ldr	x2, [x29,#56]
     f24:	f94023a1 	ldr	x1, [x29,#64]
     f28:	f94027a0 	ldr	x0, [x29,#72]
     f2c:	940034f1 	bl	e2f0 <mpa_mod>
/home/optee/RPi3/optee_os/lib/libutee/tee_api_arith.c:383
     f30:	52800001 	mov	w1, #0x0                   	// #0
     f34:	f94027a0 	ldr	x0, [x29,#72]
     f38:	94003047 	bl	d054 <mpa_cmp_short>
     f3c:	6b1f001f 	cmp	w0, wzr
     f40:	5400012a 	b.ge	f64 <TEE_BigIntMod+0xa0>
/home/optee/RPi3/optee_os/lib/libutee/tee_api_arith.c:384
     f44:	b0000080 	adrp	x0, 11000 <ta_props>
     f48:	9103a000 	add	x0, x0, #0xe8
     f4c:	f9400000 	ldr	x0, [x0]
     f50:	aa0003e3 	mov	x3, x0
     f54:	f9401fa2 	ldr	x2, [x29,#56]
     f58:	f94027a1 	ldr	x1, [x29,#72]
     f5c:	f94027a0 	ldr	x0, [x29,#72]
     f60:	94002d14 	bl	c3b0 <mpa_add>
/home/optee/RPi3/optee_os/lib/libutee/tee_api_arith.c:385
     f64:	d503201f 	nop
     f68:	a8c57bfd 	ldp	x29, x30, [sp],#80
     f6c:	d65f03c0 	ret

0000000000000f70 <TEE_BigIntAddMod>:
TEE_BigIntAddMod():
/home/optee/RPi3/optee_os/lib/libutee/tee_api_arith.c:392
     f70:	a9bb7bfd 	stp	x29, x30, [sp,#-80]!
     f74:	910003fd 	mov	x29, sp
     f78:	f90017a0 	str	x0, [x29,#40]
     f7c:	f90013a1 	str	x1, [x29,#32]
     f80:	f9000fa2 	str	x2, [x29,#24]
     f84:	f9000ba3 	str	x3, [x29,#16]
/home/optee/RPi3/optee_os/lib/libutee/tee_api_arith.c:393
     f88:	f94017a0 	ldr	x0, [x29,#40]
     f8c:	f90027a0 	str	x0, [x29,#72]
/home/optee/RPi3/optee_os/lib/libutee/tee_api_arith.c:394
     f90:	f94013a0 	ldr	x0, [x29,#32]
     f94:	f90023a0 	str	x0, [x29,#64]
/home/optee/RPi3/optee_os/lib/libutee/tee_api_arith.c:395
     f98:	f9400fa0 	ldr	x0, [x29,#24]
     f9c:	f9001fa0 	str	x0, [x29,#56]
/home/optee/RPi3/optee_os/lib/libutee/tee_api_arith.c:396
     fa0:	f9400ba0 	ldr	x0, [x29,#16]
     fa4:	f9001ba0 	str	x0, [x29,#48]
/home/optee/RPi3/optee_os/lib/libutee/tee_api_arith.c:398
     fa8:	52800041 	mov	w1, #0x2                   	// #2
     fac:	f9400ba0 	ldr	x0, [x29,#16]
     fb0:	97ffff0c 	bl	be0 <TEE_BigIntCmpS32>
     fb4:	6b1f001f 	cmp	w0, wzr
     fb8:	5400008a 	b.ge	fc8 <TEE_BigIntAddMod+0x58>
/home/optee/RPi3/optee_os/lib/libutee/tee_api_arith.c:399
     fbc:	d0000060 	adrp	x0, e000 <mpa_set_oct_str+0xa8>
     fc0:	912da000 	add	x0, x0, #0xb68
     fc4:	97fffdfe 	bl	7bc <TEE_BigInt_Panic>
/home/optee/RPi3/optee_os/lib/libutee/tee_api_arith.c:401
     fc8:	b0000080 	adrp	x0, 11000 <ta_props>
     fcc:	9103a000 	add	x0, x0, #0xe8
     fd0:	f9400000 	ldr	x0, [x0]
     fd4:	aa0003e4 	mov	x4, x0
     fd8:	f9401ba3 	ldr	x3, [x29,#48]
     fdc:	f9401fa2 	ldr	x2, [x29,#56]
     fe0:	f94023a1 	ldr	x1, [x29,#64]
     fe4:	f94027a0 	ldr	x0, [x29,#72]
     fe8:	940034d1 	bl	e32c <mpa_add_mod>
/home/optee/RPi3/optee_os/lib/libutee/tee_api_arith.c:402
     fec:	52800001 	mov	w1, #0x0                   	// #0
     ff0:	f94027a0 	ldr	x0, [x29,#72]
     ff4:	94003018 	bl	d054 <mpa_cmp_short>
     ff8:	6b1f001f 	cmp	w0, wzr
     ffc:	5400012a 	b.ge	1020 <TEE_BigIntAddMod+0xb0>
/home/optee/RPi3/optee_os/lib/libutee/tee_api_arith.c:403
    1000:	90000080 	adrp	x0, 11000 <ta_props>
    1004:	9103a000 	add	x0, x0, #0xe8
    1008:	f9400000 	ldr	x0, [x0]
    100c:	aa0003e3 	mov	x3, x0
    1010:	f9401ba2 	ldr	x2, [x29,#48]
    1014:	f94027a1 	ldr	x1, [x29,#72]
    1018:	f94027a0 	ldr	x0, [x29,#72]
    101c:	94002ce5 	bl	c3b0 <mpa_add>
/home/optee/RPi3/optee_os/lib/libutee/tee_api_arith.c:404
    1020:	d503201f 	nop
    1024:	a8c57bfd 	ldp	x29, x30, [sp],#80
    1028:	d65f03c0 	ret

000000000000102c <TEE_BigIntSubMod>:
TEE_BigIntSubMod():
/home/optee/RPi3/optee_os/lib/libutee/tee_api_arith.c:411
    102c:	a9bb7bfd 	stp	x29, x30, [sp,#-80]!
    1030:	910003fd 	mov	x29, sp
    1034:	f90017a0 	str	x0, [x29,#40]
    1038:	f90013a1 	str	x1, [x29,#32]
    103c:	f9000fa2 	str	x2, [x29,#24]
    1040:	f9000ba3 	str	x3, [x29,#16]
/home/optee/RPi3/optee_os/lib/libutee/tee_api_arith.c:412
    1044:	f94017a0 	ldr	x0, [x29,#40]
    1048:	f90027a0 	str	x0, [x29,#72]
/home/optee/RPi3/optee_os/lib/libutee/tee_api_arith.c:413
    104c:	f94013a0 	ldr	x0, [x29,#32]
    1050:	f90023a0 	str	x0, [x29,#64]
/home/optee/RPi3/optee_os/lib/libutee/tee_api_arith.c:414
    1054:	f9400fa0 	ldr	x0, [x29,#24]
    1058:	f9001fa0 	str	x0, [x29,#56]
/home/optee/RPi3/optee_os/lib/libutee/tee_api_arith.c:415
    105c:	f9400ba0 	ldr	x0, [x29,#16]
    1060:	f9001ba0 	str	x0, [x29,#48]
/home/optee/RPi3/optee_os/lib/libutee/tee_api_arith.c:417
    1064:	52800041 	mov	w1, #0x2                   	// #2
    1068:	f9400ba0 	ldr	x0, [x29,#16]
    106c:	97fffedd 	bl	be0 <TEE_BigIntCmpS32>
    1070:	6b1f001f 	cmp	w0, wzr
    1074:	5400008a 	b.ge	1084 <TEE_BigIntSubMod+0x58>
/home/optee/RPi3/optee_os/lib/libutee/tee_api_arith.c:418
    1078:	b0000060 	adrp	x0, e000 <mpa_set_oct_str+0xa8>
    107c:	912da000 	add	x0, x0, #0xb68
    1080:	97fffdcf 	bl	7bc <TEE_BigInt_Panic>
/home/optee/RPi3/optee_os/lib/libutee/tee_api_arith.c:420
    1084:	90000080 	adrp	x0, 11000 <ta_props>
    1088:	9103a000 	add	x0, x0, #0xe8
    108c:	f9400000 	ldr	x0, [x0]
    1090:	aa0003e4 	mov	x4, x0
    1094:	f9401ba3 	ldr	x3, [x29,#48]
    1098:	f9401fa2 	ldr	x2, [x29,#56]
    109c:	f94023a1 	ldr	x1, [x29,#64]
    10a0:	f94027a0 	ldr	x0, [x29,#72]
    10a4:	940034be 	bl	e39c <mpa_sub_mod>
/home/optee/RPi3/optee_os/lib/libutee/tee_api_arith.c:421
    10a8:	52800001 	mov	w1, #0x0                   	// #0
    10ac:	f94027a0 	ldr	x0, [x29,#72]
    10b0:	94002fe9 	bl	d054 <mpa_cmp_short>
    10b4:	6b1f001f 	cmp	w0, wzr
    10b8:	5400012a 	b.ge	10dc <TEE_BigIntSubMod+0xb0>
/home/optee/RPi3/optee_os/lib/libutee/tee_api_arith.c:422
    10bc:	90000080 	adrp	x0, 11000 <ta_props>
    10c0:	9103a000 	add	x0, x0, #0xe8
    10c4:	f9400000 	ldr	x0, [x0]
    10c8:	aa0003e3 	mov	x3, x0
    10cc:	f9401ba2 	ldr	x2, [x29,#48]
    10d0:	f94027a1 	ldr	x1, [x29,#72]
    10d4:	f94027a0 	ldr	x0, [x29,#72]
    10d8:	94002cb6 	bl	c3b0 <mpa_add>
/home/optee/RPi3/optee_os/lib/libutee/tee_api_arith.c:423
    10dc:	d503201f 	nop
    10e0:	a8c57bfd 	ldp	x29, x30, [sp],#80
    10e4:	d65f03c0 	ret

00000000000010e8 <TEE_BigIntMulMod>:
TEE_BigIntMulMod():
/home/optee/RPi3/optee_os/lib/libutee/tee_api_arith.c:430
    10e8:	a9ba7bfd 	stp	x29, x30, [sp,#-96]!
    10ec:	910003fd 	mov	x29, sp
    10f0:	f90017a0 	str	x0, [x29,#40]
    10f4:	f90013a1 	str	x1, [x29,#32]
    10f8:	f9000fa2 	str	x2, [x29,#24]
    10fc:	f9000ba3 	str	x3, [x29,#16]
/home/optee/RPi3/optee_os/lib/libutee/tee_api_arith.c:431
    1100:	f94017a0 	ldr	x0, [x29,#40]
    1104:	f9002fa0 	str	x0, [x29,#88]
/home/optee/RPi3/optee_os/lib/libutee/tee_api_arith.c:432
    1108:	f94013a0 	ldr	x0, [x29,#32]
    110c:	f9002ba0 	str	x0, [x29,#80]
/home/optee/RPi3/optee_os/lib/libutee/tee_api_arith.c:433
    1110:	f9400fa0 	ldr	x0, [x29,#24]
    1114:	f90027a0 	str	x0, [x29,#72]
/home/optee/RPi3/optee_os/lib/libutee/tee_api_arith.c:434
    1118:	f9400ba0 	ldr	x0, [x29,#16]
    111c:	f90023a0 	str	x0, [x29,#64]
/home/optee/RPi3/optee_os/lib/libutee/tee_api_arith.c:437
    1120:	52800041 	mov	w1, #0x2                   	// #2
    1124:	f9400ba0 	ldr	x0, [x29,#16]
    1128:	97fffeae 	bl	be0 <TEE_BigIntCmpS32>
    112c:	6b1f001f 	cmp	w0, wzr
    1130:	5400008a 	b.ge	1140 <TEE_BigIntMulMod+0x58>
/home/optee/RPi3/optee_os/lib/libutee/tee_api_arith.c:438
    1134:	b0000060 	adrp	x0, e000 <mpa_set_oct_str+0xa8>
    1138:	912da000 	add	x0, x0, #0xb68
    113c:	97fffda0 	bl	7bc <TEE_BigInt_Panic>
/home/optee/RPi3/optee_os/lib/libutee/tee_api_arith.c:448
    1140:	90000080 	adrp	x0, 11000 <ta_props>
    1144:	9103a000 	add	x0, x0, #0xe8
    1148:	f9400001 	ldr	x1, [x0]
    114c:	9100e3a0 	add	x0, x29, #0x38
    1150:	9400268e 	bl	ab88 <mpa_alloc_static_temp_var>
/home/optee/RPi3/optee_os/lib/libutee/tee_api_arith.c:449
    1154:	f9401fa5 	ldr	x5, [x29,#56]
    1158:	90000080 	adrp	x0, 11000 <ta_props>
    115c:	9103a000 	add	x0, x0, #0xe8
    1160:	f9400000 	ldr	x0, [x0]
    1164:	aa0003e4 	mov	x4, x0
    1168:	f94023a3 	ldr	x3, [x29,#64]
    116c:	f94027a2 	ldr	x2, [x29,#72]
    1170:	f9402ba1 	ldr	x1, [x29,#80]
    1174:	aa0503e0 	mov	x0, x5
    1178:	940034a5 	bl	e40c <mpa_mul_mod>
/home/optee/RPi3/optee_os/lib/libutee/tee_api_arith.c:450
    117c:	f9401fa0 	ldr	x0, [x29,#56]
    1180:	52800001 	mov	w1, #0x0                   	// #0
    1184:	94002fb4 	bl	d054 <mpa_cmp_short>
    1188:	6b1f001f 	cmp	w0, wzr
    118c:	5400014a 	b.ge	11b4 <TEE_BigIntMulMod+0xcc>
/home/optee/RPi3/optee_os/lib/libutee/tee_api_arith.c:451
    1190:	f9401fa4 	ldr	x4, [x29,#56]
    1194:	f9401fa1 	ldr	x1, [x29,#56]
    1198:	90000080 	adrp	x0, 11000 <ta_props>
    119c:	9103a000 	add	x0, x0, #0xe8
    11a0:	f9400000 	ldr	x0, [x0]
    11a4:	aa0003e3 	mov	x3, x0
    11a8:	f94023a2 	ldr	x2, [x29,#64]
    11ac:	aa0403e0 	mov	x0, x4
    11b0:	94002c80 	bl	c3b0 <mpa_add>
/home/optee/RPi3/optee_os/lib/libutee/tee_api_arith.c:452
    11b4:	f9401fa0 	ldr	x0, [x29,#56]
    11b8:	aa0003e1 	mov	x1, x0
    11bc:	f9402fa0 	ldr	x0, [x29,#88]
    11c0:	94001ae7 	bl	7d5c <mpa_copy>
/home/optee/RPi3/optee_os/lib/libutee/tee_api_arith.c:453
    11c4:	90000080 	adrp	x0, 11000 <ta_props>
    11c8:	9103a000 	add	x0, x0, #0xe8
    11cc:	f9400001 	ldr	x1, [x0]
    11d0:	9100e3a0 	add	x0, x29, #0x38
    11d4:	94002678 	bl	abb4 <mpa_free_static_temp_var>
/home/optee/RPi3/optee_os/lib/libutee/tee_api_arith.c:454
    11d8:	d503201f 	nop
    11dc:	a8c67bfd 	ldp	x29, x30, [sp],#96
    11e0:	d65f03c0 	ret

00000000000011e4 <TEE_BigIntSquareMod>:
TEE_BigIntSquareMod():
/home/optee/RPi3/optee_os/lib/libutee/tee_api_arith.c:461
    11e4:	a9bd7bfd 	stp	x29, x30, [sp,#-48]!
    11e8:	910003fd 	mov	x29, sp
    11ec:	f90017a0 	str	x0, [x29,#40]
    11f0:	f90013a1 	str	x1, [x29,#32]
    11f4:	f9000fa2 	str	x2, [x29,#24]
/home/optee/RPi3/optee_os/lib/libutee/tee_api_arith.c:462
    11f8:	f9400fa3 	ldr	x3, [x29,#24]
    11fc:	f94013a2 	ldr	x2, [x29,#32]
    1200:	f94013a1 	ldr	x1, [x29,#32]
    1204:	f94017a0 	ldr	x0, [x29,#40]
    1208:	97ffffb8 	bl	10e8 <TEE_BigIntMulMod>
/home/optee/RPi3/optee_os/lib/libutee/tee_api_arith.c:463
    120c:	d503201f 	nop
    1210:	a8c37bfd 	ldp	x29, x30, [sp],#48
    1214:	d65f03c0 	ret

0000000000001218 <TEE_BigIntInvMod>:
TEE_BigIntInvMod():
/home/optee/RPi3/optee_os/lib/libutee/tee_api_arith.c:470
    1218:	a9bb7bfd 	stp	x29, x30, [sp,#-80]!
    121c:	910003fd 	mov	x29, sp
    1220:	f90017a0 	str	x0, [x29,#40]
    1224:	f90013a1 	str	x1, [x29,#32]
    1228:	f9000fa2 	str	x2, [x29,#24]
/home/optee/RPi3/optee_os/lib/libutee/tee_api_arith.c:471
    122c:	f94017a0 	ldr	x0, [x29,#40]
    1230:	f90027a0 	str	x0, [x29,#72]
/home/optee/RPi3/optee_os/lib/libutee/tee_api_arith.c:472
    1234:	f94013a0 	ldr	x0, [x29,#32]
    1238:	f90023a0 	str	x0, [x29,#64]
/home/optee/RPi3/optee_os/lib/libutee/tee_api_arith.c:473
    123c:	f9400fa0 	ldr	x0, [x29,#24]
    1240:	f9001fa0 	str	x0, [x29,#56]
/home/optee/RPi3/optee_os/lib/libutee/tee_api_arith.c:475
    1244:	52800041 	mov	w1, #0x2                   	// #2
    1248:	f9400fa0 	ldr	x0, [x29,#24]
    124c:	97fffe65 	bl	be0 <TEE_BigIntCmpS32>
    1250:	6b1f001f 	cmp	w0, wzr
    1254:	540000cb 	b.lt	126c <TEE_BigIntInvMod+0x54>
/home/optee/RPi3/optee_os/lib/libutee/tee_api_arith.c:475 (discriminator 1)
    1258:	52800001 	mov	w1, #0x0                   	// #0
    125c:	f94013a0 	ldr	x0, [x29,#32]
    1260:	97fffe60 	bl	be0 <TEE_BigIntCmpS32>
    1264:	6b1f001f 	cmp	w0, wzr
    1268:	54000081 	b.ne	1278 <TEE_BigIntInvMod+0x60>
/home/optee/RPi3/optee_os/lib/libutee/tee_api_arith.c:476
    126c:	b0000060 	adrp	x0, e000 <mpa_set_oct_str+0xa8>
    1270:	912e0000 	add	x0, x0, #0xb80
    1274:	97fffd52 	bl	7bc <TEE_BigInt_Panic>
/home/optee/RPi3/optee_os/lib/libutee/tee_api_arith.c:478
    1278:	90000080 	adrp	x0, 11000 <ta_props>
    127c:	9103a000 	add	x0, x0, #0xe8
    1280:	f9400000 	ldr	x0, [x0]
    1284:	aa0003e3 	mov	x3, x0
    1288:	f9401fa2 	ldr	x2, [x29,#56]
    128c:	f94023a1 	ldr	x1, [x29,#64]
    1290:	f94027a0 	ldr	x0, [x29,#72]
    1294:	9400347a 	bl	e47c <mpa_inv_mod>
/home/optee/RPi3/optee_os/lib/libutee/tee_api_arith.c:479
    1298:	d503201f 	nop
    129c:	a8c57bfd 	ldp	x29, x30, [sp],#80
    12a0:	d65f03c0 	ret

00000000000012a4 <TEE_BigIntRelativePrime>:
TEE_BigIntRelativePrime():
/home/optee/RPi3/optee_os/lib/libutee/tee_api_arith.c:489
    12a4:	a9bc7bfd 	stp	x29, x30, [sp,#-64]!
    12a8:	910003fd 	mov	x29, sp
    12ac:	f9000fa0 	str	x0, [x29,#24]
    12b0:	f9000ba1 	str	x1, [x29,#16]
/home/optee/RPi3/optee_os/lib/libutee/tee_api_arith.c:490
    12b4:	f9400fa0 	ldr	x0, [x29,#24]
    12b8:	f9001fa0 	str	x0, [x29,#56]
/home/optee/RPi3/optee_os/lib/libutee/tee_api_arith.c:491
    12bc:	f9400ba0 	ldr	x0, [x29,#16]
    12c0:	f9001ba0 	str	x0, [x29,#48]
/home/optee/RPi3/optee_os/lib/libutee/tee_api_arith.c:495
    12c4:	90000080 	adrp	x0, 11000 <ta_props>
    12c8:	9103a000 	add	x0, x0, #0xe8
    12cc:	f9400001 	ldr	x1, [x0]
    12d0:	910083a0 	add	x0, x29, #0x20
    12d4:	9400262d 	bl	ab88 <mpa_alloc_static_temp_var>
/home/optee/RPi3/optee_os/lib/libutee/tee_api_arith.c:497
    12d8:	f94013a4 	ldr	x4, [x29,#32]
    12dc:	90000080 	adrp	x0, 11000 <ta_props>
    12e0:	9103a000 	add	x0, x0, #0xe8
    12e4:	f9400000 	ldr	x0, [x0]
    12e8:	aa0003e3 	mov	x3, x0
    12ec:	f9401ba2 	ldr	x2, [x29,#48]
    12f0:	f9401fa1 	ldr	x1, [x29,#56]
    12f4:	aa0403e0 	mov	x0, x4
    12f8:	94002455 	bl	a44c <mpa_gcd>
/home/optee/RPi3/optee_os/lib/libutee/tee_api_arith.c:498
    12fc:	f94013a0 	ldr	x0, [x29,#32]
    1300:	52800021 	mov	w1, #0x1                   	// #1
    1304:	94002f54 	bl	d054 <mpa_cmp_short>
    1308:	b9002fa0 	str	w0, [x29,#44]
/home/optee/RPi3/optee_os/lib/libutee/tee_api_arith.c:500
    130c:	90000080 	adrp	x0, 11000 <ta_props>
    1310:	9103a000 	add	x0, x0, #0xe8
    1314:	f9400001 	ldr	x1, [x0]
    1318:	910083a0 	add	x0, x29, #0x20
    131c:	94002626 	bl	abb4 <mpa_free_static_temp_var>
/home/optee/RPi3/optee_os/lib/libutee/tee_api_arith.c:502
    1320:	b9402fa0 	ldr	w0, [x29,#44]
    1324:	6b1f001f 	cmp	w0, wzr
    1328:	1a9f17e0 	cset	w0, eq
    132c:	53001c00 	uxtb	w0, w0
/home/optee/RPi3/optee_os/lib/libutee/tee_api_arith.c:503
    1330:	a8c47bfd 	ldp	x29, x30, [sp],#64
    1334:	d65f03c0 	ret

0000000000001338 <TEE_BigIntComputeExtendedGcd>:
TEE_BigIntComputeExtendedGcd():
/home/optee/RPi3/optee_os/lib/libutee/tee_api_arith.c:511
    1338:	a9b97bfd 	stp	x29, x30, [sp,#-112]!
    133c:	910003fd 	mov	x29, sp
    1340:	f9001fa0 	str	x0, [x29,#56]
    1344:	f9001ba1 	str	x1, [x29,#48]
    1348:	f90017a2 	str	x2, [x29,#40]
    134c:	f90013a3 	str	x3, [x29,#32]
    1350:	f9000fa4 	str	x4, [x29,#24]
/home/optee/RPi3/optee_os/lib/libutee/tee_api_arith.c:512
    1354:	f9401fa0 	ldr	x0, [x29,#56]
    1358:	f90037a0 	str	x0, [x29,#104]
/home/optee/RPi3/optee_os/lib/libutee/tee_api_arith.c:513
    135c:	f9401ba0 	ldr	x0, [x29,#48]
    1360:	f90033a0 	str	x0, [x29,#96]
/home/optee/RPi3/optee_os/lib/libutee/tee_api_arith.c:514
    1364:	f94017a0 	ldr	x0, [x29,#40]
    1368:	f9002fa0 	str	x0, [x29,#88]
/home/optee/RPi3/optee_os/lib/libutee/tee_api_arith.c:515
    136c:	f94013a0 	ldr	x0, [x29,#32]
    1370:	f9002ba0 	str	x0, [x29,#80]
/home/optee/RPi3/optee_os/lib/libutee/tee_api_arith.c:516
    1374:	f9400fa0 	ldr	x0, [x29,#24]
    1378:	f90027a0 	str	x0, [x29,#72]
/home/optee/RPi3/optee_os/lib/libutee/tee_api_arith.c:518
    137c:	90000080 	adrp	x0, 11000 <ta_props>
    1380:	9103a000 	add	x0, x0, #0xe8
    1384:	f9400000 	ldr	x0, [x0]
    1388:	aa0003e5 	mov	x5, x0
    138c:	f94027a4 	ldr	x4, [x29,#72]
    1390:	f9402ba3 	ldr	x3, [x29,#80]
    1394:	f9402fa2 	ldr	x2, [x29,#88]
    1398:	f94033a1 	ldr	x1, [x29,#96]
    139c:	f94037a0 	ldr	x0, [x29,#104]
    13a0:	9400248d 	bl	a5d4 <mpa_extended_gcd>
/home/optee/RPi3/optee_os/lib/libutee/tee_api_arith.c:519
    13a4:	d503201f 	nop
    13a8:	a8c77bfd 	ldp	x29, x30, [sp],#112
    13ac:	d65f03c0 	ret

00000000000013b0 <TEE_BigIntIsProbablePrime>:
TEE_BigIntIsProbablePrime():
/home/optee/RPi3/optee_os/lib/libutee/tee_api_arith.c:526
    13b0:	a9bd7bfd 	stp	x29, x30, [sp,#-48]!
    13b4:	910003fd 	mov	x29, sp
    13b8:	f9000fa0 	str	x0, [x29,#24]
    13bc:	b90017a1 	str	w1, [x29,#20]
/home/optee/RPi3/optee_os/lib/libutee/tee_api_arith.c:527
    13c0:	f9400fa0 	ldr	x0, [x29,#24]
    13c4:	f90017a0 	str	x0, [x29,#40]
/home/optee/RPi3/optee_os/lib/libutee/tee_api_arith.c:529
    13c8:	b94017a0 	ldr	w0, [x29,#20]
    13cc:	71013c1f 	cmp	w0, #0x4f
    13d0:	54000068 	b.hi	13dc <TEE_BigIntIsProbablePrime+0x2c>
/home/optee/RPi3/optee_os/lib/libutee/tee_api_arith.c:530
    13d4:	52800a00 	mov	w0, #0x50                  	// #80
    13d8:	b90017a0 	str	w0, [x29,#20]
/home/optee/RPi3/optee_os/lib/libutee/tee_api_arith.c:532
    13dc:	b94017a0 	ldr	w0, [x29,#20]
    13e0:	7104001f 	cmp	w0, #0x100
    13e4:	54000069 	b.ls	13f0 <TEE_BigIntIsProbablePrime+0x40>
/home/optee/RPi3/optee_os/lib/libutee/tee_api_arith.c:533
    13e8:	52802000 	mov	w0, #0x100                 	// #256
    13ec:	b90017a0 	str	w0, [x29,#20]
/home/optee/RPi3/optee_os/lib/libutee/tee_api_arith.c:535
    13f0:	b94017a1 	ldr	w1, [x29,#20]
    13f4:	90000080 	adrp	x0, 11000 <ta_props>
    13f8:	9103a000 	add	x0, x0, #0xe8
    13fc:	f9400000 	ldr	x0, [x0]
    1400:	aa0003e2 	mov	x2, x0
    1404:	f94017a0 	ldr	x0, [x29,#40]
    1408:	94001c91 	bl	864c <mpa_is_prob_prime>
/home/optee/RPi3/optee_os/lib/libutee/tee_api_arith.c:536
    140c:	a8c37bfd 	ldp	x29, x30, [sp],#48
    1410:	d65f03c0 	ret

0000000000001414 <TEE_BigIntConvertToFMM>:
TEE_BigIntConvertToFMM():
/home/optee/RPi3/optee_os/lib/libutee/tee_api_arith.c:549
    1414:	a9bb7bfd 	stp	x29, x30, [sp,#-80]!
    1418:	910003fd 	mov	x29, sp
    141c:	f90017a0 	str	x0, [x29,#40]
    1420:	f90013a1 	str	x1, [x29,#32]
    1424:	f9000fa2 	str	x2, [x29,#24]
    1428:	f9000ba3 	str	x3, [x29,#16]
/home/optee/RPi3/optee_os/lib/libutee/tee_api_arith.c:550
    142c:	f94017a0 	ldr	x0, [x29,#40]
    1430:	f90027a0 	str	x0, [x29,#72]
/home/optee/RPi3/optee_os/lib/libutee/tee_api_arith.c:551
    1434:	f94013a0 	ldr	x0, [x29,#32]
    1438:	f90023a0 	str	x0, [x29,#64]
/home/optee/RPi3/optee_os/lib/libutee/tee_api_arith.c:552
    143c:	f9400fa0 	ldr	x0, [x29,#24]
    1440:	f9001fa0 	str	x0, [x29,#56]
/home/optee/RPi3/optee_os/lib/libutee/tee_api_arith.c:553
    1444:	f9400ba0 	ldr	x0, [x29,#16]
    1448:	f9001ba0 	str	x0, [x29,#48]
/home/optee/RPi3/optee_os/lib/libutee/tee_api_arith.c:556
    144c:	f9401ba0 	ldr	x0, [x29,#48]
    1450:	f9400401 	ldr	x1, [x0,#8]
    1454:	f9401ba0 	ldr	x0, [x29,#48]
    1458:	b9401002 	ldr	w2, [x0,#16]
    145c:	90000080 	adrp	x0, 11000 <ta_props>
    1460:	9103a000 	add	x0, x0, #0xe8
    1464:	f9400000 	ldr	x0, [x0]
    1468:	aa0003e5 	mov	x5, x0
    146c:	2a0203e4 	mov	w4, w2
    1470:	f9401fa3 	ldr	x3, [x29,#56]
    1474:	aa0103e2 	mov	x2, x1
    1478:	f94023a1 	ldr	x1, [x29,#64]
    147c:	f94027a0 	ldr	x0, [x29,#72]
    1480:	94001c58 	bl	85e0 <mpa_montgomery_mul>
/home/optee/RPi3/optee_os/lib/libutee/tee_api_arith.c:558
    1484:	d503201f 	nop
    1488:	a8c57bfd 	ldp	x29, x30, [sp],#80
    148c:	d65f03c0 	ret

0000000000001490 <TEE_BigIntConvertFromFMM>:
TEE_BigIntConvertFromFMM():
/home/optee/RPi3/optee_os/lib/libutee/tee_api_arith.c:567
    1490:	a9b97bfd 	stp	x29, x30, [sp,#-112]!
    1494:	910003fd 	mov	x29, sp
    1498:	f9000bf3 	str	x19, [sp,#16]
    149c:	f9001fa0 	str	x0, [x29,#56]
    14a0:	f9001ba1 	str	x1, [x29,#48]
    14a4:	f90017a2 	str	x2, [x29,#40]
    14a8:	f90013a3 	str	x3, [x29,#32]
/home/optee/RPi3/optee_os/lib/libutee/tee_api_arith.c:568
    14ac:	f9401fa0 	ldr	x0, [x29,#56]
    14b0:	f90037a0 	str	x0, [x29,#104]
/home/optee/RPi3/optee_os/lib/libutee/tee_api_arith.c:569
    14b4:	f9401ba0 	ldr	x0, [x29,#48]
    14b8:	f90033a0 	str	x0, [x29,#96]
/home/optee/RPi3/optee_os/lib/libutee/tee_api_arith.c:570
    14bc:	f94017a0 	ldr	x0, [x29,#40]
    14c0:	f9002fa0 	str	x0, [x29,#88]
/home/optee/RPi3/optee_os/lib/libutee/tee_api_arith.c:571
    14c4:	f94013a0 	ldr	x0, [x29,#32]
    14c8:	f9002ba0 	str	x0, [x29,#80]
/home/optee/RPi3/optee_os/lib/libutee/tee_api_arith.c:579
    14cc:	90000080 	adrp	x0, 11000 <ta_props>
    14d0:	9103a000 	add	x0, x0, #0xe8
    14d4:	f9400001 	ldr	x1, [x0]
    14d8:	910123a0 	add	x0, x29, #0x48
    14dc:	940025ab 	bl	ab88 <mpa_alloc_static_temp_var>
/home/optee/RPi3/optee_os/lib/libutee/tee_api_arith.c:582
    14e0:	f94027b3 	ldr	x19, [x29,#72]
    14e4:	94001ab9 	bl	7fc8 <mpa_constant_one>
    14e8:	aa0003e6 	mov	x6, x0
    14ec:	f9402ba0 	ldr	x0, [x29,#80]
    14f0:	b9401001 	ldr	w1, [x0,#16]
    14f4:	90000080 	adrp	x0, 11000 <ta_props>
    14f8:	9103a000 	add	x0, x0, #0xe8
    14fc:	f9400000 	ldr	x0, [x0]
    1500:	aa0003e5 	mov	x5, x0
    1504:	2a0103e4 	mov	w4, w1
    1508:	f9402fa3 	ldr	x3, [x29,#88]
    150c:	f94033a2 	ldr	x2, [x29,#96]
    1510:	aa0603e1 	mov	x1, x6
    1514:	aa1303e0 	mov	x0, x19
    1518:	94001c32 	bl	85e0 <mpa_montgomery_mul>
/home/optee/RPi3/optee_os/lib/libutee/tee_api_arith.c:585
    151c:	f94027a0 	ldr	x0, [x29,#72]
    1520:	aa0003e1 	mov	x1, x0
    1524:	f94037a0 	ldr	x0, [x29,#104]
    1528:	94001a0d 	bl	7d5c <mpa_copy>
/home/optee/RPi3/optee_os/lib/libutee/tee_api_arith.c:586
    152c:	90000080 	adrp	x0, 11000 <ta_props>
    1530:	9103a000 	add	x0, x0, #0xe8
    1534:	f9400001 	ldr	x1, [x0]
    1538:	910123a0 	add	x0, x29, #0x48
    153c:	9400259e 	bl	abb4 <mpa_free_static_temp_var>
/home/optee/RPi3/optee_os/lib/libutee/tee_api_arith.c:587
    1540:	d503201f 	nop
    1544:	f9400bf3 	ldr	x19, [sp,#16]
    1548:	a8c77bfd 	ldp	x29, x30, [sp],#112
    154c:	d65f03c0 	ret

0000000000001550 <TEE_BigIntComputeFMM>:
TEE_BigIntComputeFMM():
/home/optee/RPi3/optee_os/lib/libutee/tee_api_arith.c:597
    1550:	a9b97bfd 	stp	x29, x30, [sp,#-112]!
    1554:	910003fd 	mov	x29, sp
    1558:	f9001fa0 	str	x0, [x29,#56]
    155c:	f9001ba1 	str	x1, [x29,#48]
    1560:	f90017a2 	str	x2, [x29,#40]
    1564:	f90013a3 	str	x3, [x29,#32]
    1568:	f9000fa4 	str	x4, [x29,#24]
/home/optee/RPi3/optee_os/lib/libutee/tee_api_arith.c:598
    156c:	f9401fa0 	ldr	x0, [x29,#56]
    1570:	f90037a0 	str	x0, [x29,#104]
/home/optee/RPi3/optee_os/lib/libutee/tee_api_arith.c:599
    1574:	f9401ba0 	ldr	x0, [x29,#48]
    1578:	f90033a0 	str	x0, [x29,#96]
/home/optee/RPi3/optee_os/lib/libutee/tee_api_arith.c:600
    157c:	f94017a0 	ldr	x0, [x29,#40]
    1580:	f9002fa0 	str	x0, [x29,#88]
/home/optee/RPi3/optee_os/lib/libutee/tee_api_arith.c:601
    1584:	f94013a0 	ldr	x0, [x29,#32]
    1588:	f9002ba0 	str	x0, [x29,#80]
/home/optee/RPi3/optee_os/lib/libutee/tee_api_arith.c:602
    158c:	f9400fa0 	ldr	x0, [x29,#24]
    1590:	f90027a0 	str	x0, [x29,#72]
/home/optee/RPi3/optee_os/lib/libutee/tee_api_arith.c:604
    1594:	f94027a0 	ldr	x0, [x29,#72]
    1598:	b9401001 	ldr	w1, [x0,#16]
    159c:	90000080 	adrp	x0, 11000 <ta_props>
    15a0:	9103a000 	add	x0, x0, #0xe8
    15a4:	f9400000 	ldr	x0, [x0]
    15a8:	aa0003e5 	mov	x5, x0
    15ac:	2a0103e4 	mov	w4, w1
    15b0:	f9402ba3 	ldr	x3, [x29,#80]
    15b4:	f9402fa2 	ldr	x2, [x29,#88]
    15b8:	f94033a1 	ldr	x1, [x29,#96]
    15bc:	f94037a0 	ldr	x0, [x29,#104]
    15c0:	94001c08 	bl	85e0 <mpa_montgomery_mul>
/home/optee/RPi3/optee_os/lib/libutee/tee_api_arith.c:606
    15c4:	d503201f 	nop
    15c8:	a8c77bfd 	ldp	x29, x30, [sp],#112
    15cc:	d65f03c0 	ret

00000000000015d0 <__utee_from_param>:
__utee_from_param():
/home/optee/RPi3/optee_os/lib/libutee/tee_api.c:42
    15d0:	d100c3ff 	sub	sp, sp, #0x30
    15d4:	f9000fe0 	str	x0, [sp,#24]
    15d8:	b90017e1 	str	w1, [sp,#20]
    15dc:	f90007e2 	str	x2, [sp,#8]
/home/optee/RPi3/optee_os/lib/libutee/tee_api.c:45
    15e0:	b94017e1 	ldr	w1, [sp,#20]
    15e4:	f9400fe0 	ldr	x0, [sp,#24]
    15e8:	f9000001 	str	x1, [x0]
/home/optee/RPi3/optee_os/lib/libutee/tee_api.c:46
    15ec:	f90017ff 	str	xzr, [sp,#40]
    15f0:	14000054 	b	1740 <__utee_from_param+0x170>
/home/optee/RPi3/optee_os/lib/libutee/tee_api.c:47
    15f4:	f94017e0 	ldr	x0, [sp,#40]
    15f8:	531e7400 	lsl	w0, w0, #2
    15fc:	b94017e1 	ldr	w1, [sp,#20]
    1600:	1ac02420 	lsr	w0, w1, w0
    1604:	12000c00 	and	w0, w0, #0xf
    1608:	51000400 	sub	w0, w0, #0x1
    160c:	7100181f 	cmp	w0, #0x6
    1610:	54000768 	b.hi	16fc <__utee_from_param+0x12c>
    1614:	b0000061 	adrp	x1, e000 <mpa_set_oct_str+0xa8>
    1618:	9130b021 	add	x1, x1, #0xc2c
    161c:	b8605820 	ldr	w0, [x1,w0,uxtw #2]
    1620:	10000061 	adr	x1, 162c <__utee_from_param+0x5c>
    1624:	8b20c820 	add	x0, x1, w0, sxtw #2
    1628:	d61f0000 	br	x0
/home/optee/RPi3/optee_os/lib/libutee/tee_api.c:51
    162c:	f94017e0 	ldr	x0, [sp,#40]
    1630:	d37ff800 	lsl	x0, x0, #1
    1634:	f94017e1 	ldr	x1, [sp,#40]
    1638:	d37cec21 	lsl	x1, x1, #4
    163c:	f94007e2 	ldr	x2, [sp,#8]
    1640:	8b010041 	add	x1, x2, x1
    1644:	b9400021 	ldr	w1, [x1]
    1648:	2a0103e1 	mov	w1, w1
    164c:	f9400fe2 	ldr	x2, [sp,#24]
    1650:	d37df000 	lsl	x0, x0, #3
    1654:	8b000040 	add	x0, x2, x0
    1658:	f9000401 	str	x1, [x0,#8]
/home/optee/RPi3/optee_os/lib/libutee/tee_api.c:52
    165c:	f94017e0 	ldr	x0, [sp,#40]
    1660:	d37ff800 	lsl	x0, x0, #1
    1664:	91000400 	add	x0, x0, #0x1
    1668:	f94017e1 	ldr	x1, [sp,#40]
    166c:	d37cec21 	lsl	x1, x1, #4
    1670:	f94007e2 	ldr	x2, [sp,#8]
    1674:	8b010041 	add	x1, x2, x1
    1678:	b9400421 	ldr	w1, [x1,#4]
    167c:	2a0103e1 	mov	w1, w1
    1680:	f9400fe2 	ldr	x2, [sp,#24]
    1684:	d37df000 	lsl	x0, x0, #3
    1688:	8b000040 	add	x0, x2, x0
    168c:	f9000401 	str	x1, [x0,#8]
/home/optee/RPi3/optee_os/lib/libutee/tee_api.c:53
    1690:	14000029 	b	1734 <__utee_from_param+0x164>
/home/optee/RPi3/optee_os/lib/libutee/tee_api.c:57
    1694:	f94017e0 	ldr	x0, [sp,#40]
    1698:	d37ff800 	lsl	x0, x0, #1
    169c:	f94017e1 	ldr	x1, [sp,#40]
    16a0:	d37cec21 	lsl	x1, x1, #4
    16a4:	f94007e2 	ldr	x2, [sp,#8]
    16a8:	8b010041 	add	x1, x2, x1
    16ac:	f9400021 	ldr	x1, [x1]
    16b0:	aa0103e2 	mov	x2, x1
    16b4:	f9400fe1 	ldr	x1, [sp,#24]
    16b8:	d37df000 	lsl	x0, x0, #3
    16bc:	8b000020 	add	x0, x1, x0
    16c0:	f9000402 	str	x2, [x0,#8]
/home/optee/RPi3/optee_os/lib/libutee/tee_api.c:58
    16c4:	f94017e0 	ldr	x0, [sp,#40]
    16c8:	d37ff800 	lsl	x0, x0, #1
    16cc:	91000400 	add	x0, x0, #0x1
    16d0:	f94017e1 	ldr	x1, [sp,#40]
    16d4:	d37cec21 	lsl	x1, x1, #4
    16d8:	f94007e2 	ldr	x2, [sp,#8]
    16dc:	8b010041 	add	x1, x2, x1
    16e0:	b9400821 	ldr	w1, [x1,#8]
    16e4:	2a0103e1 	mov	w1, w1
    16e8:	f9400fe2 	ldr	x2, [sp,#24]
    16ec:	d37df000 	lsl	x0, x0, #3
    16f0:	8b000040 	add	x0, x2, x0
    16f4:	f9000401 	str	x1, [x0,#8]
/home/optee/RPi3/optee_os/lib/libutee/tee_api.c:59
    16f8:	1400000f 	b	1734 <__utee_from_param+0x164>
/home/optee/RPi3/optee_os/lib/libutee/tee_api.c:61
    16fc:	f94017e0 	ldr	x0, [sp,#40]
    1700:	d37ff800 	lsl	x0, x0, #1
    1704:	f9400fe1 	ldr	x1, [sp,#24]
    1708:	d37df000 	lsl	x0, x0, #3
    170c:	8b000020 	add	x0, x1, x0
    1710:	f900041f 	str	xzr, [x0,#8]
/home/optee/RPi3/optee_os/lib/libutee/tee_api.c:62
    1714:	f94017e0 	ldr	x0, [sp,#40]
    1718:	d37ff800 	lsl	x0, x0, #1
    171c:	91000400 	add	x0, x0, #0x1
    1720:	f9400fe1 	ldr	x1, [sp,#24]
    1724:	d37df000 	lsl	x0, x0, #3
    1728:	8b000020 	add	x0, x1, x0
    172c:	f900041f 	str	xzr, [x0,#8]
/home/optee/RPi3/optee_os/lib/libutee/tee_api.c:63
    1730:	d503201f 	nop
/home/optee/RPi3/optee_os/lib/libutee/tee_api.c:46 (discriminator 2)
    1734:	f94017e0 	ldr	x0, [sp,#40]
    1738:	91000400 	add	x0, x0, #0x1
    173c:	f90017e0 	str	x0, [sp,#40]
/home/optee/RPi3/optee_os/lib/libutee/tee_api.c:46 (discriminator 1)
    1740:	f94017e0 	ldr	x0, [sp,#40]
    1744:	f1000c1f 	cmp	x0, #0x3
    1748:	54fff569 	b.ls	15f4 <__utee_from_param+0x24>
/home/optee/RPi3/optee_os/lib/libutee/tee_api.c:66
    174c:	d503201f 	nop
    1750:	9100c3ff 	add	sp, sp, #0x30
    1754:	d65f03c0 	ret

0000000000001758 <__utee_to_param>:
__utee_to_param():
/home/optee/RPi3/optee_os/lib/libutee/tee_api.c:70
    1758:	d10103ff 	sub	sp, sp, #0x40
    175c:	f9000fe0 	str	x0, [sp,#24]
    1760:	f9000be1 	str	x1, [sp,#16]
    1764:	f90007e2 	str	x2, [sp,#8]
/home/optee/RPi3/optee_os/lib/libutee/tee_api.c:72
    1768:	f94007e0 	ldr	x0, [sp,#8]
    176c:	f9400000 	ldr	x0, [x0]
    1770:	b90037e0 	str	w0, [sp,#52]
/home/optee/RPi3/optee_os/lib/libutee/tee_api.c:74
    1774:	f9001fff 	str	xzr, [sp,#56]
    1778:	1400003c 	b	1868 <__utee_to_param+0x110>
/home/optee/RPi3/optee_os/lib/libutee/tee_api.c:75
    177c:	f9401fe0 	ldr	x0, [sp,#56]
    1780:	d37ff800 	lsl	x0, x0, #1
    1784:	f94007e1 	ldr	x1, [sp,#8]
    1788:	d37df000 	lsl	x0, x0, #3
    178c:	8b000020 	add	x0, x1, x0
    1790:	f9400400 	ldr	x0, [x0,#8]
    1794:	f90017e0 	str	x0, [sp,#40]
/home/optee/RPi3/optee_os/lib/libutee/tee_api.c:76
    1798:	f9401fe0 	ldr	x0, [sp,#56]
    179c:	d37ff800 	lsl	x0, x0, #1
    17a0:	91000400 	add	x0, x0, #0x1
    17a4:	f94007e1 	ldr	x1, [sp,#8]
    17a8:	d37df000 	lsl	x0, x0, #3
    17ac:	8b000020 	add	x0, x1, x0
    17b0:	f9400400 	ldr	x0, [x0,#8]
    17b4:	f90013e0 	str	x0, [sp,#32]
/home/optee/RPi3/optee_os/lib/libutee/tee_api.c:78
    17b8:	f9401fe0 	ldr	x0, [sp,#56]
    17bc:	531e7400 	lsl	w0, w0, #2
    17c0:	b94037e1 	ldr	w1, [sp,#52]
    17c4:	1ac02420 	lsr	w0, w1, w0
    17c8:	12000c00 	and	w0, w0, #0xf
    17cc:	51000400 	sub	w0, w0, #0x1
    17d0:	7100181f 	cmp	w0, #0x6
    17d4:	54000428 	b.hi	1858 <__utee_to_param+0x100>
    17d8:	b0000061 	adrp	x1, e000 <mpa_set_oct_str+0xa8>
    17dc:	91312021 	add	x1, x1, #0xc48
    17e0:	b8605820 	ldr	w0, [x1,w0,uxtw #2]
    17e4:	10000061 	adr	x1, 17f0 <__utee_to_param+0x98>
    17e8:	8b20c820 	add	x0, x1, w0, sxtw #2
    17ec:	d61f0000 	br	x0
/home/optee/RPi3/optee_os/lib/libutee/tee_api.c:82
    17f0:	f9401fe0 	ldr	x0, [sp,#56]
    17f4:	d37cec00 	lsl	x0, x0, #4
    17f8:	f9400fe1 	ldr	x1, [sp,#24]
    17fc:	8b000020 	add	x0, x1, x0
    1800:	f94017e1 	ldr	x1, [sp,#40]
    1804:	b9000001 	str	w1, [x0]
/home/optee/RPi3/optee_os/lib/libutee/tee_api.c:83
    1808:	f9401fe0 	ldr	x0, [sp,#56]
    180c:	d37cec00 	lsl	x0, x0, #4
    1810:	f9400fe1 	ldr	x1, [sp,#24]
    1814:	8b000020 	add	x0, x1, x0
    1818:	f94013e1 	ldr	x1, [sp,#32]
    181c:	b9000401 	str	w1, [x0,#4]
/home/optee/RPi3/optee_os/lib/libutee/tee_api.c:84
    1820:	1400000f 	b	185c <__utee_to_param+0x104>
/home/optee/RPi3/optee_os/lib/libutee/tee_api.c:88
    1824:	f9401fe0 	ldr	x0, [sp,#56]
    1828:	d37cec00 	lsl	x0, x0, #4
    182c:	f9400fe1 	ldr	x1, [sp,#24]
    1830:	8b000020 	add	x0, x1, x0
    1834:	f94017e1 	ldr	x1, [sp,#40]
    1838:	f9000001 	str	x1, [x0]
/home/optee/RPi3/optee_os/lib/libutee/tee_api.c:89
    183c:	f9401fe0 	ldr	x0, [sp,#56]
    1840:	d37cec00 	lsl	x0, x0, #4
    1844:	f9400fe1 	ldr	x1, [sp,#24]
    1848:	8b000020 	add	x0, x1, x0
    184c:	f94013e1 	ldr	x1, [sp,#32]
    1850:	b9000801 	str	w1, [x0,#8]
/home/optee/RPi3/optee_os/lib/libutee/tee_api.c:90
    1854:	14000002 	b	185c <__utee_to_param+0x104>
/home/optee/RPi3/optee_os/lib/libutee/tee_api.c:92
    1858:	d503201f 	nop
/home/optee/RPi3/optee_os/lib/libutee/tee_api.c:74 (discriminator 2)
    185c:	f9401fe0 	ldr	x0, [sp,#56]
    1860:	91000400 	add	x0, x0, #0x1
    1864:	f9001fe0 	str	x0, [sp,#56]
/home/optee/RPi3/optee_os/lib/libutee/tee_api.c:74 (discriminator 1)
    1868:	f9401fe0 	ldr	x0, [sp,#56]
    186c:	f1000c1f 	cmp	x0, #0x3
    1870:	54fff869 	b.ls	177c <__utee_to_param+0x24>
/home/optee/RPi3/optee_os/lib/libutee/tee_api.c:96
    1874:	f9400be0 	ldr	x0, [sp,#16]
    1878:	eb1f001f 	cmp	x0, xzr
    187c:	54000080 	b.eq	188c <__utee_to_param+0x134>
/home/optee/RPi3/optee_os/lib/libutee/tee_api.c:97
    1880:	f9400be0 	ldr	x0, [sp,#16]
    1884:	b94037e1 	ldr	w1, [sp,#52]
    1888:	b9000001 	str	w1, [x0]
/home/optee/RPi3/optee_os/lib/libutee/tee_api.c:98
    188c:	d503201f 	nop
    1890:	910103ff 	add	sp, sp, #0x40
    1894:	d65f03c0 	ret

0000000000001898 <TEE_OpenTASession>:
TEE_OpenTASession():
/home/optee/RPi3/optee_os/lib/libutee/tee_api.c:105
    1898:	a9b67bfd 	stp	x29, x30, [sp,#-160]!
    189c:	910003fd 	mov	x29, sp
    18a0:	f9001fa0 	str	x0, [x29,#56]
    18a4:	b90037a1 	str	w1, [x29,#52]
    18a8:	b90033a2 	str	w2, [x29,#48]
    18ac:	f90017a3 	str	x3, [x29,#40]
    18b0:	f90013a4 	str	x4, [x29,#32]
    18b4:	f9000fa5 	str	x5, [x29,#24]
/home/optee/RPi3/optee_os/lib/libutee/tee_api.c:110
    18b8:	910143a0 	add	x0, x29, #0x50
    18bc:	f94017a2 	ldr	x2, [x29,#40]
    18c0:	b94033a1 	ldr	w1, [x29,#48]
    18c4:	97ffff43 	bl	15d0 <__utee_from_param>
/home/optee/RPi3/optee_os/lib/libutee/tee_api.c:111
    18c8:	b94037a0 	ldr	w0, [x29,#52]
    18cc:	910133a2 	add	x2, x29, #0x4c
    18d0:	910143a1 	add	x1, x29, #0x50
    18d4:	f9400fa4 	ldr	x4, [x29,#24]
    18d8:	aa0203e3 	mov	x3, x2
    18dc:	aa0103e2 	mov	x2, x1
    18e0:	aa0003e1 	mov	x1, x0
    18e4:	f9401fa0 	ldr	x0, [x29,#56]
    18e8:	94003341 	bl	e5ec <utee_open_ta_session>
    18ec:	b9009fa0 	str	w0, [x29,#156]
/home/optee/RPi3/optee_os/lib/libutee/tee_api.c:113
    18f0:	910143a0 	add	x0, x29, #0x50
    18f4:	aa0003e2 	mov	x2, x0
    18f8:	d2800001 	mov	x1, #0x0                   	// #0
    18fc:	f94017a0 	ldr	x0, [x29,#40]
    1900:	97ffff96 	bl	1758 <__utee_to_param>
/home/optee/RPi3/optee_os/lib/libutee/tee_api.c:119
    1904:	b9409fa0 	ldr	w0, [x29,#156]
    1908:	6b1f001f 	cmp	w0, wzr
    190c:	54000040 	b.eq	1914 <TEE_OpenTASession+0x7c>
/home/optee/RPi3/optee_os/lib/libutee/tee_api.c:120
    1910:	b9004fbf 	str	wzr, [x29,#76]
/home/optee/RPi3/optee_os/lib/libutee/tee_api.c:122
    1914:	b9404fa0 	ldr	w0, [x29,#76]
    1918:	2a0003e0 	mov	w0, w0
    191c:	aa0003e1 	mov	x1, x0
    1920:	f94013a0 	ldr	x0, [x29,#32]
    1924:	f9000001 	str	x1, [x0]
/home/optee/RPi3/optee_os/lib/libutee/tee_api.c:123
    1928:	b9409fa0 	ldr	w0, [x29,#156]
/home/optee/RPi3/optee_os/lib/libutee/tee_api.c:124
    192c:	a8ca7bfd 	ldp	x29, x30, [sp],#160
    1930:	d65f03c0 	ret

0000000000001934 <TEE_CloseTASession>:
TEE_CloseTASession():
/home/optee/RPi3/optee_os/lib/libutee/tee_api.c:127
    1934:	a9bd7bfd 	stp	x29, x30, [sp,#-48]!
    1938:	910003fd 	mov	x29, sp
    193c:	f9000fa0 	str	x0, [x29,#24]
/home/optee/RPi3/optee_os/lib/libutee/tee_api.c:128
    1940:	f9400fa0 	ldr	x0, [x29,#24]
    1944:	eb1f001f 	cmp	x0, xzr
    1948:	54000260 	b.eq	1994 <TEE_CloseTASession+0x60>
/home/optee/RPi3/optee_os/lib/libutee/tee_api.c:129
    194c:	f9400fa0 	ldr	x0, [x29,#24]
    1950:	9400332a 	bl	e5f8 <utee_close_ta_session>
    1954:	b9002fa0 	str	w0, [x29,#44]
/home/optee/RPi3/optee_os/lib/libutee/tee_api.c:131
    1958:	b9402fa0 	ldr	w0, [x29,#44]
    195c:	6b1f001f 	cmp	w0, wzr
    1960:	540001a0 	b.eq	1994 <TEE_CloseTASession+0x60>
/home/optee/RPi3/optee_os/lib/libutee/tee_api.c:132
    1964:	b0000060 	adrp	x0, e000 <mpa_set_oct_str+0xa8>
    1968:	9131a001 	add	x1, x0, #0xc68
    196c:	b0000060 	adrp	x0, e000 <mpa_set_oct_str+0xa8>
    1970:	9131e000 	add	x0, x0, #0xc78
    1974:	b9402fa5 	ldr	w5, [x29,#44]
    1978:	aa0103e4 	mov	x4, x1
    197c:	52800023 	mov	w3, #0x1                   	// #1
    1980:	52800022 	mov	w2, #0x1                   	// #1
    1984:	52801081 	mov	w1, #0x84                  	// #132
    1988:	94001757 	bl	76e4 <trace_printf>
    198c:	b9402fa0 	ldr	w0, [x29,#44]
    1990:	940001a9 	bl	2034 <__TEE_Panic>
/home/optee/RPi3/optee_os/lib/libutee/tee_api.c:134
    1994:	d503201f 	nop
    1998:	a8c37bfd 	ldp	x29, x30, [sp],#48
    199c:	d65f03c0 	ret

00000000000019a0 <TEE_InvokeTACommand>:
TEE_InvokeTACommand():
/home/optee/RPi3/optee_os/lib/libutee/tee_api.c:140
    19a0:	a9b77bfd 	stp	x29, x30, [sp,#-144]!
    19a4:	910003fd 	mov	x29, sp
    19a8:	f9001fa0 	str	x0, [x29,#56]
    19ac:	b90037a1 	str	w1, [x29,#52]
    19b0:	b90033a2 	str	w2, [x29,#48]
    19b4:	b9002fa3 	str	w3, [x29,#44]
    19b8:	f90013a4 	str	x4, [x29,#32]
    19bc:	f9000fa5 	str	x5, [x29,#24]
/home/optee/RPi3/optee_os/lib/libutee/tee_api.c:145
    19c0:	910103a0 	add	x0, x29, #0x40
    19c4:	f94013a2 	ldr	x2, [x29,#32]
    19c8:	b9402fa1 	ldr	w1, [x29,#44]
    19cc:	97ffff01 	bl	15d0 <__utee_from_param>
/home/optee/RPi3/optee_os/lib/libutee/tee_api.c:146
    19d0:	f9401fa0 	ldr	x0, [x29,#56]
    19d4:	b94037a1 	ldr	w1, [x29,#52]
    19d8:	b94033a2 	ldr	w2, [x29,#48]
    19dc:	910223a4 	add	x4, x29, #0x88
    19e0:	910103a3 	add	x3, x29, #0x40
    19e4:	94003308 	bl	e604 <utee_invoke_ta_command>
    19e8:	b9008fa0 	str	w0, [x29,#140]
/home/optee/RPi3/optee_os/lib/libutee/tee_api.c:149
    19ec:	910103a0 	add	x0, x29, #0x40
    19f0:	aa0003e2 	mov	x2, x0
    19f4:	d2800001 	mov	x1, #0x0                   	// #0
    19f8:	f94013a0 	ldr	x0, [x29,#32]
    19fc:	97ffff57 	bl	1758 <__utee_to_param>
/home/optee/RPi3/optee_os/lib/libutee/tee_api.c:151
    1a00:	f9400fa0 	ldr	x0, [x29,#24]
    1a04:	eb1f001f 	cmp	x0, xzr
    1a08:	54000080 	b.eq	1a18 <TEE_InvokeTACommand+0x78>
/home/optee/RPi3/optee_os/lib/libutee/tee_api.c:152
    1a0c:	b9408ba1 	ldr	w1, [x29,#136]
    1a10:	f9400fa0 	ldr	x0, [x29,#24]
    1a14:	b9000001 	str	w1, [x0]
/home/optee/RPi3/optee_os/lib/libutee/tee_api.c:154
    1a18:	b9408ba0 	ldr	w0, [x29,#136]
    1a1c:	7100101f 	cmp	w0, #0x4
    1a20:	54000061 	b.ne	1a2c <TEE_InvokeTACommand+0x8c>
/home/optee/RPi3/optee_os/lib/libutee/tee_api.c:155
    1a24:	b9408fa0 	ldr	w0, [x29,#140]
    1a28:	14000019 	b	1a8c <TEE_InvokeTACommand+0xec>
/home/optee/RPi3/optee_os/lib/libutee/tee_api.c:157
    1a2c:	b9408fa0 	ldr	w0, [x29,#140]
    1a30:	6b1f001f 	cmp	w0, wzr
    1a34:	540002a0 	b.eq	1a88 <TEE_InvokeTACommand+0xe8>
/home/optee/RPi3/optee_os/lib/libutee/tee_api.c:157 (discriminator 1)
    1a38:	b9408fa1 	ldr	w1, [x29,#140]
    1a3c:	129ffe60 	mov	w0, #0xffff000c            	// #-65524
    1a40:	6b00003f 	cmp	w1, w0
    1a44:	54000220 	b.eq	1a88 <TEE_InvokeTACommand+0xe8>
/home/optee/RPi3/optee_os/lib/libutee/tee_api.c:158
    1a48:	b9408fa1 	ldr	w1, [x29,#140]
    1a4c:	1299fb60 	mov	w0, #0xffff3024            	// #-53212
    1a50:	6b00003f 	cmp	w1, w0
    1a54:	540001a0 	b.eq	1a88 <TEE_InvokeTACommand+0xe8>
/home/optee/RPi3/optee_os/lib/libutee/tee_api.c:160
    1a58:	b0000060 	adrp	x0, e000 <mpa_set_oct_str+0xa8>
    1a5c:	9131a001 	add	x1, x0, #0xc68
    1a60:	b0000060 	adrp	x0, e000 <mpa_set_oct_str+0xa8>
    1a64:	91324000 	add	x0, x0, #0xc90
    1a68:	b9408fa5 	ldr	w5, [x29,#140]
    1a6c:	aa0103e4 	mov	x4, x1
    1a70:	52800023 	mov	w3, #0x1                   	// #1
    1a74:	52800022 	mov	w2, #0x1                   	// #1
    1a78:	52801401 	mov	w1, #0xa0                  	// #160
    1a7c:	9400171a 	bl	76e4 <trace_printf>
    1a80:	b9408fa0 	ldr	w0, [x29,#140]
    1a84:	9400016c 	bl	2034 <__TEE_Panic>
/home/optee/RPi3/optee_os/lib/libutee/tee_api.c:162
    1a88:	b9408fa0 	ldr	w0, [x29,#140]
/home/optee/RPi3/optee_os/lib/libutee/tee_api.c:163 (discriminator 1)
    1a8c:	a8c97bfd 	ldp	x29, x30, [sp],#144
    1a90:	d65f03c0 	ret

0000000000001a94 <TEE_GetCancellationFlag>:
TEE_GetCancellationFlag():
/home/optee/RPi3/optee_os/lib/libutee/tee_api.c:168
    1a94:	a9be7bfd 	stp	x29, x30, [sp,#-32]!
    1a98:	910003fd 	mov	x29, sp
/home/optee/RPi3/optee_os/lib/libutee/tee_api.c:170
    1a9c:	910063a0 	add	x0, x29, #0x18
    1aa0:	940032dc 	bl	e610 <utee_get_cancellation_flag>
    1aa4:	b9001fa0 	str	w0, [x29,#28]
/home/optee/RPi3/optee_os/lib/libutee/tee_api.c:172
    1aa8:	b9401fa0 	ldr	w0, [x29,#28]
    1aac:	6b1f001f 	cmp	w0, wzr
    1ab0:	54000040 	b.eq	1ab8 <TEE_GetCancellationFlag+0x24>
/home/optee/RPi3/optee_os/lib/libutee/tee_api.c:173
    1ab4:	b9001bbf 	str	wzr, [x29,#24]
/home/optee/RPi3/optee_os/lib/libutee/tee_api.c:174
    1ab8:	b9401ba0 	ldr	w0, [x29,#24]
    1abc:	6b1f001f 	cmp	w0, wzr
    1ac0:	1a9f07e0 	cset	w0, ne
    1ac4:	53001c00 	uxtb	w0, w0
/home/optee/RPi3/optee_os/lib/libutee/tee_api.c:175
    1ac8:	a8c27bfd 	ldp	x29, x30, [sp],#32
    1acc:	d65f03c0 	ret

0000000000001ad0 <TEE_UnmaskCancellation>:
TEE_UnmaskCancellation():
/home/optee/RPi3/optee_os/lib/libutee/tee_api.c:178
    1ad0:	a9be7bfd 	stp	x29, x30, [sp,#-32]!
    1ad4:	910003fd 	mov	x29, sp
/home/optee/RPi3/optee_os/lib/libutee/tee_api.c:180
    1ad8:	910063a0 	add	x0, x29, #0x18
    1adc:	940032d3 	bl	e628 <utee_unmask_cancellation>
    1ae0:	b9001fa0 	str	w0, [x29,#28]
/home/optee/RPi3/optee_os/lib/libutee/tee_api.c:182
    1ae4:	b9401fa0 	ldr	w0, [x29,#28]
    1ae8:	6b1f001f 	cmp	w0, wzr
    1aec:	540001a0 	b.eq	1b20 <TEE_UnmaskCancellation+0x50>
/home/optee/RPi3/optee_os/lib/libutee/tee_api.c:183
    1af0:	b0000060 	adrp	x0, e000 <mpa_set_oct_str+0xa8>
    1af4:	9131a001 	add	x1, x0, #0xc68
    1af8:	b0000060 	adrp	x0, e000 <mpa_set_oct_str+0xa8>
    1afc:	9132a000 	add	x0, x0, #0xca8
    1b00:	b9401fa5 	ldr	w5, [x29,#28]
    1b04:	aa0103e4 	mov	x4, x1
    1b08:	52800023 	mov	w3, #0x1                   	// #1
    1b0c:	52800022 	mov	w2, #0x1                   	// #1
    1b10:	528016e1 	mov	w1, #0xb7                  	// #183
    1b14:	940016f4 	bl	76e4 <trace_printf>
    1b18:	b9401fa0 	ldr	w0, [x29,#28]
    1b1c:	94000146 	bl	2034 <__TEE_Panic>
/home/optee/RPi3/optee_os/lib/libutee/tee_api.c:184
    1b20:	b9401ba0 	ldr	w0, [x29,#24]
    1b24:	6b1f001f 	cmp	w0, wzr
    1b28:	1a9f07e0 	cset	w0, ne
    1b2c:	53001c00 	uxtb	w0, w0
/home/optee/RPi3/optee_os/lib/libutee/tee_api.c:185
    1b30:	a8c27bfd 	ldp	x29, x30, [sp],#32
    1b34:	d65f03c0 	ret

0000000000001b38 <TEE_MaskCancellation>:
TEE_MaskCancellation():
/home/optee/RPi3/optee_os/lib/libutee/tee_api.c:188
    1b38:	a9be7bfd 	stp	x29, x30, [sp,#-32]!
    1b3c:	910003fd 	mov	x29, sp
/home/optee/RPi3/optee_os/lib/libutee/tee_api.c:190
    1b40:	910063a0 	add	x0, x29, #0x18
    1b44:	940032bc 	bl	e634 <utee_mask_cancellation>
    1b48:	b9001fa0 	str	w0, [x29,#28]
/home/optee/RPi3/optee_os/lib/libutee/tee_api.c:192
    1b4c:	b9401fa0 	ldr	w0, [x29,#28]
    1b50:	6b1f001f 	cmp	w0, wzr
    1b54:	540001a0 	b.eq	1b88 <TEE_MaskCancellation+0x50>
/home/optee/RPi3/optee_os/lib/libutee/tee_api.c:193
    1b58:	b0000060 	adrp	x0, e000 <mpa_set_oct_str+0xa8>
    1b5c:	9131a001 	add	x1, x0, #0xc68
    1b60:	b0000060 	adrp	x0, e000 <mpa_set_oct_str+0xa8>
    1b64:	91330000 	add	x0, x0, #0xcc0
    1b68:	b9401fa5 	ldr	w5, [x29,#28]
    1b6c:	aa0103e4 	mov	x4, x1
    1b70:	52800023 	mov	w3, #0x1                   	// #1
    1b74:	52800022 	mov	w2, #0x1                   	// #1
    1b78:	52801821 	mov	w1, #0xc1                  	// #193
    1b7c:	940016da 	bl	76e4 <trace_printf>
    1b80:	b9401fa0 	ldr	w0, [x29,#28]
    1b84:	9400012c 	bl	2034 <__TEE_Panic>
/home/optee/RPi3/optee_os/lib/libutee/tee_api.c:194
    1b88:	b9401ba0 	ldr	w0, [x29,#24]
    1b8c:	6b1f001f 	cmp	w0, wzr
    1b90:	1a9f07e0 	cset	w0, ne
    1b94:	53001c00 	uxtb	w0, w0
/home/optee/RPi3/optee_os/lib/libutee/tee_api.c:195
    1b98:	a8c27bfd 	ldp	x29, x30, [sp],#32
    1b9c:	d65f03c0 	ret

0000000000001ba0 <TEE_CheckMemoryAccessRights>:
TEE_CheckMemoryAccessRights():
/home/optee/RPi3/optee_os/lib/libutee/tee_api.c:201
    1ba0:	a9bd7bfd 	stp	x29, x30, [sp,#-48]!
    1ba4:	910003fd 	mov	x29, sp
    1ba8:	b9001fa0 	str	w0, [x29,#28]
    1bac:	f9000ba1 	str	x1, [x29,#16]
    1bb0:	b9001ba2 	str	w2, [x29,#24]
/home/optee/RPi3/optee_os/lib/libutee/tee_api.c:204
    1bb4:	b9401ba0 	ldr	w0, [x29,#24]
    1bb8:	6b1f001f 	cmp	w0, wzr
    1bbc:	54000061 	b.ne	1bc8 <TEE_CheckMemoryAccessRights+0x28>
/home/optee/RPi3/optee_os/lib/libutee/tee_api.c:205
    1bc0:	52800000 	mov	w0, #0x0                   	// #0
    1bc4:	1400000e 	b	1bfc <TEE_CheckMemoryAccessRights+0x5c>
/home/optee/RPi3/optee_os/lib/libutee/tee_api.c:208
    1bc8:	b9401ba0 	ldr	w0, [x29,#24]
    1bcc:	aa0003e2 	mov	x2, x0
    1bd0:	f9400ba1 	ldr	x1, [x29,#16]
    1bd4:	b9401fa0 	ldr	w0, [x29,#28]
    1bd8:	94003291 	bl	e61c <utee_check_access_rights>
    1bdc:	b9002fa0 	str	w0, [x29,#44]
/home/optee/RPi3/optee_os/lib/libutee/tee_api.c:209
    1be0:	b9402fa0 	ldr	w0, [x29,#44]
    1be4:	6b1f001f 	cmp	w0, wzr
    1be8:	54000061 	b.ne	1bf4 <TEE_CheckMemoryAccessRights+0x54>
/home/optee/RPi3/optee_os/lib/libutee/tee_api.c:217
    1bec:	b9002fbf 	str	wzr, [x29,#44]
    1bf0:	14000002 	b	1bf8 <TEE_CheckMemoryAccessRights+0x58>
/home/optee/RPi3/optee_os/lib/libutee/tee_api.c:210
    1bf4:	d503201f 	nop
/home/optee/RPi3/optee_os/lib/libutee/tee_api.c:219
    1bf8:	b9402fa0 	ldr	w0, [x29,#44]
/home/optee/RPi3/optee_os/lib/libutee/tee_api.c:220
    1bfc:	a8c37bfd 	ldp	x29, x30, [sp],#48
    1c00:	d65f03c0 	ret

0000000000001c04 <TEE_SetInstanceData>:
TEE_SetInstanceData():
/home/optee/RPi3/optee_os/lib/libutee/tee_api.c:223
    1c04:	d10043ff 	sub	sp, sp, #0x10
    1c08:	f90007e0 	str	x0, [sp,#8]
/home/optee/RPi3/optee_os/lib/libutee/tee_api.c:224
    1c0c:	b00000c0 	adrp	x0, 1a000 <mempool_u32+0xe88>
    1c10:	9132e000 	add	x0, x0, #0xcb8
    1c14:	f94007e1 	ldr	x1, [sp,#8]
    1c18:	f9000001 	str	x1, [x0]
/home/optee/RPi3/optee_os/lib/libutee/tee_api.c:225
    1c1c:	d503201f 	nop
    1c20:	910043ff 	add	sp, sp, #0x10
    1c24:	d65f03c0 	ret

0000000000001c28 <TEE_GetInstanceData>:
TEE_GetInstanceData():
/home/optee/RPi3/optee_os/lib/libutee/tee_api.c:229
    1c28:	b00000c0 	adrp	x0, 1a000 <mempool_u32+0xe88>
    1c2c:	9132e000 	add	x0, x0, #0xcb8
    1c30:	f9400000 	ldr	x0, [x0]
/home/optee/RPi3/optee_os/lib/libutee/tee_api.c:230
    1c34:	d65f03c0 	ret

0000000000001c38 <TEE_MemMove>:
TEE_MemMove():
/home/optee/RPi3/optee_os/lib/libutee/tee_api.c:233
    1c38:	a9bd7bfd 	stp	x29, x30, [sp,#-48]!
    1c3c:	910003fd 	mov	x29, sp
    1c40:	f90017a0 	str	x0, [x29,#40]
    1c44:	f90013a1 	str	x1, [x29,#32]
    1c48:	b9001fa2 	str	w2, [x29,#28]
/home/optee/RPi3/optee_os/lib/libutee/tee_api.c:234
    1c4c:	b9401fa0 	ldr	w0, [x29,#28]
    1c50:	aa0003e2 	mov	x2, x0
    1c54:	f94013a1 	ldr	x1, [x29,#32]
    1c58:	f94017a0 	ldr	x0, [x29,#40]
    1c5c:	94000cab 	bl	4f08 <memmove>
/home/optee/RPi3/optee_os/lib/libutee/tee_api.c:235
    1c60:	a8c37bfd 	ldp	x29, x30, [sp],#48
    1c64:	d65f03c0 	ret

0000000000001c68 <TEE_MemCompare>:
TEE_MemCompare():
/home/optee/RPi3/optee_os/lib/libutee/tee_api.c:238
    1c68:	a9bd7bfd 	stp	x29, x30, [sp,#-48]!
    1c6c:	910003fd 	mov	x29, sp
    1c70:	f90017a0 	str	x0, [x29,#40]
    1c74:	f90013a1 	str	x1, [x29,#32]
    1c78:	b9001fa2 	str	w2, [x29,#28]
/home/optee/RPi3/optee_os/lib/libutee/tee_api.c:239
    1c7c:	b9401fa0 	ldr	w0, [x29,#28]
    1c80:	aa0003e2 	mov	x2, x0
    1c84:	f94013a1 	ldr	x1, [x29,#32]
    1c88:	f94017a0 	ldr	x0, [x29,#40]
    1c8c:	94000bf5 	bl	4c60 <memcmp>
/home/optee/RPi3/optee_os/lib/libutee/tee_api.c:240
    1c90:	a8c37bfd 	ldp	x29, x30, [sp],#48
    1c94:	d65f03c0 	ret

0000000000001c98 <TEE_MemFill>:
TEE_MemFill():
/home/optee/RPi3/optee_os/lib/libutee/tee_api.c:243
    1c98:	a9be7bfd 	stp	x29, x30, [sp,#-32]!
    1c9c:	910003fd 	mov	x29, sp
    1ca0:	f9000fa0 	str	x0, [x29,#24]
    1ca4:	b90017a1 	str	w1, [x29,#20]
    1ca8:	b90013a2 	str	w2, [x29,#16]
/home/optee/RPi3/optee_os/lib/libutee/tee_api.c:244
    1cac:	b94017a0 	ldr	w0, [x29,#20]
    1cb0:	b94013a1 	ldr	w1, [x29,#16]
    1cb4:	aa0103e2 	mov	x2, x1
    1cb8:	2a0003e1 	mov	w1, w0
    1cbc:	f9400fa0 	ldr	x0, [x29,#24]
    1cc0:	94000d15 	bl	5114 <memset>
/home/optee/RPi3/optee_os/lib/libutee/tee_api.c:245
    1cc4:	a8c27bfd 	ldp	x29, x30, [sp],#32
    1cc8:	d65f03c0 	ret

0000000000001ccc <TEE_GetSystemTime>:
TEE_GetSystemTime():
/home/optee/RPi3/optee_os/lib/libutee/tee_api.c:250
    1ccc:	a9bd7bfd 	stp	x29, x30, [sp,#-48]!
    1cd0:	910003fd 	mov	x29, sp
    1cd4:	f9000fa0 	str	x0, [x29,#24]
/home/optee/RPi3/optee_os/lib/libutee/tee_api.c:251
    1cd8:	f9400fa1 	ldr	x1, [x29,#24]
    1cdc:	d2800000 	mov	x0, #0x0                   	// #0
    1ce0:	9400325b 	bl	e64c <utee_get_time>
    1ce4:	b9002fa0 	str	w0, [x29,#44]
/home/optee/RPi3/optee_os/lib/libutee/tee_api.c:253
    1ce8:	b9402fa0 	ldr	w0, [x29,#44]
    1cec:	6b1f001f 	cmp	w0, wzr
    1cf0:	540001a0 	b.eq	1d24 <TEE_GetSystemTime+0x58>
/home/optee/RPi3/optee_os/lib/libutee/tee_api.c:254
    1cf4:	b0000060 	adrp	x0, e000 <mpa_set_oct_str+0xa8>
    1cf8:	9131a001 	add	x1, x0, #0xc68
    1cfc:	b0000060 	adrp	x0, e000 <mpa_set_oct_str+0xa8>
    1d00:	91336000 	add	x0, x0, #0xcd8
    1d04:	52800005 	mov	w5, #0x0                   	// #0
    1d08:	aa0103e4 	mov	x4, x1
    1d0c:	52800023 	mov	w3, #0x1                   	// #1
    1d10:	52800022 	mov	w2, #0x1                   	// #1
    1d14:	52801fc1 	mov	w1, #0xfe                  	// #254
    1d18:	94001673 	bl	76e4 <trace_printf>
    1d1c:	52800000 	mov	w0, #0x0                   	// #0
    1d20:	940000c5 	bl	2034 <__TEE_Panic>
/home/optee/RPi3/optee_os/lib/libutee/tee_api.c:255
    1d24:	d503201f 	nop
    1d28:	a8c37bfd 	ldp	x29, x30, [sp],#48
    1d2c:	d65f03c0 	ret

0000000000001d30 <TEE_Wait>:
TEE_Wait():
/home/optee/RPi3/optee_os/lib/libutee/tee_api.c:258
    1d30:	a9bd7bfd 	stp	x29, x30, [sp,#-48]!
    1d34:	910003fd 	mov	x29, sp
    1d38:	b9001fa0 	str	w0, [x29,#28]
/home/optee/RPi3/optee_os/lib/libutee/tee_api.c:259
    1d3c:	b9401fa0 	ldr	w0, [x29,#28]
    1d40:	94003240 	bl	e640 <utee_wait>
    1d44:	b9002fa0 	str	w0, [x29,#44]
/home/optee/RPi3/optee_os/lib/libutee/tee_api.c:261
    1d48:	b9402fa0 	ldr	w0, [x29,#44]
    1d4c:	6b1f001f 	cmp	w0, wzr
    1d50:	54000220 	b.eq	1d94 <TEE_Wait+0x64>
/home/optee/RPi3/optee_os/lib/libutee/tee_api.c:261 (discriminator 1)
    1d54:	b9402fa1 	ldr	w1, [x29,#44]
    1d58:	129fffa0 	mov	w0, #0xffff0002            	// #-65534
    1d5c:	6b00003f 	cmp	w1, w0
    1d60:	540001a0 	b.eq	1d94 <TEE_Wait+0x64>
/home/optee/RPi3/optee_os/lib/libutee/tee_api.c:262
    1d64:	b0000060 	adrp	x0, e000 <mpa_set_oct_str+0xa8>
    1d68:	9131a001 	add	x1, x0, #0xc68
    1d6c:	b0000060 	adrp	x0, e000 <mpa_set_oct_str+0xa8>
    1d70:	9133c000 	add	x0, x0, #0xcf0
    1d74:	b9402fa5 	ldr	w5, [x29,#44]
    1d78:	aa0103e4 	mov	x4, x1
    1d7c:	52800023 	mov	w3, #0x1                   	// #1
    1d80:	52800022 	mov	w2, #0x1                   	// #1
    1d84:	528020c1 	mov	w1, #0x106                 	// #262
    1d88:	94001657 	bl	76e4 <trace_printf>
    1d8c:	b9402fa0 	ldr	w0, [x29,#44]
    1d90:	940000a9 	bl	2034 <__TEE_Panic>
/home/optee/RPi3/optee_os/lib/libutee/tee_api.c:264
    1d94:	b9402fa0 	ldr	w0, [x29,#44]
/home/optee/RPi3/optee_os/lib/libutee/tee_api.c:265
    1d98:	a8c37bfd 	ldp	x29, x30, [sp],#48
    1d9c:	d65f03c0 	ret

0000000000001da0 <TEE_GetTAPersistentTime>:
TEE_GetTAPersistentTime():
/home/optee/RPi3/optee_os/lib/libutee/tee_api.c:268
    1da0:	a9bd7bfd 	stp	x29, x30, [sp,#-48]!
    1da4:	910003fd 	mov	x29, sp
    1da8:	f9000fa0 	str	x0, [x29,#24]
/home/optee/RPi3/optee_os/lib/libutee/tee_api.c:271
    1dac:	f9400fa1 	ldr	x1, [x29,#24]
    1db0:	d2800020 	mov	x0, #0x1                   	// #1
    1db4:	94003226 	bl	e64c <utee_get_time>
    1db8:	b9002fa0 	str	w0, [x29,#44]
/home/optee/RPi3/optee_os/lib/libutee/tee_api.c:273
    1dbc:	b9402fa0 	ldr	w0, [x29,#44]
    1dc0:	6b1f001f 	cmp	w0, wzr
    1dc4:	54000120 	b.eq	1de8 <TEE_GetTAPersistentTime+0x48>
/home/optee/RPi3/optee_os/lib/libutee/tee_api.c:273 (discriminator 1)
    1dc8:	b9402fa1 	ldr	w1, [x29,#44]
    1dcc:	1299fe00 	mov	w0, #0xffff300f            	// #-53233
    1dd0:	6b00003f 	cmp	w1, w0
    1dd4:	540000a0 	b.eq	1de8 <TEE_GetTAPersistentTime+0x48>
/home/optee/RPi3/optee_os/lib/libutee/tee_api.c:274
    1dd8:	f9400fa0 	ldr	x0, [x29,#24]
    1ddc:	b900001f 	str	wzr, [x0]
/home/optee/RPi3/optee_os/lib/libutee/tee_api.c:275
    1de0:	f9400fa0 	ldr	x0, [x29,#24]
    1de4:	b900041f 	str	wzr, [x0,#4]
/home/optee/RPi3/optee_os/lib/libutee/tee_api.c:278
    1de8:	b9402fa0 	ldr	w0, [x29,#44]
    1dec:	6b1f001f 	cmp	w0, wzr
    1df0:	54000380 	b.eq	1e60 <TEE_GetTAPersistentTime+0xc0>
/home/optee/RPi3/optee_os/lib/libutee/tee_api.c:278 (discriminator 1)
    1df4:	b9402fa0 	ldr	w0, [x29,#44]
    1df8:	31402c1f 	cmn	w0, #0xb, lsl #12
    1dfc:	54000320 	b.eq	1e60 <TEE_GetTAPersistentTime+0xc0>
/home/optee/RPi3/optee_os/lib/libutee/tee_api.c:279
    1e00:	b9402fa1 	ldr	w1, [x29,#44]
    1e04:	1295ffc0 	mov	w0, #0xffff5001            	// #-45055
    1e08:	6b00003f 	cmp	w1, w0
    1e0c:	540002a0 	b.eq	1e60 <TEE_GetTAPersistentTime+0xc0>
/home/optee/RPi3/optee_os/lib/libutee/tee_api.c:280
    1e10:	b9402fa1 	ldr	w1, [x29,#44]
    1e14:	1299fe00 	mov	w0, #0xffff300f            	// #-53233
    1e18:	6b00003f 	cmp	w1, w0
    1e1c:	54000220 	b.eq	1e60 <TEE_GetTAPersistentTime+0xc0>
/home/optee/RPi3/optee_os/lib/libutee/tee_api.c:281
    1e20:	b9402fa1 	ldr	w1, [x29,#44]
    1e24:	129ffe60 	mov	w0, #0xffff000c            	// #-65524
    1e28:	6b00003f 	cmp	w1, w0
    1e2c:	540001a0 	b.eq	1e60 <TEE_GetTAPersistentTime+0xc0>
/home/optee/RPi3/optee_os/lib/libutee/tee_api.c:283
    1e30:	b0000060 	adrp	x0, e000 <mpa_set_oct_str+0xa8>
    1e34:	9131a001 	add	x1, x0, #0xc68
    1e38:	b0000060 	adrp	x0, e000 <mpa_set_oct_str+0xa8>
    1e3c:	91340000 	add	x0, x0, #0xd00
    1e40:	b9402fa5 	ldr	w5, [x29,#44]
    1e44:	aa0103e4 	mov	x4, x1
    1e48:	52800023 	mov	w3, #0x1                   	// #1
    1e4c:	52800022 	mov	w2, #0x1                   	// #1
    1e50:	52802361 	mov	w1, #0x11b                 	// #283
    1e54:	94001624 	bl	76e4 <trace_printf>
    1e58:	b9402fa0 	ldr	w0, [x29,#44]
    1e5c:	94000076 	bl	2034 <__TEE_Panic>
/home/optee/RPi3/optee_os/lib/libutee/tee_api.c:285
    1e60:	b9402fa0 	ldr	w0, [x29,#44]
/home/optee/RPi3/optee_os/lib/libutee/tee_api.c:286
    1e64:	a8c37bfd 	ldp	x29, x30, [sp],#48
    1e68:	d65f03c0 	ret

0000000000001e6c <TEE_SetTAPersistentTime>:
TEE_SetTAPersistentTime():
/home/optee/RPi3/optee_os/lib/libutee/tee_api.c:289
    1e6c:	a9bd7bfd 	stp	x29, x30, [sp,#-48]!
    1e70:	910003fd 	mov	x29, sp
    1e74:	f9000fa0 	str	x0, [x29,#24]
/home/optee/RPi3/optee_os/lib/libutee/tee_api.c:292
    1e78:	f9400fa0 	ldr	x0, [x29,#24]
    1e7c:	940031f7 	bl	e658 <utee_set_ta_time>
    1e80:	b9002fa0 	str	w0, [x29,#44]
/home/optee/RPi3/optee_os/lib/libutee/tee_api.c:294
    1e84:	b9402fa0 	ldr	w0, [x29,#44]
    1e88:	6b1f001f 	cmp	w0, wzr
    1e8c:	540002a0 	b.eq	1ee0 <TEE_SetTAPersistentTime+0x74>
/home/optee/RPi3/optee_os/lib/libutee/tee_api.c:294 (discriminator 1)
    1e90:	b9402fa1 	ldr	w1, [x29,#44]
    1e94:	129ffe60 	mov	w0, #0xffff000c            	// #-65524
    1e98:	6b00003f 	cmp	w1, w0
    1e9c:	54000220 	b.eq	1ee0 <TEE_SetTAPersistentTime+0x74>
/home/optee/RPi3/optee_os/lib/libutee/tee_api.c:295
    1ea0:	b9402fa1 	ldr	w1, [x29,#44]
    1ea4:	1299f7c0 	mov	w0, #0xffff3041            	// #-53183
    1ea8:	6b00003f 	cmp	w1, w0
    1eac:	540001a0 	b.eq	1ee0 <TEE_SetTAPersistentTime+0x74>
/home/optee/RPi3/optee_os/lib/libutee/tee_api.c:297
    1eb0:	b0000060 	adrp	x0, e000 <mpa_set_oct_str+0xa8>
    1eb4:	9131a001 	add	x1, x0, #0xc68
    1eb8:	b0000060 	adrp	x0, e000 <mpa_set_oct_str+0xa8>
    1ebc:	91346000 	add	x0, x0, #0xd18
    1ec0:	b9402fa5 	ldr	w5, [x29,#44]
    1ec4:	aa0103e4 	mov	x4, x1
    1ec8:	52800023 	mov	w3, #0x1                   	// #1
    1ecc:	52800022 	mov	w2, #0x1                   	// #1
    1ed0:	52802521 	mov	w1, #0x129                 	// #297
    1ed4:	94001604 	bl	76e4 <trace_printf>
    1ed8:	b9402fa0 	ldr	w0, [x29,#44]
    1edc:	94000056 	bl	2034 <__TEE_Panic>
/home/optee/RPi3/optee_os/lib/libutee/tee_api.c:299
    1ee0:	b9402fa0 	ldr	w0, [x29,#44]
/home/optee/RPi3/optee_os/lib/libutee/tee_api.c:300
    1ee4:	a8c37bfd 	ldp	x29, x30, [sp],#48
    1ee8:	d65f03c0 	ret

0000000000001eec <TEE_GetREETime>:
TEE_GetREETime():
/home/optee/RPi3/optee_os/lib/libutee/tee_api.c:303
    1eec:	a9bd7bfd 	stp	x29, x30, [sp,#-48]!
    1ef0:	910003fd 	mov	x29, sp
    1ef4:	f9000fa0 	str	x0, [x29,#24]
/home/optee/RPi3/optee_os/lib/libutee/tee_api.c:304
    1ef8:	f9400fa1 	ldr	x1, [x29,#24]
    1efc:	d2800040 	mov	x0, #0x2                   	// #2
    1f00:	940031d3 	bl	e64c <utee_get_time>
    1f04:	b9002fa0 	str	w0, [x29,#44]
/home/optee/RPi3/optee_os/lib/libutee/tee_api.c:306
    1f08:	b9402fa0 	ldr	w0, [x29,#44]
    1f0c:	6b1f001f 	cmp	w0, wzr
    1f10:	540001a0 	b.eq	1f44 <TEE_GetREETime+0x58>
/home/optee/RPi3/optee_os/lib/libutee/tee_api.c:307
    1f14:	b0000060 	adrp	x0, e000 <mpa_set_oct_str+0xa8>
    1f18:	9131a001 	add	x1, x0, #0xc68
    1f1c:	b0000060 	adrp	x0, e000 <mpa_set_oct_str+0xa8>
    1f20:	9134c000 	add	x0, x0, #0xd30
    1f24:	52800005 	mov	w5, #0x0                   	// #0
    1f28:	aa0103e4 	mov	x4, x1
    1f2c:	52800023 	mov	w3, #0x1                   	// #1
    1f30:	52800022 	mov	w2, #0x1                   	// #1
    1f34:	52802661 	mov	w1, #0x133                 	// #307
    1f38:	940015eb 	bl	76e4 <trace_printf>
    1f3c:	52800000 	mov	w0, #0x0                   	// #0
    1f40:	9400003d 	bl	2034 <__TEE_Panic>
/home/optee/RPi3/optee_os/lib/libutee/tee_api.c:308
    1f44:	d503201f 	nop
    1f48:	a8c37bfd 	ldp	x29, x30, [sp],#48
    1f4c:	d65f03c0 	ret

0000000000001f50 <TEE_Malloc>:
TEE_Malloc():
/home/optee/RPi3/optee_os/lib/libutee/tee_api.c:311
    1f50:	a9be7bfd 	stp	x29, x30, [sp,#-32]!
    1f54:	910003fd 	mov	x29, sp
    1f58:	b9001fa0 	str	w0, [x29,#28]
    1f5c:	b9001ba1 	str	w1, [x29,#24]
/home/optee/RPi3/optee_os/lib/libutee/tee_api.c:312
    1f60:	b9401fa0 	ldr	w0, [x29,#28]
    1f64:	b9401ba1 	ldr	w1, [x29,#24]
    1f68:	94000178 	bl	2548 <tee_user_mem_alloc>
/home/optee/RPi3/optee_os/lib/libutee/tee_api.c:313
    1f6c:	a8c27bfd 	ldp	x29, x30, [sp],#32
    1f70:	d65f03c0 	ret

0000000000001f74 <TEE_Realloc>:
TEE_Realloc():
/home/optee/RPi3/optee_os/lib/libutee/tee_api.c:316
    1f74:	a9be7bfd 	stp	x29, x30, [sp,#-32]!
    1f78:	910003fd 	mov	x29, sp
    1f7c:	f9000fa0 	str	x0, [x29,#24]
    1f80:	b90017a1 	str	w1, [x29,#20]
/home/optee/RPi3/optee_os/lib/libutee/tee_api.c:321
    1f84:	b94017a0 	ldr	w0, [x29,#20]
    1f88:	aa0003e1 	mov	x1, x0
    1f8c:	f9400fa0 	ldr	x0, [x29,#24]
    1f90:	940001e2 	bl	2718 <tee_user_mem_realloc>
/home/optee/RPi3/optee_os/lib/libutee/tee_api.c:322
    1f94:	a8c27bfd 	ldp	x29, x30, [sp],#32
    1f98:	d65f03c0 	ret

0000000000001f9c <TEE_Free>:
TEE_Free():
/home/optee/RPi3/optee_os/lib/libutee/tee_api.c:325
    1f9c:	a9be7bfd 	stp	x29, x30, [sp,#-32]!
    1fa0:	910003fd 	mov	x29, sp
    1fa4:	f9000fa0 	str	x0, [x29,#24]
/home/optee/RPi3/optee_os/lib/libutee/tee_api.c:326
    1fa8:	f9400fa0 	ldr	x0, [x29,#24]
    1fac:	9400021f 	bl	2828 <tee_user_mem_free>
/home/optee/RPi3/optee_os/lib/libutee/tee_api.c:327
    1fb0:	d503201f 	nop
    1fb4:	a8c27bfd 	ldp	x29, x30, [sp],#32
    1fb8:	d65f03c0 	ret

0000000000001fbc <TEE_CacheClean>:
TEE_CacheClean():
/home/optee/RPi3/optee_os/lib/libutee/tee_api.c:331
    1fbc:	a9be7bfd 	stp	x29, x30, [sp,#-32]!
    1fc0:	910003fd 	mov	x29, sp
    1fc4:	f9000fa0 	str	x0, [x29,#24]
    1fc8:	f9000ba1 	str	x1, [x29,#16]
/home/optee/RPi3/optee_os/lib/libutee/tee_api.c:332
    1fcc:	d2800002 	mov	x2, #0x0                   	// #0
    1fd0:	f9400ba1 	ldr	x1, [x29,#16]
    1fd4:	f9400fa0 	ldr	x0, [x29,#24]
    1fd8:	94003248 	bl	e8f8 <utee_cache_operation>
/home/optee/RPi3/optee_os/lib/libutee/tee_api.c:333
    1fdc:	a8c27bfd 	ldp	x29, x30, [sp],#32
    1fe0:	d65f03c0 	ret

0000000000001fe4 <TEE_CacheFlush>:
TEE_CacheFlush():
/home/optee/RPi3/optee_os/lib/libutee/tee_api.c:335
    1fe4:	a9be7bfd 	stp	x29, x30, [sp,#-32]!
    1fe8:	910003fd 	mov	x29, sp
    1fec:	f9000fa0 	str	x0, [x29,#24]
    1ff0:	f9000ba1 	str	x1, [x29,#16]
/home/optee/RPi3/optee_os/lib/libutee/tee_api.c:336
    1ff4:	d2800022 	mov	x2, #0x1                   	// #1
    1ff8:	f9400ba1 	ldr	x1, [x29,#16]
    1ffc:	f9400fa0 	ldr	x0, [x29,#24]
    2000:	9400323e 	bl	e8f8 <utee_cache_operation>
/home/optee/RPi3/optee_os/lib/libutee/tee_api.c:337
    2004:	a8c27bfd 	ldp	x29, x30, [sp],#32
    2008:	d65f03c0 	ret

000000000000200c <TEE_CacheInvalidate>:
TEE_CacheInvalidate():
/home/optee/RPi3/optee_os/lib/libutee/tee_api.c:340
    200c:	a9be7bfd 	stp	x29, x30, [sp,#-32]!
    2010:	910003fd 	mov	x29, sp
    2014:	f9000fa0 	str	x0, [x29,#24]
    2018:	f9000ba1 	str	x1, [x29,#16]
/home/optee/RPi3/optee_os/lib/libutee/tee_api.c:341
    201c:	d2800042 	mov	x2, #0x2                   	// #2
    2020:	f9400ba1 	ldr	x1, [x29,#16]
    2024:	f9400fa0 	ldr	x0, [x29,#24]
    2028:	94003234 	bl	e8f8 <utee_cache_operation>
/home/optee/RPi3/optee_os/lib/libutee/tee_api.c:342
    202c:	a8c27bfd 	ldp	x29, x30, [sp],#32
    2030:	d65f03c0 	ret

0000000000002034 <__TEE_Panic>:
__TEE_Panic():
/home/optee/RPi3/optee_os/lib/libutee/tee_api_panic.c:35
    2034:	a9be7bfd 	stp	x29, x30, [sp,#-32]!
    2038:	910003fd 	mov	x29, sp
    203c:	b9001fa0 	str	w0, [x29,#28]
/home/optee/RPi3/optee_os/lib/libutee/tee_api_panic.c:36
    2040:	b9401fa0 	ldr	w0, [x29,#28]
    2044:	94003161 	bl	e5c8 <utee_panic>

0000000000002048 <TEE_Panic>:
TEE_Panic():
/home/optee/RPi3/optee_os/lib/libutee/tee_api_panic.c:40
    2048:	a9be7bfd 	stp	x29, x30, [sp,#-32]!
    204c:	910003fd 	mov	x29, sp
    2050:	b9001fa0 	str	w0, [x29,#28]
/home/optee/RPi3/optee_os/lib/libutee/tee_api_panic.c:41
    2054:	b9401fa0 	ldr	w0, [x29,#28]
    2058:	97fffff7 	bl	2034 <__TEE_Panic>

000000000000205c <utee_get_ta_exec_id>:
utee_get_ta_exec_id():
/home/optee/RPi3/optee_os/lib/libutee/arch/arm/utee_misc.c:38
    205c:	52800000 	mov	w0, #0x0                   	// #0
/home/optee/RPi3/optee_os/lib/libutee/arch/arm/utee_misc.c:39
    2060:	d65f03c0 	ret

0000000000002064 <utee_malloc>:
utee_malloc():
/home/optee/RPi3/optee_os/lib/libutee/arch/arm/utee_misc.c:43
    2064:	a9be7bfd 	stp	x29, x30, [sp,#-32]!
    2068:	910003fd 	mov	x29, sp
    206c:	f9000fa0 	str	x0, [x29,#24]
/home/optee/RPi3/optee_os/lib/libutee/arch/arm/utee_misc.c:44
    2070:	f9400fa0 	ldr	x0, [x29,#24]
    2074:	9400097c 	bl	4664 <malloc>
/home/optee/RPi3/optee_os/lib/libutee/arch/arm/utee_misc.c:45
    2078:	a8c27bfd 	ldp	x29, x30, [sp],#32
    207c:	d65f03c0 	ret

0000000000002080 <utee_realloc>:
utee_realloc():
/home/optee/RPi3/optee_os/lib/libutee/arch/arm/utee_misc.c:48
    2080:	a9be7bfd 	stp	x29, x30, [sp,#-32]!
    2084:	910003fd 	mov	x29, sp
    2088:	f9000fa0 	str	x0, [x29,#24]
    208c:	f9000ba1 	str	x1, [x29,#16]
/home/optee/RPi3/optee_os/lib/libutee/arch/arm/utee_misc.c:49
    2090:	f9400ba1 	ldr	x1, [x29,#16]
    2094:	f9400fa0 	ldr	x0, [x29,#24]
    2098:	940009a4 	bl	4728 <realloc>
/home/optee/RPi3/optee_os/lib/libutee/arch/arm/utee_misc.c:50
    209c:	a8c27bfd 	ldp	x29, x30, [sp],#32
    20a0:	d65f03c0 	ret

00000000000020a4 <utee_calloc>:
utee_calloc():
/home/optee/RPi3/optee_os/lib/libutee/arch/arm/utee_misc.c:53
    20a4:	a9be7bfd 	stp	x29, x30, [sp,#-32]!
    20a8:	910003fd 	mov	x29, sp
    20ac:	f9000fa0 	str	x0, [x29,#24]
    20b0:	f9000ba1 	str	x1, [x29,#16]
/home/optee/RPi3/optee_os/lib/libutee/arch/arm/utee_misc.c:54
    20b4:	f9400fa1 	ldr	x1, [x29,#24]
    20b8:	f9400ba0 	ldr	x0, [x29,#16]
    20bc:	94000981 	bl	46c0 <calloc>
/home/optee/RPi3/optee_os/lib/libutee/arch/arm/utee_misc.c:55
    20c0:	a8c27bfd 	ldp	x29, x30, [sp],#32
    20c4:	d65f03c0 	ret

00000000000020c8 <utee_free>:
utee_free():
/home/optee/RPi3/optee_os/lib/libutee/arch/arm/utee_misc.c:58
    20c8:	a9be7bfd 	stp	x29, x30, [sp,#-32]!
    20cc:	910003fd 	mov	x29, sp
    20d0:	f9000fa0 	str	x0, [x29,#24]
/home/optee/RPi3/optee_os/lib/libutee/arch/arm/utee_misc.c:59
    20d4:	f9400fa0 	ldr	x0, [x29,#24]
    20d8:	94000970 	bl	4698 <free>
/home/optee/RPi3/optee_os/lib/libutee/arch/arm/utee_misc.c:60
    20dc:	d503201f 	nop
    20e0:	a8c27bfd 	ldp	x29, x30, [sp],#32
    20e4:	d65f03c0 	ret

00000000000020e8 <get_rng_array>:
get_rng_array():
/home/optee/RPi3/optee_os/lib/libutee/arch/arm/utee_misc.c:70
    20e8:	a9be7bfd 	stp	x29, x30, [sp,#-32]!
    20ec:	910003fd 	mov	x29, sp
    20f0:	f9000fa0 	str	x0, [x29,#24]
    20f4:	f9000ba1 	str	x1, [x29,#16]
/home/optee/RPi3/optee_os/lib/libutee/arch/arm/utee_misc.c:71
    20f8:	f9400ba1 	ldr	x1, [x29,#16]
    20fc:	f9400fa0 	ldr	x0, [x29,#24]
    2100:	9400318f 	bl	e73c <utee_cryp_random_number_generate>
/home/optee/RPi3/optee_os/lib/libutee/arch/arm/utee_misc.c:72
    2104:	a8c27bfd 	ldp	x29, x30, [sp],#32
    2108:	d65f03c0 	ret

000000000000210c <buf_addr>:
buf_addr():
/home/optee/RPi3/optee_os/lib/libutee/tee_user_mem.c:129
    210c:	d10043ff 	sub	sp, sp, #0x10
    2110:	f90007e0 	str	x0, [sp,#8]
/home/optee/RPi3/optee_os/lib/libutee/tee_user_mem.c:130
    2114:	f94007e0 	ldr	x0, [sp,#8]
    2118:	91008000 	add	x0, x0, #0x20
/home/optee/RPi3/optee_os/lib/libutee/tee_user_mem.c:131
    211c:	910043ff 	add	sp, sp, #0x10
    2120:	d65f03c0 	ret

0000000000002124 <buf_size>:
buf_size():
/home/optee/RPi3/optee_os/lib/libutee/tee_user_mem.c:134
    2124:	d10043ff 	sub	sp, sp, #0x10
    2128:	f90007e0 	str	x0, [sp,#8]
/home/optee/RPi3/optee_os/lib/libutee/tee_user_mem.c:135
    212c:	f94007e0 	ldr	x0, [sp,#8]
    2130:	f9400801 	ldr	x1, [x0,#16]
    2134:	d2800020 	mov	x0, #0x1                   	// #1
    2138:	cb000020 	sub	x0, x1, x0
    213c:	d1008000 	sub	x0, x0, #0x20
/home/optee/RPi3/optee_os/lib/libutee/tee_user_mem.c:136
    2140:	910043ff 	add	sp, sp, #0x10
    2144:	d65f03c0 	ret

0000000000002148 <elem_addr>:
elem_addr():
/home/optee/RPi3/optee_os/lib/libutee/tee_user_mem.c:139
    2148:	d10043ff 	sub	sp, sp, #0x10
    214c:	f90007e0 	str	x0, [sp,#8]
/home/optee/RPi3/optee_os/lib/libutee/tee_user_mem.c:140
    2150:	f94007e0 	ldr	x0, [sp,#8]
    2154:	d1008000 	sub	x0, x0, #0x20
/home/optee/RPi3/optee_os/lib/libutee/tee_user_mem.c:141
    2158:	910043ff 	add	sp, sp, #0x10
    215c:	d65f03c0 	ret

0000000000002160 <is_buffer_valid>:
is_buffer_valid():
/home/optee/RPi3/optee_os/lib/libutee/tee_user_mem.c:147
    2160:	a9bd7bfd 	stp	x29, x30, [sp,#-48]!
    2164:	910003fd 	mov	x29, sp
    2168:	f9000fa0 	str	x0, [x29,#24]
/home/optee/RPi3/optee_os/lib/libutee/tee_user_mem.c:150
    216c:	f0000060 	adrp	x0, 11000 <ta_props>
    2170:	9103e000 	add	x0, x0, #0xf8
    2174:	f9400000 	ldr	x0, [x0]
    2178:	f90017a0 	str	x0, [x29,#40]
    217c:	1400000c 	b	21ac <is_buffer_valid+0x4c>
/home/optee/RPi3/optee_os/lib/libutee/tee_user_mem.c:151
    2180:	f94017a0 	ldr	x0, [x29,#40]
    2184:	97ffffe2 	bl	210c <buf_addr>
    2188:	aa0003e1 	mov	x1, x0
    218c:	f9400fa0 	ldr	x0, [x29,#24]
    2190:	eb00003f 	cmp	x1, x0
    2194:	54000061 	b.ne	21a0 <is_buffer_valid+0x40>
/home/optee/RPi3/optee_os/lib/libutee/tee_user_mem.c:152
    2198:	52800020 	mov	w0, #0x1                   	// #1
    219c:	14000008 	b	21bc <is_buffer_valid+0x5c>
/home/optee/RPi3/optee_os/lib/libutee/tee_user_mem.c:150 (discriminator 2)
    21a0:	f94017a0 	ldr	x0, [x29,#40]
    21a4:	f9400000 	ldr	x0, [x0]
    21a8:	f90017a0 	str	x0, [x29,#40]
/home/optee/RPi3/optee_os/lib/libutee/tee_user_mem.c:150 (discriminator 1)
    21ac:	f94017a0 	ldr	x0, [x29,#40]
    21b0:	eb1f001f 	cmp	x0, xzr
    21b4:	54fffe61 	b.ne	2180 <is_buffer_valid+0x20>
/home/optee/RPi3/optee_os/lib/libutee/tee_user_mem.c:154
    21b8:	52800000 	mov	w0, #0x0                   	// #0
/home/optee/RPi3/optee_os/lib/libutee/tee_user_mem.c:155
    21bc:	a8c37bfd 	ldp	x29, x30, [sp],#48
    21c0:	d65f03c0 	ret

00000000000021c4 <print_buf>:
print_buf():
/home/optee/RPi3/optee_os/lib/libutee/tee_user_mem.c:164
    21c4:	d10183ff 	sub	sp, sp, #0x60
    21c8:	a9027bfd 	stp	x29, x30, [sp,#32]
    21cc:	910083fd 	add	x29, sp, #0x20
    21d0:	f9001bf3 	str	x19, [sp,#48]
    21d4:	b9003fa0 	str	w0, [x29,#60]
    21d8:	f9001ba1 	str	x1, [x29,#48]
    21dc:	b9003ba2 	str	w2, [x29,#56]
    21e0:	f90017a3 	str	x3, [x29,#40]
    21e4:	f90013a4 	str	x4, [x29,#32]
/home/optee/RPi3/optee_os/lib/libutee/tee_user_mem.c:165
    21e8:	f94013a0 	ldr	x0, [x29,#32]
    21ec:	97ffffc8 	bl	210c <buf_addr>
    21f0:	aa0003f3 	mov	x19, x0
    21f4:	f94013a0 	ldr	x0, [x29,#32]
    21f8:	97ffffcb 	bl	2124 <buf_size>
    21fc:	aa0003e2 	mov	x2, x0
    2200:	90000060 	adrp	x0, e000 <mpa_set_oct_str+0xa8>
    2204:	91354001 	add	x1, x0, #0xd50
    2208:	f9000be2 	str	x2, [sp,#16]
    220c:	f90007f3 	str	x19, [sp,#8]
    2210:	f94013a0 	ldr	x0, [x29,#32]
    2214:	f90003e0 	str	x0, [sp]
    2218:	f94017a7 	ldr	x7, [x29,#40]
    221c:	b9403ba6 	ldr	w6, [x29,#56]
    2220:	f9401ba5 	ldr	x5, [x29,#48]
    2224:	aa0103e4 	mov	x4, x1
    2228:	52800023 	mov	w3, #0x1                   	// #1
    222c:	b9403fa2 	ldr	w2, [x29,#60]
    2230:	52800001 	mov	w1, #0x0                   	// #0
    2234:	d2800000 	mov	x0, #0x0                   	// #0
    2238:	9400152b 	bl	76e4 <trace_printf>
/home/optee/RPi3/optee_os/lib/libutee/tee_user_mem.c:168
    223c:	d503201f 	nop
    2240:	910003bf 	mov	sp, x29
    2244:	f9400bf3 	ldr	x19, [sp,#16]
    2248:	a8c47bfd 	ldp	x29, x30, [sp],#64
    224c:	d65f03c0 	ret

0000000000002250 <heap_inc>:
heap_inc():
/home/optee/RPi3/optee_os/lib/libutee/tee_user_mem.c:194
    2250:	d10043ff 	sub	sp, sp, #0x10
    2254:	f90007e0 	str	x0, [sp,#8]
/home/optee/RPi3/optee_os/lib/libutee/tee_user_mem.c:196
    2258:	900000c0 	adrp	x0, 1a000 <mempool_u32+0xe88>
    225c:	91330000 	add	x0, x0, #0xcc0
    2260:	f9400001 	ldr	x1, [x0]
    2264:	f94007e0 	ldr	x0, [sp,#8]
    2268:	8b000021 	add	x1, x1, x0
    226c:	900000c0 	adrp	x0, 1a000 <mempool_u32+0xe88>
    2270:	91330000 	add	x0, x0, #0xcc0
    2274:	f9000001 	str	x1, [x0]
/home/optee/RPi3/optee_os/lib/libutee/tee_user_mem.c:198
    2278:	900000c0 	adrp	x0, 1a000 <mempool_u32+0xe88>
    227c:	91332000 	add	x0, x0, #0xcc8
    2280:	b9400000 	ldr	w0, [x0]
    2284:	11000401 	add	w1, w0, #0x1
    2288:	900000c0 	adrp	x0, 1a000 <mempool_u32+0xe88>
    228c:	91332000 	add	x0, x0, #0xcc8
    2290:	b9000001 	str	w1, [x0]
/home/optee/RPi3/optee_os/lib/libutee/tee_user_mem.c:199
    2294:	900000c0 	adrp	x0, 1a000 <mempool_u32+0xe88>
    2298:	91332000 	add	x0, x0, #0xcc8
    229c:	f9400401 	ldr	x1, [x0,#8]
    22a0:	f94007e0 	ldr	x0, [sp,#8]
    22a4:	8b000021 	add	x1, x1, x0
    22a8:	900000c0 	adrp	x0, 1a000 <mempool_u32+0xe88>
    22ac:	91332000 	add	x0, x0, #0xcc8
    22b0:	f9000401 	str	x1, [x0,#8]
/home/optee/RPi3/optee_os/lib/libutee/tee_user_mem.c:201
    22b4:	d503201f 	nop
    22b8:	910043ff 	add	sp, sp, #0x10
    22bc:	d65f03c0 	ret

00000000000022c0 <heap_dec>:
heap_dec():
/home/optee/RPi3/optee_os/lib/libutee/tee_user_mem.c:204
    22c0:	d10043ff 	sub	sp, sp, #0x10
    22c4:	f90007e0 	str	x0, [sp,#8]
/home/optee/RPi3/optee_os/lib/libutee/tee_user_mem.c:206
    22c8:	900000c0 	adrp	x0, 1a000 <mempool_u32+0xe88>
    22cc:	91330000 	add	x0, x0, #0xcc0
    22d0:	f9400001 	ldr	x1, [x0]
    22d4:	f94007e0 	ldr	x0, [sp,#8]
    22d8:	cb000021 	sub	x1, x1, x0
    22dc:	900000c0 	adrp	x0, 1a000 <mempool_u32+0xe88>
    22e0:	91330000 	add	x0, x0, #0xcc0
    22e4:	f9000001 	str	x1, [x0]
/home/optee/RPi3/optee_os/lib/libutee/tee_user_mem.c:208
    22e8:	900000c0 	adrp	x0, 1a000 <mempool_u32+0xe88>
    22ec:	91332000 	add	x0, x0, #0xcc8
    22f0:	b9400000 	ldr	w0, [x0]
    22f4:	51000401 	sub	w1, w0, #0x1
    22f8:	900000c0 	adrp	x0, 1a000 <mempool_u32+0xe88>
    22fc:	91332000 	add	x0, x0, #0xcc8
    2300:	b9000001 	str	w1, [x0]
/home/optee/RPi3/optee_os/lib/libutee/tee_user_mem.c:209
    2304:	900000c0 	adrp	x0, 1a000 <mempool_u32+0xe88>
    2308:	91332000 	add	x0, x0, #0xcc8
    230c:	f9400401 	ldr	x1, [x0,#8]
    2310:	f94007e0 	ldr	x0, [sp,#8]
    2314:	cb000021 	sub	x1, x1, x0
    2318:	900000c0 	adrp	x0, 1a000 <mempool_u32+0xe88>
    231c:	91332000 	add	x0, x0, #0xcc8
    2320:	f9000401 	str	x1, [x0,#8]
/home/optee/RPi3/optee_os/lib/libutee/tee_user_mem.c:211
    2324:	d503201f 	nop
    2328:	910043ff 	add	sp, sp, #0x10
    232c:	d65f03c0 	ret

0000000000002330 <check_elem_end>:
check_elem_end():
/home/optee/RPi3/optee_os/lib/libutee/tee_user_mem.c:217
    2330:	a9bd7bfd 	stp	x29, x30, [sp,#-48]!
    2334:	910003fd 	mov	x29, sp
    2338:	f9000fa0 	str	x0, [x29,#24]
/home/optee/RPi3/optee_os/lib/libutee/tee_user_mem.c:218
    233c:	f9400fa0 	ldr	x0, [x29,#24]
    2340:	f90017a0 	str	x0, [x29,#40]
/home/optee/RPi3/optee_os/lib/libutee/tee_user_mem.c:225
    2344:	f9400fa0 	ldr	x0, [x29,#24]
    2348:	f9400801 	ldr	x1, [x0,#16]
    234c:	d2800020 	mov	x0, #0x1                   	// #1
    2350:	cb000020 	sub	x0, x1, x0
    2354:	f94017a1 	ldr	x1, [x29,#40]
    2358:	8b000020 	add	x0, x1, x0
    235c:	39400000 	ldrb	w0, [x0]
    2360:	53001c01 	uxtb	w1, w0
/home/optee/RPi3/optee_os/lib/libutee/tee_user_mem.c:226
    2364:	f94017a0 	ldr	x0, [x29,#40]
    2368:	92401c02 	and	x2, x0, #0xff
    236c:	d28018a0 	mov	x0, #0xc5                  	// #197
    2370:	ca000040 	eor	x0, x2, x0
/home/optee/RPi3/optee_os/lib/libutee/tee_user_mem.c:225
    2374:	eb00003f 	cmp	x1, x0
    2378:	540001a0 	b.eq	23ac <check_elem_end+0x7c>
/home/optee/RPi3/optee_os/lib/libutee/tee_user_mem.c:227
    237c:	90000060 	adrp	x0, e000 <mpa_set_oct_str+0xa8>
    2380:	9135e001 	add	x1, x0, #0xd78
    2384:	90000060 	adrp	x0, e000 <mpa_set_oct_str+0xa8>
    2388:	9139c000 	add	x0, x0, #0xe70
    238c:	f9400fa4 	ldr	x4, [x29,#24]
    2390:	aa0103e3 	mov	x3, x1
    2394:	52801c62 	mov	w2, #0xe3                  	// #227
    2398:	aa0003e1 	mov	x1, x0
    239c:	52800020 	mov	w0, #0x1                   	// #1
    23a0:	97ffff89 	bl	21c4 <print_buf>
/home/optee/RPi3/optee_os/lib/libutee/tee_user_mem.c:228
    23a4:	52800000 	mov	w0, #0x0                   	// #0
    23a8:	14000002 	b	23b0 <check_elem_end+0x80>
/home/optee/RPi3/optee_os/lib/libutee/tee_user_mem.c:231
    23ac:	52800020 	mov	w0, #0x1                   	// #1
/home/optee/RPi3/optee_os/lib/libutee/tee_user_mem.c:232
    23b0:	a8c37bfd 	ldp	x29, x30, [sp],#48
    23b4:	d65f03c0 	ret

00000000000023b8 <check_elem>:
check_elem():
/home/optee/RPi3/optee_os/lib/libutee/tee_user_mem.c:235
    23b8:	a9bd7bfd 	stp	x29, x30, [sp,#-48]!
    23bc:	910003fd 	mov	x29, sp
    23c0:	f9000fa0 	str	x0, [x29,#24]
/home/optee/RPi3/optee_os/lib/libutee/tee_user_mem.c:239
    23c4:	f9400fa0 	ldr	x0, [x29,#24]
    23c8:	eb1f001f 	cmp	x0, xzr
    23cc:	54000061 	b.ne	23d8 <check_elem+0x20>
/home/optee/RPi3/optee_os/lib/libutee/tee_user_mem.c:240
    23d0:	52800000 	mov	w0, #0x0                   	// #0
    23d4:	14000040 	b	24d4 <check_elem+0x11c>
/home/optee/RPi3/optee_os/lib/libutee/tee_user_mem.c:242
    23d8:	f9400fa0 	ldr	x0, [x29,#24]
    23dc:	92400400 	and	x0, x0, #0x3
    23e0:	eb1f001f 	cmp	x0, xzr
    23e4:	54000100 	b.eq	2404 <check_elem+0x4c>
/home/optee/RPi3/optee_os/lib/libutee/tee_user_mem.c:242 (discriminator 1)
    23e8:	90000060 	adrp	x0, e000 <mpa_set_oct_str+0xa8>
    23ec:	91362001 	add	x1, x0, #0xd88
    23f0:	90000060 	adrp	x0, e000 <mpa_set_oct_str+0xa8>
    23f4:	9136a000 	add	x0, x0, #0xda8
    23f8:	52801e42 	mov	w2, #0xf2                  	// #242
    23fc:	9400024b 	bl	2d28 <_assert_log>
    2400:	9400025e 	bl	2d78 <_assert_break>
/home/optee/RPi3/optee_os/lib/libutee/tee_user_mem.c:244
    2404:	f9400fa0 	ldr	x0, [x29,#24]
    2408:	f9400000 	ldr	x0, [x0]
    240c:	f90017a0 	str	x0, [x29,#40]
/home/optee/RPi3/optee_os/lib/libutee/tee_user_mem.c:245
    2410:	f94017a0 	ldr	x0, [x29,#40]
    2414:	eb1f001f 	cmp	x0, xzr
    2418:	54000280 	b.eq	2468 <check_elem+0xb0>
/home/optee/RPi3/optee_os/lib/libutee/tee_user_mem.c:245 (discriminator 1)
    241c:	f94017a0 	ldr	x0, [x29,#40]
    2420:	f9400400 	ldr	x0, [x0,#8]
    2424:	f9400400 	ldr	x0, [x0,#8]
    2428:	f9400001 	ldr	x1, [x0]
    242c:	f9400fa0 	ldr	x0, [x29,#24]
    2430:	eb00003f 	cmp	x1, x0
    2434:	540001a0 	b.eq	2468 <check_elem+0xb0>
/home/optee/RPi3/optee_os/lib/libutee/tee_user_mem.c:246
    2438:	90000060 	adrp	x0, e000 <mpa_set_oct_str+0xa8>
    243c:	91372001 	add	x1, x0, #0xdc8
    2440:	90000060 	adrp	x0, e000 <mpa_set_oct_str+0xa8>
    2444:	913a0000 	add	x0, x0, #0xe80
    2448:	f94017a4 	ldr	x4, [x29,#40]
    244c:	aa0103e3 	mov	x3, x1
    2450:	52801ec2 	mov	w2, #0xf6                  	// #246
    2454:	aa0003e1 	mov	x1, x0
    2458:	52800020 	mov	w0, #0x1                   	// #1
    245c:	97ffff5a 	bl	21c4 <print_buf>
/home/optee/RPi3/optee_os/lib/libutee/tee_user_mem.c:247
    2460:	52800000 	mov	w0, #0x0                   	// #0
    2464:	1400001c 	b	24d4 <check_elem+0x11c>
/home/optee/RPi3/optee_os/lib/libutee/tee_user_mem.c:250
    2468:	f9400fa0 	ldr	x0, [x29,#24]
    246c:	f9400400 	ldr	x0, [x0,#8]
    2470:	f9400400 	ldr	x0, [x0,#8]
    2474:	f9400000 	ldr	x0, [x0]
    2478:	f90017a0 	str	x0, [x29,#40]
/home/optee/RPi3/optee_os/lib/libutee/tee_user_mem.c:251
    247c:	f94017a0 	ldr	x0, [x29,#40]
    2480:	eb1f001f 	cmp	x0, xzr
    2484:	54000240 	b.eq	24cc <check_elem+0x114>
/home/optee/RPi3/optee_os/lib/libutee/tee_user_mem.c:251 (discriminator 1)
    2488:	f94017a0 	ldr	x0, [x29,#40]
    248c:	f9400001 	ldr	x1, [x0]
    2490:	f9400fa0 	ldr	x0, [x29,#24]
    2494:	eb00003f 	cmp	x1, x0
    2498:	540001a0 	b.eq	24cc <check_elem+0x114>
/home/optee/RPi3/optee_os/lib/libutee/tee_user_mem.c:252
    249c:	90000060 	adrp	x0, e000 <mpa_set_oct_str+0xa8>
    24a0:	91372001 	add	x1, x0, #0xdc8
    24a4:	90000060 	adrp	x0, e000 <mpa_set_oct_str+0xa8>
    24a8:	913a0000 	add	x0, x0, #0xe80
    24ac:	f94017a4 	ldr	x4, [x29,#40]
    24b0:	aa0103e3 	mov	x3, x1
    24b4:	52801f82 	mov	w2, #0xfc                  	// #252
    24b8:	aa0003e1 	mov	x1, x0
    24bc:	52800020 	mov	w0, #0x1                   	// #1
    24c0:	97ffff41 	bl	21c4 <print_buf>
/home/optee/RPi3/optee_os/lib/libutee/tee_user_mem.c:253
    24c4:	52800000 	mov	w0, #0x0                   	// #0
    24c8:	14000003 	b	24d4 <check_elem+0x11c>
/home/optee/RPi3/optee_os/lib/libutee/tee_user_mem.c:256
    24cc:	f9400fa0 	ldr	x0, [x29,#24]
    24d0:	97ffff98 	bl	2330 <check_elem_end>
/home/optee/RPi3/optee_os/lib/libutee/tee_user_mem.c:257
    24d4:	a8c37bfd 	ldp	x29, x30, [sp],#48
    24d8:	d65f03c0 	ret

00000000000024dc <is_mem_coherent>:
is_mem_coherent():
/home/optee/RPi3/optee_os/lib/libutee/tee_user_mem.c:261
    24dc:	a9be7bfd 	stp	x29, x30, [sp,#-32]!
    24e0:	910003fd 	mov	x29, sp
/home/optee/RPi3/optee_os/lib/libutee/tee_user_mem.c:264
    24e4:	f0000060 	adrp	x0, 11000 <ta_props>
    24e8:	9103e000 	add	x0, x0, #0xf8
    24ec:	f9400000 	ldr	x0, [x0]
    24f0:	f9000fa0 	str	x0, [x29,#24]
    24f4:	1400000f 	b	2530 <is_mem_coherent+0x54>
/home/optee/RPi3/optee_os/lib/libutee/tee_user_mem.c:265
    24f8:	f9400fa0 	ldr	x0, [x29,#24]
    24fc:	97ffffaf 	bl	23b8 <check_elem>
    2500:	6b1f001f 	cmp	w0, wzr
    2504:	54000101 	b.ne	2524 <is_mem_coherent+0x48>
/home/optee/RPi3/optee_os/lib/libutee/tee_user_mem.c:266 (discriminator 1)
    2508:	90000060 	adrp	x0, e000 <mpa_set_oct_str+0xa8>
    250c:	91362001 	add	x1, x0, #0xd88
    2510:	90000060 	adrp	x0, e000 <mpa_set_oct_str+0xa8>
    2514:	91376000 	add	x0, x0, #0xdd8
    2518:	52802142 	mov	w2, #0x10a                 	// #266
    251c:	94000203 	bl	2d28 <_assert_log>
    2520:	94000216 	bl	2d78 <_assert_break>
/home/optee/RPi3/optee_os/lib/libutee/tee_user_mem.c:264 (discriminator 2)
    2524:	f9400fa0 	ldr	x0, [x29,#24]
    2528:	f9400000 	ldr	x0, [x0]
    252c:	f9000fa0 	str	x0, [x29,#24]
/home/optee/RPi3/optee_os/lib/libutee/tee_user_mem.c:264 (discriminator 1)
    2530:	f9400fa0 	ldr	x0, [x29,#24]
    2534:	eb1f001f 	cmp	x0, xzr
    2538:	54fffe01 	b.ne	24f8 <is_mem_coherent+0x1c>
/home/optee/RPi3/optee_os/lib/libutee/tee_user_mem.c:270
    253c:	52800020 	mov	w0, #0x1                   	// #1
/home/optee/RPi3/optee_os/lib/libutee/tee_user_mem.c:271
    2540:	a8c27bfd 	ldp	x29, x30, [sp],#32
    2544:	d65f03c0 	ret

0000000000002548 <tee_user_mem_alloc>:
tee_user_mem_alloc():
/home/optee/RPi3/optee_os/lib/libutee/tee_user_mem.c:293
    2548:	a9bc7bfd 	stp	x29, x30, [sp,#-64]!
    254c:	910003fd 	mov	x29, sp
    2550:	f9000fa0 	str	x0, [x29,#24]
    2554:	b90017a1 	str	w1, [x29,#20]
/home/optee/RPi3/optee_os/lib/libutee/tee_user_mem.c:295
    2558:	f9001fbf 	str	xzr, [x29,#56]
/home/optee/RPi3/optee_os/lib/libutee/tee_user_mem.c:297
    255c:	d2800021 	mov	x1, #0x1                   	// #1
    2560:	f9400fa0 	ldr	x0, [x29,#24]
    2564:	8b000020 	add	x0, x1, x0
/home/optee/RPi3/optee_os/lib/libutee/tee_user_mem.c:296
    2568:	91008000 	add	x0, x0, #0x20
    256c:	f9001ba0 	str	x0, [x29,#48]
/home/optee/RPi3/optee_os/lib/libutee/tee_user_mem.c:302
    2570:	f9400fa0 	ldr	x0, [x29,#24]
    2574:	6b1f001f 	cmp	w0, wzr
    2578:	5400006a 	b.ge	2584 <tee_user_mem_alloc+0x3c>
/home/optee/RPi3/optee_os/lib/libutee/tee_user_mem.c:304
    257c:	d2800000 	mov	x0, #0x0                   	// #0
    2580:	14000064 	b	2710 <tee_user_mem_alloc+0x1c8>
/home/optee/RPi3/optee_os/lib/libutee/tee_user_mem.c:307
    2584:	f9400fa0 	ldr	x0, [x29,#24]
    2588:	eb1f001f 	cmp	x0, xzr
    258c:	540000a1 	b.ne	25a0 <tee_user_mem_alloc+0x58>
/home/optee/RPi3/optee_os/lib/libutee/tee_user_mem.c:309
    2590:	f0000060 	adrp	x0, 11000 <ta_props>
    2594:	9103c000 	add	x0, x0, #0xf0
    2598:	f9400000 	ldr	x0, [x0]
    259c:	1400005d 	b	2710 <tee_user_mem_alloc+0x1c8>
/home/optee/RPi3/optee_os/lib/libutee/tee_user_mem.c:313
    25a0:	b94017a0 	ldr	w0, [x29,#20]
    25a4:	6b1f001f 	cmp	w0, wzr
    25a8:	54000200 	b.eq	25e8 <tee_user_mem_alloc+0xa0>
    25ac:	52b00001 	mov	w1, #0x80000000            	// #-2147483648
    25b0:	6b01001f 	cmp	w0, w1
    25b4:	540001a0 	b.eq	25e8 <tee_user_mem_alloc+0xa0>
/home/optee/RPi3/optee_os/lib/libutee/tee_user_mem.c:318
    25b8:	90000060 	adrp	x0, e000 <mpa_set_oct_str+0xa8>
    25bc:	91378001 	add	x1, x0, #0xde0
    25c0:	90000060 	adrp	x0, e000 <mpa_set_oct_str+0xa8>
    25c4:	913a4000 	add	x0, x0, #0xe90
    25c8:	b94017a5 	ldr	w5, [x29,#20]
    25cc:	aa0103e4 	mov	x4, x1
    25d0:	52800023 	mov	w3, #0x1                   	// #1
    25d4:	52800022 	mov	w2, #0x1                   	// #1
    25d8:	528027c1 	mov	w1, #0x13e                 	// #318
    25dc:	94001442 	bl	76e4 <trace_printf>
/home/optee/RPi3/optee_os/lib/libutee/tee_user_mem.c:320
    25e0:	d2800000 	mov	x0, #0x0                   	// #0
    25e4:	1400004b 	b	2710 <tee_user_mem_alloc+0x1c8>
/home/optee/RPi3/optee_os/lib/libutee/tee_user_mem.c:316
    25e8:	d503201f 	nop
/home/optee/RPi3/optee_os/lib/libutee/tee_user_mem.c:323
    25ec:	f9401ba0 	ldr	x0, [x29,#48]
    25f0:	97fffe9d 	bl	2064 <utee_malloc>
    25f4:	f90017a0 	str	x0, [x29,#40]
/home/optee/RPi3/optee_os/lib/libutee/tee_user_mem.c:324
    25f8:	f94017a0 	ldr	x0, [x29,#40]
    25fc:	eb1f001f 	cmp	x0, xzr
    2600:	54000860 	b.eq	270c <tee_user_mem_alloc+0x1c4>
/home/optee/RPi3/optee_os/lib/libutee/tee_user_mem.c:325
    2604:	f94017a0 	ldr	x0, [x29,#40]
    2608:	f90013a0 	str	x0, [x29,#32]
/home/optee/RPi3/optee_os/lib/libutee/tee_user_mem.c:326
    260c:	f94013a0 	ldr	x0, [x29,#32]
    2610:	f9401ba1 	ldr	x1, [x29,#48]
    2614:	f9000801 	str	x1, [x0,#16]
/home/optee/RPi3/optee_os/lib/libutee/tee_user_mem.c:327
    2618:	f94013a0 	ldr	x0, [x29,#32]
    261c:	b94017a1 	ldr	w1, [x29,#20]
    2620:	b9001801 	str	w1, [x0,#24]
/home/optee/RPi3/optee_os/lib/libutee/tee_user_mem.c:328
    2624:	f9401ba0 	ldr	x0, [x29,#48]
    2628:	97ffff0a 	bl	2250 <heap_inc>
/home/optee/RPi3/optee_os/lib/libutee/tee_user_mem.c:331
    262c:	f94013a0 	ldr	x0, [x29,#32]
    2630:	f900001f 	str	xzr, [x0]
    2634:	f0000060 	adrp	x0, 11000 <ta_props>
    2638:	9103e000 	add	x0, x0, #0xf8
    263c:	f9400401 	ldr	x1, [x0,#8]
    2640:	f94013a0 	ldr	x0, [x29,#32]
    2644:	f9000401 	str	x1, [x0,#8]
    2648:	f0000060 	adrp	x0, 11000 <ta_props>
    264c:	9103e000 	add	x0, x0, #0xf8
    2650:	f9400400 	ldr	x0, [x0,#8]
    2654:	f94013a1 	ldr	x1, [x29,#32]
    2658:	f9000001 	str	x1, [x0]
    265c:	f94013a1 	ldr	x1, [x29,#32]
    2660:	f0000060 	adrp	x0, 11000 <ta_props>
    2664:	9103e000 	add	x0, x0, #0xf8
    2668:	f9000401 	str	x1, [x0,#8]
/home/optee/RPi3/optee_os/lib/libutee/tee_user_mem.c:335
    266c:	d2800020 	mov	x0, #0x1                   	// #1
    2670:	f9401ba1 	ldr	x1, [x29,#48]
    2674:	cb000020 	sub	x0, x1, x0
    2678:	f94017a1 	ldr	x1, [x29,#40]
    267c:	8b000020 	add	x0, x1, x0
    2680:	f94017a1 	ldr	x1, [x29,#40]
    2684:	53001c22 	uxtb	w2, w1
    2688:	12800741 	mov	w1, #0xffffffc5            	// #-59
    268c:	4a010041 	eor	w1, w2, w1
    2690:	53001c21 	uxtb	w1, w1
    2694:	39000001 	strb	w1, [x0]
/home/optee/RPi3/optee_os/lib/libutee/tee_user_mem.c:339
    2698:	90000060 	adrp	x0, e000 <mpa_set_oct_str+0xa8>
    269c:	91380001 	add	x1, x0, #0xe00
    26a0:	90000060 	adrp	x0, e000 <mpa_set_oct_str+0xa8>
    26a4:	913a4000 	add	x0, x0, #0xe90
    26a8:	f94013a4 	ldr	x4, [x29,#32]
    26ac:	aa0103e3 	mov	x3, x1
    26b0:	52802a62 	mov	w2, #0x153                 	// #339
    26b4:	aa0003e1 	mov	x1, x0
    26b8:	52800060 	mov	w0, #0x3                   	// #3
    26bc:	97fffec2 	bl	21c4 <print_buf>
/home/optee/RPi3/optee_os/lib/libutee/tee_user_mem.c:341
    26c0:	f94013a0 	ldr	x0, [x29,#32]
    26c4:	97fffe92 	bl	210c <buf_addr>
    26c8:	f9001fa0 	str	x0, [x29,#56]
/home/optee/RPi3/optee_os/lib/libutee/tee_user_mem.c:343
    26cc:	b94017a0 	ldr	w0, [x29,#20]
    26d0:	6b1f001f 	cmp	w0, wzr
    26d4:	540000c1 	b.ne	26ec <tee_user_mem_alloc+0x1a4>
/home/optee/RPi3/optee_os/lib/libutee/tee_user_mem.c:344
    26d8:	f9400fa2 	ldr	x2, [x29,#24]
    26dc:	52800001 	mov	w1, #0x0                   	// #0
    26e0:	f9401fa0 	ldr	x0, [x29,#56]
    26e4:	94000a8c 	bl	5114 <memset>
    26e8:	14000009 	b	270c <tee_user_mem_alloc+0x1c4>
/home/optee/RPi3/optee_os/lib/libutee/tee_user_mem.c:346
    26ec:	b94017a1 	ldr	w1, [x29,#20]
    26f0:	52b00000 	mov	w0, #0x80000000            	// #-2147483648
    26f4:	6b00003f 	cmp	w1, w0
    26f8:	540000a1 	b.ne	270c <tee_user_mem_alloc+0x1c4>
/home/optee/RPi3/optee_os/lib/libutee/tee_user_mem.c:348
    26fc:	f9400fa2 	ldr	x2, [x29,#24]
    2700:	52801761 	mov	w1, #0xbb                  	// #187
    2704:	f9401fa0 	ldr	x0, [x29,#56]
    2708:	94000a83 	bl	5114 <memset>
/home/optee/RPi3/optee_os/lib/libutee/tee_user_mem.c:353
    270c:	f9401fa0 	ldr	x0, [x29,#56]
/home/optee/RPi3/optee_os/lib/libutee/tee_user_mem.c:354
    2710:	a8c47bfd 	ldp	x29, x30, [sp],#64
    2714:	d65f03c0 	ret

0000000000002718 <tee_user_mem_realloc>:
tee_user_mem_realloc():
/home/optee/RPi3/optee_os/lib/libutee/tee_user_mem.c:363
    2718:	a9bb7bfd 	stp	x29, x30, [sp,#-80]!
    271c:	910003fd 	mov	x29, sp
    2720:	f9000fa0 	str	x0, [x29,#24]
    2724:	f9000ba1 	str	x1, [x29,#16]
/home/optee/RPi3/optee_os/lib/libutee/tee_user_mem.c:370
    2728:	f9400ba0 	ldr	x0, [x29,#16]
    272c:	6b1f001f 	cmp	w0, wzr
    2730:	5400006a 	b.ge	273c <tee_user_mem_realloc+0x24>
/home/optee/RPi3/optee_os/lib/libutee/tee_user_mem.c:372
    2734:	d2800000 	mov	x0, #0x0                   	// #0
    2738:	1400003a 	b	2820 <tee_user_mem_realloc+0x108>
/home/optee/RPi3/optee_os/lib/libutee/tee_user_mem.c:380
    273c:	f9400fa0 	ldr	x0, [x29,#24]
    2740:	eb1f001f 	cmp	x0, xzr
    2744:	54000160 	b.eq	2770 <tee_user_mem_realloc+0x58>
/home/optee/RPi3/optee_os/lib/libutee/tee_user_mem.c:380 (discriminator 1)
    2748:	f0000060 	adrp	x0, 11000 <ta_props>
    274c:	9103c000 	add	x0, x0, #0xf0
    2750:	f9400000 	ldr	x0, [x0]
    2754:	f9400fa1 	ldr	x1, [x29,#24]
    2758:	eb00003f 	cmp	x1, x0
    275c:	540000a0 	b.eq	2770 <tee_user_mem_realloc+0x58>
/home/optee/RPi3/optee_os/lib/libutee/tee_user_mem.c:380 (discriminator 2)
    2760:	f9400fa0 	ldr	x0, [x29,#24]
    2764:	97fffe7f 	bl	2160 <is_buffer_valid>
    2768:	6b1f001f 	cmp	w0, wzr
    276c:	54000101 	b.ne	278c <tee_user_mem_realloc+0x74>
/home/optee/RPi3/optee_os/lib/libutee/tee_user_mem.c:381
    2770:	52800000 	mov	w0, #0x0                   	// #0
    2774:	2a0003e1 	mov	w1, w0
    2778:	f9400ba0 	ldr	x0, [x29,#16]
    277c:	97ffff73 	bl	2548 <tee_user_mem_alloc>
    2780:	f9001fa0 	str	x0, [x29,#56]
/home/optee/RPi3/optee_os/lib/libutee/tee_user_mem.c:383
    2784:	f9401fa0 	ldr	x0, [x29,#56]
    2788:	14000026 	b	2820 <tee_user_mem_realloc+0x108>
/home/optee/RPi3/optee_os/lib/libutee/tee_user_mem.c:390
    278c:	f9400fa0 	ldr	x0, [x29,#24]
    2790:	97fffe6e 	bl	2148 <elem_addr>
    2794:	f90027a0 	str	x0, [x29,#72]
/home/optee/RPi3/optee_os/lib/libutee/tee_user_mem.c:391
    2798:	f94027a0 	ldr	x0, [x29,#72]
    279c:	97fffe62 	bl	2124 <buf_size>
    27a0:	f90023a0 	str	x0, [x29,#64]
/home/optee/RPi3/optee_os/lib/libutee/tee_user_mem.c:392
    27a4:	f9400ba1 	ldr	x1, [x29,#16]
    27a8:	f94023a0 	ldr	x0, [x29,#64]
    27ac:	eb00003f 	cmp	x1, x0
    27b0:	54000061 	b.ne	27bc <tee_user_mem_realloc+0xa4>
/home/optee/RPi3/optee_os/lib/libutee/tee_user_mem.c:394
    27b4:	f9400fa0 	ldr	x0, [x29,#24]
    27b8:	1400001a 	b	2820 <tee_user_mem_realloc+0x108>
/home/optee/RPi3/optee_os/lib/libutee/tee_user_mem.c:402
    27bc:	f94027a0 	ldr	x0, [x29,#72]
    27c0:	b9401800 	ldr	w0, [x0,#24]
    27c4:	2a0003e1 	mov	w1, w0
    27c8:	f9400ba0 	ldr	x0, [x29,#16]
    27cc:	97ffff5f 	bl	2548 <tee_user_mem_alloc>
    27d0:	f9001fa0 	str	x0, [x29,#56]
/home/optee/RPi3/optee_os/lib/libutee/tee_user_mem.c:403
    27d4:	f9401fa0 	ldr	x0, [x29,#56]
    27d8:	eb1f001f 	cmp	x0, xzr
    27dc:	54000200 	b.eq	281c <tee_user_mem_realloc+0x104>
/home/optee/RPi3/optee_os/lib/libutee/tee_user_mem.c:404
    27e0:	f9400ba0 	ldr	x0, [x29,#16]
    27e4:	f9001ba0 	str	x0, [x29,#48]
    27e8:	f94023a0 	ldr	x0, [x29,#64]
    27ec:	f90017a0 	str	x0, [x29,#40]
    27f0:	f9401ba0 	ldr	x0, [x29,#48]
    27f4:	f94017a2 	ldr	x2, [x29,#40]
    27f8:	f94017a1 	ldr	x1, [x29,#40]
    27fc:	eb00005f 	cmp	x2, x0
    2800:	9a809020 	csel	x0, x1, x0, ls
    2804:	aa0003e2 	mov	x2, x0
    2808:	f9400fa1 	ldr	x1, [x29,#24]
    280c:	f9401fa0 	ldr	x0, [x29,#56]
    2810:	9400095e 	bl	4d88 <memcpy>
/home/optee/RPi3/optee_os/lib/libutee/tee_user_mem.c:407
    2814:	f9400fa0 	ldr	x0, [x29,#24]
    2818:	94000004 	bl	2828 <tee_user_mem_free>
/home/optee/RPi3/optee_os/lib/libutee/tee_user_mem.c:411
    281c:	f9401fa0 	ldr	x0, [x29,#56]
/home/optee/RPi3/optee_os/lib/libutee/tee_user_mem.c:412
    2820:	a8c57bfd 	ldp	x29, x30, [sp],#80
    2824:	d65f03c0 	ret

0000000000002828 <tee_user_mem_free>:
tee_user_mem_free():
/home/optee/RPi3/optee_os/lib/libutee/tee_user_mem.c:419
    2828:	a9bd7bfd 	stp	x29, x30, [sp,#-48]!
    282c:	910003fd 	mov	x29, sp
    2830:	f9000fa0 	str	x0, [x29,#24]
/home/optee/RPi3/optee_os/lib/libutee/tee_user_mem.c:426
    2834:	f9400fa0 	ldr	x0, [x29,#24]
    2838:	eb1f001f 	cmp	x0, xzr
    283c:	54000a00 	b.eq	297c <tee_user_mem_free+0x154>
/home/optee/RPi3/optee_os/lib/libutee/tee_user_mem.c:426 (discriminator 1)
    2840:	f0000060 	adrp	x0, 11000 <ta_props>
    2844:	9103c000 	add	x0, x0, #0xf0
    2848:	f9400000 	ldr	x0, [x0]
    284c:	f9400fa1 	ldr	x1, [x29,#24]
    2850:	eb00003f 	cmp	x1, x0
    2854:	54000940 	b.eq	297c <tee_user_mem_free+0x154>
/home/optee/RPi3/optee_os/lib/libutee/tee_user_mem.c:430
    2858:	f9400fa0 	ldr	x0, [x29,#24]
    285c:	97fffe41 	bl	2160 <is_buffer_valid>
    2860:	6b1f001f 	cmp	w0, wzr
    2864:	54000181 	b.ne	2894 <tee_user_mem_free+0x6c>
/home/optee/RPi3/optee_os/lib/libutee/tee_user_mem.c:431
    2868:	90000060 	adrp	x0, e000 <mpa_set_oct_str+0xa8>
    286c:	91384001 	add	x1, x0, #0xe10
    2870:	90000060 	adrp	x0, e000 <mpa_set_oct_str+0xa8>
    2874:	913aa000 	add	x0, x0, #0xea8
    2878:	f9400fa5 	ldr	x5, [x29,#24]
    287c:	aa0103e4 	mov	x4, x1
    2880:	52800023 	mov	w3, #0x1                   	// #1
    2884:	52800022 	mov	w2, #0x1                   	// #1
    2888:	528035e1 	mov	w1, #0x1af                 	// #431
    288c:	94001396 	bl	76e4 <trace_printf>
/home/optee/RPi3/optee_os/lib/libutee/tee_user_mem.c:432
    2890:	1400003c 	b	2980 <tee_user_mem_free+0x158>
/home/optee/RPi3/optee_os/lib/libutee/tee_user_mem.c:435
    2894:	f9400fa0 	ldr	x0, [x29,#24]
    2898:	97fffe2c 	bl	2148 <elem_addr>
    289c:	f90017a0 	str	x0, [x29,#40]
/home/optee/RPi3/optee_os/lib/libutee/tee_user_mem.c:436
    28a0:	f94017a0 	ldr	x0, [x29,#40]
    28a4:	f90013a0 	str	x0, [x29,#32]
/home/optee/RPi3/optee_os/lib/libutee/tee_user_mem.c:438
    28a8:	90000060 	adrp	x0, e000 <mpa_set_oct_str+0xa8>
    28ac:	9138c001 	add	x1, x0, #0xe30
    28b0:	90000060 	adrp	x0, e000 <mpa_set_oct_str+0xa8>
    28b4:	913aa000 	add	x0, x0, #0xea8
    28b8:	f94013a4 	ldr	x4, [x29,#32]
    28bc:	aa0103e3 	mov	x3, x1
    28c0:	528036c2 	mov	w2, #0x1b6                 	// #438
    28c4:	aa0003e1 	mov	x1, x0
    28c8:	52800060 	mov	w0, #0x3                   	// #3
    28cc:	97fffe3e 	bl	21c4 <print_buf>
/home/optee/RPi3/optee_os/lib/libutee/tee_user_mem.c:441
    28d0:	f94013a0 	ldr	x0, [x29,#32]
    28d4:	97fffeb9 	bl	23b8 <check_elem>
    28d8:	6b1f001f 	cmp	w0, wzr
    28dc:	54000101 	b.ne	28fc <tee_user_mem_free+0xd4>
/home/optee/RPi3/optee_os/lib/libutee/tee_user_mem.c:441 (discriminator 1)
    28e0:	90000060 	adrp	x0, e000 <mpa_set_oct_str+0xa8>
    28e4:	91362001 	add	x1, x0, #0xd88
    28e8:	90000060 	adrp	x0, e000 <mpa_set_oct_str+0xa8>
    28ec:	9138e000 	add	x0, x0, #0xe38
    28f0:	52803722 	mov	w2, #0x1b9                 	// #441
    28f4:	9400010d 	bl	2d28 <_assert_log>
    28f8:	94000120 	bl	2d78 <_assert_break>
/home/optee/RPi3/optee_os/lib/libutee/tee_user_mem.c:444
    28fc:	f94013a0 	ldr	x0, [x29,#32]
    2900:	f9400000 	ldr	x0, [x0]
    2904:	eb1f001f 	cmp	x0, xzr
    2908:	540000e0 	b.eq	2924 <tee_user_mem_free+0xfc>
/home/optee/RPi3/optee_os/lib/libutee/tee_user_mem.c:444 (discriminator 1)
    290c:	f94013a0 	ldr	x0, [x29,#32]
    2910:	f9400000 	ldr	x0, [x0]
    2914:	f94013a1 	ldr	x1, [x29,#32]
    2918:	f9400421 	ldr	x1, [x1,#8]
    291c:	f9000401 	str	x1, [x0,#8]
    2920:	14000006 	b	2938 <tee_user_mem_free+0x110>
/home/optee/RPi3/optee_os/lib/libutee/tee_user_mem.c:444 (discriminator 2)
    2924:	f94013a0 	ldr	x0, [x29,#32]
    2928:	f9400401 	ldr	x1, [x0,#8]
    292c:	f0000060 	adrp	x0, 11000 <ta_props>
    2930:	9103e000 	add	x0, x0, #0xf8
    2934:	f9000401 	str	x1, [x0,#8]
/home/optee/RPi3/optee_os/lib/libutee/tee_user_mem.c:444 (discriminator 4)
    2938:	f94013a0 	ldr	x0, [x29,#32]
    293c:	f9400400 	ldr	x0, [x0,#8]
    2940:	f94013a1 	ldr	x1, [x29,#32]
    2944:	f9400021 	ldr	x1, [x1]
    2948:	f9000001 	str	x1, [x0]
/home/optee/RPi3/optee_os/lib/libutee/tee_user_mem.c:446 (discriminator 4)
    294c:	f94013a0 	ldr	x0, [x29,#32]
    2950:	f9400800 	ldr	x0, [x0,#16]
    2954:	97fffe5b 	bl	22c0 <heap_dec>
/home/optee/RPi3/optee_os/lib/libutee/tee_user_mem.c:455 (discriminator 4)
    2958:	f94013a0 	ldr	x0, [x29,#32]
    295c:	f9400800 	ldr	x0, [x0,#16]
    2960:	aa0003e2 	mov	x2, x0
    2964:	52801541 	mov	w1, #0xaa                  	// #170
    2968:	f94017a0 	ldr	x0, [x29,#40]
    296c:	940009ea 	bl	5114 <memset>
/home/optee/RPi3/optee_os/lib/libutee/tee_user_mem.c:458 (discriminator 4)
    2970:	f94017a0 	ldr	x0, [x29,#40]
    2974:	97fffdd5 	bl	20c8 <utee_free>
    2978:	14000002 	b	2980 <tee_user_mem_free+0x158>
/home/optee/RPi3/optee_os/lib/libutee/tee_user_mem.c:427
    297c:	d503201f 	nop
/home/optee/RPi3/optee_os/lib/libutee/tee_user_mem.c:461
    2980:	a8c37bfd 	ldp	x29, x30, [sp],#48
    2984:	d65f03c0 	ret

0000000000002988 <tee_user_mem_mark_heap>:
tee_user_mem_mark_heap():
/home/optee/RPi3/optee_os/lib/libutee/tee_user_mem.c:471
    2988:	900000c0 	adrp	x0, 1a000 <mempool_u32+0xe88>
    298c:	91330000 	add	x0, x0, #0xcc0
    2990:	f900001f 	str	xzr, [x0]
/home/optee/RPi3/optee_os/lib/libutee/tee_user_mem.c:473
    2994:	d503201f 	nop
    2998:	d65f03c0 	ret

000000000000299c <tee_user_mem_check_heap>:
tee_user_mem_check_heap():
/home/optee/RPi3/optee_os/lib/libutee/tee_user_mem.c:481
    299c:	a9be7bfd 	stp	x29, x30, [sp,#-32]!
    29a0:	910003fd 	mov	x29, sp
/home/optee/RPi3/optee_os/lib/libutee/tee_user_mem.c:482
    29a4:	b9001fbf 	str	wzr, [x29,#28]
/home/optee/RPi3/optee_os/lib/libutee/tee_user_mem.c:485
    29a8:	900000c0 	adrp	x0, 1a000 <mempool_u32+0xe88>
    29ac:	91330000 	add	x0, x0, #0xcc0
    29b0:	f9400000 	ldr	x0, [x0]
    29b4:	eb1f001f 	cmp	x0, xzr
    29b8:	54000240 	b.eq	2a00 <tee_user_mem_check_heap+0x64>
/home/optee/RPi3/optee_os/lib/libutee/tee_user_mem.c:486
    29bc:	900000c0 	adrp	x0, 1a000 <mempool_u32+0xe88>
    29c0:	91330000 	add	x0, x0, #0xcc0
    29c4:	f9400002 	ldr	x2, [x0]
    29c8:	90000060 	adrp	x0, e000 <mpa_set_oct_str+0xa8>
    29cc:	91392001 	add	x1, x0, #0xe48
    29d0:	90000060 	adrp	x0, e000 <mpa_set_oct_str+0xa8>
    29d4:	913b0000 	add	x0, x0, #0xec0
    29d8:	aa0203e5 	mov	x5, x2
    29dc:	aa0103e4 	mov	x4, x1
    29e0:	52800023 	mov	w3, #0x1                   	// #1
    29e4:	52800022 	mov	w2, #0x1                   	// #1
    29e8:	52803cc1 	mov	w1, #0x1e6                 	// #486
    29ec:	9400133e 	bl	76e4 <trace_printf>
/home/optee/RPi3/optee_os/lib/libutee/tee_user_mem.c:488
    29f0:	900000c0 	adrp	x0, 1a000 <mempool_u32+0xe88>
    29f4:	91330000 	add	x0, x0, #0xcc0
    29f8:	f9400000 	ldr	x0, [x0]
    29fc:	14000007 	b	2a18 <tee_user_mem_check_heap+0x7c>
/home/optee/RPi3/optee_os/lib/libutee/tee_user_mem.c:491
    2a00:	97fffeb7 	bl	24dc <is_mem_coherent>
    2a04:	6b1f001f 	cmp	w0, wzr
    2a08:	1a9f17e0 	cset	w0, eq
    2a0c:	53001c00 	uxtb	w0, w0
    2a10:	b9001fa0 	str	w0, [x29,#28]
/home/optee/RPi3/optee_os/lib/libutee/tee_user_mem.c:494
    2a14:	b9801fa0 	ldrsw	x0, [x29,#28]
/home/optee/RPi3/optee_os/lib/libutee/tee_user_mem.c:495
    2a18:	a8c27bfd 	ldp	x29, x30, [sp],#32
    2a1c:	d65f03c0 	ret

0000000000002a20 <tee_user_mem_status>:
tee_user_mem_status():
/home/optee/RPi3/optee_os/lib/libutee/tee_user_mem.c:501
    2a20:	a9bd7bfd 	stp	x29, x30, [sp,#-48]!
    2a24:	910003fd 	mov	x29, sp
    2a28:	f9000fa0 	str	x0, [x29,#24]
/home/optee/RPi3/optee_os/lib/libutee/tee_user_mem.c:503
    2a2c:	f9400fa0 	ldr	x0, [x29,#24]
    2a30:	eb1f001f 	cmp	x0, xzr
    2a34:	540000e0 	b.eq	2a50 <tee_user_mem_status+0x30>
/home/optee/RPi3/optee_os/lib/libutee/tee_user_mem.c:504
    2a38:	900000c0 	adrp	x0, 1a000 <mempool_u32+0xe88>
    2a3c:	91332000 	add	x0, x0, #0xcc8
    2a40:	d2800202 	mov	x2, #0x10                  	// #16
    2a44:	aa0003e1 	mov	x1, x0
    2a48:	f9400fa0 	ldr	x0, [x29,#24]
    2a4c:	940008cf 	bl	4d88 <memcpy>
/home/optee/RPi3/optee_os/lib/libutee/tee_user_mem.c:511
    2a50:	f0000060 	adrp	x0, 11000 <ta_props>
    2a54:	9103e000 	add	x0, x0, #0xf8
    2a58:	f9400000 	ldr	x0, [x0]
    2a5c:	f90017a0 	str	x0, [x29,#40]
    2a60:	1400000e 	b	2a98 <tee_user_mem_status+0x78>
/home/optee/RPi3/optee_os/lib/libutee/tee_user_mem.c:512 (discriminator 3)
    2a64:	90000060 	adrp	x0, e000 <mpa_set_oct_str+0xa8>
    2a68:	9139a001 	add	x1, x0, #0xe68
    2a6c:	90000060 	adrp	x0, e000 <mpa_set_oct_str+0xa8>
    2a70:	913b6000 	add	x0, x0, #0xed8
    2a74:	f94017a4 	ldr	x4, [x29,#40]
    2a78:	aa0103e3 	mov	x3, x1
    2a7c:	52804002 	mov	w2, #0x200                 	// #512
    2a80:	aa0003e1 	mov	x1, x0
    2a84:	52800020 	mov	w0, #0x1                   	// #1
    2a88:	97fffdcf 	bl	21c4 <print_buf>
/home/optee/RPi3/optee_os/lib/libutee/tee_user_mem.c:511 (discriminator 3)
    2a8c:	f94017a0 	ldr	x0, [x29,#40]
    2a90:	f9400000 	ldr	x0, [x0]
    2a94:	f90017a0 	str	x0, [x29,#40]
/home/optee/RPi3/optee_os/lib/libutee/tee_user_mem.c:511 (discriminator 1)
    2a98:	f94017a0 	ldr	x0, [x29,#40]
    2a9c:	eb1f001f 	cmp	x0, xzr
    2aa0:	54fffe21 	b.ne	2a64 <tee_user_mem_status+0x44>
/home/optee/RPi3/optee_os/lib/libutee/tee_user_mem.c:514
    2aa4:	d503201f 	nop
    2aa8:	a8c37bfd 	ldp	x29, x30, [sp],#48
    2aac:	d65f03c0 	ret

0000000000002ab0 <tee_user_mem_garbage>:
tee_user_mem_garbage():
/home/optee/RPi3/optee_os/lib/libutee/tee_user_mem.c:530
    2ab0:	a9bf7bfd 	stp	x29, x30, [sp,#-16]!
    2ab4:	910003fd 	mov	x29, sp
/home/optee/RPi3/optee_os/lib/libutee/tee_user_mem.c:532
    2ab8:	d2800000 	mov	x0, #0x0                   	// #0
    2abc:	97ffffd9 	bl	2a20 <tee_user_mem_status>
/home/optee/RPi3/optee_os/lib/libutee/tee_user_mem.c:535
    2ac0:	14000006 	b	2ad8 <tee_user_mem_garbage+0x28>
/home/optee/RPi3/optee_os/lib/libutee/tee_user_mem.c:536
    2ac4:	f0000060 	adrp	x0, 11000 <ta_props>
    2ac8:	9103e000 	add	x0, x0, #0xf8
    2acc:	f9400000 	ldr	x0, [x0]
    2ad0:	97fffd8f 	bl	210c <buf_addr>
    2ad4:	97ffff55 	bl	2828 <tee_user_mem_free>
/home/optee/RPi3/optee_os/lib/libutee/tee_user_mem.c:535
    2ad8:	f0000060 	adrp	x0, 11000 <ta_props>
    2adc:	9103e000 	add	x0, x0, #0xf8
    2ae0:	f9400000 	ldr	x0, [x0]
    2ae4:	eb1f001f 	cmp	x0, xzr
    2ae8:	54fffee1 	b.ne	2ac4 <tee_user_mem_garbage+0x14>
/home/optee/RPi3/optee_os/lib/libutee/tee_user_mem.c:537
    2aec:	d503201f 	nop
    2af0:	a8c17bfd 	ldp	x29, x30, [sp],#16
    2af4:	d65f03c0 	ret

0000000000002af8 <trace_ext_puts>:
trace_ext_puts():
/home/optee/RPi3/optee_os/lib/libutee/trace_ext.c:39
    2af8:	a9be7bfd 	stp	x29, x30, [sp,#-32]!
    2afc:	910003fd 	mov	x29, sp
    2b00:	f9000fa0 	str	x0, [x29,#24]
/home/optee/RPi3/optee_os/lib/libutee/trace_ext.c:40
    2b04:	f9400fa0 	ldr	x0, [x29,#24]
    2b08:	940009f6 	bl	52e0 <strlen>
    2b0c:	aa0003e1 	mov	x1, x0
    2b10:	f9400fa0 	ldr	x0, [x29,#24]
    2b14:	94002eaa 	bl	e5bc <utee_log>
/home/optee/RPi3/optee_os/lib/libutee/trace_ext.c:41
    2b18:	d503201f 	nop
    2b1c:	a8c27bfd 	ldp	x29, x30, [sp],#32
    2b20:	d65f03c0 	ret

0000000000002b24 <trace_ext_get_thread_id>:
trace_ext_get_thread_id():
/home/optee/RPi3/optee_os/lib/libutee/trace_ext.c:45
    2b24:	12800000 	mov	w0, #0xffffffff            	// #-1
/home/optee/RPi3/optee_os/lib/libutee/trace_ext.c:46
    2b28:	d65f03c0 	ret

0000000000002b2c <printf>:
printf():
/home/optee/RPi3/optee_os/lib/libutee/trace_ext.c:56
    2b2c:	d10883ff 	sub	sp, sp, #0x220
    2b30:	a9be7bfd 	stp	x29, x30, [sp,#-32]!
    2b34:	910003fd 	mov	x29, sp
    2b38:	f9000bf3 	str	x19, [sp,#16]
    2b3c:	f90027a0 	str	x0, [x29,#72]
    2b40:	f90107a1 	str	x1, [x29,#520]
    2b44:	f9010ba2 	str	x2, [x29,#528]
    2b48:	f9010fa3 	str	x3, [x29,#536]
    2b4c:	f90113a4 	str	x4, [x29,#544]
    2b50:	f90117a5 	str	x5, [x29,#552]
    2b54:	f9011ba6 	str	x6, [x29,#560]
    2b58:	f9011fa7 	str	x7, [x29,#568]
    2b5c:	910603a0 	add	x0, x29, #0x180
    2b60:	3d800000 	str	q0, [x0]
    2b64:	910643a0 	add	x0, x29, #0x190
    2b68:	3d800001 	str	q1, [x0]
    2b6c:	910683a0 	add	x0, x29, #0x1a0
    2b70:	3d800002 	str	q2, [x0]
    2b74:	9106c3a0 	add	x0, x29, #0x1b0
    2b78:	3d800003 	str	q3, [x0]
    2b7c:	910703a0 	add	x0, x29, #0x1c0
    2b80:	3d800004 	str	q4, [x0]
    2b84:	910743a0 	add	x0, x29, #0x1d0
    2b88:	3d800005 	str	q5, [x0]
    2b8c:	910783a0 	add	x0, x29, #0x1e0
    2b90:	3d800006 	str	q6, [x0]
    2b94:	9107c3a0 	add	x0, x29, #0x1f0
    2b98:	3d800007 	str	q7, [x0]
/home/optee/RPi3/optee_os/lib/libutee/trace_ext.c:64
    2b9c:	940012b1 	bl	7660 <trace_get_level>
    2ba0:	6b1f001f 	cmp	w0, wzr
    2ba4:	5400006c 	b.gt	2bb0 <printf+0x84>
/home/optee/RPi3/optee_os/lib/libutee/trace_ext.c:65
    2ba8:	52800000 	mov	w0, #0x0                   	// #0
    2bac:	14000050 	b	2cec <printf+0x1c0>
/home/optee/RPi3/optee_os/lib/libutee/trace_ext.c:67
    2bb0:	90000060 	adrp	x0, e000 <mpa_set_oct_str+0xa8>
    2bb4:	913bc001 	add	x1, x0, #0xef0
    2bb8:	9101e3a0 	add	x0, x29, #0x78
    2bbc:	d2802002 	mov	x2, #0x100                 	// #256
    2bc0:	94001266 	bl	7558 <strlcpy>
    2bc4:	b9017fa0 	str	w0, [x29,#380]
/home/optee/RPi3/optee_os/lib/libutee/trace_ext.c:68
    2bc8:	b9417fa0 	ldr	w0, [x29,#380]
    2bcc:	7103fc1f 	cmp	w0, #0xff
    2bd0:	540000c9 	b.ls	2be8 <printf+0xbc>
/home/optee/RPi3/optee_os/lib/libutee/trace_ext.c:69
    2bd4:	90000060 	adrp	x0, e000 <mpa_set_oct_str+0xa8>
    2bd8:	913c0000 	add	x0, x0, #0xf00
    2bdc:	94000048 	bl	2cfc <puts>
/home/optee/RPi3/optee_os/lib/libutee/trace_ext.c:70
    2be0:	52800000 	mov	w0, #0x0                   	// #0
    2be4:	14000042 	b	2cec <printf+0x1c0>
/home/optee/RPi3/optee_os/lib/libutee/trace_ext.c:73
    2be8:	910903a0 	add	x0, x29, #0x240
    2bec:	f9002fa0 	str	x0, [x29,#88]
    2bf0:	910903a0 	add	x0, x29, #0x240
    2bf4:	f90033a0 	str	x0, [x29,#96]
    2bf8:	910803a0 	add	x0, x29, #0x200
    2bfc:	f90037a0 	str	x0, [x29,#104]
    2c00:	128006e0 	mov	w0, #0xffffffc8            	// #-56
    2c04:	b90073a0 	str	w0, [x29,#112]
    2c08:	12800fe0 	mov	w0, #0xffffff80            	// #-128
    2c0c:	b90077a0 	str	w0, [x29,#116]
/home/optee/RPi3/optee_os/lib/libutee/trace_ext.c:74
    2c10:	b9817fa0 	ldrsw	x0, [x29,#380]
    2c14:	9101e3a1 	add	x1, x29, #0x78
    2c18:	8b000024 	add	x4, x1, x0
    2c1c:	b9817fa0 	ldrsw	x0, [x29,#380]
    2c20:	d2802001 	mov	x1, #0x100                 	// #256
    2c24:	cb000021 	sub	x1, x1, x0
    2c28:	f9402fa0 	ldr	x0, [x29,#88]
    2c2c:	f90013a0 	str	x0, [x29,#32]
    2c30:	f94033a0 	ldr	x0, [x29,#96]
    2c34:	f90017a0 	str	x0, [x29,#40]
    2c38:	f94037a0 	ldr	x0, [x29,#104]
    2c3c:	f9001ba0 	str	x0, [x29,#48]
    2c40:	f9403ba0 	ldr	x0, [x29,#112]
    2c44:	f9001fa0 	str	x0, [x29,#56]
    2c48:	910083a0 	add	x0, x29, #0x20
    2c4c:	aa0003e3 	mov	x3, x0
    2c50:	f94027a2 	ldr	x2, [x29,#72]
    2c54:	aa0403e0 	mov	x0, x4
    2c58:	940007e9 	bl	4bfc <vsnprintf>
    2c5c:	b9017fa0 	str	w0, [x29,#380]
/home/optee/RPi3/optee_os/lib/libutee/trace_ext.c:77
    2c60:	b9417fa0 	ldr	w0, [x29,#380]
    2c64:	6b1f001f 	cmp	w0, wzr
    2c68:	540000ca 	b.ge	2c80 <printf+0x154>
/home/optee/RPi3/optee_os/lib/libutee/trace_ext.c:78
    2c6c:	90000060 	adrp	x0, e000 <mpa_set_oct_str+0xa8>
    2c70:	913c0000 	add	x0, x0, #0xf00
    2c74:	94000022 	bl	2cfc <puts>
/home/optee/RPi3/optee_os/lib/libutee/trace_ext.c:79
    2c78:	b9417fa0 	ldr	w0, [x29,#380]
    2c7c:	1400001c 	b	2cec <printf+0x1c0>
/home/optee/RPi3/optee_os/lib/libutee/trace_ext.c:81
    2c80:	b9417fa0 	ldr	w0, [x29,#380]
    2c84:	2a0003f3 	mov	w19, w0
    2c88:	90000060 	adrp	x0, e000 <mpa_set_oct_str+0xa8>
    2c8c:	913bc000 	add	x0, x0, #0xef0
    2c90:	94000994 	bl	52e0 <strlen>
    2c94:	aa0003e1 	mov	x1, x0
    2c98:	d2802000 	mov	x0, #0x100                 	// #256
    2c9c:	cb010000 	sub	x0, x0, x1
    2ca0:	eb00027f 	cmp	x19, x0
    2ca4:	540001e3 	b.cc	2ce0 <printf+0x1b4>
/home/optee/RPi3/optee_os/lib/libutee/trace_ext.c:82
    2ca8:	90000060 	adrp	x0, e000 <mpa_set_oct_str+0xa8>
    2cac:	913c6000 	add	x0, x0, #0xf18
    2cb0:	39400001 	ldrb	w1, [x0]
    2cb4:	3905cfa1 	strb	w1, [x29,#371]
    2cb8:	39400401 	ldrb	w1, [x0,#1]
    2cbc:	3905d3a1 	strb	w1, [x29,#372]
    2cc0:	39400801 	ldrb	w1, [x0,#2]
    2cc4:	3905d7a1 	strb	w1, [x29,#373]
    2cc8:	39400c01 	ldrb	w1, [x0,#3]
    2ccc:	3905dba1 	strb	w1, [x29,#374]
    2cd0:	39401000 	ldrb	w0, [x0,#4]
    2cd4:	3905dfa0 	strb	w0, [x29,#375]
/home/optee/RPi3/optee_os/lib/libutee/trace_ext.c:84
    2cd8:	52801e20 	mov	w0, #0xf1                  	// #241
    2cdc:	b9017fa0 	str	w0, [x29,#380]
/home/optee/RPi3/optee_os/lib/libutee/trace_ext.c:87
    2ce0:	9101e3a0 	add	x0, x29, #0x78
    2ce4:	94000006 	bl	2cfc <puts>
/home/optee/RPi3/optee_os/lib/libutee/trace_ext.c:89
    2ce8:	b9417fa0 	ldr	w0, [x29,#380]
/home/optee/RPi3/optee_os/lib/libutee/trace_ext.c:90 (discriminator 1)
    2cec:	f9400bf3 	ldr	x19, [sp,#16]
    2cf0:	a8c27bfd 	ldp	x29, x30, [sp],#32
    2cf4:	910883ff 	add	sp, sp, #0x220
    2cf8:	d65f03c0 	ret

0000000000002cfc <puts>:
puts():
/home/optee/RPi3/optee_os/lib/libutee/trace_ext.c:93
    2cfc:	a9be7bfd 	stp	x29, x30, [sp,#-32]!
    2d00:	910003fd 	mov	x29, sp
    2d04:	f9000fa0 	str	x0, [x29,#24]
/home/optee/RPi3/optee_os/lib/libutee/trace_ext.c:94
    2d08:	94001256 	bl	7660 <trace_get_level>
    2d0c:	6b1f001f 	cmp	w0, wzr
    2d10:	5400006d 	b.le	2d1c <puts+0x20>
/home/optee/RPi3/optee_os/lib/libutee/trace_ext.c:95
    2d14:	f9400fa0 	ldr	x0, [x29,#24]
    2d18:	97ffff78 	bl	2af8 <trace_ext_puts>
/home/optee/RPi3/optee_os/lib/libutee/trace_ext.c:96
    2d1c:	52800020 	mov	w0, #0x1                   	// #1
/home/optee/RPi3/optee_os/lib/libutee/trace_ext.c:97
    2d20:	a8c27bfd 	ldp	x29, x30, [sp],#32
    2d24:	d65f03c0 	ret

0000000000002d28 <_assert_log>:
_assert_log():
/home/optee/RPi3/optee_os/lib/libutee/assert.c:35
    2d28:	a9bd7bfd 	stp	x29, x30, [sp,#-48]!
    2d2c:	910003fd 	mov	x29, sp
    2d30:	f90017a0 	str	x0, [x29,#40]
    2d34:	f90013a1 	str	x1, [x29,#32]
    2d38:	b9001fa2 	str	w2, [x29,#28]
/home/optee/RPi3/optee_os/lib/libutee/assert.c:36
    2d3c:	90000060 	adrp	x0, e000 <mpa_set_oct_str+0xa8>
    2d40:	913c8001 	add	x1, x0, #0xf20
    2d44:	90000060 	adrp	x0, e000 <mpa_set_oct_str+0xa8>
    2d48:	913d0000 	add	x0, x0, #0xf40
    2d4c:	b9401fa7 	ldr	w7, [x29,#28]
    2d50:	f94013a6 	ldr	x6, [x29,#32]
    2d54:	f94017a5 	ldr	x5, [x29,#40]
    2d58:	aa0103e4 	mov	x4, x1
    2d5c:	52800023 	mov	w3, #0x1                   	// #1
    2d60:	52800022 	mov	w2, #0x1                   	// #1
    2d64:	52800481 	mov	w1, #0x24                  	// #36
    2d68:	9400125f 	bl	76e4 <trace_printf>
/home/optee/RPi3/optee_os/lib/libutee/assert.c:37
    2d6c:	d503201f 	nop
    2d70:	a8c37bfd 	ldp	x29, x30, [sp],#48
    2d74:	d65f03c0 	ret

0000000000002d78 <_assert_break>:
_assert_break():
/home/optee/RPi3/optee_os/lib/libutee/assert.c:40
    2d78:	a9bf7bfd 	stp	x29, x30, [sp,#-16]!
    2d7c:	910003fd 	mov	x29, sp
/home/optee/RPi3/optee_os/lib/libutee/assert.c:41
    2d80:	d2bfffe0 	mov	x0, #0xffff0000            	// #4294901760
    2d84:	94002e11 	bl	e5c8 <utee_panic>

0000000000002d88 <bget>:
bget():
/home/optee/RPi3/optee_os/lib/libutils/isoc/bget.c:575
    2d88:	a9bb7bfd 	stp	x29, x30, [sp,#-80]!
    2d8c:	910003fd 	mov	x29, sp
    2d90:	f9000fa0 	str	x0, [x29,#24]
/home/optee/RPi3/optee_os/lib/libutils/isoc/bget.c:576
    2d94:	f9400fa0 	ldr	x0, [x29,#24]
    2d98:	f90027a0 	str	x0, [x29,#72]
/home/optee/RPi3/optee_os/lib/libutils/isoc/bget.c:586
    2d9c:	f94027a0 	ldr	x0, [x29,#72]
    2da0:	eb1f001f 	cmp	x0, xzr
    2da4:	5400010c 	b.gt	2dc4 <bget+0x3c>
/home/optee/RPi3/optee_os/lib/libutils/isoc/bget.c:586 (discriminator 1)
    2da8:	90000060 	adrp	x0, e000 <mpa_set_oct_str+0xa8>
    2dac:	913d4001 	add	x1, x0, #0xf50
    2db0:	90000060 	adrp	x0, e000 <mpa_set_oct_str+0xa8>
    2db4:	913dc000 	add	x0, x0, #0xf70
    2db8:	52804942 	mov	w2, #0x24a                 	// #586
    2dbc:	97ffffdb 	bl	2d28 <_assert_log>
    2dc0:	97ffffee 	bl	2d78 <_assert_break>
/home/optee/RPi3/optee_os/lib/libutils/isoc/bget.c:588
    2dc4:	f94027a0 	ldr	x0, [x29,#72]
    2dc8:	f1003c1f 	cmp	x0, #0xf
    2dcc:	54000068 	b.hi	2dd8 <bget+0x50>
/home/optee/RPi3/optee_os/lib/libutils/isoc/bget.c:589
    2dd0:	d2800200 	mov	x0, #0x10                  	// #16
    2dd4:	f90027a0 	str	x0, [x29,#72]
/home/optee/RPi3/optee_os/lib/libutils/isoc/bget.c:593
    2dd8:	f94027a0 	ldr	x0, [x29,#72]
    2ddc:	91003c00 	add	x0, x0, #0xf
    2de0:	927cec00 	and	x0, x0, #0xfffffffffffffff0
    2de4:	f90027a0 	str	x0, [x29,#72]
/home/optee/RPi3/optee_os/lib/libutils/isoc/bget.c:597
    2de8:	f94027a0 	ldr	x0, [x29,#72]
    2dec:	91004000 	add	x0, x0, #0x10
    2df0:	f90027a0 	str	x0, [x29,#72]
/home/optee/RPi3/optee_os/lib/libutils/isoc/bget.c:607
    2df4:	f0000060 	adrp	x0, 11000 <ta_props>
    2df8:	91042000 	add	x0, x0, #0x108
    2dfc:	f9400800 	ldr	x0, [x0,#16]
    2e00:	f90023a0 	str	x0, [x29,#64]
/home/optee/RPi3/optee_os/lib/libutils/isoc/bget.c:628
    2e04:	1400009f 	b	3080 <bget+0x2f8>
/home/optee/RPi3/optee_os/lib/libutils/isoc/bget.c:629
    2e08:	f94023a0 	ldr	x0, [x29,#64]
    2e0c:	f9400401 	ldr	x1, [x0,#8]
    2e10:	f94027a0 	ldr	x0, [x29,#72]
    2e14:	eb00003f 	cmp	x1, x0
    2e18:	540012eb 	b.lt	3074 <bget+0x2ec>
/home/optee/RPi3/optee_os/lib/libutils/isoc/bget.c:640
    2e1c:	f94023a0 	ldr	x0, [x29,#64]
    2e20:	f9400401 	ldr	x1, [x0,#8]
    2e24:	f94027a0 	ldr	x0, [x29,#72]
    2e28:	cb000020 	sub	x0, x1, x0
    2e2c:	f100801f 	cmp	x0, #0x20
    2e30:	540007c9 	b.ls	2f28 <bget+0x1a0>
/home/optee/RPi3/optee_os/lib/libutils/isoc/bget.c:643
    2e34:	f94023a0 	ldr	x0, [x29,#64]
    2e38:	f9400401 	ldr	x1, [x0,#8]
    2e3c:	f94027a0 	ldr	x0, [x29,#72]
    2e40:	cb000020 	sub	x0, x1, x0
    2e44:	aa0003e1 	mov	x1, x0
    2e48:	f94023a0 	ldr	x0, [x29,#64]
    2e4c:	8b010000 	add	x0, x0, x1
    2e50:	f9001fa0 	str	x0, [x29,#56]
/home/optee/RPi3/optee_os/lib/libutils/isoc/bget.c:644
    2e54:	f94027a0 	ldr	x0, [x29,#72]
    2e58:	f9401fa1 	ldr	x1, [x29,#56]
    2e5c:	8b000020 	add	x0, x1, x0
    2e60:	f9001ba0 	str	x0, [x29,#48]
/home/optee/RPi3/optee_os/lib/libutils/isoc/bget.c:645
    2e64:	f9401ba0 	ldr	x0, [x29,#48]
    2e68:	f9400001 	ldr	x1, [x0]
    2e6c:	f94023a0 	ldr	x0, [x29,#64]
    2e70:	f9400400 	ldr	x0, [x0,#8]
    2e74:	eb00003f 	cmp	x1, x0
    2e78:	54000100 	b.eq	2e98 <bget+0x110>
/home/optee/RPi3/optee_os/lib/libutils/isoc/bget.c:645 (discriminator 1)
    2e7c:	90000060 	adrp	x0, e000 <mpa_set_oct_str+0xa8>
    2e80:	913d4001 	add	x1, x0, #0xf50
    2e84:	90000060 	adrp	x0, e000 <mpa_set_oct_str+0xa8>
    2e88:	913e0000 	add	x0, x0, #0xf80
    2e8c:	528050a2 	mov	w2, #0x285                 	// #645
    2e90:	97ffffa6 	bl	2d28 <_assert_log>
    2e94:	97ffffb9 	bl	2d78 <_assert_break>
/home/optee/RPi3/optee_os/lib/libutils/isoc/bget.c:647
    2e98:	f94023a0 	ldr	x0, [x29,#64]
    2e9c:	f9400401 	ldr	x1, [x0,#8]
    2ea0:	f94027a0 	ldr	x0, [x29,#72]
    2ea4:	cb000021 	sub	x1, x1, x0
    2ea8:	f94023a0 	ldr	x0, [x29,#64]
    2eac:	f9000401 	str	x1, [x0,#8]
/home/optee/RPi3/optee_os/lib/libutils/isoc/bget.c:649
    2eb0:	f94023a0 	ldr	x0, [x29,#64]
    2eb4:	f9400401 	ldr	x1, [x0,#8]
    2eb8:	f9401fa0 	ldr	x0, [x29,#56]
    2ebc:	f9000001 	str	x1, [x0]
/home/optee/RPi3/optee_os/lib/libutils/isoc/bget.c:651
    2ec0:	f94027a0 	ldr	x0, [x29,#72]
    2ec4:	cb0003e1 	neg	x1, x0
    2ec8:	f9401fa0 	ldr	x0, [x29,#56]
    2ecc:	f9000401 	str	x1, [x0,#8]
/home/optee/RPi3/optee_os/lib/libutils/isoc/bget.c:653
    2ed0:	f9401ba0 	ldr	x0, [x29,#48]
    2ed4:	f900001f 	str	xzr, [x0]
/home/optee/RPi3/optee_os/lib/libutils/isoc/bget.c:656
    2ed8:	900000c0 	adrp	x0, 1a000 <mempool_u32+0xe88>
    2edc:	91336000 	add	x0, x0, #0xcd8
    2ee0:	f9400001 	ldr	x1, [x0]
    2ee4:	f94027a0 	ldr	x0, [x29,#72]
    2ee8:	8b000021 	add	x1, x1, x0
    2eec:	900000c0 	adrp	x0, 1a000 <mempool_u32+0xe88>
    2ef0:	91336000 	add	x0, x0, #0xcd8
    2ef4:	f9000001 	str	x1, [x0]
/home/optee/RPi3/optee_os/lib/libutils/isoc/bget.c:657
    2ef8:	900000c0 	adrp	x0, 1a000 <mempool_u32+0xe88>
    2efc:	91338000 	add	x0, x0, #0xce0
    2f00:	f9400000 	ldr	x0, [x0]
    2f04:	91000401 	add	x1, x0, #0x1
    2f08:	900000c0 	adrp	x0, 1a000 <mempool_u32+0xe88>
    2f0c:	91338000 	add	x0, x0, #0xce0
    2f10:	f9000001 	str	x1, [x0]
/home/optee/RPi3/optee_os/lib/libutils/isoc/bget.c:659
    2f14:	f9401fa0 	ldr	x0, [x29,#56]
    2f18:	91004000 	add	x0, x0, #0x10
    2f1c:	f90017a0 	str	x0, [x29,#40]
/home/optee/RPi3/optee_os/lib/libutils/isoc/bget.c:660
    2f20:	f94017a0 	ldr	x0, [x29,#40]
    2f24:	1400005d 	b	3098 <bget+0x310>
/home/optee/RPi3/optee_os/lib/libutils/isoc/bget.c:664
    2f28:	f94023a0 	ldr	x0, [x29,#64]
    2f2c:	f9400400 	ldr	x0, [x0,#8]
    2f30:	aa0003e1 	mov	x1, x0
    2f34:	f94023a0 	ldr	x0, [x29,#64]
    2f38:	8b010000 	add	x0, x0, x1
    2f3c:	f90013a0 	str	x0, [x29,#32]
/home/optee/RPi3/optee_os/lib/libutils/isoc/bget.c:665
    2f40:	f94013a0 	ldr	x0, [x29,#32]
    2f44:	f9400001 	ldr	x1, [x0]
    2f48:	f94023a0 	ldr	x0, [x29,#64]
    2f4c:	f9400400 	ldr	x0, [x0,#8]
    2f50:	eb00003f 	cmp	x1, x0
    2f54:	54000100 	b.eq	2f74 <bget+0x1ec>
/home/optee/RPi3/optee_os/lib/libutils/isoc/bget.c:665 (discriminator 1)
    2f58:	90000060 	adrp	x0, e000 <mpa_set_oct_str+0xa8>
    2f5c:	913d4001 	add	x1, x0, #0xf50
    2f60:	90000060 	adrp	x0, e000 <mpa_set_oct_str+0xa8>
    2f64:	913e8000 	add	x0, x0, #0xfa0
    2f68:	52805322 	mov	w2, #0x299                 	// #665
    2f6c:	97ffff6f 	bl	2d28 <_assert_log>
    2f70:	97ffff82 	bl	2d78 <_assert_break>
/home/optee/RPi3/optee_os/lib/libutils/isoc/bget.c:670
    2f74:	f94023a0 	ldr	x0, [x29,#64]
    2f78:	f9400c00 	ldr	x0, [x0,#24]
    2f7c:	f9400801 	ldr	x1, [x0,#16]
    2f80:	f94023a0 	ldr	x0, [x29,#64]
    2f84:	eb00003f 	cmp	x1, x0
    2f88:	54000100 	b.eq	2fa8 <bget+0x220>
/home/optee/RPi3/optee_os/lib/libutils/isoc/bget.c:670 (discriminator 1)
    2f8c:	90000060 	adrp	x0, e000 <mpa_set_oct_str+0xa8>
    2f90:	913d4001 	add	x1, x0, #0xf50
    2f94:	90000060 	adrp	x0, e000 <mpa_set_oct_str+0xa8>
    2f98:	913f0000 	add	x0, x0, #0xfc0
    2f9c:	528053c2 	mov	w2, #0x29e                 	// #670
    2fa0:	97ffff62 	bl	2d28 <_assert_log>
    2fa4:	97ffff75 	bl	2d78 <_assert_break>
/home/optee/RPi3/optee_os/lib/libutils/isoc/bget.c:671
    2fa8:	f94023a0 	ldr	x0, [x29,#64]
    2fac:	f9400800 	ldr	x0, [x0,#16]
    2fb0:	f9400c01 	ldr	x1, [x0,#24]
    2fb4:	f94023a0 	ldr	x0, [x29,#64]
    2fb8:	eb00003f 	cmp	x1, x0
    2fbc:	54000100 	b.eq	2fdc <bget+0x254>
/home/optee/RPi3/optee_os/lib/libutils/isoc/bget.c:671 (discriminator 1)
    2fc0:	90000060 	adrp	x0, e000 <mpa_set_oct_str+0xa8>
    2fc4:	913d4001 	add	x1, x0, #0xf50
    2fc8:	90000060 	adrp	x0, e000 <mpa_set_oct_str+0xa8>
    2fcc:	913f8000 	add	x0, x0, #0xfe0
    2fd0:	528053e2 	mov	w2, #0x29f                 	// #671
    2fd4:	97ffff55 	bl	2d28 <_assert_log>
    2fd8:	97ffff68 	bl	2d78 <_assert_break>
/home/optee/RPi3/optee_os/lib/libutils/isoc/bget.c:672
    2fdc:	f94023a0 	ldr	x0, [x29,#64]
    2fe0:	f9400c00 	ldr	x0, [x0,#24]
    2fe4:	f94023a1 	ldr	x1, [x29,#64]
    2fe8:	f9400821 	ldr	x1, [x1,#16]
    2fec:	f9000801 	str	x1, [x0,#16]
/home/optee/RPi3/optee_os/lib/libutils/isoc/bget.c:673
    2ff0:	f94023a0 	ldr	x0, [x29,#64]
    2ff4:	f9400800 	ldr	x0, [x0,#16]
    2ff8:	f94023a1 	ldr	x1, [x29,#64]
    2ffc:	f9400c21 	ldr	x1, [x1,#24]
    3000:	f9000c01 	str	x1, [x0,#24]
/home/optee/RPi3/optee_os/lib/libutils/isoc/bget.c:676
    3004:	f94023a0 	ldr	x0, [x29,#64]
    3008:	f9400401 	ldr	x1, [x0,#8]
    300c:	f00000a0 	adrp	x0, 1a000 <mempool_u32+0xe88>
    3010:	91336000 	add	x0, x0, #0xcd8
    3014:	f9400000 	ldr	x0, [x0]
    3018:	8b000021 	add	x1, x1, x0
    301c:	f00000a0 	adrp	x0, 1a000 <mempool_u32+0xe88>
    3020:	91336000 	add	x0, x0, #0xcd8
    3024:	f9000001 	str	x1, [x0]
/home/optee/RPi3/optee_os/lib/libutils/isoc/bget.c:677
    3028:	f00000a0 	adrp	x0, 1a000 <mempool_u32+0xe88>
    302c:	91338000 	add	x0, x0, #0xce0
    3030:	f9400000 	ldr	x0, [x0]
    3034:	91000401 	add	x1, x0, #0x1
    3038:	f00000a0 	adrp	x0, 1a000 <mempool_u32+0xe88>
    303c:	91338000 	add	x0, x0, #0xce0
    3040:	f9000001 	str	x1, [x0]
/home/optee/RPi3/optee_os/lib/libutils/isoc/bget.c:680
    3044:	f94023a0 	ldr	x0, [x29,#64]
    3048:	f9400400 	ldr	x0, [x0,#8]
    304c:	cb0003e1 	neg	x1, x0
    3050:	f94023a0 	ldr	x0, [x29,#64]
    3054:	f9000401 	str	x1, [x0,#8]
/home/optee/RPi3/optee_os/lib/libutils/isoc/bget.c:684
    3058:	f94013a0 	ldr	x0, [x29,#32]
    305c:	f900001f 	str	xzr, [x0]
/home/optee/RPi3/optee_os/lib/libutils/isoc/bget.c:687
    3060:	f94023a0 	ldr	x0, [x29,#64]
    3064:	91004000 	add	x0, x0, #0x10
    3068:	f90017a0 	str	x0, [x29,#40]
/home/optee/RPi3/optee_os/lib/libutils/isoc/bget.c:688
    306c:	f94017a0 	ldr	x0, [x29,#40]
    3070:	1400000a 	b	3098 <bget+0x310>
/home/optee/RPi3/optee_os/lib/libutils/isoc/bget.c:691
    3074:	f94023a0 	ldr	x0, [x29,#64]
    3078:	f9400800 	ldr	x0, [x0,#16]
    307c:	f90023a0 	str	x0, [x29,#64]
/home/optee/RPi3/optee_os/lib/libutils/isoc/bget.c:628
    3080:	f94023a1 	ldr	x1, [x29,#64]
    3084:	d0000060 	adrp	x0, 11000 <ta_props>
    3088:	91042000 	add	x0, x0, #0x108
    308c:	eb00003f 	cmp	x1, x0
    3090:	54ffebc1 	b.ne	2e08 <bget+0x80>
/home/optee/RPi3/optee_os/lib/libutils/isoc/bget.c:752
    3094:	d2800000 	mov	x0, #0x0                   	// #0
/home/optee/RPi3/optee_os/lib/libutils/isoc/bget.c:753
    3098:	a8c57bfd 	ldp	x29, x30, [sp],#80
    309c:	d65f03c0 	ret

00000000000030a0 <bgetz>:
bgetz():
/home/optee/RPi3/optee_os/lib/libutils/isoc/bget.c:761
    30a0:	a9bc7bfd 	stp	x29, x30, [sp,#-64]!
    30a4:	910003fd 	mov	x29, sp
    30a8:	f9000fa0 	str	x0, [x29,#24]
/home/optee/RPi3/optee_os/lib/libutils/isoc/bget.c:762
    30ac:	f9400fa0 	ldr	x0, [x29,#24]
    30b0:	97ffff36 	bl	2d88 <bget>
    30b4:	f9001ba0 	str	x0, [x29,#48]
/home/optee/RPi3/optee_os/lib/libutils/isoc/bget.c:764
    30b8:	f9401ba0 	ldr	x0, [x29,#48]
    30bc:	eb1f001f 	cmp	x0, xzr
    30c0:	540004e0 	b.eq	315c <bgetz+0xbc>
/home/optee/RPi3/optee_os/lib/libutils/isoc/bget.c:768
    30c4:	f9401ba0 	ldr	x0, [x29,#48]
    30c8:	d1004000 	sub	x0, x0, #0x10
    30cc:	f90017a0 	str	x0, [x29,#40]
/home/optee/RPi3/optee_os/lib/libutils/isoc/bget.c:769
    30d0:	f94017a0 	ldr	x0, [x29,#40]
    30d4:	f9400400 	ldr	x0, [x0,#8]
    30d8:	cb0003e0 	neg	x0, x0
    30dc:	f9001fa0 	str	x0, [x29,#56]
/home/optee/RPi3/optee_os/lib/libutils/isoc/bget.c:770
    30e0:	f9401fa0 	ldr	x0, [x29,#56]
    30e4:	eb1f001f 	cmp	x0, xzr
    30e8:	54000121 	b.ne	310c <bgetz+0x6c>
/home/optee/RPi3/optee_os/lib/libutils/isoc/bget.c:773
    30ec:	f9401ba0 	ldr	x0, [x29,#48]
    30f0:	d1006000 	sub	x0, x0, #0x18
    30f4:	f90013a0 	str	x0, [x29,#32]
/home/optee/RPi3/optee_os/lib/libutils/isoc/bget.c:774
    30f8:	f94013a0 	ldr	x0, [x29,#32]
    30fc:	f9400000 	ldr	x0, [x0]
    3100:	d1006000 	sub	x0, x0, #0x18
    3104:	f9001fa0 	str	x0, [x29,#56]
    3108:	14000004 	b	3118 <bgetz+0x78>
/home/optee/RPi3/optee_os/lib/libutils/isoc/bget.c:776
    310c:	f9401fa0 	ldr	x0, [x29,#56]
    3110:	d1004000 	sub	x0, x0, #0x10
    3114:	f9001fa0 	str	x0, [x29,#56]
/home/optee/RPi3/optee_os/lib/libutils/isoc/bget.c:778
    3118:	f9401fa1 	ldr	x1, [x29,#56]
    311c:	f9400fa0 	ldr	x0, [x29,#24]
    3120:	eb00003f 	cmp	x1, x0
    3124:	5400010a 	b.ge	3144 <bgetz+0xa4>
/home/optee/RPi3/optee_os/lib/libutils/isoc/bget.c:778 (discriminator 1)
    3128:	f0000040 	adrp	x0, e000 <mpa_set_oct_str+0xa8>
    312c:	913d4001 	add	x1, x0, #0xf50
    3130:	90000060 	adrp	x0, f000 <__func__.3826+0xc0>
    3134:	91000000 	add	x0, x0, #0x0
    3138:	52806142 	mov	w2, #0x30a                 	// #778
    313c:	97fffefb 	bl	2d28 <_assert_log>
    3140:	97ffff0e 	bl	2d78 <_assert_break>
/home/optee/RPi3/optee_os/lib/libutils/isoc/bget.c:779
    3144:	f9401fa0 	ldr	x0, [x29,#56]
    3148:	93407c00 	sxtw	x0, w0
    314c:	aa0003e2 	mov	x2, x0
    3150:	52800001 	mov	w1, #0x0                   	// #0
    3154:	f9401ba0 	ldr	x0, [x29,#48]
    3158:	940007ef 	bl	5114 <memset>
/home/optee/RPi3/optee_os/lib/libutils/isoc/bget.c:781
    315c:	f9401ba0 	ldr	x0, [x29,#48]
/home/optee/RPi3/optee_os/lib/libutils/isoc/bget.c:782
    3160:	a8c47bfd 	ldp	x29, x30, [sp],#64
    3164:	d65f03c0 	ret

0000000000003168 <bgetr>:
bgetr():
/home/optee/RPi3/optee_os/lib/libutils/isoc/bget.c:792
    3168:	a9bc7bfd 	stp	x29, x30, [sp,#-64]!
    316c:	910003fd 	mov	x29, sp
    3170:	f9000fa0 	str	x0, [x29,#24]
    3174:	f9000ba1 	str	x1, [x29,#16]
/home/optee/RPi3/optee_os/lib/libutils/isoc/bget.c:797
    3178:	f9400ba0 	ldr	x0, [x29,#16]
    317c:	97ffff03 	bl	2d88 <bget>
    3180:	f9001fa0 	str	x0, [x29,#56]
    3184:	f9401fa0 	ldr	x0, [x29,#56]
    3188:	eb1f001f 	cmp	x0, xzr
    318c:	54000061 	b.ne	3198 <bgetr+0x30>
/home/optee/RPi3/optee_os/lib/libutils/isoc/bget.c:798
    3190:	d2800000 	mov	x0, #0x0                   	// #0
    3194:	1400002a 	b	323c <bgetr+0xd4>
/home/optee/RPi3/optee_os/lib/libutils/isoc/bget.c:800
    3198:	f9400fa0 	ldr	x0, [x29,#24]
    319c:	eb1f001f 	cmp	x0, xzr
    31a0:	54000061 	b.ne	31ac <bgetr+0x44>
/home/optee/RPi3/optee_os/lib/libutils/isoc/bget.c:801
    31a4:	f9401fa0 	ldr	x0, [x29,#56]
    31a8:	14000025 	b	323c <bgetr+0xd4>
/home/optee/RPi3/optee_os/lib/libutils/isoc/bget.c:803
    31ac:	f9400fa0 	ldr	x0, [x29,#24]
    31b0:	d1004000 	sub	x0, x0, #0x10
    31b4:	f9001ba0 	str	x0, [x29,#48]
/home/optee/RPi3/optee_os/lib/libutils/isoc/bget.c:804
    31b8:	f9401ba0 	ldr	x0, [x29,#48]
    31bc:	f9400400 	ldr	x0, [x0,#8]
    31c0:	cb0003e0 	neg	x0, x0
    31c4:	f90017a0 	str	x0, [x29,#40]
/home/optee/RPi3/optee_os/lib/libutils/isoc/bget.c:814
    31c8:	f94017a0 	ldr	x0, [x29,#40]
    31cc:	d1004000 	sub	x0, x0, #0x10
    31d0:	f90017a0 	str	x0, [x29,#40]
/home/optee/RPi3/optee_os/lib/libutils/isoc/bget.c:815
    31d4:	f94017a0 	ldr	x0, [x29,#40]
    31d8:	eb1f001f 	cmp	x0, xzr
    31dc:	5400010c 	b.gt	31fc <bgetr+0x94>
/home/optee/RPi3/optee_os/lib/libutils/isoc/bget.c:815 (discriminator 1)
    31e0:	f0000040 	adrp	x0, e000 <mpa_set_oct_str+0xa8>
    31e4:	913d4001 	add	x1, x0, #0xf50
    31e8:	90000060 	adrp	x0, f000 <__func__.3826+0xc0>
    31ec:	91004000 	add	x0, x0, #0x10
    31f0:	528065e2 	mov	w2, #0x32f                 	// #815
    31f4:	97fffecd 	bl	2d28 <_assert_log>
    31f8:	97fffee0 	bl	2d78 <_assert_break>
/home/optee/RPi3/optee_os/lib/libutils/isoc/bget.c:816
    31fc:	f9400ba1 	ldr	x1, [x29,#16]
    3200:	f94017a0 	ldr	x0, [x29,#40]
    3204:	eb00003f 	cmp	x1, x0
    3208:	5400008a 	b.ge	3218 <bgetr+0xb0>
/home/optee/RPi3/optee_os/lib/libutils/isoc/bget.c:816 (discriminator 1)
    320c:	f9400ba0 	ldr	x0, [x29,#16]
    3210:	93407c00 	sxtw	x0, w0
    3214:	14000003 	b	3220 <bgetr+0xb8>
/home/optee/RPi3/optee_os/lib/libutils/isoc/bget.c:816 (discriminator 2)
    3218:	f94017a0 	ldr	x0, [x29,#40]
    321c:	93407c00 	sxtw	x0, w0
/home/optee/RPi3/optee_os/lib/libutils/isoc/bget.c:816 (discriminator 4)
    3220:	aa0003e2 	mov	x2, x0
    3224:	f9400fa1 	ldr	x1, [x29,#24]
    3228:	f9401fa0 	ldr	x0, [x29,#56]
    322c:	940006d7 	bl	4d88 <memcpy>
/home/optee/RPi3/optee_os/lib/libutils/isoc/bget.c:818 (discriminator 4)
    3230:	f9400fa0 	ldr	x0, [x29,#24]
    3234:	94000004 	bl	3244 <brel>
/home/optee/RPi3/optee_os/lib/libutils/isoc/bget.c:819 (discriminator 4)
    3238:	f9401fa0 	ldr	x0, [x29,#56]
/home/optee/RPi3/optee_os/lib/libutils/isoc/bget.c:820
    323c:	a8c47bfd 	ldp	x29, x30, [sp],#64
    3240:	d65f03c0 	ret

0000000000003244 <brel>:
brel():
/home/optee/RPi3/optee_os/lib/libutils/isoc/bget.c:826
    3244:	a9bc7bfd 	stp	x29, x30, [sp,#-64]!
    3248:	910003fd 	mov	x29, sp
    324c:	f9000bf3 	str	x19, [sp,#16]
    3250:	f90017a0 	str	x0, [x29,#40]
/home/optee/RPi3/optee_os/lib/libutils/isoc/bget.c:829
    3254:	f94017a0 	ldr	x0, [x29,#40]
    3258:	d1004000 	sub	x0, x0, #0x10
    325c:	f9001fa0 	str	x0, [x29,#56]
/home/optee/RPi3/optee_os/lib/libutils/isoc/bget.c:831
    3260:	f00000a0 	adrp	x0, 1a000 <mempool_u32+0xe88>
    3264:	9133a000 	add	x0, x0, #0xce8
    3268:	f9400000 	ldr	x0, [x0]
    326c:	91000401 	add	x1, x0, #0x1
    3270:	f00000a0 	adrp	x0, 1a000 <mempool_u32+0xe88>
    3274:	9133a000 	add	x0, x0, #0xce8
    3278:	f9000001 	str	x1, [x0]
/home/optee/RPi3/optee_os/lib/libutils/isoc/bget.c:833
    327c:	f94017a0 	ldr	x0, [x29,#40]
    3280:	eb1f001f 	cmp	x0, xzr
    3284:	54000101 	b.ne	32a4 <brel+0x60>
/home/optee/RPi3/optee_os/lib/libutils/isoc/bget.c:833 (discriminator 1)
    3288:	f0000040 	adrp	x0, e000 <mpa_set_oct_str+0xa8>
    328c:	913d4001 	add	x1, x0, #0xf50
    3290:	90000060 	adrp	x0, f000 <__func__.3826+0xc0>
    3294:	91008000 	add	x0, x0, #0x20
    3298:	52806822 	mov	w2, #0x341                 	// #833
    329c:	97fffea3 	bl	2d28 <_assert_log>
    32a0:	97fffeb6 	bl	2d78 <_assert_break>
/home/optee/RPi3/optee_os/lib/libutils/isoc/bget.c:859
    32a4:	f9401fa0 	ldr	x0, [x29,#56]
    32a8:	f9400400 	ldr	x0, [x0,#8]
    32ac:	eb1f001f 	cmp	x0, xzr
    32b0:	5400004b 	b.lt	32b8 <brel+0x74>
/home/optee/RPi3/optee_os/lib/libutils/isoc/bget.c:860
    32b4:	f9001bbf 	str	xzr, [x29,#48]
/home/optee/RPi3/optee_os/lib/libutils/isoc/bget.c:862
    32b8:	f9401fa0 	ldr	x0, [x29,#56]
    32bc:	f9400400 	ldr	x0, [x0,#8]
    32c0:	eb1f001f 	cmp	x0, xzr
    32c4:	5400010b 	b.lt	32e4 <brel+0xa0>
/home/optee/RPi3/optee_os/lib/libutils/isoc/bget.c:862 (discriminator 1)
    32c8:	f0000040 	adrp	x0, e000 <mpa_set_oct_str+0xa8>
    32cc:	913d4001 	add	x1, x0, #0xf50
    32d0:	90000060 	adrp	x0, f000 <__func__.3826+0xc0>
    32d4:	9100c000 	add	x0, x0, #0x30
    32d8:	52806bc2 	mov	w2, #0x35e                 	// #862
    32dc:	97fffe93 	bl	2d28 <_assert_log>
    32e0:	97fffea6 	bl	2d78 <_assert_break>
/home/optee/RPi3/optee_os/lib/libutils/isoc/bget.c:867
    32e4:	f9401fa0 	ldr	x0, [x29,#56]
    32e8:	f9400400 	ldr	x0, [x0,#8]
    32ec:	cb0003e0 	neg	x0, x0
    32f0:	f9401fa1 	ldr	x1, [x29,#56]
    32f4:	8b000020 	add	x0, x1, x0
    32f8:	f9400000 	ldr	x0, [x0]
    32fc:	eb1f001f 	cmp	x0, xzr
    3300:	54000100 	b.eq	3320 <brel+0xdc>
/home/optee/RPi3/optee_os/lib/libutils/isoc/bget.c:867 (discriminator 1)
    3304:	f0000040 	adrp	x0, e000 <mpa_set_oct_str+0xa8>
    3308:	913d4001 	add	x1, x0, #0xf50
    330c:	90000060 	adrp	x0, f000 <__func__.3826+0xc0>
    3310:	91010000 	add	x0, x0, #0x40
    3314:	52806c62 	mov	w2, #0x363                 	// #867
    3318:	97fffe84 	bl	2d28 <_assert_log>
    331c:	97fffe97 	bl	2d78 <_assert_break>
/home/optee/RPi3/optee_os/lib/libutils/isoc/bget.c:870
    3320:	f9401fa0 	ldr	x0, [x29,#56]
    3324:	f9400401 	ldr	x1, [x0,#8]
    3328:	f00000a0 	adrp	x0, 1a000 <mempool_u32+0xe88>
    332c:	91336000 	add	x0, x0, #0xcd8
    3330:	f9400000 	ldr	x0, [x0]
    3334:	8b000021 	add	x1, x1, x0
    3338:	f00000a0 	adrp	x0, 1a000 <mempool_u32+0xe88>
    333c:	91336000 	add	x0, x0, #0xcd8
    3340:	f9000001 	str	x1, [x0]
/home/optee/RPi3/optee_os/lib/libutils/isoc/bget.c:871
    3344:	f00000a0 	adrp	x0, 1a000 <mempool_u32+0xe88>
    3348:	91336000 	add	x0, x0, #0xcd8
    334c:	f9400000 	ldr	x0, [x0]
    3350:	eb1f001f 	cmp	x0, xzr
    3354:	5400010a 	b.ge	3374 <brel+0x130>
/home/optee/RPi3/optee_os/lib/libutils/isoc/bget.c:871 (discriminator 1)
    3358:	f0000040 	adrp	x0, e000 <mpa_set_oct_str+0xa8>
    335c:	913d4001 	add	x1, x0, #0xf50
    3360:	90000060 	adrp	x0, f000 <__func__.3826+0xc0>
    3364:	9101c000 	add	x0, x0, #0x70
    3368:	52806ce2 	mov	w2, #0x367                 	// #871
    336c:	97fffe6f 	bl	2d28 <_assert_log>
    3370:	97fffe82 	bl	2d78 <_assert_break>
/home/optee/RPi3/optee_os/lib/libutils/isoc/bget.c:876
    3374:	f9401fa0 	ldr	x0, [x29,#56]
    3378:	f9400000 	ldr	x0, [x0]
    337c:	eb1f001f 	cmp	x0, xzr
    3380:	54000400 	b.eq	3400 <brel+0x1bc>
/home/optee/RPi3/optee_os/lib/libutils/isoc/bget.c:884
    3384:	f9401fa0 	ldr	x0, [x29,#56]
    3388:	f9400413 	ldr	x19, [x0,#8]
/home/optee/RPi3/optee_os/lib/libutils/isoc/bget.c:887
    338c:	f9401fa0 	ldr	x0, [x29,#56]
    3390:	f9400000 	ldr	x0, [x0]
    3394:	cb0003e0 	neg	x0, x0
    3398:	f9401fa1 	ldr	x1, [x29,#56]
    339c:	8b000020 	add	x0, x1, x0
    33a0:	f9400401 	ldr	x1, [x0,#8]
    33a4:	f9401fa0 	ldr	x0, [x29,#56]
    33a8:	f9400000 	ldr	x0, [x0]
    33ac:	eb00003f 	cmp	x1, x0
    33b0:	54000100 	b.eq	33d0 <brel+0x18c>
/home/optee/RPi3/optee_os/lib/libutils/isoc/bget.c:887 (discriminator 1)
    33b4:	f0000040 	adrp	x0, e000 <mpa_set_oct_str+0xa8>
    33b8:	913d4001 	add	x1, x0, #0xf50
    33bc:	90000060 	adrp	x0, f000 <__func__.3826+0xc0>
    33c0:	91020000 	add	x0, x0, #0x80
    33c4:	52806ee2 	mov	w2, #0x377                 	// #887
    33c8:	97fffe58 	bl	2d28 <_assert_log>
    33cc:	97fffe6b 	bl	2d78 <_assert_break>
/home/optee/RPi3/optee_os/lib/libutils/isoc/bget.c:888
    33d0:	f9401fa0 	ldr	x0, [x29,#56]
    33d4:	f9400000 	ldr	x0, [x0]
    33d8:	cb0003e0 	neg	x0, x0
    33dc:	f9401fa1 	ldr	x1, [x29,#56]
    33e0:	8b000020 	add	x0, x1, x0
    33e4:	f9001fa0 	str	x0, [x29,#56]
/home/optee/RPi3/optee_os/lib/libutils/isoc/bget.c:889
    33e8:	f9401fa0 	ldr	x0, [x29,#56]
    33ec:	f9400400 	ldr	x0, [x0,#8]
    33f0:	cb130001 	sub	x1, x0, x19
    33f4:	f9401fa0 	ldr	x0, [x29,#56]
    33f8:	f9000401 	str	x1, [x0,#8]
    33fc:	14000035 	b	34d0 <brel+0x28c>
/home/optee/RPi3/optee_os/lib/libutils/isoc/bget.c:895
    3400:	d0000060 	adrp	x0, 11000 <ta_props>
    3404:	91042000 	add	x0, x0, #0x108
    3408:	f9400c00 	ldr	x0, [x0,#24]
    340c:	f9400801 	ldr	x1, [x0,#16]
    3410:	d0000060 	adrp	x0, 11000 <ta_props>
    3414:	91042000 	add	x0, x0, #0x108
    3418:	eb00003f 	cmp	x1, x0
    341c:	54000100 	b.eq	343c <brel+0x1f8>
/home/optee/RPi3/optee_os/lib/libutils/isoc/bget.c:895 (discriminator 1)
    3420:	f0000040 	adrp	x0, e000 <mpa_set_oct_str+0xa8>
    3424:	913d4001 	add	x1, x0, #0xf50
    3428:	90000060 	adrp	x0, f000 <__func__.3826+0xc0>
    342c:	91030000 	add	x0, x0, #0xc0
    3430:	52806fe2 	mov	w2, #0x37f                 	// #895
    3434:	97fffe3d 	bl	2d28 <_assert_log>
    3438:	97fffe50 	bl	2d78 <_assert_break>
/home/optee/RPi3/optee_os/lib/libutils/isoc/bget.c:896
    343c:	d0000060 	adrp	x0, 11000 <ta_props>
    3440:	91042000 	add	x0, x0, #0x108
    3444:	f9400800 	ldr	x0, [x0,#16]
    3448:	f9400c01 	ldr	x1, [x0,#24]
    344c:	d0000060 	adrp	x0, 11000 <ta_props>
    3450:	91042000 	add	x0, x0, #0x108
    3454:	eb00003f 	cmp	x1, x0
    3458:	54000100 	b.eq	3478 <brel+0x234>
/home/optee/RPi3/optee_os/lib/libutils/isoc/bget.c:896 (discriminator 1)
    345c:	f0000040 	adrp	x0, e000 <mpa_set_oct_str+0xa8>
    3460:	913d4001 	add	x1, x0, #0xf50
    3464:	90000060 	adrp	x0, f000 <__func__.3826+0xc0>
    3468:	9103c000 	add	x0, x0, #0xf0
    346c:	52807002 	mov	w2, #0x380                 	// #896
    3470:	97fffe2e 	bl	2d28 <_assert_log>
    3474:	97fffe41 	bl	2d78 <_assert_break>
/home/optee/RPi3/optee_os/lib/libutils/isoc/bget.c:897
    3478:	f9401fa0 	ldr	x0, [x29,#56]
    347c:	d0000061 	adrp	x1, 11000 <ta_props>
    3480:	91042021 	add	x1, x1, #0x108
    3484:	f9000801 	str	x1, [x0,#16]
/home/optee/RPi3/optee_os/lib/libutils/isoc/bget.c:898
    3488:	d0000060 	adrp	x0, 11000 <ta_props>
    348c:	91042000 	add	x0, x0, #0x108
    3490:	f9400c01 	ldr	x1, [x0,#24]
    3494:	f9401fa0 	ldr	x0, [x29,#56]
    3498:	f9000c01 	str	x1, [x0,#24]
/home/optee/RPi3/optee_os/lib/libutils/isoc/bget.c:899
    349c:	d0000060 	adrp	x0, 11000 <ta_props>
    34a0:	91042000 	add	x0, x0, #0x108
    34a4:	f9401fa1 	ldr	x1, [x29,#56]
    34a8:	f9000c01 	str	x1, [x0,#24]
/home/optee/RPi3/optee_os/lib/libutils/isoc/bget.c:900
    34ac:	f9401fa0 	ldr	x0, [x29,#56]
    34b0:	f9400c00 	ldr	x0, [x0,#24]
    34b4:	f9401fa1 	ldr	x1, [x29,#56]
    34b8:	f9000801 	str	x1, [x0,#16]
/home/optee/RPi3/optee_os/lib/libutils/isoc/bget.c:901
    34bc:	f9401fa0 	ldr	x0, [x29,#56]
    34c0:	f9400400 	ldr	x0, [x0,#8]
    34c4:	cb0003e1 	neg	x1, x0
    34c8:	f9401fa0 	ldr	x0, [x29,#56]
    34cc:	f9000401 	str	x1, [x0,#8]
/home/optee/RPi3/optee_os/lib/libutils/isoc/bget.c:909
    34d0:	f9401fa0 	ldr	x0, [x29,#56]
    34d4:	f9400400 	ldr	x0, [x0,#8]
    34d8:	aa0003e1 	mov	x1, x0
    34dc:	f9401fa0 	ldr	x0, [x29,#56]
    34e0:	8b010000 	add	x0, x0, x1
    34e4:	f9001ba0 	str	x0, [x29,#48]
/home/optee/RPi3/optee_os/lib/libutils/isoc/bget.c:910
    34e8:	f9401ba0 	ldr	x0, [x29,#48]
    34ec:	f9400400 	ldr	x0, [x0,#8]
    34f0:	eb1f001f 	cmp	x0, xzr
    34f4:	5400086d 	b.le	3600 <brel+0x3bc>
/home/optee/RPi3/optee_os/lib/libutils/isoc/bget.c:915
    34f8:	f9401ba0 	ldr	x0, [x29,#48]
    34fc:	f9400400 	ldr	x0, [x0,#8]
    3500:	aa0003e1 	mov	x1, x0
    3504:	f9401ba0 	ldr	x0, [x29,#48]
    3508:	8b010000 	add	x0, x0, x1
    350c:	f9400001 	ldr	x1, [x0]
    3510:	f9401ba0 	ldr	x0, [x29,#48]
    3514:	f9400400 	ldr	x0, [x0,#8]
    3518:	eb00003f 	cmp	x1, x0
    351c:	54000100 	b.eq	353c <brel+0x2f8>
/home/optee/RPi3/optee_os/lib/libutils/isoc/bget.c:915 (discriminator 1)
    3520:	f0000040 	adrp	x0, e000 <mpa_set_oct_str+0xa8>
    3524:	913d4001 	add	x1, x0, #0xf50
    3528:	90000060 	adrp	x0, f000 <__func__.3826+0xc0>
    352c:	91048000 	add	x0, x0, #0x120
    3530:	52807262 	mov	w2, #0x393                 	// #915
    3534:	97fffdfd 	bl	2d28 <_assert_log>
    3538:	97fffe10 	bl	2d78 <_assert_break>
/home/optee/RPi3/optee_os/lib/libutils/isoc/bget.c:916
    353c:	f9401ba0 	ldr	x0, [x29,#48]
    3540:	f9400c00 	ldr	x0, [x0,#24]
    3544:	f9400801 	ldr	x1, [x0,#16]
    3548:	f9401ba0 	ldr	x0, [x29,#48]
    354c:	eb00003f 	cmp	x1, x0
    3550:	54000100 	b.eq	3570 <brel+0x32c>
/home/optee/RPi3/optee_os/lib/libutils/isoc/bget.c:916 (discriminator 1)
    3554:	f0000040 	adrp	x0, e000 <mpa_set_oct_str+0xa8>
    3558:	913d4001 	add	x1, x0, #0xf50
    355c:	90000060 	adrp	x0, f000 <__func__.3826+0xc0>
    3560:	91058000 	add	x0, x0, #0x160
    3564:	52807282 	mov	w2, #0x394                 	// #916
    3568:	97fffdf0 	bl	2d28 <_assert_log>
    356c:	97fffe03 	bl	2d78 <_assert_break>
/home/optee/RPi3/optee_os/lib/libutils/isoc/bget.c:917
    3570:	f9401ba0 	ldr	x0, [x29,#48]
    3574:	f9400800 	ldr	x0, [x0,#16]
    3578:	f9400c01 	ldr	x1, [x0,#24]
    357c:	f9401ba0 	ldr	x0, [x29,#48]
    3580:	eb00003f 	cmp	x1, x0
    3584:	54000100 	b.eq	35a4 <brel+0x360>
/home/optee/RPi3/optee_os/lib/libutils/isoc/bget.c:917 (discriminator 1)
    3588:	f0000040 	adrp	x0, e000 <mpa_set_oct_str+0xa8>
    358c:	913d4001 	add	x1, x0, #0xf50
    3590:	90000060 	adrp	x0, f000 <__func__.3826+0xc0>
    3594:	91060000 	add	x0, x0, #0x180
    3598:	528072a2 	mov	w2, #0x395                 	// #917
    359c:	97fffde3 	bl	2d28 <_assert_log>
    35a0:	97fffdf6 	bl	2d78 <_assert_break>
/home/optee/RPi3/optee_os/lib/libutils/isoc/bget.c:918
    35a4:	f9401ba0 	ldr	x0, [x29,#48]
    35a8:	f9400c00 	ldr	x0, [x0,#24]
    35ac:	f9401ba1 	ldr	x1, [x29,#48]
    35b0:	f9400821 	ldr	x1, [x1,#16]
    35b4:	f9000801 	str	x1, [x0,#16]
/home/optee/RPi3/optee_os/lib/libutils/isoc/bget.c:919
    35b8:	f9401ba0 	ldr	x0, [x29,#48]
    35bc:	f9400800 	ldr	x0, [x0,#16]
    35c0:	f9401ba1 	ldr	x1, [x29,#48]
    35c4:	f9400c21 	ldr	x1, [x1,#24]
    35c8:	f9000c01 	str	x1, [x0,#24]
/home/optee/RPi3/optee_os/lib/libutils/isoc/bget.c:920
    35cc:	f9401fa0 	ldr	x0, [x29,#56]
    35d0:	f9400401 	ldr	x1, [x0,#8]
    35d4:	f9401ba0 	ldr	x0, [x29,#48]
    35d8:	f9400400 	ldr	x0, [x0,#8]
    35dc:	8b000021 	add	x1, x1, x0
    35e0:	f9401fa0 	ldr	x0, [x29,#56]
    35e4:	f9000401 	str	x1, [x0,#8]
/home/optee/RPi3/optee_os/lib/libutils/isoc/bget.c:929
    35e8:	f9401fa0 	ldr	x0, [x29,#56]
    35ec:	f9400400 	ldr	x0, [x0,#8]
    35f0:	aa0003e1 	mov	x1, x0
    35f4:	f9401fa0 	ldr	x0, [x29,#56]
    35f8:	8b010000 	add	x0, x0, x1
    35fc:	f9001ba0 	str	x0, [x29,#48]
/home/optee/RPi3/optee_os/lib/libutils/isoc/bget.c:935
    3600:	f9401ba0 	ldr	x0, [x29,#48]
    3604:	f9400400 	ldr	x0, [x0,#8]
    3608:	eb1f001f 	cmp	x0, xzr
    360c:	5400010b 	b.lt	362c <brel+0x3e8>
/home/optee/RPi3/optee_os/lib/libutils/isoc/bget.c:935 (discriminator 1)
    3610:	f0000040 	adrp	x0, e000 <mpa_set_oct_str+0xa8>
    3614:	913d4001 	add	x1, x0, #0xf50
    3618:	90000060 	adrp	x0, f000 <__func__.3826+0xc0>
    361c:	91068000 	add	x0, x0, #0x1a0
    3620:	528074e2 	mov	w2, #0x3a7                 	// #935
    3624:	97fffdc1 	bl	2d28 <_assert_log>
    3628:	97fffdd4 	bl	2d78 <_assert_break>
/home/optee/RPi3/optee_os/lib/libutils/isoc/bget.c:940
    362c:	f9401fa0 	ldr	x0, [x29,#56]
    3630:	f9400401 	ldr	x1, [x0,#8]
    3634:	f9401ba0 	ldr	x0, [x29,#48]
    3638:	f9000001 	str	x1, [x0]
/home/optee/RPi3/optee_os/lib/libutils/isoc/bget.c:967
    363c:	d503201f 	nop
    3640:	f9400bf3 	ldr	x19, [sp,#16]
    3644:	a8c47bfd 	ldp	x29, x30, [sp],#64
    3648:	d65f03c0 	ret

000000000000364c <bpool>:
bpool():
/home/optee/RPi3/optee_os/lib/libutils/isoc/bget.c:991
    364c:	a9bd7bfd 	stp	x29, x30, [sp,#-48]!
    3650:	910003fd 	mov	x29, sp
    3654:	f9000fa0 	str	x0, [x29,#24]
    3658:	f9000ba1 	str	x1, [x29,#16]
/home/optee/RPi3/optee_os/lib/libutils/isoc/bget.c:992
    365c:	f9400fa0 	ldr	x0, [x29,#24]
    3660:	f90017a0 	str	x0, [x29,#40]
/home/optee/RPi3/optee_os/lib/libutils/isoc/bget.c:996
    3664:	f9400ba0 	ldr	x0, [x29,#16]
    3668:	927cec00 	and	x0, x0, #0xfffffffffffffff0
    366c:	f9000ba0 	str	x0, [x29,#16]
/home/optee/RPi3/optee_os/lib/libutils/isoc/bget.c:1015
    3670:	f9400ba0 	ldr	x0, [x29,#16]
    3674:	d1004000 	sub	x0, x0, #0x10
    3678:	eb1f001f 	cmp	x0, xzr
    367c:	5400010a 	b.ge	369c <bpool+0x50>
/home/optee/RPi3/optee_os/lib/libutils/isoc/bget.c:1015 (discriminator 1)
    3680:	f0000040 	adrp	x0, e000 <mpa_set_oct_str+0xa8>
    3684:	913d4001 	add	x1, x0, #0xf50
    3688:	90000060 	adrp	x0, f000 <__func__.3826+0xc0>
    368c:	9106e000 	add	x0, x0, #0x1b8
    3690:	52807ee2 	mov	w2, #0x3f7                 	// #1015
    3694:	97fffda5 	bl	2d28 <_assert_log>
    3698:	97fffdb8 	bl	2d78 <_assert_break>
/home/optee/RPi3/optee_os/lib/libutils/isoc/bget.c:1021
    369c:	f94017a0 	ldr	x0, [x29,#40]
    36a0:	f900001f 	str	xzr, [x0]
/home/optee/RPi3/optee_os/lib/libutils/isoc/bget.c:1025
    36a4:	d0000060 	adrp	x0, 11000 <ta_props>
    36a8:	91042000 	add	x0, x0, #0x108
    36ac:	f9400c00 	ldr	x0, [x0,#24]
    36b0:	f9400801 	ldr	x1, [x0,#16]
    36b4:	d0000060 	adrp	x0, 11000 <ta_props>
    36b8:	91042000 	add	x0, x0, #0x108
    36bc:	eb00003f 	cmp	x1, x0
    36c0:	54000100 	b.eq	36e0 <bpool+0x94>
/home/optee/RPi3/optee_os/lib/libutils/isoc/bget.c:1025 (discriminator 1)
    36c4:	f0000040 	adrp	x0, e000 <mpa_set_oct_str+0xa8>
    36c8:	913d4001 	add	x1, x0, #0xf50
    36cc:	90000060 	adrp	x0, f000 <__func__.3826+0xc0>
    36d0:	91030000 	add	x0, x0, #0xc0
    36d4:	52808022 	mov	w2, #0x401                 	// #1025
    36d8:	97fffd94 	bl	2d28 <_assert_log>
    36dc:	97fffda7 	bl	2d78 <_assert_break>
/home/optee/RPi3/optee_os/lib/libutils/isoc/bget.c:1026
    36e0:	d0000060 	adrp	x0, 11000 <ta_props>
    36e4:	91042000 	add	x0, x0, #0x108
    36e8:	f9400800 	ldr	x0, [x0,#16]
    36ec:	f9400c01 	ldr	x1, [x0,#24]
    36f0:	d0000060 	adrp	x0, 11000 <ta_props>
    36f4:	91042000 	add	x0, x0, #0x108
    36f8:	eb00003f 	cmp	x1, x0
    36fc:	54000100 	b.eq	371c <bpool+0xd0>
/home/optee/RPi3/optee_os/lib/libutils/isoc/bget.c:1026 (discriminator 1)
    3700:	f0000040 	adrp	x0, e000 <mpa_set_oct_str+0xa8>
    3704:	913d4001 	add	x1, x0, #0xf50
    3708:	90000060 	adrp	x0, f000 <__func__.3826+0xc0>
    370c:	9103c000 	add	x0, x0, #0xf0
    3710:	52808042 	mov	w2, #0x402                 	// #1026
    3714:	97fffd85 	bl	2d28 <_assert_log>
    3718:	97fffd98 	bl	2d78 <_assert_break>
/home/optee/RPi3/optee_os/lib/libutils/isoc/bget.c:1027
    371c:	f94017a0 	ldr	x0, [x29,#40]
    3720:	d0000061 	adrp	x1, 11000 <ta_props>
    3724:	91042021 	add	x1, x1, #0x108
    3728:	f9000801 	str	x1, [x0,#16]
/home/optee/RPi3/optee_os/lib/libutils/isoc/bget.c:1028
    372c:	d0000060 	adrp	x0, 11000 <ta_props>
    3730:	91042000 	add	x0, x0, #0x108
    3734:	f9400c01 	ldr	x1, [x0,#24]
    3738:	f94017a0 	ldr	x0, [x29,#40]
    373c:	f9000c01 	str	x1, [x0,#24]
/home/optee/RPi3/optee_os/lib/libutils/isoc/bget.c:1029
    3740:	d0000060 	adrp	x0, 11000 <ta_props>
    3744:	91042000 	add	x0, x0, #0x108
    3748:	f94017a1 	ldr	x1, [x29,#40]
    374c:	f9000c01 	str	x1, [x0,#24]
/home/optee/RPi3/optee_os/lib/libutils/isoc/bget.c:1030
    3750:	f94017a0 	ldr	x0, [x29,#40]
    3754:	f9400c00 	ldr	x0, [x0,#24]
    3758:	f94017a1 	ldr	x1, [x29,#40]
    375c:	f9000801 	str	x1, [x0,#16]
/home/optee/RPi3/optee_os/lib/libutils/isoc/bget.c:1040
    3760:	f9400ba0 	ldr	x0, [x29,#16]
    3764:	d1004000 	sub	x0, x0, #0x10
    3768:	f9000ba0 	str	x0, [x29,#16]
/home/optee/RPi3/optee_os/lib/libutils/isoc/bget.c:1041
    376c:	f94017a0 	ldr	x0, [x29,#40]
    3770:	f9400ba1 	ldr	x1, [x29,#16]
    3774:	f9000401 	str	x1, [x0,#8]
/home/optee/RPi3/optee_os/lib/libutils/isoc/bget.c:1046
    3778:	f9400ba0 	ldr	x0, [x29,#16]
    377c:	f94017a1 	ldr	x1, [x29,#40]
    3780:	8b000020 	add	x0, x1, x0
    3784:	f90013a0 	str	x0, [x29,#32]
/home/optee/RPi3/optee_os/lib/libutils/isoc/bget.c:1047
    3788:	f94013a0 	ldr	x0, [x29,#32]
    378c:	f9400ba1 	ldr	x1, [x29,#16]
    3790:	f9000001 	str	x1, [x0]
/home/optee/RPi3/optee_os/lib/libutils/isoc/bget.c:1050
    3794:	f94013a0 	ldr	x0, [x29,#32]
    3798:	d2f00001 	mov	x1, #0x8000000000000000    	// #-9223372036854775808
    379c:	f9000401 	str	x1, [x0,#8]
/home/optee/RPi3/optee_os/lib/libutils/isoc/bget.c:1051
    37a0:	d503201f 	nop
    37a4:	a8c37bfd 	ldp	x29, x30, [sp],#48
    37a8:	d65f03c0 	ret

00000000000037ac <bstats>:
bstats():
/home/optee/RPi3/optee_os/lib/libutils/isoc/bget.c:1060
    37ac:	a9bb7bfd 	stp	x29, x30, [sp,#-80]!
    37b0:	910003fd 	mov	x29, sp
    37b4:	f9001fa0 	str	x0, [x29,#56]
    37b8:	f9001ba1 	str	x1, [x29,#48]
    37bc:	f90017a2 	str	x2, [x29,#40]
    37c0:	f90013a3 	str	x3, [x29,#32]
    37c4:	f9000fa4 	str	x4, [x29,#24]
/home/optee/RPi3/optee_os/lib/libutils/isoc/bget.c:1061
    37c8:	d0000060 	adrp	x0, 11000 <ta_props>
    37cc:	91042000 	add	x0, x0, #0x108
    37d0:	f9400800 	ldr	x0, [x0,#16]
    37d4:	f90027a0 	str	x0, [x29,#72]
/home/optee/RPi3/optee_os/lib/libutils/isoc/bget.c:1063
    37d8:	f00000a0 	adrp	x0, 1a000 <mempool_u32+0xe88>
    37dc:	91338000 	add	x0, x0, #0xce0
    37e0:	f9400001 	ldr	x1, [x0]
    37e4:	f94013a0 	ldr	x0, [x29,#32]
    37e8:	f9000001 	str	x1, [x0]
/home/optee/RPi3/optee_os/lib/libutils/isoc/bget.c:1064
    37ec:	f00000a0 	adrp	x0, 1a000 <mempool_u32+0xe88>
    37f0:	9133a000 	add	x0, x0, #0xce8
    37f4:	f9400001 	ldr	x1, [x0]
    37f8:	f9400fa0 	ldr	x0, [x29,#24]
    37fc:	f9000001 	str	x1, [x0]
/home/optee/RPi3/optee_os/lib/libutils/isoc/bget.c:1065
    3800:	f00000a0 	adrp	x0, 1a000 <mempool_u32+0xe88>
    3804:	91336000 	add	x0, x0, #0xcd8
    3808:	f9400001 	ldr	x1, [x0]
    380c:	f9401fa0 	ldr	x0, [x29,#56]
    3810:	f9000001 	str	x1, [x0]
/home/optee/RPi3/optee_os/lib/libutils/isoc/bget.c:1066
    3814:	f9401ba0 	ldr	x0, [x29,#48]
    3818:	f900001f 	str	xzr, [x0]
/home/optee/RPi3/optee_os/lib/libutils/isoc/bget.c:1067
    381c:	f94017a0 	ldr	x0, [x29,#40]
    3820:	92800001 	mov	x1, #0xffffffffffffffff    	// #-1
    3824:	f9000001 	str	x1, [x0]
/home/optee/RPi3/optee_os/lib/libutils/isoc/bget.c:1068
    3828:	14000020 	b	38a8 <bstats+0xfc>
/home/optee/RPi3/optee_os/lib/libutils/isoc/bget.c:1069
    382c:	f94027a0 	ldr	x0, [x29,#72]
    3830:	f9400400 	ldr	x0, [x0,#8]
    3834:	eb1f001f 	cmp	x0, xzr
    3838:	5400010c 	b.gt	3858 <bstats+0xac>
/home/optee/RPi3/optee_os/lib/libutils/isoc/bget.c:1069 (discriminator 1)
    383c:	f0000040 	adrp	x0, e000 <mpa_set_oct_str+0xa8>
    3840:	913d4001 	add	x1, x0, #0xf50
    3844:	90000060 	adrp	x0, f000 <__func__.3826+0xc0>
    3848:	9107c000 	add	x0, x0, #0x1f0
    384c:	528085a2 	mov	w2, #0x42d                 	// #1069
    3850:	97fffd36 	bl	2d28 <_assert_log>
    3854:	97fffd49 	bl	2d78 <_assert_break>
/home/optee/RPi3/optee_os/lib/libutils/isoc/bget.c:1070
    3858:	f9401ba0 	ldr	x0, [x29,#48]
    385c:	f9400001 	ldr	x1, [x0]
    3860:	f94027a0 	ldr	x0, [x29,#72]
    3864:	f9400400 	ldr	x0, [x0,#8]
    3868:	8b000021 	add	x1, x1, x0
    386c:	f9401ba0 	ldr	x0, [x29,#48]
    3870:	f9000001 	str	x1, [x0]
/home/optee/RPi3/optee_os/lib/libutils/isoc/bget.c:1071
    3874:	f94027a0 	ldr	x0, [x29,#72]
    3878:	f9400401 	ldr	x1, [x0,#8]
    387c:	f94017a0 	ldr	x0, [x29,#40]
    3880:	f9400000 	ldr	x0, [x0]
    3884:	eb00003f 	cmp	x1, x0
    3888:	540000ad 	b.le	389c <bstats+0xf0>
/home/optee/RPi3/optee_os/lib/libutils/isoc/bget.c:1072
    388c:	f94027a0 	ldr	x0, [x29,#72]
    3890:	f9400401 	ldr	x1, [x0,#8]
    3894:	f94017a0 	ldr	x0, [x29,#40]
    3898:	f9000001 	str	x1, [x0]
/home/optee/RPi3/optee_os/lib/libutils/isoc/bget.c:1074
    389c:	f94027a0 	ldr	x0, [x29,#72]
    38a0:	f9400800 	ldr	x0, [x0,#16]
    38a4:	f90027a0 	str	x0, [x29,#72]
/home/optee/RPi3/optee_os/lib/libutils/isoc/bget.c:1068
    38a8:	f94027a1 	ldr	x1, [x29,#72]
    38ac:	d0000060 	adrp	x0, 11000 <ta_props>
    38b0:	91042000 	add	x0, x0, #0x108
    38b4:	eb00003f 	cmp	x1, x0
    38b8:	54fffba1 	b.ne	382c <bstats+0x80>
/home/optee/RPi3/optee_os/lib/libutils/isoc/bget.c:1076
    38bc:	d503201f 	nop
    38c0:	a8c57bfd 	ldp	x29, x30, [sp],#80
    38c4:	d65f03c0 	ret

00000000000038c8 <malloc_lock>:
malloc_lock():
/home/optee/RPi3/optee_os/lib/libutils/isoc/bget_malloc.c:130
    38c8:	d503201f 	nop
    38cc:	d65f03c0 	ret

00000000000038d0 <malloc_unlock>:
malloc_unlock():
/home/optee/RPi3/optee_os/lib/libutils/isoc/bget_malloc.c:134
    38d0:	d503201f 	nop
    38d4:	d65f03c0 	ret

00000000000038d8 <raw_malloc_save_max_alloced_size>:
raw_malloc_save_max_alloced_size():
/home/optee/RPi3/optee_os/lib/libutils/isoc/bget_malloc.c:154
    38d8:	f00000a0 	adrp	x0, 1a000 <mempool_u32+0xe88>
    38dc:	91336000 	add	x0, x0, #0xcd8
    38e0:	f9400000 	ldr	x0, [x0]
    38e4:	aa0003e1 	mov	x1, x0
    38e8:	f00000a0 	adrp	x0, 1a000 <mempool_u32+0xe88>
    38ec:	91340000 	add	x0, x0, #0xd00
    38f0:	f9400000 	ldr	x0, [x0]
    38f4:	eb00003f 	cmp	x1, x0
    38f8:	54000109 	b.ls	3918 <raw_malloc_save_max_alloced_size+0x40>
/home/optee/RPi3/optee_os/lib/libutils/isoc/bget_malloc.c:155
    38fc:	f00000a0 	adrp	x0, 1a000 <mempool_u32+0xe88>
    3900:	91336000 	add	x0, x0, #0xcd8
    3904:	f9400000 	ldr	x0, [x0]
    3908:	aa0003e1 	mov	x1, x0
    390c:	f00000a0 	adrp	x0, 1a000 <mempool_u32+0xe88>
    3910:	91340000 	add	x0, x0, #0xd00
    3914:	f9000001 	str	x1, [x0]
/home/optee/RPi3/optee_os/lib/libutils/isoc/bget_malloc.c:156
    3918:	d503201f 	nop
    391c:	d65f03c0 	ret

0000000000003920 <malloc_reset_max_allocated>:
malloc_reset_max_allocated():
/home/optee/RPi3/optee_os/lib/libutils/isoc/bget_malloc.c:159
    3920:	a9bf7bfd 	stp	x29, x30, [sp,#-16]!
    3924:	910003fd 	mov	x29, sp
/home/optee/RPi3/optee_os/lib/libutils/isoc/bget_malloc.c:160
    3928:	97ffffe8 	bl	38c8 <malloc_lock>
/home/optee/RPi3/optee_os/lib/libutils/isoc/bget_malloc.c:161
    392c:	f00000a0 	adrp	x0, 1a000 <mempool_u32+0xe88>
    3930:	91340000 	add	x0, x0, #0xd00
    3934:	f900001f 	str	xzr, [x0]
/home/optee/RPi3/optee_os/lib/libutils/isoc/bget_malloc.c:162
    3938:	97ffffe6 	bl	38d0 <malloc_unlock>
/home/optee/RPi3/optee_os/lib/libutils/isoc/bget_malloc.c:163
    393c:	d503201f 	nop
    3940:	a8c17bfd 	ldp	x29, x30, [sp],#16
    3944:	d65f03c0 	ret

0000000000003948 <malloc_get_max_allocated>:
malloc_get_max_allocated():
/home/optee/RPi3/optee_os/lib/libutils/isoc/bget_malloc.c:166
    3948:	a9be7bfd 	stp	x29, x30, [sp,#-32]!
    394c:	910003fd 	mov	x29, sp
/home/optee/RPi3/optee_os/lib/libutils/isoc/bget_malloc.c:169
    3950:	97ffffde 	bl	38c8 <malloc_lock>
/home/optee/RPi3/optee_os/lib/libutils/isoc/bget_malloc.c:170
    3954:	f00000a0 	adrp	x0, 1a000 <mempool_u32+0xe88>
    3958:	91340000 	add	x0, x0, #0xd00
    395c:	f9400000 	ldr	x0, [x0]
    3960:	f9000fa0 	str	x0, [x29,#24]
/home/optee/RPi3/optee_os/lib/libutils/isoc/bget_malloc.c:171
    3964:	97ffffdb 	bl	38d0 <malloc_unlock>
/home/optee/RPi3/optee_os/lib/libutils/isoc/bget_malloc.c:172
    3968:	f9400fa0 	ldr	x0, [x29,#24]
/home/optee/RPi3/optee_os/lib/libutils/isoc/bget_malloc.c:173
    396c:	a8c27bfd 	ldp	x29, x30, [sp],#32
    3970:	d65f03c0 	ret

0000000000003974 <malloc_get_allocated>:
malloc_get_allocated():
/home/optee/RPi3/optee_os/lib/libutils/isoc/bget_malloc.c:176
    3974:	a9be7bfd 	stp	x29, x30, [sp,#-32]!
    3978:	910003fd 	mov	x29, sp
/home/optee/RPi3/optee_os/lib/libutils/isoc/bget_malloc.c:179
    397c:	97ffffd3 	bl	38c8 <malloc_lock>
/home/optee/RPi3/optee_os/lib/libutils/isoc/bget_malloc.c:180
    3980:	f00000a0 	adrp	x0, 1a000 <mempool_u32+0xe88>
    3984:	91336000 	add	x0, x0, #0xcd8
    3988:	f9400000 	ldr	x0, [x0]
    398c:	f9000fa0 	str	x0, [x29,#24]
/home/optee/RPi3/optee_os/lib/libutils/isoc/bget_malloc.c:181
    3990:	97ffffd0 	bl	38d0 <malloc_unlock>
/home/optee/RPi3/optee_os/lib/libutils/isoc/bget_malloc.c:182
    3994:	f9400fa0 	ldr	x0, [x29,#24]
/home/optee/RPi3/optee_os/lib/libutils/isoc/bget_malloc.c:183
    3998:	a8c27bfd 	ldp	x29, x30, [sp],#32
    399c:	d65f03c0 	ret

00000000000039a0 <malloc_get_heap_size>:
malloc_get_heap_size():
/home/optee/RPi3/optee_os/lib/libutils/isoc/bget_malloc.c:207
    39a0:	a9be7bfd 	stp	x29, x30, [sp,#-32]!
    39a4:	910003fd 	mov	x29, sp
/home/optee/RPi3/optee_os/lib/libutils/isoc/bget_malloc.c:209
    39a8:	f9000bbf 	str	xzr, [x29,#16]
/home/optee/RPi3/optee_os/lib/libutils/isoc/bget_malloc.c:211
    39ac:	97ffffc7 	bl	38c8 <malloc_lock>
/home/optee/RPi3/optee_os/lib/libutils/isoc/bget_malloc.c:213
    39b0:	f9000fbf 	str	xzr, [x29,#24]
    39b4:	1400000e 	b	39ec <malloc_get_heap_size+0x4c>
/home/optee/RPi3/optee_os/lib/libutils/isoc/bget_malloc.c:214 (discriminator 3)
    39b8:	f00000a0 	adrp	x0, 1a000 <mempool_u32+0xe88>
    39bc:	9133c000 	add	x0, x0, #0xcf0
    39c0:	f9400001 	ldr	x1, [x0]
    39c4:	f9400fa0 	ldr	x0, [x29,#24]
    39c8:	d37cec00 	lsl	x0, x0, #4
    39cc:	8b000020 	add	x0, x1, x0
    39d0:	f9400400 	ldr	x0, [x0,#8]
    39d4:	f9400ba1 	ldr	x1, [x29,#16]
    39d8:	8b000020 	add	x0, x1, x0
    39dc:	f9000ba0 	str	x0, [x29,#16]
/home/optee/RPi3/optee_os/lib/libutils/isoc/bget_malloc.c:213 (discriminator 3)
    39e0:	f9400fa0 	ldr	x0, [x29,#24]
    39e4:	91000400 	add	x0, x0, #0x1
    39e8:	f9000fa0 	str	x0, [x29,#24]
/home/optee/RPi3/optee_os/lib/libutils/isoc/bget_malloc.c:213 (discriminator 1)
    39ec:	f00000a0 	adrp	x0, 1a000 <mempool_u32+0xe88>
    39f0:	9133e000 	add	x0, x0, #0xcf8
    39f4:	f9400000 	ldr	x0, [x0]
    39f8:	f9400fa1 	ldr	x1, [x29,#24]
    39fc:	eb00003f 	cmp	x1, x0
    3a00:	54fffdc3 	b.cc	39b8 <malloc_get_heap_size+0x18>
/home/optee/RPi3/optee_os/lib/libutils/isoc/bget_malloc.c:216
    3a04:	97ffffb3 	bl	38d0 <malloc_unlock>
/home/optee/RPi3/optee_os/lib/libutils/isoc/bget_malloc.c:218
    3a08:	f9400ba0 	ldr	x0, [x29,#16]
/home/optee/RPi3/optee_os/lib/libutils/isoc/bget_malloc.c:219
    3a0c:	a8c27bfd 	ldp	x29, x30, [sp],#32
    3a10:	d65f03c0 	ret

0000000000003a14 <raw_malloc_validate_pools>:
raw_malloc_validate_pools():
/home/optee/RPi3/optee_os/lib/libutils/isoc/bget_malloc.c:232
    3a14:	d503201f 	nop
    3a18:	d65f03c0 	ret

0000000000003a1c <bpool_foreach_iterator_init>:
bpool_foreach_iterator_init():
/home/optee/RPi3/optee_os/lib/libutils/isoc/bget_malloc.c:241
    3a1c:	d10043ff 	sub	sp, sp, #0x10
    3a20:	f90007e0 	str	x0, [sp,#8]
/home/optee/RPi3/optee_os/lib/libutils/isoc/bget_malloc.c:242
    3a24:	f94007e0 	ldr	x0, [sp,#8]
    3a28:	f900041f 	str	xzr, [x0,#8]
/home/optee/RPi3/optee_os/lib/libutils/isoc/bget_malloc.c:243
    3a2c:	f00000a0 	adrp	x0, 1a000 <mempool_u32+0xe88>
    3a30:	9133c000 	add	x0, x0, #0xcf0
    3a34:	f9400000 	ldr	x0, [x0]
    3a38:	f9400001 	ldr	x1, [x0]
    3a3c:	f94007e0 	ldr	x0, [sp,#8]
    3a40:	f9000001 	str	x1, [x0]
/home/optee/RPi3/optee_os/lib/libutils/isoc/bget_malloc.c:244
    3a44:	d503201f 	nop
    3a48:	910043ff 	add	sp, sp, #0x10
    3a4c:	d65f03c0 	ret

0000000000003a50 <bpool_foreach_pool>:
bpool_foreach_pool():
/home/optee/RPi3/optee_os/lib/libutils/isoc/bget_malloc.c:248
    3a50:	a9bc7bfd 	stp	x29, x30, [sp,#-64]!
    3a54:	910003fd 	mov	x29, sp
    3a58:	f90017a0 	str	x0, [x29,#40]
    3a5c:	f90013a1 	str	x1, [x29,#32]
    3a60:	f9000fa2 	str	x2, [x29,#24]
    3a64:	f9000ba3 	str	x3, [x29,#16]
/home/optee/RPi3/optee_os/lib/libutils/isoc/bget_malloc.c:249
    3a68:	f94017a0 	ldr	x0, [x29,#40]
    3a6c:	f9400000 	ldr	x0, [x0]
    3a70:	f9001ba0 	str	x0, [x29,#48]
/home/optee/RPi3/optee_os/lib/libutils/isoc/bget_malloc.c:250
    3a74:	f9401ba0 	ldr	x0, [x29,#48]
    3a78:	f9400400 	ldr	x0, [x0,#8]
    3a7c:	f9001fa0 	str	x0, [x29,#56]
/home/optee/RPi3/optee_os/lib/libutils/isoc/bget_malloc.c:252
    3a80:	f9401fa1 	ldr	x1, [x29,#56]
    3a84:	d2f00000 	mov	x0, #0x8000000000000000    	// #-9223372036854775808
    3a88:	eb00003f 	cmp	x1, x0
    3a8c:	54000061 	b.ne	3a98 <bpool_foreach_pool+0x48>
/home/optee/RPi3/optee_os/lib/libutils/isoc/bget_malloc.c:253
    3a90:	52800000 	mov	w0, #0x0                   	// #0
    3a94:	14000035 	b	3b68 <bpool_foreach_pool+0x118>
/home/optee/RPi3/optee_os/lib/libutils/isoc/bget_malloc.c:255
    3a98:	f9401fa0 	ldr	x0, [x29,#56]
    3a9c:	eb1f001f 	cmp	x0, xzr
    3aa0:	540000ea 	b.ge	3abc <bpool_foreach_pool+0x6c>
/home/optee/RPi3/optee_os/lib/libutils/isoc/bget_malloc.c:257
    3aa4:	f9401fa0 	ldr	x0, [x29,#56]
    3aa8:	cb0003e0 	neg	x0, x0
    3aac:	f9001fa0 	str	x0, [x29,#56]
/home/optee/RPi3/optee_os/lib/libutils/isoc/bget_malloc.c:259
    3ab0:	f9400ba0 	ldr	x0, [x29,#16]
    3ab4:	3900001f 	strb	wzr, [x0]
    3ab8:	1400001e 	b	3b30 <bpool_foreach_pool+0xe0>
/home/optee/RPi3/optee_os/lib/libutils/isoc/bget_malloc.c:262
    3abc:	f9400ba0 	ldr	x0, [x29,#16]
    3ac0:	52800021 	mov	w1, #0x1                   	// #1
    3ac4:	39000001 	strb	w1, [x0]
/home/optee/RPi3/optee_os/lib/libutils/isoc/bget_malloc.c:265
    3ac8:	f9401ba0 	ldr	x0, [x29,#48]
    3acc:	f9400c00 	ldr	x0, [x0,#24]
    3ad0:	f9400801 	ldr	x1, [x0,#16]
    3ad4:	f9401ba0 	ldr	x0, [x29,#48]
    3ad8:	eb00003f 	cmp	x1, x0
    3adc:	54000100 	b.eq	3afc <bpool_foreach_pool+0xac>
/home/optee/RPi3/optee_os/lib/libutils/isoc/bget_malloc.c:265 (discriminator 1)
    3ae0:	90000060 	adrp	x0, f000 <__func__.3826+0xc0>
    3ae4:	91080001 	add	x1, x0, #0x200
    3ae8:	f0000040 	adrp	x0, e000 <mpa_set_oct_str+0xa8>
    3aec:	913f0000 	add	x0, x0, #0xfc0
    3af0:	52802122 	mov	w2, #0x109                 	// #265
    3af4:	97fffc8d 	bl	2d28 <_assert_log>
    3af8:	97fffca0 	bl	2d78 <_assert_break>
/home/optee/RPi3/optee_os/lib/libutils/isoc/bget_malloc.c:266
    3afc:	f9401ba0 	ldr	x0, [x29,#48]
    3b00:	f9400800 	ldr	x0, [x0,#16]
    3b04:	f9400c01 	ldr	x1, [x0,#24]
    3b08:	f9401ba0 	ldr	x0, [x29,#48]
    3b0c:	eb00003f 	cmp	x1, x0
    3b10:	54000100 	b.eq	3b30 <bpool_foreach_pool+0xe0>
/home/optee/RPi3/optee_os/lib/libutils/isoc/bget_malloc.c:266 (discriminator 1)
    3b14:	90000060 	adrp	x0, f000 <__func__.3826+0xc0>
    3b18:	91080001 	add	x1, x0, #0x200
    3b1c:	f0000040 	adrp	x0, e000 <mpa_set_oct_str+0xa8>
    3b20:	913f8000 	add	x0, x0, #0xfe0
    3b24:	52802142 	mov	w2, #0x10a                 	// #266
    3b28:	97fffc80 	bl	2d28 <_assert_log>
    3b2c:	97fffc93 	bl	2d78 <_assert_break>
/home/optee/RPi3/optee_os/lib/libutils/isoc/bget_malloc.c:269
    3b30:	f9401ba0 	ldr	x0, [x29,#48]
    3b34:	91004001 	add	x1, x0, #0x10
    3b38:	f94013a0 	ldr	x0, [x29,#32]
    3b3c:	f9000001 	str	x1, [x0]
/home/optee/RPi3/optee_os/lib/libutils/isoc/bget_malloc.c:270
    3b40:	f9401fa0 	ldr	x0, [x29,#56]
    3b44:	d1004001 	sub	x1, x0, #0x10
    3b48:	f9400fa0 	ldr	x0, [x29,#24]
    3b4c:	f9000001 	str	x1, [x0]
/home/optee/RPi3/optee_os/lib/libutils/isoc/bget_malloc.c:272
    3b50:	f9401fa0 	ldr	x0, [x29,#56]
    3b54:	f9401ba1 	ldr	x1, [x29,#48]
    3b58:	8b000021 	add	x1, x1, x0
    3b5c:	f94017a0 	ldr	x0, [x29,#40]
    3b60:	f9000001 	str	x1, [x0]
/home/optee/RPi3/optee_os/lib/libutils/isoc/bget_malloc.c:273
    3b64:	52800020 	mov	w0, #0x1                   	// #1
/home/optee/RPi3/optee_os/lib/libutils/isoc/bget_malloc.c:274
    3b68:	a8c47bfd 	ldp	x29, x30, [sp],#64
    3b6c:	d65f03c0 	ret

0000000000003b70 <bpool_foreach>:
bpool_foreach():
