
8aaaf200-2450-11e4-abe20002a5d5c51b.elf:     file format elf64-littleaarch64
8aaaf200-2450-11e4-abe20002a5d5c51b.elf
architecture: aarch64, flags 0x00000150:
HAS_SYMS, DYNAMIC, D_PAGED
start address 0x0000000000000020

Program Header:
    LOAD off    0x0000000000010000 vaddr 0x0000000000000000 paddr 0x0000000000000000 align 2**16
         filesz 0x000000000001092c memsz 0x000000000001092c flags r-x
    LOAD off    0x0000000000020930 vaddr 0x0000000000010930 paddr 0x0000000000010930 align 2**16
         filesz 0x0000000000002514 memsz 0x0000000000002514 flags r--
    LOAD off    0x0000000000023000 vaddr 0x0000000000013000 paddr 0x0000000000013000 align 2**16
         filesz 0x000000000000012c memsz 0x000000000000ad28 flags rw-
 DYNAMIC off    0x0000000000022b78 vaddr 0x0000000000012b78 paddr 0x0000000000012b78 align 2**3
         filesz 0x00000000000000f0 memsz 0x00000000000000f0 flags rw-

Dynamic Section:
  HASH                 0x0000000000012e00
  STRTAB               0x0000000000012d88
  SYMTAB               0x0000000000012c68
  STRSZ                0x0000000000000078
  SYMENT               0x0000000000000018
  DEBUG                0x0000000000000000
  RELA                 0x00000000000127f8
  RELASZ               0x0000000000000318
  RELAENT              0x0000000000000018
  RELACOUNT            0x0000000000000018
private flags = 0:

Sections:
Idx Name          Size      VMA               LMA               File off  Algn
  0 .ta_head      00000020  0000000000000000  0000000000000000  00010000  2**3
                  CONTENTS, ALLOC, LOAD, DATA
  1 .text         0001090c  0000000000000020  0000000000000020  00010020  2**2
                  CONTENTS, ALLOC, LOAD, READONLY, CODE
  2 .rodata       00001ec8  0000000000010930  0000000000010930  00020930  2**3
                  CONTENTS, ALLOC, LOAD, READONLY, DATA
  3 .dynsym       00000120  0000000000012c68  0000000000012c68  00022c68  2**3
                  CONTENTS, ALLOC, LOAD, READONLY, DATA
  4 .rela.dyn     00000240  00000000000127f8  00000000000127f8  000227f8  2**3
                  CONTENTS, ALLOC, LOAD, READONLY, DATA
  5 .got          00000068  0000000000012a38  0000000000012a38  00022a38  2**3
                  CONTENTS, ALLOC, LOAD, DATA
  6 .rela.got     000000d8  0000000000012aa0  0000000000012aa0  00022aa0  2**3
                  CONTENTS, ALLOC, LOAD, READONLY, DATA
  7 .dynamic      000000f0  0000000000012b78  0000000000012b78  00022b78  2**3
                  CONTENTS, ALLOC, LOAD, DATA
  8 .dynstr       00000078  0000000000012d88  0000000000012d88  00022d88  2**0
                  CONTENTS, ALLOC, LOAD, READONLY, DATA
  9 .hash         00000044  0000000000012e00  0000000000012e00  00022e00  2**3
                  CONTENTS, ALLOC, LOAD, READONLY, DATA
 10 .data         0000012c  0000000000013000  0000000000013000  00023000  2**3
                  CONTENTS, ALLOC, LOAD, DATA
 11 .bss          0000abf8  0000000000013130  0000000000013130  0002312c  2**3
                  ALLOC
 12 .debug_info   0000ac23  0000000000000000  0000000000000000  0002312c  2**0
                  CONTENTS, READONLY, DEBUGGING
 13 .debug_abbrev 00002cef  0000000000000000  0000000000000000  0002dd4f  2**0
                  CONTENTS, READONLY, DEBUGGING
 14 .debug_aranges 00000720  0000000000000000  0000000000000000  00030a3e  2**0
                  CONTENTS, READONLY, DEBUGGING
 15 .debug_macro  00004e1a  0000000000000000  0000000000000000  0003115e  2**0
                  CONTENTS, READONLY, DEBUGGING
 16 .debug_line   00006907  0000000000000000  0000000000000000  00035f78  2**0
                  CONTENTS, READONLY, DEBUGGING
 17 .debug_str    0000f3d6  0000000000000000  0000000000000000  0003c87f  2**0
                  CONTENTS, READONLY, DEBUGGING
 18 .comment      0000002d  0000000000000000  0000000000000000  0004bc55  2**0
                  CONTENTS, READONLY
 19 .debug_frame  00002ee8  0000000000000000  0000000000000000  0004bc88  2**3
                  CONTENTS, READONLY, DEBUGGING
SYMBOL TABLE:
0000000000000000 l    d  .ta_head	0000000000000000 .ta_head
0000000000000020 l    d  .text	0000000000000000 .text
0000000000010930 l    d  .rodata	0000000000000000 .rodata
00000000000127f8 l    d  .rela.dyn	0000000000000000 .rela.dyn
0000000000012a38 l    d  .got	0000000000000000 .got
0000000000012aa0 l    d  .rela.got	0000000000000000 .rela.got
0000000000012b78 l    d  .dynamic	0000000000000000 .dynamic
0000000000012c68 l    d  .dynsym	0000000000000000 .dynsym
0000000000012d88 l    d  .dynstr	0000000000000000 .dynstr
0000000000012e00 l    d  .hash	0000000000000000 .hash
0000000000013000 l    d  .data	0000000000000000 .data
0000000000013130 l    d  .bss	0000000000000000 .bss
0000000000000000 l    d  .debug_info	0000000000000000 .debug_info
0000000000000000 l    d  .debug_abbrev	0000000000000000 .debug_abbrev
0000000000000000 l    d  .debug_aranges	0000000000000000 .debug_aranges
0000000000000000 l    d  .debug_macro	0000000000000000 .debug_macro
0000000000000000 l    d  .debug_line	0000000000000000 .debug_line
0000000000000000 l    d  .debug_str	0000000000000000 .debug_str
0000000000000000 l    d  .comment	0000000000000000 .comment
0000000000000000 l    d  .debug_frame	0000000000000000 .debug_frame
0000000000000000 l    df *ABS*	0000000000000000 user_ta_header.c
0000000000010a60 l     O .rodata	0000000000000001 __compound_literal.0
0000000000010a61 l     O .rodata	0000000000000001 __compound_literal.1
0000000000010a62 l     O .rodata	0000000000000001 __compound_literal.2
0000000000010a64 l     O .rodata	0000000000000004 __compound_literal.3
0000000000010a68 l     O .rodata	0000000000000004 __compound_literal.4
0000000000010a6c l     O .rodata	0000000000000004 __compound_literal.5
0000000000000000 l    df *ABS*	0000000000000000 hello_world_ta.c
00000000000109b0 l     O .rodata	0000000000000014 __func__.3517
00000000000109c8 l     O .rodata	0000000000000015 __func__.3521
00000000000109e0 l     O .rodata	0000000000000019 __func__.3528
0000000000010a00 l     O .rodata	000000000000001a __func__.3532
000000000000012c l     F .text	00000000000000d4 inc_value
0000000000010a20 l     O .rodata	000000000000000a __func__.3538
0000000000000200 l     F .text	000000000000012c create_object
0000000000010a30 l     O .rodata	000000000000000e __func__.3546
000000000000032c l     F .text	00000000000000f8 open_object
0000000000010a40 l     O .rodata	000000000000000c __func__.3554
0000000000000000 l    df *ABS*	0000000000000000 tee_api_objects.c
0000000000010b90 l     O .rodata	0000000000000012 __func__.3891
0000000000010ba8 l     O .rodata	0000000000000013 __func__.3897
0000000000010bc0 l     O .rodata	0000000000000018 __func__.3904
0000000000010bd8 l     O .rodata	0000000000000019 __func__.3910
0000000000010bf8 l     O .rodata	000000000000001d __func__.3921
0000000000010c18 l     O .rodata	000000000000001c __func__.3933
0000000000010c38 l     O .rodata	0000000000000010 __func__.3938
0000000000010c48 l     O .rodata	000000000000001c __func__.3946
0000000000010c68 l     O .rodata	0000000000000018 __func__.3952
0000000000010c80 l     O .rodata	0000000000000019 __func__.3958
0000000000010ca0 l     O .rodata	000000000000001c __func__.3967
0000000000010cc0 l     O .rodata	0000000000000015 __func__.3974
0000000000010cd8 l     O .rodata	0000000000000017 __func__.3981
0000000000010cf0 l     O .rodata	0000000000000019 __func__.3988
0000000000010d10 l     O .rodata	000000000000001a __func__.3997
0000000000010d30 l     O .rodata	0000000000000010 __func__.4006
0000000000010d40 l     O .rodata	0000000000000019 __func__.4017
0000000000010d60 l     O .rodata	000000000000001b __func__.4032
0000000000010d80 l     O .rodata	0000000000000023 __func__.4037
0000000000010da8 l     O .rodata	0000000000000024 __func__.4042
0000000000010dd0 l     O .rodata	000000000000001b __func__.4050
0000000000010df0 l     O .rodata	0000000000000027 __func__.4056
0000000000010e18 l     O .rodata	0000000000000023 __func__.4061
0000000000010e40 l     O .rodata	0000000000000024 __func__.4066
0000000000010e68 l     O .rodata	0000000000000024 __func__.4072
0000000000010e90 l     O .rodata	000000000000001c __func__.4084
0000000000010eb0 l     O .rodata	0000000000000013 __func__.4094
0000000000010ec8 l     O .rodata	0000000000000014 __func__.4102
0000000000010ee0 l     O .rodata	0000000000000017 __func__.4109
0000000000010ef8 l     O .rodata	0000000000000013 __func__.4123
0000000000000000 l    df *ABS*	0000000000000000 tee_api_panic.c
0000000000000000 l    df *ABS*	0000000000000000 user_ta_entry.c
00000000000130d8 l     O .data	0000000000000010 ta_sessions
000000000001dd20 l     O .bss	0000000000000004 ta_ref_count
000000000001dd24 l     O .bss	0000000000000001 context_init
0000000000002298 l     F .text	0000000000000064 ta_header_save_params
00000000000022fc l     F .text	000000000000005c ta_header_get_session
0000000000002358 l     F .text	0000000000000150 ta_header_add_session
00000000000024a8 l     F .text	00000000000000ec ta_header_remove_session
0000000000002594 l     F .text	00000000000000c8 entry_open_session
000000000000265c l     F .text	000000000000004c entry_close_session
00000000000026a8 l     F .text	00000000000000a0 entry_invoke_command
0000000000010f20 l     O .rodata	000000000000000d __func__.4031
0000000000000000 l    df *ABS*	0000000000000000 tee_api_arith.c
000000000001b180 l     O .bss	0000000000001b40 mempool_u32
00000000000130e8 l     O .data	0000000000000008 mempool
000000000000280c l     F .text	0000000000000058 TEE_BigInt_Panic
0000000000010fa8 l     O .rodata	0000000000000011 __func__.3819
0000000000010fc0 l     O .rodata	0000000000000021 __func__.3855
0000000000010fe8 l     O .rodata	000000000000001f __func__.3864
0000000000011008 l     O .rodata	0000000000000017 __func__.3876
0000000000000000 l    df *ABS*	0000000000000000 tee_api.c
0000000000011020 l     O .rodata	0000000000000004 DEFAULT_TEE_MALLOC_HINT
000000000001ccc0 l     O .bss	0000000000000008 tee_api_instance_data
0000000000011070 l     O .rodata	0000000000000013 __func__.4001
0000000000011088 l     O .rodata	0000000000000014 __func__.4013
00000000000110a0 l     O .rodata	0000000000000017 __func__.4024
00000000000110b8 l     O .rodata	0000000000000015 __func__.4030
00000000000110d0 l     O .rodata	0000000000000012 __func__.4063
00000000000110e8 l     O .rodata	0000000000000009 __func__.4068
00000000000110f8 l     O .rodata	0000000000000018 __func__.4073
0000000000011110 l     O .rodata	0000000000000018 __func__.4078
0000000000011128 l     O .rodata	000000000000000f __func__.4083
0000000000000000 l    df *ABS*	0000000000000000 utee_misc.c
0000000000000000 l    df *ABS*	0000000000000000 tee_user_mem.c
0000000000011138 l     O .rodata	0000000000000004 DEFAULT_TEE_MALLOC_HINT
00000000000130f0 l     O .data	0000000000000008 ARTIST
0000000000011140 l     O .rodata	0000000000000008 CANARY_LINE_SIZE
0000000000004134 l     F .text	0000000000000018 buf_addr
000000000000414c l     F .text	0000000000000024 buf_size
0000000000004170 l     F .text	0000000000000018 elem_addr
0000000000004188 l     F .text	0000000000000064 is_buffer_valid
00000000000041ec l     F .text	000000000000008c print_buf
000000000001ccc8 l     O .bss	0000000000000008 heap_level
000000000001ccd0 l     O .bss	0000000000000010 global_stats
0000000000004278 l     F .text	0000000000000070 heap_inc
00000000000042e8 l     F .text	0000000000000070 heap_dec
0000000000004358 l     F .text	0000000000000088 check_elem_end
0000000000011268 l     O .rodata	000000000000000f __func__.3633
00000000000043e0 l     F .text	0000000000000124 check_elem
0000000000011278 l     O .rodata	000000000000000b __func__.3638
0000000000004504 l     F .text	000000000000006c is_mem_coherent
0000000000011288 l     O .rodata	0000000000000013 __func__.3657
00000000000112a0 l     O .rodata	0000000000000012 __func__.3674
00000000000112b8 l     O .rodata	0000000000000018 __func__.3682
0000000000004a48 l     F .text	0000000000000090 tee_user_mem_status
00000000000112d0 l     O .rodata	0000000000000014 __func__.3687
0000000000000000 l    df *ABS*	0000000000000000 trace_ext.c
00000000000112e8 l     O .rodata	000000000000000a prefix.3362
00000000000112f8 l     O .rodata	0000000000000011 failed.3363
0000000000011310 l     O .rodata	0000000000000005 trunc.3364
0000000000000000 l    df *ABS*	0000000000000000 assert.c
0000000000011338 l     O .rodata	000000000000000c __func__.3826
0000000000000000 l    df *ABS*	0000000000000000 bget_malloc.c
0000000000013108 l     O .data	0000000000000020 freelist
000000000001cce0 l     O .bss	0000000000000008 totalloc
000000000001cce8 l     O .bss	0000000000000008 numget
000000000001ccf0 l     O .bss	0000000000000008 numrel
00000000000058f0 l     F .text	0000000000000008 malloc_lock
00000000000058f8 l     F .text	0000000000000008 malloc_unlock
000000000001ccf8 l     O .bss	0000000000000008 malloc_pool
000000000001cd00 l     O .bss	0000000000000008 malloc_pool_len
000000000001cd08 l     O .bss	0000000000000008 max_alloc_heap
0000000000005900 l     F .text	0000000000000048 raw_malloc_save_max_alloced_size
0000000000005a3c l     F .text	0000000000000008 raw_malloc_validate_pools
0000000000005a44 l     F .text	0000000000000034 bpool_foreach_iterator_init
0000000000005a78 l     F .text	0000000000000120 bpool_foreach_pool
0000000000005b98 l     F .text	00000000000000c4 bpool_foreach
0000000000005c5c l     F .text	0000000000000080 raw_malloc
0000000000005cdc l     F .text	0000000000000030 raw_free
0000000000005d0c l     F .text	0000000000000098 raw_calloc
0000000000005da4 l     F .text	0000000000000088 raw_realloc
0000000000005e2c l     F .text	0000000000000188 create_free_block
0000000000005fb4 l     F .text	00000000000001b8 brel_before
000000000000616c l     F .text	00000000000002cc brel_after
0000000000006438 l     F .text	00000000000001ec raw_memalign
0000000000006624 l     F .text	0000000000000068 bget_buf_size
0000000000006724 l     F .text	000000000000002c realloc_unlocked
00000000000067c0 l     F .text	0000000000000030 get_payload_start_size
0000000000000000 l    df *ABS*	0000000000000000 snprintf.c
0000000000000000 l    df *ABS*	0000000000000000 memcmp.c
0000000000000000 l    df *ABS*	0000000000000000 memcpy.c
0000000000000000 l    df *ABS*	0000000000000000 memmove.c
0000000000000000 l    df *ABS*	0000000000000000 memset.c
0000000000000000 l    df *ABS*	0000000000000000 strlen.c
0000000000000000 l    df *ABS*	0000000000000000 snprintk.c
00000000000117a0 l     O .rodata	0000000000000011 hexdigits
00000000000117b8 l     O .rodata	0000000000000011 HEXDIGITS
00000000000076d0 l     F .text	0000000000001eb0 kprintf
00000000000075e0 l     F .text	00000000000000f0 uuid2str
0000000000000000 l    df *ABS*	0000000000000000 strlcpy.c
0000000000000000 l    df *ABS*	0000000000000000 trace.c
0000000000009698 l     F .text	0000000000000074 trace_level_to_string
00000000000119c8 l     O .rodata	000000000000002d lvl_strs.2926
0000000000000000 l    df *ABS*	0000000000000000 memchr.c
0000000000000000 l    df *ABS*	0000000000000000 mpa_misc.c
0000000000000000 l    df *ABS*	0000000000000000 mpa_montgomery.c
0000000000000000 l    df *ABS*	0000000000000000 mpa_primetest.c
0000000000012668 l     O .rodata	00000000000000b8 const_small_prime_factors
0000000000012720 l     O .rodata	0000000000000010 const_miller_rabin_proof_limit
0000000000012730 l     O .rodata	000000000000000c const_two
000000000000a720 l     F .text	00000000000000d4 is_small_prime
000000000000a7f4 l     F .text	0000000000000070 has_small_factors
000000000000a864 l     F .text	0000000000000370 primality_test_miller_rabin
000000000000a6e8 l     F .text	0000000000000038 check_table
0000000000012740 l     O .rodata	000000000000001c proof_a.3299
0000000000000000 l    df *ABS*	0000000000000000 mpa_conv.c
0000000000000000 l    df *ABS*	0000000000000000 mpa_div.c
000000000000ada4 l     F .text	00000000000000cc __mpa_soft_div
000000000000aeb4 l     F .text	00000000000009bc __mpa_div_q_r_internal
0000000000000000 l    df *ABS*	0000000000000000 mpa_gcd.c
000000000000bda8 l     F .text	0000000000000180 __mpa_divby2
000000000000bf28 l     F .text	000000000000039c __mpa_egcd
000000000000c2c4 l     F .text	00000000000001b0 __mpa_gcd
0000000000000000 l    df *ABS*	0000000000000000 mpa_mem_static.c
0000000000000000 l    df *ABS*	0000000000000000 mpa_mul.c
0000000000000000 l    df *ABS*	0000000000000000 mpa_random.c
000000000001cd10 l     O .bss	0000000000000008 get_rng_array
000000000000d2c8 l     F .text	0000000000000038 get_random_byte
0000000000000000 l    df *ABS*	0000000000000000 mpa_shift.c
0000000000000000 l    df *ABS*	0000000000000000 mpa_addsub.c
0000000000000000 l    df *ABS*	0000000000000000 mpa_cmp.c
0000000000000000 l    df *ABS*	0000000000000000 mpa_expmod.c
0000000000000000 l    df *ABS*	0000000000000000 mpa_init.c
0000000000000000 l    df *ABS*	0000000000000000 mpa_io.c
000000000000f484 l     F .text	0000000000000058 __mpa_isspace
000000000000f4dc l     F .text	00000000000000d0 __mpa_is_char_in_base
000000000000f5ac l     F .text	0000000000000080 __mpa_digit_value
000000000000f62c l     F .text	000000000000001c __mpa_digitstr_to_binary_wsize_base_16
000000000000f648 l     F .text	0000000000000070 __mpa_nibble_to_char
000000000000f6b8 l     F .text	0000000000000084 __mpa_word_to_hexstr
000000000000f73c l     F .text	00000000000001c0 __mpa_mpanum_to_hexstr
000000000000f8fc l     F .text	0000000000000064 __mpa_count_leading_zero_bits
000000000000f960 l     F .text	000000000000008c __mpa_size_in_base_255
000000000001cd18 l     O .bss	0000000000001002 buf.3336
000000000000fefc l     F .text	0000000000000084 set_word
00000000000100f8 l     F .text	0000000000000060 get_word
0000000000000000 l    df *ABS*	0000000000000000 mpa_modulus.c
0000000000000000 l    df *ABS*	0000000000000000 utee_syscalls_a64.o
0000000000000000 l    df *ABS*	0000000000000000 
0000000000012b78 l     O *ABS*	0000000000000000 _DYNAMIC
0000000000012a50 l     O *ABS*	0000000000000000 _GLOBAL_OFFSET_TABLE_
0000000000010908 g     F .text	000000000000000c utee_se_channel_transmit
000000000000f340 g     F .text	0000000000000060 mpa_init_static
0000000000000e70 g     F .text	0000000000000258 TEE_PopulateTransientObject
0000000000009d84 g     F .text	0000000000000074 mpa_copy
0000000000003464 g     F .text	000000000000007c TEE_BigIntConvertToFMM
0000000000003234 g     F .text	0000000000000034 TEE_BigIntSquareMod
0000000000002c5c g     F .text	0000000000000044 TEE_BigIntShiftRight
000000000000ac3c g     F .text	00000000000000e8 mpa_get_S32
0000000000009e44 g     F .text	00000000000000b8 mpa_highest_bit_index
00000000000107d0 g     F .text	000000000000000c utee_storage_obj_create
00000000000108e4 g     F .text	000000000000000c utee_se_session_close
00000000000105d8 g     F .text	000000000000000c utee_return
0000000000005948 g     F .text	0000000000000028 malloc_reset_max_allocated
0000000000010884 g     F .text	000000000000000c utee_se_service_get_readers
0000000000003fc4 g     F .text	0000000000000028 TEE_Realloc
000000000000b870 g     F .text	00000000000001e4 __mpa_div_q_r_internal_word
0000000000004740 g     F .text	0000000000000110 tee_user_mem_realloc
00000000000059c8 g     F .text	0000000000000074 malloc_get_heap_size
000000000000e694 g     F .text	00000000000002f8 mpa_sub
0000000000004b54 g     F .text	00000000000001d0 printf
0000000000004850 g     F .text	0000000000000160 tee_user_mem_free
00000000000105e4 g     F .text	000000000000000c utee_log
0000000000011a2c g     O .rodata	0000000000000004 NR_STORED_PRIMES
00000000000010c8 g     F .text	00000000000000c4 TEE_InitRefAttribute
00000000000039f0 g     F .text	00000000000000f4 TEE_InvokeTACommand
0000000000009f90 g     F .text	0000000000000038 mpa_can_hold
000000000000cdbc g     F .text	0000000000000118 __mpa_abs_mul_word
000000000000a608 g     F .text	000000000000006c mpa_montgomery_mul
00000000000074a4 g     F .text	0000000000000064 vsnprintk
0000000000009fc8 g     F .text	0000000000000028 mpa_parity
0000000000006f30 g     F .text	000000000000020c memmove
000000000000de94 g     F .text	0000000000000068 __mpa_full_adder_ackum
0000000000006b68 g     F .text	00000000000000bc snprintf
0000000000002c30 g     F .text	000000000000002c TEE_BigIntCmpS32
000000000000118c g     F .text	00000000000000c4 TEE_InitValueAttribute
0000000000002d00 g     F .text	0000000000000058 TEE_BigIntAdd
0000000000010608 g     F .text	000000000000000c utee_get_property_name_to_index
0000000000010a58 g     O .rodata	0000000000000008 ta_heap_size
0000000000011a28 g     O .rodata	0000000000000004 MAX_TABULATED_PRIME
0000000000000d74 g     F .text	00000000000000fc TEE_ResetTransientObject
000000000000408c g     F .text	000000000000001c utee_malloc
000000000001068c g     F .text	000000000000000c utee_cryp_state_alloc
0000000000010794 g     F .text	000000000000000c utee_authenc_enc_final
000000000000cd48 g     F .text	0000000000000074 __mpa_mul_add_word_cum
0000000000002db0 g     F .text	0000000000000038 TEE_BigIntNeg
000000000000bc60 g     F .text	0000000000000148 mpa_div
0000000000001ca8 g     F .text	00000000000000b4 TEE_StartPersistentObjectEnumerator
0000000000011a18 g     O .rodata	000000000000000c const_one
0000000000006a58 g     F .text	0000000000000110 malloc_buffer_overlaps_heap
000000000000ef74 g     F .text	000000000000002c __mpa_abs_less_than
000000000000307c g     F .text	00000000000000bc TEE_BigIntSubMod
000000000000d300 g     F .text	00000000000001d4 mpa_get_random
0000000000004110 g     F .text	0000000000000024 get_rng_array
000000000000970c g     F .text	00000000000003dc trace_printf
000000000001086c g     F .text	000000000000000c utee_se_service_open
0000000000006db0 g     F .text	0000000000000180 memcpy
00000000000106a4 g     F .text	000000000000000c utee_cryp_state_free
0000000000009d3c g     F .text	0000000000000048 mpa_wipe
00000000000034e0 g     F .text	00000000000000c0 TEE_BigIntConvertFromFMM
0000000000002284 g     F .text	0000000000000014 TEE_Panic
00000000000108fc g     F .text	000000000000000c utee_se_channel_get_select_resp
0000000000004d24 g     F .text	000000000000002c puts
00000000000035a0 g     F .text	0000000000000080 TEE_BigIntComputeFMM
000000000000ad24 g     F .text	0000000000000040 mpa_set_word
000000000000d734 g     F .text	0000000000000388 mpa_shift_left
00000000000106ec g     F .text	000000000000000c utee_cipher_final
000000000000d074 g     F .text	0000000000000130 mpa_mul
0000000000003f3c g     F .text	0000000000000064 TEE_GetREETime
0000000000001b20 g     F .text	00000000000000a8 TEE_AllocatePersistentObjectEnumerator
0000000000013000 g     O .data	00000000000000d8 ta_props
000000000000668c g     F .text	0000000000000034 malloc
0000000000010728 g     F .text	000000000000000c utee_cryp_obj_close
00000000000108a8 g     F .text	000000000000000c utee_se_reader_open_session
0000000000006c24 g     F .text	0000000000000064 vsnprintf
0000000000001478 g     F .text	0000000000000194 TEE_GenerateKey
0000000000013128 g     O .data	0000000000000004 trace_level
0000000000004084 g     F .text	0000000000000008 utee_get_ta_exec_id
0000000000002bfc g     F .text	0000000000000034 TEE_BigIntCmp
00000000000040a8 g     F .text	0000000000000024 utee_realloc
0000000000010b78 g     O .rodata	0000000000000008 ta_num_props
0000000000005190 g     F .text	00000000000000dc bgetr
0000000000010788 g     F .text	000000000000000c utee_authenc_update_payload
0000000000002a78 g     F .text	00000000000000c0 TEE_BigIntConvertToOctetString
0000000000010920 g     F .text	000000000000000c utee_cache_operation
0000000000010770 g     F .text	000000000000000c utee_authenc_init
0000000000002ca0 g     F .text	0000000000000038 TEE_BigIntGetBit
0000000000010a50 g     O .rodata	0000000000000008 trace_ext_prefix
000000000000defc g     F .text	00000000000001e4 __mpa_abs_add
00000000000050c8 g     F .text	00000000000000c8 bgetz
0000000000003c78 g     F .text	0000000000000010 TEE_GetInstanceData
0000000000003d80 g     F .text	0000000000000070 TEE_Wait
000000000001083c g     F .text	000000000000000c utee_storage_obj_write
000000000000cbdc g     F .text	0000000000000108 mpa_free_static_temp_var
000000000000599c g     F .text	000000000000002c malloc_get_allocated
000000000000a674 g     F .text	0000000000000074 mpa_is_prob_prime
0000000000010914 g     F .text	000000000000000c utee_se_channel_close
000000000000d1a4 g     F .text	0000000000000100 mpa_mul_word
0000000000004034 g     F .text	0000000000000028 TEE_CacheFlush
0000000000000058 g     F .text	0000000000000038 TA_DestroyEntryPoint
0000000000004d50 g     F .text	0000000000000050 _assert_log
00000000000029a0 g     F .text	0000000000000024 TEE_BigIntFMMContextSizeInU32
0000000000001a2c g     F .text	00000000000000f4 TEE_RenamePersistentObject
000000000000ba54 g     F .text	000000000000020c __mpa_div_q_r
0000000000002864 g     F .text	0000000000000038 _TEE_MathAPI_Init
0000000000010824 g     F .text	000000000000000c utee_storage_next_enum
0000000000013138 g     O .bss	0000000000008000 ta_heap
0000000000003268 g     F .text	000000000000008c TEE_BigIntInvMod
00000000000000f0 g     F .text	000000000000003c TA_CloseSessionEntryPoint
000000000000160c g     F .text	0000000000000164 TEE_OpenPersistentObject
0000000000010698 g     F .text	000000000000000c utee_cryp_state_copy
0000000000000424 g     F .text	0000000000000074 TA_InvokeCommandEntryPoint
000000000000ff80 g     F .text	0000000000000178 mpa_set_oct_str
00000000000108d8 g     F .text	000000000000000c utee_se_session_open_channel
000000000000d4d4 g     F .text	0000000000000130 __mpa_shift_words_left
000000000001071c g     F .text	000000000000000c utee_cryp_obj_alloc
0000000000010680 g     F .text	000000000000000c utee_set_ta_time
0000000000010710 g     F .text	000000000000000c utee_cryp_obj_get_attr
0000000000001250 g     F .text	0000000000000090 TEE_CopyObjectAttributes
000000000000a144 g     F .text	0000000000000158 __mpa_montgomery_sub_ack
00000000000066e8 g     F .text	000000000000003c calloc
0000000000003fa0 g     F .text	0000000000000024 TEE_Malloc
000000000001065c g     F .text	000000000000000c utee_mask_cancellation
0000000000010734 g     F .text	000000000000000c utee_cryp_obj_reset
0000000000003bf0 g     F .text	0000000000000064 TEE_CheckMemoryAccessRights
000000000000e98c g     F .text	000000000000003c mpa_neg
0000000000011a30 g     O .rodata	0000000000000c38 PRIME_TABLE
0000000000001e80 g     F .text	00000000000000e0 TEE_ReadObjectData
00000000000008e8 g     F .text	0000000000000124 TEE_GetObjectBufferAttribute
0000000000000090 g     F .text	0000000000000060 TA_OpenSessionEntryPoint
000000000000c474 g     F .text	0000000000000188 mpa_gcd
0000000000009df8 g     F .text	000000000000004c mpa_abs
0000000000010818 g     F .text	000000000000000c utee_storage_start_enum
000000000000f9f4 g     F .text	0000000000000448 mpa_set_str
00000000000107e8 g     F .text	000000000000000c utee_storage_obj_rename
000000000001b138 g     O .bss	0000000000000004 ta_param_types
00000000000004a0 g     F .text	00000000000001e8 __utee_from_attr
0000000000003400 g     F .text	0000000000000064 TEE_BigIntIsProbablePrime
000000000000cbb0 g     F .text	000000000000002c mpa_alloc_static_temp_var
00000000000019a0 g     F .text	000000000000008c TEE_CloseAndDeletePersistentObject1
000000000000d2a4 g     F .text	0000000000000024 mpa_set_random_generator
00000000000105fc g     F .text	000000000000000c utee_get_property
000000000000289c g     F .text	0000000000000028 TEE_BigIntInit
0000000000003c88 g     F .text	0000000000000030 TEE_MemMove
00000000000029c4 g     F .text	00000000000000b4 TEE_BigIntConvertFromOctetString
0000000000009b0c g     F .text	00000000000001c8 memchr
0000000000003b20 g     F .text	0000000000000068 TEE_UnmaskCancellation
0000000000000688 g     F .text	00000000000000b0 TEE_GetObjectInfo
0000000000010434 g     F .text	0000000000000070 mpa_mul_mod
00000000000107dc g     F .text	000000000000000c utee_storage_obj_del
0000000000010854 g     F .text	000000000000000c utee_storage_obj_seek
0000000000000c78 g     F .text	00000000000000fc TEE_FreeTransientObject
0000000000013130 g     O .bss	0000000000000008 test
000000000000a47c g     F .text	000000000000018c mpa_compute_fmm_context
00000000000106bc g     F .text	000000000000000c utee_hash_update
000000000000c90c g     F .text	0000000000000074 mpa_init_scratch_mem_sync
0000000000002f14 g     F .text	00000000000000ac TEE_BigIntMod
00000000000108f0 g     F .text	000000000000000c utee_se_channel_select_next
0000000000010620 g     F .text	000000000000000c utee_close_ta_session
0000000000002e8c g     F .text	0000000000000088 TEE_BigIntDiv
0000000000009580 g     F .text	00000000000000b8 strlcpy
00000000000106e0 g     F .text	000000000000000c utee_cipher_update
0000000000000858 g     F .text	0000000000000090 TEE_RestrictObjectUsage1
00000000000108cc g     F .text	000000000000000c utee_se_session_get_atr
0000000000006750 g     F .text	0000000000000034 realloc
000000000000e0e0 g     F .text	0000000000000160 __mpa_abs_add_ackum
00000000000107b8 g     F .text	000000000000000c utee_asymm_verify
0000000000002de8 g     F .text	0000000000000058 TEE_BigIntMul
000000000000ad64 g     F .text	0000000000000040 mpa_get_word
0000000000003ce8 g     F .text	0000000000000034 TEE_MemFill
0000000000006c88 g     F .text	0000000000000128 memcmp
00000000000067f0 g     F .text	000000000000019c malloc_add_pool
0000000000009688 g     F .text	0000000000000010 trace_get_level
0000000000010764 g     F .text	000000000000000c utee_cryp_random_number_generate
00000000000007c8 g     F .text	0000000000000090 TEE_RestrictObjectUsage
0000000000002980 g     F .text	0000000000000020 TEE_BigIntFMMSizeInU32
00000000000028c4 g     F .text	0000000000000050 TEE_BigIntInitFMM
00000000000107ac g     F .text	000000000000000c utee_asymm_operate
0000000000000b58 g     F .text	0000000000000070 TEE_CloseObject
0000000000002748 g     F .text	00000000000000c4 __utee_entry
00000000000032f4 g     F .text	0000000000000094 TEE_BigIntRelativePrime
0000000000005674 g     F .text	0000000000000160 bpool
000000000000abd4 g     F .text	0000000000000068 mpa_set_S32
000000000000f3a0 g     F .text	00000000000000e4 mpa_init_static_fmm_context
0000000000003ae4 g     F .text	000000000000003c TEE_GetCancellationFlag
0000000000010878 g     F .text	000000000000000c utee_se_service_close
0000000000004570 g     F .text	00000000000001d0 tee_user_mem_alloc
00000000000130f8 g     O .data	0000000000000010 user_mem_head
0000000000003ebc g     F .text	0000000000000080 TEE_SetTAPersistentTime
000000000000e9c8 g     F .text	00000000000001f8 mpa_add_word
0000000000010890 g     F .text	000000000000000c utee_se_reader_get_prop
000000000000713c g     F .text	00000000000001cc memset
0000000000003df0 g     F .text	00000000000000cc TEE_GetTAPersistentTime
0000000000009ae8 g     F .text	0000000000000024 dhex_dump
0000000000001770 g     F .text	00000000000001c0 TEE_CreatePersistentObject
0000000000003b88 g     F .text	0000000000000068 TEE_MaskCancellation
000000000000de30 g     F .text	0000000000000064 __mpa_full_sub
0000000000010830 g     F .text	000000000000000c utee_storage_obj_read
0000000000002034 g     F .text	00000000000000b8 TEE_TruncateObjectData
00000000000040cc g     F .text	0000000000000024 utee_calloc
0000000000010740 g     F .text	000000000000000c utee_cryp_obj_populate
000000000000efa0 g     F .text	00000000000000dc mpa_cmp
00000000000104a4 g     F .text	0000000000000134 mpa_inv_mod
000000000000ebc0 g     F .text	0000000000000200 mpa_sub_word
000000000000cce4 g     F .text	0000000000000064 __mpa_mul_add_word
000000000000e3d8 g     F .text	00000000000002bc mpa_add
000000000000f188 g     F .text	00000000000001b8 mpa_exp_mod
0000000000000738 g     F .text	0000000000000090 TEE_GetObjectInfo1
000000000000d604 g     F .text	0000000000000130 __mpa_shift_words_right
0000000000009638 g     F .text	0000000000000050 trace_set_level
00000000000108c0 g     F .text	000000000000000c utee_se_session_is_closed
00000000000106f8 g     F .text	000000000000000c utee_cryp_obj_get_info
0000000000000a0c g     F .text	000000000000014c TEE_GetObjectValueAttribute
00000000000107f4 g     F .text	000000000000000c utee_storage_alloc_enum
000000000001080c g     F .text	000000000000000c utee_storage_reset_enum
0000000000010848 g     F .text	000000000000000c utee_storage_obj_trunc
0000000000010318 g     F .text	000000000000003c mpa_mod
000000000000ef44 g     F .text	0000000000000030 __mpa_abs_greater_than
0000000000002b68 g     F .text	0000000000000094 TEE_BigIntConvertToS32
0000000000002d58 g     F .text	0000000000000058 TEE_BigIntSub
0000000000010638 g     F .text	000000000000000c utee_get_cancellation_flag
00000000000106b0 g     F .text	000000000000000c utee_hash_init
0000000000000498 g     F .text	0000000000000008 tahead_get_trace_level
0000000000003620 g     F .text	0000000000000188 __utee_from_param
00000000000020ec g     F .text	0000000000000184 TEE_SeekObjectData
0000000000011a08 g     O .rodata	0000000000000010 Const_1_LShift_Base
00000000000037a8 g     F .text	0000000000000140 __utee_to_param
0000000000006784 g     F .text	000000000000003c memalign
0000000000002b38 g     F .text	0000000000000030 TEE_BigIntConvertFromS32
00000000000103c4 g     F .text	0000000000000070 mpa_sub_mod
0000000000010704 g     F .text	000000000000000c utee_cryp_obj_restrict_usage
000000000000698c g     F .text	00000000000000cc malloc_buffer_is_within_alloced
000000000001074c g     F .text	000000000000000c utee_cryp_obj_copy
000000000000dabc g     F .text	0000000000000310 mpa_shift_right
0000000000002914 g     F .text	000000000000006c TEE_BigIntInitFMMContext
0000000000010758 g     F .text	000000000000000c utee_cryp_derive_key
000000000000a29c g     F .text	00000000000001e0 __mpa_montgomery_mul
0000000000010158 g     F .text	00000000000001c0 mpa_get_oct_str
000000000000f07c g     F .text	000000000000010c mpa_cmp_short
00000000000107a0 g     F .text	000000000000000c utee_authenc_dec_final
0000000000001f60 g     F .text	00000000000000d4 TEE_WriteObjectData
0000000000001c38 g     F .text	0000000000000070 TEE_ResetPersistentObjectEnumerator
000000000000edc0 g     F .text	0000000000000184 __mpa_abs_cmp
0000000000002e40 g     F .text	000000000000004c TEE_BigIntSquare
0000000000000020 g     F .text	0000000000000038 TA_CreateEntryPoint
00000000000073ec g     F .text	00000000000000b8 snprintk
0000000000002cd8 g     F .text	0000000000000028 TEE_BigIntGetBitCount
0000000000003138 g     F .text	00000000000000fc TEE_BigIntMulMod
0000000000002270 g     F .text	0000000000000014 __TEE_Panic
000000000001b140 g     O .bss	0000000000000040 ta_params
000000000000ced4 g     F .text	00000000000001a0 __mpa_abs_mul
0000000000004db0 g     F .text	0000000000000318 bget
0000000000000bc8 g     F .text	00000000000000b0 TEE_AllocateTransientObject
0000000000003fec g     F .text	0000000000000020 TEE_Free
000000000001089c g     F .text	000000000000000c utee_se_reader_get_name
000000000000405c g     F .text	0000000000000028 TEE_CacheInvalidate
00000000000106d4 g     F .text	000000000000000c utee_cipher_init
0000000000004da0 g     F .text	0000000000000010 _assert_break
0000000000002fc0 g     F .text	00000000000000bc TEE_BigIntAddMod
0000000000010800 g     F .text	000000000000000c utee_storage_free_enum
000000000001077c g     F .text	000000000000000c utee_authenc_update_aad
0000000000009efc g     F .text	0000000000000094 mpa_get_bit
000000000000c980 g     F .text	000000000000003c mpa_init_scratch_mem
0000000000003cb8 g     F .text	0000000000000030 TEE_MemCompare
0000000000007508 g     F .text	00000000000000d8 __vsnprintf
0000000000001bc8 g     F .text	0000000000000070 TEE_FreePersistentObjectEnumerator
00000000000038e8 g     F .text	000000000000009c TEE_OpenTASession
00000000000105f0 g     F .text	000000000000000c utee_panic
0000000000004b20 g     F .text	000000000000002c trace_ext_puts
0000000000004ad8 g     F .text	0000000000000048 tee_user_mem_garbage
0000000000004b4c g     F .text	0000000000000008 trace_ext_get_thread_id
0000000000001930 g     F .text	0000000000000070 TEE_CloseAndDeletePersistentObject
000000000000400c g     F .text	0000000000000028 TEE_CacheClean
0000000000010614 g     F .text	000000000000000c utee_open_ta_session
000000000000ae70 g     F .text	0000000000000044 __mpa_div_dword
0000000000009cd4 g     F .text	0000000000000068 __mpa_set_unused_digits_to_zero
00000000000119f8 g     O .rodata	000000000000000c const_largest_deci_base
000000000000f9ec g     F .text	0000000000000008 mpa_get_str_size
00000000000049c4 g     F .text	0000000000000084 tee_user_mem_check_heap
00000000000012e0 g     F .text	0000000000000198 TEE_CopyObjectAttributes1
00000000000106c8 g     F .text	000000000000000c utee_hash_final
0000000000007308 g     F .text	00000000000000e4 strlen
0000000000003388 g     F .text	0000000000000078 TEE_BigIntComputeExtendedGcd
000000000000c5fc g     F .text	0000000000000310 mpa_extended_gcd
0000000000010354 g     F .text	0000000000000070 mpa_add_mod
00000000000107c4 g     F .text	000000000000000c utee_storage_obj_open
000000000001062c g     F .text	000000000000000c utee_invoke_ta_command
000000000000fe3c g     F .text	00000000000000c0 mpa_get_str
0000000000010668 g     F .text	000000000000000c utee_wait
00000000000040f0 g     F .text	0000000000000020 utee_free
00000000000049b0 g     F .text	0000000000000014 tee_user_mem_mark_heap
0000000000003d1c g     F .text	0000000000000064 TEE_GetSystemTime
0000000000000000 g     O .ta_head	0000000000000020 ta_head
000000000000526c g     F .text	0000000000000408 brel
000000000000c9bc g     F .text	00000000000001f4 mpa_alloc_static_temp_var_size
0000000000010674 g     F .text	000000000000000c utee_get_time
0000000000009ffc g     F .text	0000000000000148 __mpa_montgomery_mul_add
0000000000003c54 g     F .text	0000000000000024 TEE_SetInstanceData
0000000000010650 g     F .text	000000000000000c utee_unmask_cancellation
0000000000010644 g     F .text	000000000000000c utee_check_access_rights
00000000000108b4 g     F .text	000000000000000c utee_se_reader_close_sessions
0000000000001d5c g     F .text	0000000000000124 TEE_GetNextPersistentObject
0000000000010860 g     F .text	000000000000000c utee_cryp_obj_generate_key
0000000000003984 g     F .text	000000000000006c TEE_CloseTASession
0000000000009ff0 g     F .text	000000000000000c mpa_constant_one
0000000000005970 g     F .text	000000000000002c malloc_get_max_allocated
000000000000ddcc g     F .text	0000000000000064 __mpa_full_adder
000000000000e240 g     F .text	0000000000000198 __mpa_abs_sub
00000000000066c0 g     F .text	0000000000000028 free
00000000000057d4 g     F .text	000000000000011c bstats



Disassembly of section .text:

0000000000000020 <TA_CreateEntryPoint>:
TA_CreateEntryPoint():
/home/optee/RPi3/tuffpassTEE/ta/hello_world_ta.c:42
      20:	a9bf7bfd 	stp	x29, x30, [sp,#-16]!
      24:	910003fd 	mov	x29, sp
/home/optee/RPi3/tuffpassTEE/ta/hello_world_ta.c:43
      28:	90000080 	adrp	x0, 10000 <mpa_set_oct_str+0x80>
      2c:	9124c001 	add	x1, x0, #0x930
      30:	90000080 	adrp	x0, 10000 <mpa_set_oct_str+0x80>
      34:	9126c000 	add	x0, x0, #0x9b0
      38:	aa0103e4 	mov	x4, x1
      3c:	52800023 	mov	w3, #0x1                   	// #1
      40:	52800062 	mov	w2, #0x3                   	// #3
      44:	52800561 	mov	w1, #0x2b                  	// #43
      48:	940025b1 	bl	970c <trace_printf>
/home/optee/RPi3/tuffpassTEE/ta/hello_world_ta.c:44
      4c:	52800000 	mov	w0, #0x0                   	// #0
/home/optee/RPi3/tuffpassTEE/ta/hello_world_ta.c:45
      50:	a8c17bfd 	ldp	x29, x30, [sp],#16
      54:	d65f03c0 	ret

0000000000000058 <TA_DestroyEntryPoint>:
TA_DestroyEntryPoint():
/home/optee/RPi3/tuffpassTEE/ta/hello_world_ta.c:52
      58:	a9bf7bfd 	stp	x29, x30, [sp,#-16]!
      5c:	910003fd 	mov	x29, sp
/home/optee/RPi3/tuffpassTEE/ta/hello_world_ta.c:53
      60:	90000080 	adrp	x0, 10000 <mpa_set_oct_str+0x80>
      64:	9124c001 	add	x1, x0, #0x930
      68:	90000080 	adrp	x0, 10000 <mpa_set_oct_str+0x80>
      6c:	91272000 	add	x0, x0, #0x9c8
      70:	aa0103e4 	mov	x4, x1
      74:	52800023 	mov	w3, #0x1                   	// #1
      78:	52800062 	mov	w2, #0x3                   	// #3
      7c:	528006a1 	mov	w1, #0x35                  	// #53
      80:	940025a3 	bl	970c <trace_printf>
/home/optee/RPi3/tuffpassTEE/ta/hello_world_ta.c:54
      84:	d503201f 	nop
      88:	a8c17bfd 	ldp	x29, x30, [sp],#16
      8c:	d65f03c0 	ret

0000000000000090 <TA_OpenSessionEntryPoint>:
TA_OpenSessionEntryPoint():
/home/optee/RPi3/tuffpassTEE/ta/hello_world_ta.c:73
      90:	a9bc7bfd 	stp	x29, x30, [sp,#-64]!
      94:	910003fd 	mov	x29, sp
      98:	b9002fa0 	str	w0, [x29,#44]
      9c:	f90013a1 	str	x1, [x29,#32]
      a0:	f9000fa2 	str	x2, [x29,#24]
/home/optee/RPi3/tuffpassTEE/ta/hello_world_ta.c:74
      a4:	b9003fbf 	str	wzr, [x29,#60]
/home/optee/RPi3/tuffpassTEE/ta/hello_world_ta.c:83
      a8:	b9402fa1 	ldr	w1, [x29,#44]
      ac:	b9403fa0 	ldr	w0, [x29,#60]
      b0:	6b00003f 	cmp	w1, w0
      b4:	54000060 	b.eq	c0 <TA_OpenSessionEntryPoint+0x30>
/home/optee/RPi3/tuffpassTEE/ta/hello_world_ta.c:84
      b8:	129fff20 	mov	w0, #0xffff0006            	// #-65530
      bc:	1400000b 	b	e8 <TA_OpenSessionEntryPoint+0x58>
/home/optee/RPi3/tuffpassTEE/ta/hello_world_ta.c:94
      c0:	90000080 	adrp	x0, 10000 <mpa_set_oct_str+0x80>
      c4:	91250001 	add	x1, x0, #0x940
      c8:	90000080 	adrp	x0, 10000 <mpa_set_oct_str+0x80>
      cc:	91278000 	add	x0, x0, #0x9e0
      d0:	aa0103e4 	mov	x4, x1
      d4:	52800023 	mov	w3, #0x1                   	// #1
      d8:	52800062 	mov	w2, #0x3                   	// #3
      dc:	52800bc1 	mov	w1, #0x5e                  	// #94
      e0:	9400258b 	bl	970c <trace_printf>
/home/optee/RPi3/tuffpassTEE/ta/hello_world_ta.c:97
      e4:	52800000 	mov	w0, #0x0                   	// #0
/home/optee/RPi3/tuffpassTEE/ta/hello_world_ta.c:98
      e8:	a8c47bfd 	ldp	x29, x30, [sp],#64
      ec:	d65f03c0 	ret

00000000000000f0 <TA_CloseSessionEntryPoint>:
TA_CloseSessionEntryPoint():
/home/optee/RPi3/tuffpassTEE/ta/hello_world_ta.c:105
      f0:	a9be7bfd 	stp	x29, x30, [sp,#-32]!
      f4:	910003fd 	mov	x29, sp
      f8:	f9000fa0 	str	x0, [x29,#24]
/home/optee/RPi3/tuffpassTEE/ta/hello_world_ta.c:107
      fc:	90000080 	adrp	x0, 10000 <mpa_set_oct_str+0x80>
     100:	91254001 	add	x1, x0, #0x950
     104:	90000080 	adrp	x0, 10000 <mpa_set_oct_str+0x80>
     108:	91280000 	add	x0, x0, #0xa00
     10c:	aa0103e4 	mov	x4, x1
     110:	52800023 	mov	w3, #0x1                   	// #1
     114:	52800062 	mov	w2, #0x3                   	// #3
     118:	52800d61 	mov	w1, #0x6b                  	// #107
     11c:	9400257c 	bl	970c <trace_printf>
/home/optee/RPi3/tuffpassTEE/ta/hello_world_ta.c:108
     120:	d503201f 	nop
     124:	a8c27bfd 	ldp	x29, x30, [sp],#32
     128:	d65f03c0 	ret

000000000000012c <inc_value>:
inc_value():
/home/optee/RPi3/tuffpassTEE/ta/hello_world_ta.c:112
     12c:	a9bd7bfd 	stp	x29, x30, [sp,#-48]!
     130:	910003fd 	mov	x29, sp
     134:	b9001fa0 	str	w0, [x29,#28]
     138:	f9000ba1 	str	x1, [x29,#16]
/home/optee/RPi3/tuffpassTEE/ta/hello_world_ta.c:113
     13c:	52800060 	mov	w0, #0x3                   	// #3
     140:	b9002fa0 	str	w0, [x29,#44]
/home/optee/RPi3/tuffpassTEE/ta/hello_world_ta.c:118
     144:	90000080 	adrp	x0, 10000 <mpa_set_oct_str+0x80>
     148:	9124c001 	add	x1, x0, #0x930
     14c:	90000080 	adrp	x0, 10000 <mpa_set_oct_str+0x80>
     150:	91288000 	add	x0, x0, #0xa20
     154:	aa0103e4 	mov	x4, x1
     158:	52800023 	mov	w3, #0x1                   	// #1
     15c:	52800062 	mov	w2, #0x3                   	// #3
     160:	52800ec1 	mov	w1, #0x76                  	// #118
     164:	9400256a 	bl	970c <trace_printf>
/home/optee/RPi3/tuffpassTEE/ta/hello_world_ta.c:119
     168:	b9401fa1 	ldr	w1, [x29,#28]
     16c:	b9402fa0 	ldr	w0, [x29,#44]
     170:	6b00003f 	cmp	w1, w0
     174:	54000060 	b.eq	180 <inc_value+0x54>
/home/optee/RPi3/tuffpassTEE/ta/hello_world_ta.c:120
     178:	129fff20 	mov	w0, #0xffff0006            	// #-65530
     17c:	1400001f 	b	1f8 <inc_value+0xcc>
/home/optee/RPi3/tuffpassTEE/ta/hello_world_ta.c:122
     180:	f9400ba0 	ldr	x0, [x29,#16]
     184:	b9400002 	ldr	w2, [x0]
     188:	90000080 	adrp	x0, 10000 <mpa_set_oct_str+0x80>
     18c:	91258001 	add	x1, x0, #0x960
     190:	90000080 	adrp	x0, 10000 <mpa_set_oct_str+0x80>
     194:	91288000 	add	x0, x0, #0xa20
     198:	2a0203e5 	mov	w5, w2
     19c:	aa0103e4 	mov	x4, x1
     1a0:	52800023 	mov	w3, #0x1                   	// #1
     1a4:	52800062 	mov	w2, #0x3                   	// #3
     1a8:	52800f41 	mov	w1, #0x7a                  	// #122
     1ac:	94002558 	bl	970c <trace_printf>
/home/optee/RPi3/tuffpassTEE/ta/hello_world_ta.c:123
     1b0:	f9400ba0 	ldr	x0, [x29,#16]
     1b4:	b9400000 	ldr	w0, [x0]
     1b8:	11000401 	add	w1, w0, #0x1
     1bc:	f9400ba0 	ldr	x0, [x29,#16]
     1c0:	b9000001 	str	w1, [x0]
/home/optee/RPi3/tuffpassTEE/ta/hello_world_ta.c:124
     1c4:	f9400ba0 	ldr	x0, [x29,#16]
     1c8:	b9400002 	ldr	w2, [x0]
     1cc:	90000080 	adrp	x0, 10000 <mpa_set_oct_str+0x80>
     1d0:	9125e001 	add	x1, x0, #0x978
     1d4:	90000080 	adrp	x0, 10000 <mpa_set_oct_str+0x80>
     1d8:	91288000 	add	x0, x0, #0xa20
     1dc:	2a0203e5 	mov	w5, w2
     1e0:	aa0103e4 	mov	x4, x1
     1e4:	52800023 	mov	w3, #0x1                   	// #1
     1e8:	52800062 	mov	w2, #0x3                   	// #3
     1ec:	52800f81 	mov	w1, #0x7c                  	// #124
     1f0:	94002547 	bl	970c <trace_printf>
/home/optee/RPi3/tuffpassTEE/ta/hello_world_ta.c:125
     1f4:	52800000 	mov	w0, #0x0                   	// #0
/home/optee/RPi3/tuffpassTEE/ta/hello_world_ta.c:126
     1f8:	a8c37bfd 	ldp	x29, x30, [sp],#48
     1fc:	d65f03c0 	ret

0000000000000200 <create_object>:
create_object():
/home/optee/RPi3/tuffpassTEE/ta/hello_world_ta.c:131
     200:	a9bd7bfd 	stp	x29, x30, [sp,#-48]!
     204:	910003fd 	mov	x29, sp
     208:	b9001fa0 	str	w0, [x29,#28]
     20c:	f9000ba1 	str	x1, [x29,#16]
/home/optee/RPi3/tuffpassTEE/ta/hello_world_ta.c:132
     210:	528a26a0 	mov	w0, #0x5135                	// #20789
     214:	b9002fa0 	str	w0, [x29,#44]
/home/optee/RPi3/tuffpassTEE/ta/hello_world_ta.c:139
     218:	90000080 	adrp	x0, 10000 <mpa_set_oct_str+0x80>
     21c:	9124c001 	add	x1, x0, #0x930
     220:	90000080 	adrp	x0, 10000 <mpa_set_oct_str+0x80>
     224:	9128c000 	add	x0, x0, #0xa30
     228:	aa0103e4 	mov	x4, x1
     22c:	52800023 	mov	w3, #0x1                   	// #1
     230:	52800062 	mov	w2, #0x3                   	// #3
     234:	52801161 	mov	w1, #0x8b                  	// #139
     238:	94002535 	bl	970c <trace_printf>
/home/optee/RPi3/tuffpassTEE/ta/hello_world_ta.c:140
     23c:	b9401fa1 	ldr	w1, [x29,#28]
     240:	b9402fa0 	ldr	w0, [x29,#44]
     244:	6b00003f 	cmp	w1, w0
     248:	54000060 	b.eq	254 <create_object+0x54>
/home/optee/RPi3/tuffpassTEE/ta/hello_world_ta.c:141
     24c:	129fff20 	mov	w0, #0xffff0006            	// #-65530
     250:	14000035 	b	324 <create_object+0x124>
/home/optee/RPi3/tuffpassTEE/ta/hello_world_ta.c:144
     254:	90000080 	adrp	x0, 10000 <mpa_set_oct_str+0x80>
     258:	91264001 	add	x1, x0, #0x990
     25c:	90000080 	adrp	x0, 10000 <mpa_set_oct_str+0x80>
     260:	9128c000 	add	x0, x0, #0xa30
     264:	aa0103e4 	mov	x4, x1
     268:	52800023 	mov	w3, #0x1                   	// #1
     26c:	52800062 	mov	w2, #0x3                   	// #3
     270:	52801201 	mov	w1, #0x90                  	// #144
     274:	94002526 	bl	970c <trace_printf>
/home/optee/RPi3/tuffpassTEE/ta/hello_world_ta.c:147
     278:	f9400ba0 	ldr	x0, [x29,#16]
     27c:	91008000 	add	x0, x0, #0x20
     280:	b9400408 	ldr	w8, [x0,#4]
     284:	f9400ba0 	ldr	x0, [x29,#16]
     288:	f9400001 	ldr	x1, [x0]
     28c:	f9400ba0 	ldr	x0, [x29,#16]
     290:	b9400802 	ldr	w2, [x0,#8]
/home/optee/RPi3/tuffpassTEE/ta/hello_world_ta.c:149
     294:	f9400ba0 	ldr	x0, [x29,#16]
     298:	91004000 	add	x0, x0, #0x10
/home/optee/RPi3/tuffpassTEE/ta/hello_world_ta.c:147
     29c:	b9400003 	ldr	w3, [x0]
/home/optee/RPi3/tuffpassTEE/ta/hello_world_ta.c:150
     2a0:	f9400ba0 	ldr	x0, [x29,#16]
     2a4:	91008000 	add	x0, x0, #0x20
     2a8:	b9400000 	ldr	w0, [x0]
     2ac:	2a0003e0 	mov	w0, w0
/home/optee/RPi3/tuffpassTEE/ta/hello_world_ta.c:147
     2b0:	aa0003e9 	mov	x9, x0
/home/optee/RPi3/tuffpassTEE/ta/hello_world_ta.c:151
     2b4:	f9400ba0 	ldr	x0, [x29,#16]
     2b8:	9100c000 	add	x0, x0, #0x30
     2bc:	f9400004 	ldr	x4, [x0]
     2c0:	f9400ba0 	ldr	x0, [x29,#16]
     2c4:	9100c000 	add	x0, x0, #0x30
/home/optee/RPi3/tuffpassTEE/ta/hello_world_ta.c:147
     2c8:	b9400800 	ldr	w0, [x0,#8]
     2cc:	910083a5 	add	x5, x29, #0x20
     2d0:	aa0503e7 	mov	x7, x5
     2d4:	2a0003e6 	mov	w6, w0
     2d8:	aa0403e5 	mov	x5, x4
     2dc:	aa0903e4 	mov	x4, x9
     2e0:	2a0803e0 	mov	w0, w8
     2e4:	94000523 	bl	1770 <TEE_CreatePersistentObject>
     2e8:	b9002ba0 	str	w0, [x29,#40]
/home/optee/RPi3/tuffpassTEE/ta/hello_world_ta.c:152
     2ec:	f9400ba0 	ldr	x0, [x29,#16]
     2f0:	91004000 	add	x0, x0, #0x10
     2f4:	f94013a1 	ldr	x1, [x29,#32]
     2f8:	b9000401 	str	w1, [x0,#4]
/home/optee/RPi3/tuffpassTEE/ta/hello_world_ta.c:153
     2fc:	90000080 	adrp	x0, 10000 <mpa_set_oct_str+0x80>
     300:	91268001 	add	x1, x0, #0x9a0
     304:	90000080 	adrp	x0, 10000 <mpa_set_oct_str+0x80>
     308:	9128c000 	add	x0, x0, #0xa30
     30c:	aa0103e4 	mov	x4, x1
     310:	52800023 	mov	w3, #0x1                   	// #1
     314:	52800062 	mov	w2, #0x3                   	// #3
     318:	52801321 	mov	w1, #0x99                  	// #153
     31c:	940024fc 	bl	970c <trace_printf>
/home/optee/RPi3/tuffpassTEE/ta/hello_world_ta.c:154
     320:	b9402ba0 	ldr	w0, [x29,#40]
/home/optee/RPi3/tuffpassTEE/ta/hello_world_ta.c:155 (discriminator 1)
     324:	a8c37bfd 	ldp	x29, x30, [sp],#48
     328:	d65f03c0 	ret

000000000000032c <open_object>:
open_object():
/home/optee/RPi3/tuffpassTEE/ta/hello_world_ta.c:159
     32c:	a9bd7bfd 	stp	x29, x30, [sp,#-48]!
     330:	910003fd 	mov	x29, sp
     334:	b9001fa0 	str	w0, [x29,#28]
     338:	f9000ba1 	str	x1, [x29,#16]
/home/optee/RPi3/tuffpassTEE/ta/hello_world_ta.c:160
     33c:	528026a0 	mov	w0, #0x135                 	// #309
     340:	b9002fa0 	str	w0, [x29,#44]
/home/optee/RPi3/tuffpassTEE/ta/hello_world_ta.c:167
     344:	90000080 	adrp	x0, 10000 <mpa_set_oct_str+0x80>
     348:	9124c001 	add	x1, x0, #0x930
     34c:	90000080 	adrp	x0, 10000 <mpa_set_oct_str+0x80>
     350:	91290000 	add	x0, x0, #0xa40
     354:	aa0103e4 	mov	x4, x1
     358:	52800023 	mov	w3, #0x1                   	// #1
     35c:	52800062 	mov	w2, #0x3                   	// #3
     360:	528014e1 	mov	w1, #0xa7                  	// #167
     364:	940024ea 	bl	970c <trace_printf>
/home/optee/RPi3/tuffpassTEE/ta/hello_world_ta.c:168
     368:	b9401fa1 	ldr	w1, [x29,#28]
     36c:	b9402fa0 	ldr	w0, [x29,#44]
     370:	6b00003f 	cmp	w1, w0
     374:	54000060 	b.eq	380 <open_object+0x54>
/home/optee/RPi3/tuffpassTEE/ta/hello_world_ta.c:169
     378:	129fff20 	mov	w0, #0xffff0006            	// #-65530
     37c:	14000028 	b	41c <open_object+0xf0>
/home/optee/RPi3/tuffpassTEE/ta/hello_world_ta.c:172
     380:	90000080 	adrp	x0, 10000 <mpa_set_oct_str+0x80>
     384:	91264001 	add	x1, x0, #0x990
     388:	90000080 	adrp	x0, 10000 <mpa_set_oct_str+0x80>
     38c:	91290000 	add	x0, x0, #0xa40
     390:	aa0103e4 	mov	x4, x1
     394:	52800023 	mov	w3, #0x1                   	// #1
     398:	52800062 	mov	w2, #0x3                   	// #3
     39c:	52801581 	mov	w1, #0xac                  	// #172
     3a0:	940024db 	bl	970c <trace_printf>
/home/optee/RPi3/tuffpassTEE/ta/hello_world_ta.c:175
     3a4:	f9400ba0 	ldr	x0, [x29,#16]
     3a8:	91008000 	add	x0, x0, #0x20
     3ac:	b9400005 	ldr	w5, [x0]
     3b0:	f9400ba0 	ldr	x0, [x29,#16]
     3b4:	f9400001 	ldr	x1, [x0]
     3b8:	f9400ba0 	ldr	x0, [x29,#16]
     3bc:	b9400802 	ldr	w2, [x0,#8]
/home/optee/RPi3/tuffpassTEE/ta/hello_world_ta.c:178
     3c0:	f9400ba0 	ldr	x0, [x29,#16]
     3c4:	91004000 	add	x0, x0, #0x10
/home/optee/RPi3/tuffpassTEE/ta/hello_world_ta.c:175
     3c8:	b9400000 	ldr	w0, [x0]
     3cc:	910083a3 	add	x3, x29, #0x20
     3d0:	aa0303e4 	mov	x4, x3
     3d4:	2a0003e3 	mov	w3, w0
     3d8:	2a0503e0 	mov	w0, w5
     3dc:	9400048c 	bl	160c <TEE_OpenPersistentObject>
     3e0:	b9002ba0 	str	w0, [x29,#40]
/home/optee/RPi3/tuffpassTEE/ta/hello_world_ta.c:180
     3e4:	f9400ba0 	ldr	x0, [x29,#16]
     3e8:	91004000 	add	x0, x0, #0x10
     3ec:	f94013a1 	ldr	x1, [x29,#32]
     3f0:	b9000401 	str	w1, [x0,#4]
/home/optee/RPi3/tuffpassTEE/ta/hello_world_ta.c:181
     3f4:	90000080 	adrp	x0, 10000 <mpa_set_oct_str+0x80>
     3f8:	91268001 	add	x1, x0, #0x9a0
     3fc:	90000080 	adrp	x0, 10000 <mpa_set_oct_str+0x80>
     400:	91290000 	add	x0, x0, #0xa40
     404:	aa0103e4 	mov	x4, x1
     408:	52800023 	mov	w3, #0x1                   	// #1
     40c:	52800062 	mov	w2, #0x3                   	// #3
     410:	528016a1 	mov	w1, #0xb5                  	// #181
     414:	940024be 	bl	970c <trace_printf>
/home/optee/RPi3/tuffpassTEE/ta/hello_world_ta.c:182
     418:	b9402ba0 	ldr	w0, [x29,#40]
/home/optee/RPi3/tuffpassTEE/ta/hello_world_ta.c:183 (discriminator 1)
     41c:	a8c37bfd 	ldp	x29, x30, [sp],#48
     420:	d65f03c0 	ret

0000000000000424 <TA_InvokeCommandEntryPoint>:
TA_InvokeCommandEntryPoint():
/home/optee/RPi3/tuffpassTEE/ta/hello_world_ta.c:192
     424:	a9bd7bfd 	stp	x29, x30, [sp,#-48]!
     428:	910003fd 	mov	x29, sp
     42c:	f90017a0 	str	x0, [x29,#40]
     430:	b90027a1 	str	w1, [x29,#36]
     434:	b90023a2 	str	w2, [x29,#32]
     438:	f9000fa3 	str	x3, [x29,#24]
/home/optee/RPi3/tuffpassTEE/ta/hello_world_ta.c:195
     43c:	b94027a0 	ldr	w0, [x29,#36]
     440:	7100041f 	cmp	w0, #0x1
     444:	54000140 	b.eq	46c <TA_InvokeCommandEntryPoint+0x48>
     448:	7100041f 	cmp	w0, #0x1
     44c:	54000083 	b.cc	45c <TA_InvokeCommandEntryPoint+0x38>
     450:	7100081f 	cmp	w0, #0x2
     454:	54000140 	b.eq	47c <TA_InvokeCommandEntryPoint+0x58>
     458:	1400000d 	b	48c <TA_InvokeCommandEntryPoint+0x68>
/home/optee/RPi3/tuffpassTEE/ta/hello_world_ta.c:197
     45c:	f9400fa1 	ldr	x1, [x29,#24]
     460:	b94023a0 	ldr	w0, [x29,#32]
     464:	97ffff32 	bl	12c <inc_value>
     468:	1400000a 	b	490 <TA_InvokeCommandEntryPoint+0x6c>
/home/optee/RPi3/tuffpassTEE/ta/hello_world_ta.c:199
     46c:	f9400fa1 	ldr	x1, [x29,#24]
     470:	b94023a0 	ldr	w0, [x29,#32]
     474:	97ffff63 	bl	200 <create_object>
     478:	14000006 	b	490 <TA_InvokeCommandEntryPoint+0x6c>
/home/optee/RPi3/tuffpassTEE/ta/hello_world_ta.c:201
     47c:	f9400fa1 	ldr	x1, [x29,#24]
     480:	b94023a0 	ldr	w0, [x29,#32]
     484:	97ffffaa 	bl	32c <open_object>
     488:	14000002 	b	490 <TA_InvokeCommandEntryPoint+0x6c>
/home/optee/RPi3/tuffpassTEE/ta/hello_world_ta.c:215
     48c:	129fff20 	mov	w0, #0xffff0006            	// #-65530
/home/optee/RPi3/tuffpassTEE/ta/hello_world_ta.c:217
     490:	a8c37bfd 	ldp	x29, x30, [sp],#48
     494:	d65f03c0 	ret

0000000000000498 <tahead_get_trace_level>:
tahead_get_trace_level():
/home/optee/RPi3/optee_os/out/arm/export-ta_arm64/src/user_ta_header.c:132
     498:	52800080 	mov	w0, #0x4                   	// #4
/home/optee/RPi3/optee_os/out/arm/export-ta_arm64/src/user_ta_header.c:133
     49c:	d65f03c0 	ret

00000000000004a0 <__utee_from_attr>:
__utee_from_attr():
/home/optee/RPi3/optee_os/lib/libutee/tee_api_objects.c:43
     4a0:	d100c3ff 	sub	sp, sp, #0x30
     4a4:	f9000fe0 	str	x0, [sp,#24]
     4a8:	f9000be1 	str	x1, [sp,#16]
     4ac:	b9000fe2 	str	w2, [sp,#12]
/home/optee/RPi3/optee_os/lib/libutee/tee_api_objects.c:46
     4b0:	f90017ff 	str	xzr, [sp,#40]
     4b4:	1400006e 	b	66c <__utee_from_attr+0x1cc>
/home/optee/RPi3/optee_os/lib/libutee/tee_api_objects.c:47
     4b8:	f94017e1 	ldr	x1, [sp,#40]
     4bc:	aa0103e0 	mov	x0, x1
     4c0:	d37ff800 	lsl	x0, x0, #1
     4c4:	8b010000 	add	x0, x0, x1
     4c8:	d37df000 	lsl	x0, x0, #3
     4cc:	aa0003e1 	mov	x1, x0
     4d0:	f9400fe0 	ldr	x0, [sp,#24]
     4d4:	8b010002 	add	x2, x0, x1
     4d8:	f94017e1 	ldr	x1, [sp,#40]
     4dc:	aa0103e0 	mov	x0, x1
     4e0:	d37ff800 	lsl	x0, x0, #1
     4e4:	8b010000 	add	x0, x0, x1
     4e8:	d37df000 	lsl	x0, x0, #3
     4ec:	aa0003e1 	mov	x1, x0
     4f0:	f9400be0 	ldr	x0, [sp,#16]
     4f4:	8b010000 	add	x0, x0, x1
     4f8:	b9400000 	ldr	w0, [x0]
     4fc:	b9001040 	str	w0, [x2,#16]
/home/optee/RPi3/optee_os/lib/libutee/tee_api_objects.c:48
     500:	f94017e1 	ldr	x1, [sp,#40]
     504:	aa0103e0 	mov	x0, x1
     508:	d37ff800 	lsl	x0, x0, #1
     50c:	8b010000 	add	x0, x0, x1
     510:	d37df000 	lsl	x0, x0, #3
     514:	aa0003e1 	mov	x1, x0
     518:	f9400be0 	ldr	x0, [sp,#16]
     51c:	8b010000 	add	x0, x0, x1
     520:	b9400000 	ldr	w0, [x0]
     524:	12030000 	and	w0, w0, #0x20000000
     528:	6b1f001f 	cmp	w0, wzr
     52c:	54000500 	b.eq	5cc <__utee_from_attr+0x12c>
/home/optee/RPi3/optee_os/lib/libutee/tee_api_objects.c:49
     530:	f94017e1 	ldr	x1, [sp,#40]
     534:	aa0103e0 	mov	x0, x1
     538:	d37ff800 	lsl	x0, x0, #1
     53c:	8b010000 	add	x0, x0, x1
     540:	d37df000 	lsl	x0, x0, #3
     544:	aa0003e1 	mov	x1, x0
     548:	f9400fe0 	ldr	x0, [sp,#24]
     54c:	8b010002 	add	x2, x0, x1
     550:	f94017e1 	ldr	x1, [sp,#40]
     554:	aa0103e0 	mov	x0, x1
     558:	d37ff800 	lsl	x0, x0, #1
     55c:	8b010000 	add	x0, x0, x1
     560:	d37df000 	lsl	x0, x0, #3
     564:	aa0003e1 	mov	x1, x0
     568:	f9400be0 	ldr	x0, [sp,#16]
     56c:	8b010000 	add	x0, x0, x1
     570:	b9400800 	ldr	w0, [x0,#8]
     574:	2a0003e0 	mov	w0, w0
     578:	f9000040 	str	x0, [x2]
/home/optee/RPi3/optee_os/lib/libutee/tee_api_objects.c:50
     57c:	f94017e1 	ldr	x1, [sp,#40]
     580:	aa0103e0 	mov	x0, x1
     584:	d37ff800 	lsl	x0, x0, #1
     588:	8b010000 	add	x0, x0, x1
     58c:	d37df000 	lsl	x0, x0, #3
     590:	aa0003e1 	mov	x1, x0
     594:	f9400fe0 	ldr	x0, [sp,#24]
     598:	8b010002 	add	x2, x0, x1
     59c:	f94017e1 	ldr	x1, [sp,#40]
     5a0:	aa0103e0 	mov	x0, x1
     5a4:	d37ff800 	lsl	x0, x0, #1
     5a8:	8b010000 	add	x0, x0, x1
     5ac:	d37df000 	lsl	x0, x0, #3
     5b0:	aa0003e1 	mov	x1, x0
     5b4:	f9400be0 	ldr	x0, [sp,#16]
     5b8:	8b010000 	add	x0, x0, x1
     5bc:	b9400c00 	ldr	w0, [x0,#12]
     5c0:	2a0003e0 	mov	w0, w0
     5c4:	f9000440 	str	x0, [x2,#8]
     5c8:	14000026 	b	660 <__utee_from_attr+0x1c0>
/home/optee/RPi3/optee_os/lib/libutee/tee_api_objects.c:52
     5cc:	f94017e1 	ldr	x1, [sp,#40]
     5d0:	aa0103e0 	mov	x0, x1
     5d4:	d37ff800 	lsl	x0, x0, #1
     5d8:	8b010000 	add	x0, x0, x1
     5dc:	d37df000 	lsl	x0, x0, #3
     5e0:	aa0003e1 	mov	x1, x0
     5e4:	f9400fe0 	ldr	x0, [sp,#24]
     5e8:	8b010002 	add	x2, x0, x1
     5ec:	f94017e1 	ldr	x1, [sp,#40]
     5f0:	aa0103e0 	mov	x0, x1
     5f4:	d37ff800 	lsl	x0, x0, #1
     5f8:	8b010000 	add	x0, x0, x1
     5fc:	d37df000 	lsl	x0, x0, #3
     600:	aa0003e1 	mov	x1, x0
     604:	f9400be0 	ldr	x0, [sp,#16]
     608:	8b010000 	add	x0, x0, x1
     60c:	f9400400 	ldr	x0, [x0,#8]
     610:	f9000040 	str	x0, [x2]
/home/optee/RPi3/optee_os/lib/libutee/tee_api_objects.c:53
     614:	f94017e1 	ldr	x1, [sp,#40]
     618:	aa0103e0 	mov	x0, x1
     61c:	d37ff800 	lsl	x0, x0, #1
     620:	8b010000 	add	x0, x0, x1
     624:	d37df000 	lsl	x0, x0, #3
     628:	aa0003e1 	mov	x1, x0
     62c:	f9400fe0 	ldr	x0, [sp,#24]
     630:	8b010002 	add	x2, x0, x1
     634:	f94017e1 	ldr	x1, [sp,#40]
     638:	aa0103e0 	mov	x0, x1
     63c:	d37ff800 	lsl	x0, x0, #1
     640:	8b010000 	add	x0, x0, x1
     644:	d37df000 	lsl	x0, x0, #3
     648:	aa0003e1 	mov	x1, x0
     64c:	f9400be0 	ldr	x0, [sp,#16]
     650:	8b010000 	add	x0, x0, x1
     654:	b9401000 	ldr	w0, [x0,#16]
     658:	2a0003e0 	mov	w0, w0
     65c:	f9000440 	str	x0, [x2,#8]
/home/optee/RPi3/optee_os/lib/libutee/tee_api_objects.c:46 (discriminator 2)
     660:	f94017e0 	ldr	x0, [sp,#40]
     664:	91000400 	add	x0, x0, #0x1
     668:	f90017e0 	str	x0, [sp,#40]
/home/optee/RPi3/optee_os/lib/libutee/tee_api_objects.c:46 (discriminator 1)
     66c:	b9400fe1 	ldr	w1, [sp,#12]
     670:	f94017e0 	ldr	x0, [sp,#40]
     674:	eb00003f 	cmp	x1, x0
     678:	54fff208 	b.hi	4b8 <__utee_from_attr+0x18>
/home/optee/RPi3/optee_os/lib/libutee/tee_api_objects.c:56
     67c:	d503201f 	nop
     680:	9100c3ff 	add	sp, sp, #0x30
     684:	d65f03c0 	ret

0000000000000688 <TEE_GetObjectInfo>:
TEE_GetObjectInfo():
/home/optee/RPi3/optee_os/lib/libutee/tee_api_objects.c:66
     688:	a9bd7bfd 	stp	x29, x30, [sp,#-48]!
     68c:	910003fd 	mov	x29, sp
     690:	f9000fa0 	str	x0, [x29,#24]
     694:	f9000ba1 	str	x1, [x29,#16]
/home/optee/RPi3/optee_os/lib/libutee/tee_api_objects.c:69
     698:	f9400fa0 	ldr	x0, [x29,#24]
     69c:	f9400ba1 	ldr	x1, [x29,#16]
     6a0:	94004016 	bl	106f8 <utee_cryp_obj_get_info>
     6a4:	b9002fa0 	str	w0, [x29,#44]
/home/optee/RPi3/optee_os/lib/libutee/tee_api_objects.c:71
     6a8:	b9402fa0 	ldr	w0, [x29,#44]
     6ac:	6b1f001f 	cmp	w0, wzr
     6b0:	540001a0 	b.eq	6e4 <TEE_GetObjectInfo+0x5c>
/home/optee/RPi3/optee_os/lib/libutee/tee_api_objects.c:72
     6b4:	90000080 	adrp	x0, 10000 <mpa_set_oct_str+0x80>
     6b8:	912e0001 	add	x1, x0, #0xb80
     6bc:	90000080 	adrp	x0, 10000 <mpa_set_oct_str+0x80>
     6c0:	912e4000 	add	x0, x0, #0xb90
     6c4:	b9402fa5 	ldr	w5, [x29,#44]
     6c8:	aa0103e4 	mov	x4, x1
     6cc:	52800023 	mov	w3, #0x1                   	// #1
     6d0:	52800022 	mov	w2, #0x1                   	// #1
     6d4:	52800901 	mov	w1, #0x48                  	// #72
     6d8:	9400240d 	bl	970c <trace_printf>
     6dc:	b9402fa0 	ldr	w0, [x29,#44]
     6e0:	940006e4 	bl	2270 <__TEE_Panic>
/home/optee/RPi3/optee_os/lib/libutee/tee_api_objects.c:74
     6e4:	f9400ba0 	ldr	x0, [x29,#16]
     6e8:	b9400001 	ldr	w1, [x0]
     6ec:	528017c0 	mov	w0, #0xbe                  	// #190
     6f0:	72b40000 	movk	w0, #0xa000, lsl #16
     6f4:	6b00003f 	cmp	w1, w0
     6f8:	540001a1 	b.ne	72c <TEE_GetObjectInfo+0xa4>
/home/optee/RPi3/optee_os/lib/libutee/tee_api_objects.c:75
     6fc:	f9400ba0 	ldr	x0, [x29,#16]
     700:	b900041f 	str	wzr, [x0,#4]
/home/optee/RPi3/optee_os/lib/libutee/tee_api_objects.c:76
     704:	f9400ba0 	ldr	x0, [x29,#16]
     708:	b900081f 	str	wzr, [x0,#8]
/home/optee/RPi3/optee_os/lib/libutee/tee_api_objects.c:77
     70c:	f9400ba0 	ldr	x0, [x29,#16]
     710:	b9000c1f 	str	wzr, [x0,#12]
/home/optee/RPi3/optee_os/lib/libutee/tee_api_objects.c:78
     714:	f9400ba0 	ldr	x0, [x29,#16]
     718:	b900101f 	str	wzr, [x0,#16]
/home/optee/RPi3/optee_os/lib/libutee/tee_api_objects.c:79
     71c:	f9400ba0 	ldr	x0, [x29,#16]
     720:	b900141f 	str	wzr, [x0,#20]
/home/optee/RPi3/optee_os/lib/libutee/tee_api_objects.c:80
     724:	f9400ba0 	ldr	x0, [x29,#16]
     728:	b900181f 	str	wzr, [x0,#24]
/home/optee/RPi3/optee_os/lib/libutee/tee_api_objects.c:82
     72c:	d503201f 	nop
     730:	a8c37bfd 	ldp	x29, x30, [sp],#48
     734:	d65f03c0 	ret

0000000000000738 <TEE_GetObjectInfo1>:
TEE_GetObjectInfo1():
/home/optee/RPi3/optee_os/lib/libutee/tee_api_objects.c:85
     738:	a9bd7bfd 	stp	x29, x30, [sp,#-48]!
     73c:	910003fd 	mov	x29, sp
     740:	f9000fa0 	str	x0, [x29,#24]
     744:	f9000ba1 	str	x1, [x29,#16]
/home/optee/RPi3/optee_os/lib/libutee/tee_api_objects.c:88
     748:	f9400fa0 	ldr	x0, [x29,#24]
     74c:	f9400ba1 	ldr	x1, [x29,#16]
     750:	94003fea 	bl	106f8 <utee_cryp_obj_get_info>
     754:	b9002fa0 	str	w0, [x29,#44]
/home/optee/RPi3/optee_os/lib/libutee/tee_api_objects.c:90
     758:	b9402fa0 	ldr	w0, [x29,#44]
     75c:	6b1f001f 	cmp	w0, wzr
     760:	540002e0 	b.eq	7bc <TEE_GetObjectInfo1+0x84>
/home/optee/RPi3/optee_os/lib/libutee/tee_api_objects.c:90 (discriminator 1)
     764:	b9402fa1 	ldr	w1, [x29,#44]
     768:	52800020 	mov	w0, #0x1                   	// #1
     76c:	72be0200 	movk	w0, #0xf010, lsl #16
     770:	6b00003f 	cmp	w1, w0
     774:	54000240 	b.eq	7bc <TEE_GetObjectInfo1+0x84>
/home/optee/RPi3/optee_os/lib/libutee/tee_api_objects.c:91
     778:	b9402fa1 	ldr	w1, [x29,#44]
     77c:	52800060 	mov	w0, #0x3                   	// #3
     780:	72be0200 	movk	w0, #0xf010, lsl #16
     784:	6b00003f 	cmp	w1, w0
     788:	540001a0 	b.eq	7bc <TEE_GetObjectInfo1+0x84>
/home/optee/RPi3/optee_os/lib/libutee/tee_api_objects.c:93
     78c:	90000080 	adrp	x0, 10000 <mpa_set_oct_str+0x80>
     790:	912e0001 	add	x1, x0, #0xb80
     794:	90000080 	adrp	x0, 10000 <mpa_set_oct_str+0x80>
     798:	912ea000 	add	x0, x0, #0xba8
     79c:	b9402fa5 	ldr	w5, [x29,#44]
     7a0:	aa0103e4 	mov	x4, x1
     7a4:	52800023 	mov	w3, #0x1                   	// #1
     7a8:	52800022 	mov	w2, #0x1                   	// #1
     7ac:	52800ba1 	mov	w1, #0x5d                  	// #93
     7b0:	940023d7 	bl	970c <trace_printf>
     7b4:	b9402fa0 	ldr	w0, [x29,#44]
     7b8:	940006ae 	bl	2270 <__TEE_Panic>
/home/optee/RPi3/optee_os/lib/libutee/tee_api_objects.c:95
     7bc:	b9402fa0 	ldr	w0, [x29,#44]
/home/optee/RPi3/optee_os/lib/libutee/tee_api_objects.c:96
     7c0:	a8c37bfd 	ldp	x29, x30, [sp],#48
     7c4:	d65f03c0 	ret

00000000000007c8 <TEE_RestrictObjectUsage>:
TEE_RestrictObjectUsage():
/home/optee/RPi3/optee_os/lib/libutee/tee_api_objects.c:105
     7c8:	a9bc7bfd 	stp	x29, x30, [sp,#-64]!
     7cc:	910003fd 	mov	x29, sp
     7d0:	f9000fa0 	str	x0, [x29,#24]
     7d4:	b90017a1 	str	w1, [x29,#20]
/home/optee/RPi3/optee_os/lib/libutee/tee_api_objects.c:109
     7d8:	f9400fa0 	ldr	x0, [x29,#24]
     7dc:	910083a1 	add	x1, x29, #0x20
     7e0:	94003fc6 	bl	106f8 <utee_cryp_obj_get_info>
     7e4:	b9003fa0 	str	w0, [x29,#60]
/home/optee/RPi3/optee_os/lib/libutee/tee_api_objects.c:110
     7e8:	b94023a1 	ldr	w1, [x29,#32]
     7ec:	528017c0 	mov	w0, #0xbe                  	// #190
     7f0:	72b40000 	movk	w0, #0xa000, lsl #16
     7f4:	6b00003f 	cmp	w1, w0
     7f8:	540002a0 	b.eq	84c <TEE_RestrictObjectUsage+0x84>
/home/optee/RPi3/optee_os/lib/libutee/tee_api_objects.c:113
     7fc:	b94017a1 	ldr	w1, [x29,#20]
     800:	f9400fa0 	ldr	x0, [x29,#24]
     804:	94000015 	bl	858 <TEE_RestrictObjectUsage1>
     808:	b9003fa0 	str	w0, [x29,#60]
/home/optee/RPi3/optee_os/lib/libutee/tee_api_objects.c:115
     80c:	b9403fa0 	ldr	w0, [x29,#60]
     810:	6b1f001f 	cmp	w0, wzr
     814:	540001e0 	b.eq	850 <TEE_RestrictObjectUsage+0x88>
/home/optee/RPi3/optee_os/lib/libutee/tee_api_objects.c:116
     818:	90000080 	adrp	x0, 10000 <mpa_set_oct_str+0x80>
     81c:	912e0001 	add	x1, x0, #0xb80
     820:	90000080 	adrp	x0, 10000 <mpa_set_oct_str+0x80>
     824:	912f0000 	add	x0, x0, #0xbc0
     828:	52800005 	mov	w5, #0x0                   	// #0
     82c:	aa0103e4 	mov	x4, x1
     830:	52800023 	mov	w3, #0x1                   	// #1
     834:	52800022 	mov	w2, #0x1                   	// #1
     838:	52800e81 	mov	w1, #0x74                  	// #116
     83c:	940023b4 	bl	970c <trace_printf>
     840:	52800000 	mov	w0, #0x0                   	// #0
     844:	9400068b 	bl	2270 <__TEE_Panic>
     848:	14000002 	b	850 <TEE_RestrictObjectUsage+0x88>
/home/optee/RPi3/optee_os/lib/libutee/tee_api_objects.c:111
     84c:	d503201f 	nop
/home/optee/RPi3/optee_os/lib/libutee/tee_api_objects.c:117
     850:	a8c47bfd 	ldp	x29, x30, [sp],#64
     854:	d65f03c0 	ret

0000000000000858 <TEE_RestrictObjectUsage1>:
TEE_RestrictObjectUsage1():
/home/optee/RPi3/optee_os/lib/libutee/tee_api_objects.c:120
     858:	a9bd7bfd 	stp	x29, x30, [sp,#-48]!
     85c:	910003fd 	mov	x29, sp
     860:	f9000fa0 	str	x0, [x29,#24]
     864:	b90017a1 	str	w1, [x29,#20]
/home/optee/RPi3/optee_os/lib/libutee/tee_api_objects.c:123
     868:	f9400fa0 	ldr	x0, [x29,#24]
     86c:	b94017a1 	ldr	w1, [x29,#20]
     870:	94003fa5 	bl	10704 <utee_cryp_obj_restrict_usage>
     874:	b9002fa0 	str	w0, [x29,#44]
/home/optee/RPi3/optee_os/lib/libutee/tee_api_objects.c:125
     878:	b9402fa0 	ldr	w0, [x29,#44]
     87c:	6b1f001f 	cmp	w0, wzr
     880:	540002e0 	b.eq	8dc <TEE_RestrictObjectUsage1+0x84>
/home/optee/RPi3/optee_os/lib/libutee/tee_api_objects.c:125 (discriminator 1)
     884:	b9402fa1 	ldr	w1, [x29,#44]
     888:	52800020 	mov	w0, #0x1                   	// #1
     88c:	72be0200 	movk	w0, #0xf010, lsl #16
     890:	6b00003f 	cmp	w1, w0
     894:	54000240 	b.eq	8dc <TEE_RestrictObjectUsage1+0x84>
/home/optee/RPi3/optee_os/lib/libutee/tee_api_objects.c:126
     898:	b9402fa1 	ldr	w1, [x29,#44]
     89c:	52800060 	mov	w0, #0x3                   	// #3
     8a0:	72be0200 	movk	w0, #0xf010, lsl #16
     8a4:	6b00003f 	cmp	w1, w0
     8a8:	540001a0 	b.eq	8dc <TEE_RestrictObjectUsage1+0x84>
/home/optee/RPi3/optee_os/lib/libutee/tee_api_objects.c:128
     8ac:	90000080 	adrp	x0, 10000 <mpa_set_oct_str+0x80>
     8b0:	912e0001 	add	x1, x0, #0xb80
     8b4:	90000080 	adrp	x0, 10000 <mpa_set_oct_str+0x80>
     8b8:	912f6000 	add	x0, x0, #0xbd8
     8bc:	b9402fa5 	ldr	w5, [x29,#44]
     8c0:	aa0103e4 	mov	x4, x1
     8c4:	52800023 	mov	w3, #0x1                   	// #1
     8c8:	52800022 	mov	w2, #0x1                   	// #1
     8cc:	52801001 	mov	w1, #0x80                  	// #128
     8d0:	9400238f 	bl	970c <trace_printf>
     8d4:	b9402fa0 	ldr	w0, [x29,#44]
     8d8:	94000666 	bl	2270 <__TEE_Panic>
/home/optee/RPi3/optee_os/lib/libutee/tee_api_objects.c:130
     8dc:	b9402fa0 	ldr	w0, [x29,#44]
/home/optee/RPi3/optee_os/lib/libutee/tee_api_objects.c:131
     8e0:	a8c37bfd 	ldp	x29, x30, [sp],#48
     8e4:	d65f03c0 	ret

00000000000008e8 <TEE_GetObjectBufferAttribute>:
TEE_GetObjectBufferAttribute():
/home/optee/RPi3/optee_os/lib/libutee/tee_api_objects.c:136
     8e8:	a9ba7bfd 	stp	x29, x30, [sp,#-96]!
     8ec:	910003fd 	mov	x29, sp
     8f0:	f90017a0 	str	x0, [x29,#40]
     8f4:	b90027a1 	str	w1, [x29,#36]
     8f8:	f9000fa2 	str	x2, [x29,#24]
     8fc:	f9000ba3 	str	x3, [x29,#16]
/home/optee/RPi3/optee_os/lib/libutee/tee_api_objects.c:141
     900:	f94017a0 	ldr	x0, [x29,#40]
     904:	910103a1 	add	x1, x29, #0x40
     908:	94003f7c 	bl	106f8 <utee_cryp_obj_get_info>
     90c:	b9005fa0 	str	w0, [x29,#92]
/home/optee/RPi3/optee_os/lib/libutee/tee_api_objects.c:142
     910:	b9405fa0 	ldr	w0, [x29,#92]
     914:	6b1f001f 	cmp	w0, wzr
     918:	54000301 	b.ne	978 <TEE_GetObjectBufferAttribute+0x90>
/home/optee/RPi3/optee_os/lib/libutee/tee_api_objects.c:146
     91c:	b94027a0 	ldr	w0, [x29,#36]
     920:	12030000 	and	w0, w0, #0x20000000
     924:	6b1f001f 	cmp	w0, wzr
     928:	54000080 	b.eq	938 <TEE_GetObjectBufferAttribute+0x50>
/home/optee/RPi3/optee_os/lib/libutee/tee_api_objects.c:147
     92c:	129fff20 	mov	w0, #0xffff0006            	// #-65530
     930:	b9005fa0 	str	w0, [x29,#92]
/home/optee/RPi3/optee_os/lib/libutee/tee_api_objects.c:148
     934:	14000012 	b	97c <TEE_GetObjectBufferAttribute+0x94>
/home/optee/RPi3/optee_os/lib/libutee/tee_api_objects.c:151
     938:	f9400ba0 	ldr	x0, [x29,#16]
     93c:	b9400000 	ldr	w0, [x0]
     940:	2a0003e0 	mov	w0, w0
     944:	f9001fa0 	str	x0, [x29,#56]
/home/optee/RPi3/optee_os/lib/libutee/tee_api_objects.c:152
     948:	f94017a0 	ldr	x0, [x29,#40]
     94c:	b94027a1 	ldr	w1, [x29,#36]
     950:	9100e3a2 	add	x2, x29, #0x38
     954:	aa0203e3 	mov	x3, x2
     958:	f9400fa2 	ldr	x2, [x29,#24]
     95c:	94003f6d 	bl	10710 <utee_cryp_obj_get_attr>
     960:	b9005fa0 	str	w0, [x29,#92]
/home/optee/RPi3/optee_os/lib/libutee/tee_api_objects.c:154
     964:	f9401fa0 	ldr	x0, [x29,#56]
     968:	2a0003e1 	mov	w1, w0
     96c:	f9400ba0 	ldr	x0, [x29,#16]
     970:	b9000001 	str	w1, [x0]
     974:	14000002 	b	97c <TEE_GetObjectBufferAttribute+0x94>
/home/optee/RPi3/optee_os/lib/libutee/tee_api_objects.c:143
     978:	d503201f 	nop
/home/optee/RPi3/optee_os/lib/libutee/tee_api_objects.c:157
     97c:	b9405fa0 	ldr	w0, [x29,#92]
     980:	6b1f001f 	cmp	w0, wzr
     984:	540003e0 	b.eq	a00 <TEE_GetObjectBufferAttribute+0x118>
/home/optee/RPi3/optee_os/lib/libutee/tee_api_objects.c:157 (discriminator 1)
     988:	b9405fa1 	ldr	w1, [x29,#92]
     98c:	129ffee0 	mov	w0, #0xffff0008            	// #-65528
     990:	6b00003f 	cmp	w1, w0
     994:	54000360 	b.eq	a00 <TEE_GetObjectBufferAttribute+0x118>
/home/optee/RPi3/optee_os/lib/libutee/tee_api_objects.c:158
     998:	b9405fa1 	ldr	w1, [x29,#92]
     99c:	129ffde0 	mov	w0, #0xffff0010            	// #-65520
     9a0:	6b00003f 	cmp	w1, w0
     9a4:	540002e0 	b.eq	a00 <TEE_GetObjectBufferAttribute+0x118>
/home/optee/RPi3/optee_os/lib/libutee/tee_api_objects.c:159
     9a8:	b9405fa1 	ldr	w1, [x29,#92]
     9ac:	52800020 	mov	w0, #0x1                   	// #1
     9b0:	72be0200 	movk	w0, #0xf010, lsl #16
     9b4:	6b00003f 	cmp	w1, w0
     9b8:	54000240 	b.eq	a00 <TEE_GetObjectBufferAttribute+0x118>
/home/optee/RPi3/optee_os/lib/libutee/tee_api_objects.c:160
     9bc:	b9405fa1 	ldr	w1, [x29,#92]
     9c0:	52800060 	mov	w0, #0x3                   	// #3
     9c4:	72be0200 	movk	w0, #0xf010, lsl #16
     9c8:	6b00003f 	cmp	w1, w0
     9cc:	540001a0 	b.eq	a00 <TEE_GetObjectBufferAttribute+0x118>
/home/optee/RPi3/optee_os/lib/libutee/tee_api_objects.c:162
     9d0:	90000080 	adrp	x0, 10000 <mpa_set_oct_str+0x80>
     9d4:	912e0001 	add	x1, x0, #0xb80
     9d8:	90000080 	adrp	x0, 10000 <mpa_set_oct_str+0x80>
     9dc:	912fe000 	add	x0, x0, #0xbf8
     9e0:	52800005 	mov	w5, #0x0                   	// #0
     9e4:	aa0103e4 	mov	x4, x1
     9e8:	52800023 	mov	w3, #0x1                   	// #1
     9ec:	52800022 	mov	w2, #0x1                   	// #1
     9f0:	52801441 	mov	w1, #0xa2                  	// #162
     9f4:	94002346 	bl	970c <trace_printf>
     9f8:	52800000 	mov	w0, #0x0                   	// #0
     9fc:	9400061d 	bl	2270 <__TEE_Panic>
/home/optee/RPi3/optee_os/lib/libutee/tee_api_objects.c:164
     a00:	b9405fa0 	ldr	w0, [x29,#92]
/home/optee/RPi3/optee_os/lib/libutee/tee_api_objects.c:165
     a04:	a8c67bfd 	ldp	x29, x30, [sp],#96
     a08:	d65f03c0 	ret

0000000000000a0c <TEE_GetObjectValueAttribute>:
TEE_GetObjectValueAttribute():
/home/optee/RPi3/optee_os/lib/libutee/tee_api_objects.c:170
     a0c:	a9ba7bfd 	stp	x29, x30, [sp,#-96]!
     a10:	910003fd 	mov	x29, sp
     a14:	f90017a0 	str	x0, [x29,#40]
     a18:	b90027a1 	str	w1, [x29,#36]
     a1c:	f9000fa2 	str	x2, [x29,#24]
     a20:	f9000ba3 	str	x3, [x29,#16]
/home/optee/RPi3/optee_os/lib/libutee/tee_api_objects.c:174
     a24:	d2800100 	mov	x0, #0x8                   	// #8
     a28:	f9001ba0 	str	x0, [x29,#48]
/home/optee/RPi3/optee_os/lib/libutee/tee_api_objects.c:176
     a2c:	f94017a0 	ldr	x0, [x29,#40]
     a30:	910103a1 	add	x1, x29, #0x40
     a34:	94003f31 	bl	106f8 <utee_cryp_obj_get_info>
     a38:	b9005fa0 	str	w0, [x29,#92]
/home/optee/RPi3/optee_os/lib/libutee/tee_api_objects.c:177
     a3c:	b9405fa0 	ldr	w0, [x29,#92]
     a40:	6b1f001f 	cmp	w0, wzr
     a44:	540001e1 	b.ne	a80 <TEE_GetObjectValueAttribute+0x74>
/home/optee/RPi3/optee_os/lib/libutee/tee_api_objects.c:181
     a48:	b94027a0 	ldr	w0, [x29,#36]
     a4c:	12030000 	and	w0, w0, #0x20000000
     a50:	6b1f001f 	cmp	w0, wzr
     a54:	54000081 	b.ne	a64 <TEE_GetObjectValueAttribute+0x58>
/home/optee/RPi3/optee_os/lib/libutee/tee_api_objects.c:182
     a58:	129fff20 	mov	w0, #0xffff0006            	// #-65530
     a5c:	b9005fa0 	str	w0, [x29,#92]
/home/optee/RPi3/optee_os/lib/libutee/tee_api_objects.c:183
     a60:	14000009 	b	a84 <TEE_GetObjectValueAttribute+0x78>
/home/optee/RPi3/optee_os/lib/libutee/tee_api_objects.c:186
     a64:	f94017a0 	ldr	x0, [x29,#40]
     a68:	b94027a1 	ldr	w1, [x29,#36]
     a6c:	9100c3a3 	add	x3, x29, #0x30
     a70:	9100e3a2 	add	x2, x29, #0x38
     a74:	94003f27 	bl	10710 <utee_cryp_obj_get_attr>
     a78:	b9005fa0 	str	w0, [x29,#92]
     a7c:	14000002 	b	a84 <TEE_GetObjectValueAttribute+0x78>
/home/optee/RPi3/optee_os/lib/libutee/tee_api_objects.c:178
     a80:	d503201f 	nop
/home/optee/RPi3/optee_os/lib/libutee/tee_api_objects.c:190
     a84:	b9405fa0 	ldr	w0, [x29,#92]
     a88:	6b1f001f 	cmp	w0, wzr
     a8c:	54000360 	b.eq	af8 <TEE_GetObjectValueAttribute+0xec>
/home/optee/RPi3/optee_os/lib/libutee/tee_api_objects.c:190 (discriminator 1)
     a90:	b9405fa1 	ldr	w1, [x29,#92]
     a94:	129ffee0 	mov	w0, #0xffff0008            	// #-65528
     a98:	6b00003f 	cmp	w1, w0
     a9c:	540002e0 	b.eq	af8 <TEE_GetObjectValueAttribute+0xec>
/home/optee/RPi3/optee_os/lib/libutee/tee_api_objects.c:191
     aa0:	b9405fa1 	ldr	w1, [x29,#92]
     aa4:	52800020 	mov	w0, #0x1                   	// #1
     aa8:	72be0200 	movk	w0, #0xf010, lsl #16
     aac:	6b00003f 	cmp	w1, w0
     ab0:	54000240 	b.eq	af8 <TEE_GetObjectValueAttribute+0xec>
/home/optee/RPi3/optee_os/lib/libutee/tee_api_objects.c:192
     ab4:	b9405fa1 	ldr	w1, [x29,#92]
     ab8:	52800060 	mov	w0, #0x3                   	// #3
     abc:	72be0200 	movk	w0, #0xf010, lsl #16
     ac0:	6b00003f 	cmp	w1, w0
     ac4:	540001a0 	b.eq	af8 <TEE_GetObjectValueAttribute+0xec>
/home/optee/RPi3/optee_os/lib/libutee/tee_api_objects.c:194
     ac8:	90000080 	adrp	x0, 10000 <mpa_set_oct_str+0x80>
     acc:	912e0001 	add	x1, x0, #0xb80
     ad0:	90000080 	adrp	x0, 10000 <mpa_set_oct_str+0x80>
     ad4:	91306000 	add	x0, x0, #0xc18
     ad8:	52800005 	mov	w5, #0x0                   	// #0
     adc:	aa0103e4 	mov	x4, x1
     ae0:	52800023 	mov	w3, #0x1                   	// #1
     ae4:	52800022 	mov	w2, #0x1                   	// #1
     ae8:	52801841 	mov	w1, #0xc2                  	// #194
     aec:	94002308 	bl	970c <trace_printf>
     af0:	52800000 	mov	w0, #0x0                   	// #0
     af4:	940005df 	bl	2270 <__TEE_Panic>
/home/optee/RPi3/optee_os/lib/libutee/tee_api_objects.c:196
     af8:	f9401ba0 	ldr	x0, [x29,#48]
     afc:	f100201f 	cmp	x0, #0x8
     b00:	540001a0 	b.eq	b34 <TEE_GetObjectValueAttribute+0x128>
/home/optee/RPi3/optee_os/lib/libutee/tee_api_objects.c:197
     b04:	90000080 	adrp	x0, 10000 <mpa_set_oct_str+0x80>
     b08:	912e0001 	add	x1, x0, #0xb80
     b0c:	90000080 	adrp	x0, 10000 <mpa_set_oct_str+0x80>
     b10:	91306000 	add	x0, x0, #0xc18
     b14:	52800005 	mov	w5, #0x0                   	// #0
     b18:	aa0103e4 	mov	x4, x1
     b1c:	52800023 	mov	w3, #0x1                   	// #1
     b20:	52800022 	mov	w2, #0x1                   	// #1
     b24:	528018a1 	mov	w1, #0xc5                  	// #197
     b28:	940022f9 	bl	970c <trace_printf>
     b2c:	52800000 	mov	w0, #0x0                   	// #0
     b30:	940005d0 	bl	2270 <__TEE_Panic>
/home/optee/RPi3/optee_os/lib/libutee/tee_api_objects.c:199
     b34:	b9403ba1 	ldr	w1, [x29,#56]
     b38:	f9400fa0 	ldr	x0, [x29,#24]
     b3c:	b9000001 	str	w1, [x0]
/home/optee/RPi3/optee_os/lib/libutee/tee_api_objects.c:200
     b40:	b9403fa1 	ldr	w1, [x29,#60]
     b44:	f9400ba0 	ldr	x0, [x29,#16]
     b48:	b9000001 	str	w1, [x0]
/home/optee/RPi3/optee_os/lib/libutee/tee_api_objects.c:202
     b4c:	b9405fa0 	ldr	w0, [x29,#92]
/home/optee/RPi3/optee_os/lib/libutee/tee_api_objects.c:203
     b50:	a8c67bfd 	ldp	x29, x30, [sp],#96
     b54:	d65f03c0 	ret

0000000000000b58 <TEE_CloseObject>:
TEE_CloseObject():
/home/optee/RPi3/optee_os/lib/libutee/tee_api_objects.c:206
     b58:	a9bd7bfd 	stp	x29, x30, [sp,#-48]!
     b5c:	910003fd 	mov	x29, sp
     b60:	f9000fa0 	str	x0, [x29,#24]
/home/optee/RPi3/optee_os/lib/libutee/tee_api_objects.c:209
     b64:	f9400fa0 	ldr	x0, [x29,#24]
     b68:	eb1f001f 	cmp	x0, xzr
     b6c:	54000280 	b.eq	bbc <TEE_CloseObject+0x64>
/home/optee/RPi3/optee_os/lib/libutee/tee_api_objects.c:212
     b70:	f9400fa0 	ldr	x0, [x29,#24]
     b74:	94003eed 	bl	10728 <utee_cryp_obj_close>
     b78:	b9002fa0 	str	w0, [x29,#44]
/home/optee/RPi3/optee_os/lib/libutee/tee_api_objects.c:213
     b7c:	b9402fa0 	ldr	w0, [x29,#44]
     b80:	6b1f001f 	cmp	w0, wzr
     b84:	540001e0 	b.eq	bc0 <TEE_CloseObject+0x68>
/home/optee/RPi3/optee_os/lib/libutee/tee_api_objects.c:214
     b88:	90000080 	adrp	x0, 10000 <mpa_set_oct_str+0x80>
     b8c:	912e0001 	add	x1, x0, #0xb80
     b90:	90000080 	adrp	x0, 10000 <mpa_set_oct_str+0x80>
     b94:	9130e000 	add	x0, x0, #0xc38
     b98:	52800005 	mov	w5, #0x0                   	// #0
     b9c:	aa0103e4 	mov	x4, x1
     ba0:	52800023 	mov	w3, #0x1                   	// #1
     ba4:	52800022 	mov	w2, #0x1                   	// #1
     ba8:	52801ac1 	mov	w1, #0xd6                  	// #214
     bac:	940022d8 	bl	970c <trace_printf>
     bb0:	52800000 	mov	w0, #0x0                   	// #0
     bb4:	940005af 	bl	2270 <__TEE_Panic>
     bb8:	14000002 	b	bc0 <TEE_CloseObject+0x68>
/home/optee/RPi3/optee_os/lib/libutee/tee_api_objects.c:210
     bbc:	d503201f 	nop
/home/optee/RPi3/optee_os/lib/libutee/tee_api_objects.c:215
     bc0:	a8c37bfd 	ldp	x29, x30, [sp],#48
     bc4:	d65f03c0 	ret

0000000000000bc8 <TEE_AllocateTransientObject>:
TEE_AllocateTransientObject():
/home/optee/RPi3/optee_os/lib/libutee/tee_api_objects.c:222
     bc8:	a9bd7bfd 	stp	x29, x30, [sp,#-48]!
     bcc:	910003fd 	mov	x29, sp
     bd0:	b9001fa0 	str	w0, [x29,#28]
     bd4:	b9001ba1 	str	w1, [x29,#24]
     bd8:	f9000ba2 	str	x2, [x29,#16]
/home/optee/RPi3/optee_os/lib/libutee/tee_api_objects.c:226
     bdc:	b9401fa0 	ldr	w0, [x29,#28]
     be0:	b9401ba1 	ldr	w1, [x29,#24]
     be4:	9100a3a2 	add	x2, x29, #0x28
     be8:	94003ecd 	bl	1071c <utee_cryp_obj_alloc>
     bec:	b9002fa0 	str	w0, [x29,#44]
/home/optee/RPi3/optee_os/lib/libutee/tee_api_objects.c:228
     bf0:	b9402fa0 	ldr	w0, [x29,#44]
     bf4:	6b1f001f 	cmp	w0, wzr
     bf8:	540002a0 	b.eq	c4c <TEE_AllocateTransientObject+0x84>
/home/optee/RPi3/optee_os/lib/libutee/tee_api_objects.c:228 (discriminator 1)
     bfc:	b9402fa1 	ldr	w1, [x29,#44]
     c00:	129ffe60 	mov	w0, #0xffff000c            	// #-65524
     c04:	6b00003f 	cmp	w1, w0
     c08:	54000220 	b.eq	c4c <TEE_AllocateTransientObject+0x84>
/home/optee/RPi3/optee_os/lib/libutee/tee_api_objects.c:229
     c0c:	b9402fa1 	ldr	w1, [x29,#44]
     c10:	129ffea0 	mov	w0, #0xffff000a            	// #-65526
     c14:	6b00003f 	cmp	w1, w0
     c18:	540001a0 	b.eq	c4c <TEE_AllocateTransientObject+0x84>
/home/optee/RPi3/optee_os/lib/libutee/tee_api_objects.c:231
     c1c:	90000080 	adrp	x0, 10000 <mpa_set_oct_str+0x80>
     c20:	912e0001 	add	x1, x0, #0xb80
     c24:	90000080 	adrp	x0, 10000 <mpa_set_oct_str+0x80>
     c28:	91312000 	add	x0, x0, #0xc48
     c2c:	52800005 	mov	w5, #0x0                   	// #0
     c30:	aa0103e4 	mov	x4, x1
     c34:	52800023 	mov	w3, #0x1                   	// #1
     c38:	52800022 	mov	w2, #0x1                   	// #1
     c3c:	52801ce1 	mov	w1, #0xe7                  	// #231
     c40:	940022b3 	bl	970c <trace_printf>
     c44:	52800000 	mov	w0, #0x0                   	// #0
     c48:	9400058a 	bl	2270 <__TEE_Panic>
/home/optee/RPi3/optee_os/lib/libutee/tee_api_objects.c:233
     c4c:	b9402fa0 	ldr	w0, [x29,#44]
     c50:	6b1f001f 	cmp	w0, wzr
     c54:	540000c1 	b.ne	c6c <TEE_AllocateTransientObject+0xa4>
/home/optee/RPi3/optee_os/lib/libutee/tee_api_objects.c:234
     c58:	b9402ba0 	ldr	w0, [x29,#40]
     c5c:	2a0003e0 	mov	w0, w0
     c60:	aa0003e1 	mov	x1, x0
     c64:	f9400ba0 	ldr	x0, [x29,#16]
     c68:	f9000001 	str	x1, [x0]
/home/optee/RPi3/optee_os/lib/libutee/tee_api_objects.c:236
     c6c:	b9402fa0 	ldr	w0, [x29,#44]
/home/optee/RPi3/optee_os/lib/libutee/tee_api_objects.c:237
     c70:	a8c37bfd 	ldp	x29, x30, [sp],#48
     c74:	d65f03c0 	ret

0000000000000c78 <TEE_FreeTransientObject>:
TEE_FreeTransientObject():
/home/optee/RPi3/optee_os/lib/libutee/tee_api_objects.c:240
     c78:	a9bc7bfd 	stp	x29, x30, [sp,#-64]!
     c7c:	910003fd 	mov	x29, sp
     c80:	f9000fa0 	str	x0, [x29,#24]
/home/optee/RPi3/optee_os/lib/libutee/tee_api_objects.c:244
     c84:	f9400fa0 	ldr	x0, [x29,#24]
     c88:	eb1f001f 	cmp	x0, xzr
     c8c:	540006e0 	b.eq	d68 <TEE_FreeTransientObject+0xf0>
/home/optee/RPi3/optee_os/lib/libutee/tee_api_objects.c:247
     c90:	f9400fa0 	ldr	x0, [x29,#24]
     c94:	910083a1 	add	x1, x29, #0x20
     c98:	94003e98 	bl	106f8 <utee_cryp_obj_get_info>
     c9c:	b9003fa0 	str	w0, [x29,#60]
/home/optee/RPi3/optee_os/lib/libutee/tee_api_objects.c:248
     ca0:	b9403fa0 	ldr	w0, [x29,#60]
     ca4:	6b1f001f 	cmp	w0, wzr
     ca8:	540001a0 	b.eq	cdc <TEE_FreeTransientObject+0x64>
/home/optee/RPi3/optee_os/lib/libutee/tee_api_objects.c:249
     cac:	90000080 	adrp	x0, 10000 <mpa_set_oct_str+0x80>
     cb0:	912e0001 	add	x1, x0, #0xb80
     cb4:	90000080 	adrp	x0, 10000 <mpa_set_oct_str+0x80>
     cb8:	9131a000 	add	x0, x0, #0xc68
     cbc:	52800005 	mov	w5, #0x0                   	// #0
     cc0:	aa0103e4 	mov	x4, x1
     cc4:	52800023 	mov	w3, #0x1                   	// #1
     cc8:	52800022 	mov	w2, #0x1                   	// #1
     ccc:	52801f21 	mov	w1, #0xf9                  	// #249
     cd0:	9400228f 	bl	970c <trace_printf>
     cd4:	52800000 	mov	w0, #0x0                   	// #0
     cd8:	94000566 	bl	2270 <__TEE_Panic>
/home/optee/RPi3/optee_os/lib/libutee/tee_api_objects.c:251
     cdc:	b9403ba0 	ldr	w0, [x29,#56]
     ce0:	12100000 	and	w0, w0, #0x10000
     ce4:	6b1f001f 	cmp	w0, wzr
     ce8:	540001a0 	b.eq	d1c <TEE_FreeTransientObject+0xa4>
/home/optee/RPi3/optee_os/lib/libutee/tee_api_objects.c:252
     cec:	90000080 	adrp	x0, 10000 <mpa_set_oct_str+0x80>
     cf0:	912e0001 	add	x1, x0, #0xb80
     cf4:	90000080 	adrp	x0, 10000 <mpa_set_oct_str+0x80>
     cf8:	9131a000 	add	x0, x0, #0xc68
     cfc:	52800005 	mov	w5, #0x0                   	// #0
     d00:	aa0103e4 	mov	x4, x1
     d04:	52800023 	mov	w3, #0x1                   	// #1
     d08:	52800022 	mov	w2, #0x1                   	// #1
     d0c:	52801f81 	mov	w1, #0xfc                  	// #252
     d10:	9400227f 	bl	970c <trace_printf>
     d14:	52800000 	mov	w0, #0x0                   	// #0
     d18:	94000556 	bl	2270 <__TEE_Panic>
/home/optee/RPi3/optee_os/lib/libutee/tee_api_objects.c:254
     d1c:	f9400fa0 	ldr	x0, [x29,#24]
     d20:	94003e82 	bl	10728 <utee_cryp_obj_close>
     d24:	b9003fa0 	str	w0, [x29,#60]
/home/optee/RPi3/optee_os/lib/libutee/tee_api_objects.c:255
     d28:	b9403fa0 	ldr	w0, [x29,#60]
     d2c:	6b1f001f 	cmp	w0, wzr
     d30:	540001e0 	b.eq	d6c <TEE_FreeTransientObject+0xf4>
/home/optee/RPi3/optee_os/lib/libutee/tee_api_objects.c:256
     d34:	90000080 	adrp	x0, 10000 <mpa_set_oct_str+0x80>
     d38:	912e0001 	add	x1, x0, #0xb80
     d3c:	90000080 	adrp	x0, 10000 <mpa_set_oct_str+0x80>
     d40:	9131a000 	add	x0, x0, #0xc68
     d44:	52800005 	mov	w5, #0x0                   	// #0
     d48:	aa0103e4 	mov	x4, x1
     d4c:	52800023 	mov	w3, #0x1                   	// #1
     d50:	52800022 	mov	w2, #0x1                   	// #1
     d54:	52802001 	mov	w1, #0x100                 	// #256
     d58:	9400226d 	bl	970c <trace_printf>
     d5c:	52800000 	mov	w0, #0x0                   	// #0
     d60:	94000544 	bl	2270 <__TEE_Panic>
     d64:	14000002 	b	d6c <TEE_FreeTransientObject+0xf4>
/home/optee/RPi3/optee_os/lib/libutee/tee_api_objects.c:245
     d68:	d503201f 	nop
/home/optee/RPi3/optee_os/lib/libutee/tee_api_objects.c:257
     d6c:	a8c47bfd 	ldp	x29, x30, [sp],#64
     d70:	d65f03c0 	ret

0000000000000d74 <TEE_ResetTransientObject>:
TEE_ResetTransientObject():
/home/optee/RPi3/optee_os/lib/libutee/tee_api_objects.c:260
     d74:	a9bc7bfd 	stp	x29, x30, [sp,#-64]!
     d78:	910003fd 	mov	x29, sp
     d7c:	f9000fa0 	str	x0, [x29,#24]
/home/optee/RPi3/optee_os/lib/libutee/tee_api_objects.c:264
     d80:	f9400fa0 	ldr	x0, [x29,#24]
     d84:	eb1f001f 	cmp	x0, xzr
     d88:	540006e0 	b.eq	e64 <TEE_ResetTransientObject+0xf0>
/home/optee/RPi3/optee_os/lib/libutee/tee_api_objects.c:267
     d8c:	f9400fa0 	ldr	x0, [x29,#24]
     d90:	910083a1 	add	x1, x29, #0x20
     d94:	94003e59 	bl	106f8 <utee_cryp_obj_get_info>
     d98:	b9003fa0 	str	w0, [x29,#60]
/home/optee/RPi3/optee_os/lib/libutee/tee_api_objects.c:268
     d9c:	b9403fa0 	ldr	w0, [x29,#60]
     da0:	6b1f001f 	cmp	w0, wzr
     da4:	540001a0 	b.eq	dd8 <TEE_ResetTransientObject+0x64>
/home/optee/RPi3/optee_os/lib/libutee/tee_api_objects.c:269
     da8:	90000080 	adrp	x0, 10000 <mpa_set_oct_str+0x80>
     dac:	912e0001 	add	x1, x0, #0xb80
     db0:	90000080 	adrp	x0, 10000 <mpa_set_oct_str+0x80>
     db4:	91320000 	add	x0, x0, #0xc80
     db8:	52800005 	mov	w5, #0x0                   	// #0
     dbc:	aa0103e4 	mov	x4, x1
     dc0:	52800023 	mov	w3, #0x1                   	// #1
     dc4:	52800022 	mov	w2, #0x1                   	// #1
     dc8:	528021a1 	mov	w1, #0x10d                 	// #269
     dcc:	94002250 	bl	970c <trace_printf>
     dd0:	52800000 	mov	w0, #0x0                   	// #0
     dd4:	94000527 	bl	2270 <__TEE_Panic>
/home/optee/RPi3/optee_os/lib/libutee/tee_api_objects.c:271
     dd8:	b9403ba0 	ldr	w0, [x29,#56]
     ddc:	12100000 	and	w0, w0, #0x10000
     de0:	6b1f001f 	cmp	w0, wzr
     de4:	540001a0 	b.eq	e18 <TEE_ResetTransientObject+0xa4>
/home/optee/RPi3/optee_os/lib/libutee/tee_api_objects.c:272
     de8:	90000080 	adrp	x0, 10000 <mpa_set_oct_str+0x80>
     dec:	912e0001 	add	x1, x0, #0xb80
     df0:	90000080 	adrp	x0, 10000 <mpa_set_oct_str+0x80>
     df4:	91320000 	add	x0, x0, #0xc80
     df8:	52800005 	mov	w5, #0x0                   	// #0
     dfc:	aa0103e4 	mov	x4, x1
     e00:	52800023 	mov	w3, #0x1                   	// #1
     e04:	52800022 	mov	w2, #0x1                   	// #1
     e08:	52802201 	mov	w1, #0x110                 	// #272
     e0c:	94002240 	bl	970c <trace_printf>
     e10:	52800000 	mov	w0, #0x0                   	// #0
     e14:	94000517 	bl	2270 <__TEE_Panic>
/home/optee/RPi3/optee_os/lib/libutee/tee_api_objects.c:274
     e18:	f9400fa0 	ldr	x0, [x29,#24]
     e1c:	94003e46 	bl	10734 <utee_cryp_obj_reset>
     e20:	b9003fa0 	str	w0, [x29,#60]
/home/optee/RPi3/optee_os/lib/libutee/tee_api_objects.c:275
     e24:	b9403fa0 	ldr	w0, [x29,#60]
     e28:	6b1f001f 	cmp	w0, wzr
     e2c:	540001e0 	b.eq	e68 <TEE_ResetTransientObject+0xf4>
/home/optee/RPi3/optee_os/lib/libutee/tee_api_objects.c:276
     e30:	90000080 	adrp	x0, 10000 <mpa_set_oct_str+0x80>
     e34:	912e0001 	add	x1, x0, #0xb80
     e38:	90000080 	adrp	x0, 10000 <mpa_set_oct_str+0x80>
     e3c:	91320000 	add	x0, x0, #0xc80
     e40:	52800005 	mov	w5, #0x0                   	// #0
     e44:	aa0103e4 	mov	x4, x1
     e48:	52800023 	mov	w3, #0x1                   	// #1
     e4c:	52800022 	mov	w2, #0x1                   	// #1
     e50:	52802281 	mov	w1, #0x114                 	// #276
     e54:	9400222e 	bl	970c <trace_printf>
     e58:	52800000 	mov	w0, #0x0                   	// #0
     e5c:	94000505 	bl	2270 <__TEE_Panic>
     e60:	14000002 	b	e68 <TEE_ResetTransientObject+0xf4>
/home/optee/RPi3/optee_os/lib/libutee/tee_api_objects.c:265
     e64:	d503201f 	nop
/home/optee/RPi3/optee_os/lib/libutee/tee_api_objects.c:277
     e68:	a8c47bfd 	ldp	x29, x30, [sp],#64
     e6c:	d65f03c0 	ret

0000000000000e70 <TEE_PopulateTransientObject>:
TEE_PopulateTransientObject():
/home/optee/RPi3/optee_os/lib/libutee/tee_api_objects.c:282
     e70:	a9b97bfd 	stp	x29, x30, [sp,#-112]!
     e74:	910003fd 	mov	x29, sp
     e78:	a90153f3 	stp	x19, x20, [sp,#16]
     e7c:	f9001fa0 	str	x0, [x29,#56]
     e80:	f9001ba1 	str	x1, [x29,#48]
     e84:	b9002fa2 	str	w2, [x29,#44]
     e88:	910003e0 	mov	x0, sp
     e8c:	aa0003f4 	mov	x20, x0
/home/optee/RPi3/optee_os/lib/libutee/tee_api_objects.c:285
     e90:	b9402fa2 	ldr	w2, [x29,#44]
     e94:	2a0203e0 	mov	w0, w2
     e98:	d1000400 	sub	x0, x0, #0x1
     e9c:	f90037a0 	str	x0, [x29,#104]
     ea0:	2a0203e0 	mov	w0, w2
     ea4:	aa0003f1 	mov	x17, x0
     ea8:	d2800012 	mov	x18, #0x0                   	// #0
     eac:	aa1103e0 	mov	x0, x17
     eb0:	aa1203e1 	mov	x1, x18
     eb4:	d37ffc13 	lsr	x19, x0, #63
     eb8:	d37ff82a 	lsl	x10, x1, #1
     ebc:	aa0a026a 	orr	x10, x19, x10
     ec0:	d37ff809 	lsl	x9, x0, #1
     ec4:	aa0903e0 	mov	x0, x9
     ec8:	aa0a03e1 	mov	x1, x10
     ecc:	ab110009 	adds	x9, x0, x17
     ed0:	9a120020 	adc	x0, x1, x18
     ed4:	aa0903ed 	mov	x13, x9
     ed8:	aa0003ee 	mov	x14, x0
     edc:	d37afda0 	lsr	x0, x13, #58
     ee0:	d37ae5c8 	lsl	x8, x14, #6
     ee4:	aa080008 	orr	x8, x0, x8
     ee8:	d37ae5a7 	lsl	x7, x13, #6
     eec:	2a0203e0 	mov	w0, w2
     ef0:	aa0003ef 	mov	x15, x0
     ef4:	d2800010 	mov	x16, #0x0                   	// #0
     ef8:	aa0f03e0 	mov	x0, x15
     efc:	aa1003e1 	mov	x1, x16
     f00:	d37ffc07 	lsr	x7, x0, #63
     f04:	d37ff826 	lsl	x6, x1, #1
     f08:	aa0600e6 	orr	x6, x7, x6
     f0c:	d37ff805 	lsl	x5, x0, #1
     f10:	aa0503e0 	mov	x0, x5
     f14:	aa0603e1 	mov	x1, x6
     f18:	ab0f0005 	adds	x5, x0, x15
     f1c:	9a100020 	adc	x0, x1, x16
     f20:	aa0503eb 	mov	x11, x5
     f24:	aa0003ec 	mov	x12, x0
     f28:	d37afd60 	lsr	x0, x11, #58
     f2c:	d37ae584 	lsl	x4, x12, #6
     f30:	aa040004 	orr	x4, x0, x4
     f34:	d37ae563 	lsl	x3, x11, #6
     f38:	2a0203e1 	mov	w1, w2
     f3c:	aa0103e0 	mov	x0, x1
     f40:	d37ff800 	lsl	x0, x0, #1
     f44:	8b010000 	add	x0, x0, x1
     f48:	d37df000 	lsl	x0, x0, #3
     f4c:	91001c00 	add	x0, x0, #0x7
     f50:	91003c00 	add	x0, x0, #0xf
     f54:	d344fc00 	lsr	x0, x0, #4
     f58:	d37cec00 	lsl	x0, x0, #4
     f5c:	cb2063ff 	sub	sp, sp, x0
     f60:	910003e0 	mov	x0, sp
     f64:	91001c00 	add	x0, x0, #0x7
     f68:	d343fc00 	lsr	x0, x0, #3
     f6c:	d37df000 	lsl	x0, x0, #3
     f70:	f90033a0 	str	x0, [x29,#96]
/home/optee/RPi3/optee_os/lib/libutee/tee_api_objects.c:287
     f74:	f9401fa0 	ldr	x0, [x29,#56]
     f78:	910103a1 	add	x1, x29, #0x40
     f7c:	94003ddf 	bl	106f8 <utee_cryp_obj_get_info>
     f80:	b9005fa0 	str	w0, [x29,#92]
/home/optee/RPi3/optee_os/lib/libutee/tee_api_objects.c:288
     f84:	b9405fa0 	ldr	w0, [x29,#92]
     f88:	6b1f001f 	cmp	w0, wzr
     f8c:	540001a0 	b.eq	fc0 <TEE_PopulateTransientObject+0x150>
/home/optee/RPi3/optee_os/lib/libutee/tee_api_objects.c:289
     f90:	90000080 	adrp	x0, 10000 <mpa_set_oct_str+0x80>
     f94:	912e0001 	add	x1, x0, #0xb80
     f98:	90000080 	adrp	x0, 10000 <mpa_set_oct_str+0x80>
     f9c:	91328000 	add	x0, x0, #0xca0
     fa0:	52800005 	mov	w5, #0x0                   	// #0
     fa4:	aa0103e4 	mov	x4, x1
     fa8:	52800023 	mov	w3, #0x1                   	// #1
     fac:	52800022 	mov	w2, #0x1                   	// #1
     fb0:	52802421 	mov	w1, #0x121                 	// #289
     fb4:	940021d6 	bl	970c <trace_printf>
     fb8:	52800000 	mov	w0, #0x0                   	// #0
     fbc:	940004ad 	bl	2270 <__TEE_Panic>
/home/optee/RPi3/optee_os/lib/libutee/tee_api_objects.c:292
     fc0:	b9405ba0 	ldr	w0, [x29,#88]
     fc4:	12100000 	and	w0, w0, #0x10000
     fc8:	6b1f001f 	cmp	w0, wzr
     fcc:	540001a0 	b.eq	1000 <TEE_PopulateTransientObject+0x190>
/home/optee/RPi3/optee_os/lib/libutee/tee_api_objects.c:293
     fd0:	90000080 	adrp	x0, 10000 <mpa_set_oct_str+0x80>
     fd4:	912e0001 	add	x1, x0, #0xb80
     fd8:	90000080 	adrp	x0, 10000 <mpa_set_oct_str+0x80>
     fdc:	91328000 	add	x0, x0, #0xca0
     fe0:	52800005 	mov	w5, #0x0                   	// #0
     fe4:	aa0103e4 	mov	x4, x1
     fe8:	52800023 	mov	w3, #0x1                   	// #1
     fec:	52800022 	mov	w2, #0x1                   	// #1
     ff0:	528024a1 	mov	w1, #0x125                 	// #293
     ff4:	940021c6 	bl	970c <trace_printf>
     ff8:	52800000 	mov	w0, #0x0                   	// #0
     ffc:	9400049d 	bl	2270 <__TEE_Panic>
/home/optee/RPi3/optee_os/lib/libutee/tee_api_objects.c:296
    1000:	b9405ba0 	ldr	w0, [x29,#88]
    1004:	120f0000 	and	w0, w0, #0x20000
    1008:	6b1f001f 	cmp	w0, wzr
    100c:	540001a0 	b.eq	1040 <TEE_PopulateTransientObject+0x1d0>
/home/optee/RPi3/optee_os/lib/libutee/tee_api_objects.c:297
    1010:	f0000060 	adrp	x0, 10000 <mpa_set_oct_str+0x80>
    1014:	912e0001 	add	x1, x0, #0xb80
    1018:	f0000060 	adrp	x0, 10000 <mpa_set_oct_str+0x80>
    101c:	91328000 	add	x0, x0, #0xca0
    1020:	52800005 	mov	w5, #0x0                   	// #0
    1024:	aa0103e4 	mov	x4, x1
    1028:	52800023 	mov	w3, #0x1                   	// #1
    102c:	52800022 	mov	w2, #0x1                   	// #1
    1030:	52802521 	mov	w1, #0x129                 	// #297
    1034:	940021b6 	bl	970c <trace_printf>
    1038:	52800000 	mov	w0, #0x0                   	// #0
    103c:	9400048d 	bl	2270 <__TEE_Panic>
/home/optee/RPi3/optee_os/lib/libutee/tee_api_objects.c:299
    1040:	f94033a0 	ldr	x0, [x29,#96]
    1044:	b9402fa2 	ldr	w2, [x29,#44]
    1048:	f9401ba1 	ldr	x1, [x29,#48]
    104c:	97fffd15 	bl	4a0 <__utee_from_attr>
/home/optee/RPi3/optee_os/lib/libutee/tee_api_objects.c:300
    1050:	f9401fa0 	ldr	x0, [x29,#56]
    1054:	f94033a1 	ldr	x1, [x29,#96]
    1058:	b9402fa2 	ldr	w2, [x29,#44]
    105c:	94003db9 	bl	10740 <utee_cryp_obj_populate>
    1060:	b9005fa0 	str	w0, [x29,#92]
/home/optee/RPi3/optee_os/lib/libutee/tee_api_objects.c:301
    1064:	b9405fa0 	ldr	w0, [x29,#92]
    1068:	6b1f001f 	cmp	w0, wzr
    106c:	54000220 	b.eq	10b0 <TEE_PopulateTransientObject+0x240>
/home/optee/RPi3/optee_os/lib/libutee/tee_api_objects.c:301 (discriminator 1)
    1070:	b9405fa1 	ldr	w1, [x29,#92]
    1074:	129fff20 	mov	w0, #0xffff0006            	// #-65530
    1078:	6b00003f 	cmp	w1, w0
    107c:	540001a0 	b.eq	10b0 <TEE_PopulateTransientObject+0x240>
/home/optee/RPi3/optee_os/lib/libutee/tee_api_objects.c:302
    1080:	f0000060 	adrp	x0, 10000 <mpa_set_oct_str+0x80>
    1084:	912e0001 	add	x1, x0, #0xb80
    1088:	f0000060 	adrp	x0, 10000 <mpa_set_oct_str+0x80>
    108c:	91328000 	add	x0, x0, #0xca0
    1090:	b9405fa5 	ldr	w5, [x29,#92]
    1094:	aa0103e4 	mov	x4, x1
    1098:	52800023 	mov	w3, #0x1                   	// #1
    109c:	52800022 	mov	w2, #0x1                   	// #1
    10a0:	528025c1 	mov	w1, #0x12e                 	// #302
    10a4:	9400219a 	bl	970c <trace_printf>
    10a8:	b9405fa0 	ldr	w0, [x29,#92]
    10ac:	94000471 	bl	2270 <__TEE_Panic>
/home/optee/RPi3/optee_os/lib/libutee/tee_api_objects.c:303
    10b0:	b9405fa0 	ldr	w0, [x29,#92]
    10b4:	9100029f 	mov	sp, x20
/home/optee/RPi3/optee_os/lib/libutee/tee_api_objects.c:304
    10b8:	910003bf 	mov	sp, x29
    10bc:	a94153f3 	ldp	x19, x20, [sp,#16]
    10c0:	a8c77bfd 	ldp	x29, x30, [sp],#112
    10c4:	d65f03c0 	ret

00000000000010c8 <TEE_InitRefAttribute>:
TEE_InitRefAttribute():
/home/optee/RPi3/optee_os/lib/libutee/tee_api_objects.c:308
    10c8:	a9bd7bfd 	stp	x29, x30, [sp,#-48]!
    10cc:	910003fd 	mov	x29, sp
    10d0:	f90017a0 	str	x0, [x29,#40]
    10d4:	b90027a1 	str	w1, [x29,#36]
    10d8:	f9000fa2 	str	x2, [x29,#24]
    10dc:	b90023a3 	str	w3, [x29,#32]
/home/optee/RPi3/optee_os/lib/libutee/tee_api_objects.c:309
    10e0:	f94017a0 	ldr	x0, [x29,#40]
    10e4:	eb1f001f 	cmp	x0, xzr
    10e8:	540001a1 	b.ne	111c <TEE_InitRefAttribute+0x54>
/home/optee/RPi3/optee_os/lib/libutee/tee_api_objects.c:310
    10ec:	f0000060 	adrp	x0, 10000 <mpa_set_oct_str+0x80>
    10f0:	912e0001 	add	x1, x0, #0xb80
    10f4:	f0000060 	adrp	x0, 10000 <mpa_set_oct_str+0x80>
    10f8:	91330000 	add	x0, x0, #0xcc0
    10fc:	52800005 	mov	w5, #0x0                   	// #0
    1100:	aa0103e4 	mov	x4, x1
    1104:	52800023 	mov	w3, #0x1                   	// #1
    1108:	52800022 	mov	w2, #0x1                   	// #1
    110c:	528026c1 	mov	w1, #0x136                 	// #310
    1110:	9400217f 	bl	970c <trace_printf>
    1114:	52800000 	mov	w0, #0x0                   	// #0
    1118:	94000456 	bl	2270 <__TEE_Panic>
/home/optee/RPi3/optee_os/lib/libutee/tee_api_objects.c:311
    111c:	b94027a0 	ldr	w0, [x29,#36]
    1120:	12030000 	and	w0, w0, #0x20000000
    1124:	6b1f001f 	cmp	w0, wzr
    1128:	540001a0 	b.eq	115c <TEE_InitRefAttribute+0x94>
/home/optee/RPi3/optee_os/lib/libutee/tee_api_objects.c:312
    112c:	f0000060 	adrp	x0, 10000 <mpa_set_oct_str+0x80>
    1130:	912e0001 	add	x1, x0, #0xb80
    1134:	f0000060 	adrp	x0, 10000 <mpa_set_oct_str+0x80>
    1138:	91330000 	add	x0, x0, #0xcc0
    113c:	52800005 	mov	w5, #0x0                   	// #0
    1140:	aa0103e4 	mov	x4, x1
    1144:	52800023 	mov	w3, #0x1                   	// #1
    1148:	52800022 	mov	w2, #0x1                   	// #1
    114c:	52802701 	mov	w1, #0x138                 	// #312
    1150:	9400216f 	bl	970c <trace_printf>
    1154:	52800000 	mov	w0, #0x0                   	// #0
    1158:	94000446 	bl	2270 <__TEE_Panic>
/home/optee/RPi3/optee_os/lib/libutee/tee_api_objects.c:313
    115c:	f94017a0 	ldr	x0, [x29,#40]
    1160:	b94027a1 	ldr	w1, [x29,#36]
    1164:	b9000001 	str	w1, [x0]
/home/optee/RPi3/optee_os/lib/libutee/tee_api_objects.c:314
    1168:	f94017a0 	ldr	x0, [x29,#40]
    116c:	f9400fa1 	ldr	x1, [x29,#24]
    1170:	f9000401 	str	x1, [x0,#8]
/home/optee/RPi3/optee_os/lib/libutee/tee_api_objects.c:315
    1174:	f94017a0 	ldr	x0, [x29,#40]
    1178:	b94023a1 	ldr	w1, [x29,#32]
    117c:	b9001001 	str	w1, [x0,#16]
/home/optee/RPi3/optee_os/lib/libutee/tee_api_objects.c:316
    1180:	d503201f 	nop
    1184:	a8c37bfd 	ldp	x29, x30, [sp],#48
    1188:	d65f03c0 	ret

000000000000118c <TEE_InitValueAttribute>:
TEE_InitValueAttribute():
/home/optee/RPi3/optee_os/lib/libutee/tee_api_objects.c:320
    118c:	a9bd7bfd 	stp	x29, x30, [sp,#-48]!
    1190:	910003fd 	mov	x29, sp
    1194:	f90017a0 	str	x0, [x29,#40]
    1198:	b90027a1 	str	w1, [x29,#36]
    119c:	b90023a2 	str	w2, [x29,#32]
    11a0:	b9001fa3 	str	w3, [x29,#28]
/home/optee/RPi3/optee_os/lib/libutee/tee_api_objects.c:321
    11a4:	f94017a0 	ldr	x0, [x29,#40]
    11a8:	eb1f001f 	cmp	x0, xzr
    11ac:	540001a1 	b.ne	11e0 <TEE_InitValueAttribute+0x54>
/home/optee/RPi3/optee_os/lib/libutee/tee_api_objects.c:322
    11b0:	f0000060 	adrp	x0, 10000 <mpa_set_oct_str+0x80>
    11b4:	912e0001 	add	x1, x0, #0xb80
    11b8:	f0000060 	adrp	x0, 10000 <mpa_set_oct_str+0x80>
    11bc:	91336000 	add	x0, x0, #0xcd8
    11c0:	52800005 	mov	w5, #0x0                   	// #0
    11c4:	aa0103e4 	mov	x4, x1
    11c8:	52800023 	mov	w3, #0x1                   	// #1
    11cc:	52800022 	mov	w2, #0x1                   	// #1
    11d0:	52802841 	mov	w1, #0x142                 	// #322
    11d4:	9400214e 	bl	970c <trace_printf>
    11d8:	52800000 	mov	w0, #0x0                   	// #0
    11dc:	94000425 	bl	2270 <__TEE_Panic>
/home/optee/RPi3/optee_os/lib/libutee/tee_api_objects.c:323
    11e0:	b94027a0 	ldr	w0, [x29,#36]
    11e4:	12030000 	and	w0, w0, #0x20000000
    11e8:	6b1f001f 	cmp	w0, wzr
    11ec:	540001a1 	b.ne	1220 <TEE_InitValueAttribute+0x94>
/home/optee/RPi3/optee_os/lib/libutee/tee_api_objects.c:324
    11f0:	f0000060 	adrp	x0, 10000 <mpa_set_oct_str+0x80>
    11f4:	912e0001 	add	x1, x0, #0xb80
    11f8:	f0000060 	adrp	x0, 10000 <mpa_set_oct_str+0x80>
    11fc:	91336000 	add	x0, x0, #0xcd8
    1200:	52800005 	mov	w5, #0x0                   	// #0
    1204:	aa0103e4 	mov	x4, x1
    1208:	52800023 	mov	w3, #0x1                   	// #1
    120c:	52800022 	mov	w2, #0x1                   	// #1
    1210:	52802881 	mov	w1, #0x144                 	// #324
    1214:	9400213e 	bl	970c <trace_printf>
    1218:	52800000 	mov	w0, #0x0                   	// #0
    121c:	94000415 	bl	2270 <__TEE_Panic>
/home/optee/RPi3/optee_os/lib/libutee/tee_api_objects.c:325
    1220:	f94017a0 	ldr	x0, [x29,#40]
    1224:	b94027a1 	ldr	w1, [x29,#36]
    1228:	b9000001 	str	w1, [x0]
/home/optee/RPi3/optee_os/lib/libutee/tee_api_objects.c:326
    122c:	f94017a0 	ldr	x0, [x29,#40]
    1230:	b94023a1 	ldr	w1, [x29,#32]
    1234:	b9000801 	str	w1, [x0,#8]
/home/optee/RPi3/optee_os/lib/libutee/tee_api_objects.c:327
    1238:	f94017a0 	ldr	x0, [x29,#40]
    123c:	b9401fa1 	ldr	w1, [x29,#28]
    1240:	b9000c01 	str	w1, [x0,#12]
/home/optee/RPi3/optee_os/lib/libutee/tee_api_objects.c:328
    1244:	d503201f 	nop
    1248:	a8c37bfd 	ldp	x29, x30, [sp],#48
    124c:	d65f03c0 	ret

0000000000001250 <TEE_CopyObjectAttributes>:
TEE_CopyObjectAttributes():
/home/optee/RPi3/optee_os/lib/libutee/tee_api_objects.c:338
    1250:	a9bc7bfd 	stp	x29, x30, [sp,#-64]!
    1254:	910003fd 	mov	x29, sp
    1258:	f9000fa0 	str	x0, [x29,#24]
    125c:	f9000ba1 	str	x1, [x29,#16]
/home/optee/RPi3/optee_os/lib/libutee/tee_api_objects.c:342
    1260:	f9400ba0 	ldr	x0, [x29,#16]
    1264:	910083a1 	add	x1, x29, #0x20
    1268:	94003d24 	bl	106f8 <utee_cryp_obj_get_info>
    126c:	b9003fa0 	str	w0, [x29,#60]
/home/optee/RPi3/optee_os/lib/libutee/tee_api_objects.c:343
    1270:	b94023a1 	ldr	w1, [x29,#32]
    1274:	528017c0 	mov	w0, #0xbe                  	// #190
    1278:	72b40000 	movk	w0, #0xa000, lsl #16
    127c:	6b00003f 	cmp	w1, w0
    1280:	540002a0 	b.eq	12d4 <TEE_CopyObjectAttributes+0x84>
/home/optee/RPi3/optee_os/lib/libutee/tee_api_objects.c:346
    1284:	f9400ba1 	ldr	x1, [x29,#16]
    1288:	f9400fa0 	ldr	x0, [x29,#24]
    128c:	94000015 	bl	12e0 <TEE_CopyObjectAttributes1>
    1290:	b9003fa0 	str	w0, [x29,#60]
/home/optee/RPi3/optee_os/lib/libutee/tee_api_objects.c:347
    1294:	b9403fa0 	ldr	w0, [x29,#60]
    1298:	6b1f001f 	cmp	w0, wzr
    129c:	540001e0 	b.eq	12d8 <TEE_CopyObjectAttributes+0x88>
/home/optee/RPi3/optee_os/lib/libutee/tee_api_objects.c:348
    12a0:	f0000060 	adrp	x0, 10000 <mpa_set_oct_str+0x80>
    12a4:	912e0001 	add	x1, x0, #0xb80
    12a8:	f0000060 	adrp	x0, 10000 <mpa_set_oct_str+0x80>
    12ac:	9133c000 	add	x0, x0, #0xcf0
    12b0:	52800005 	mov	w5, #0x0                   	// #0
    12b4:	aa0103e4 	mov	x4, x1
    12b8:	52800023 	mov	w3, #0x1                   	// #1
    12bc:	52800022 	mov	w2, #0x1                   	// #1
    12c0:	52802b81 	mov	w1, #0x15c                 	// #348
    12c4:	94002112 	bl	970c <trace_printf>
    12c8:	52800000 	mov	w0, #0x0                   	// #0
    12cc:	940003e9 	bl	2270 <__TEE_Panic>
    12d0:	14000002 	b	12d8 <TEE_CopyObjectAttributes+0x88>
/home/optee/RPi3/optee_os/lib/libutee/tee_api_objects.c:344
    12d4:	d503201f 	nop
/home/optee/RPi3/optee_os/lib/libutee/tee_api_objects.c:349
    12d8:	a8c47bfd 	ldp	x29, x30, [sp],#64
    12dc:	d65f03c0 	ret

00000000000012e0 <TEE_CopyObjectAttributes1>:
TEE_CopyObjectAttributes1():
/home/optee/RPi3/optee_os/lib/libutee/tee_api_objects.c:353
    12e0:	a9ba7bfd 	stp	x29, x30, [sp,#-96]!
    12e4:	910003fd 	mov	x29, sp
    12e8:	f9000fa0 	str	x0, [x29,#24]
    12ec:	f9000ba1 	str	x1, [x29,#16]
/home/optee/RPi3/optee_os/lib/libutee/tee_api_objects.c:358
    12f0:	f9400fa0 	ldr	x0, [x29,#24]
    12f4:	910103a1 	add	x1, x29, #0x40
    12f8:	94003d00 	bl	106f8 <utee_cryp_obj_get_info>
    12fc:	b9005fa0 	str	w0, [x29,#92]
/home/optee/RPi3/optee_os/lib/libutee/tee_api_objects.c:359
    1300:	b9405fa0 	ldr	w0, [x29,#92]
    1304:	6b1f001f 	cmp	w0, wzr
    1308:	540007a1 	b.ne	13fc <TEE_CopyObjectAttributes1+0x11c>
/home/optee/RPi3/optee_os/lib/libutee/tee_api_objects.c:362
    130c:	f9400ba0 	ldr	x0, [x29,#16]
    1310:	910083a1 	add	x1, x29, #0x20
    1314:	94003cf9 	bl	106f8 <utee_cryp_obj_get_info>
    1318:	b9005fa0 	str	w0, [x29,#92]
/home/optee/RPi3/optee_os/lib/libutee/tee_api_objects.c:363
    131c:	b9405fa0 	ldr	w0, [x29,#92]
    1320:	6b1f001f 	cmp	w0, wzr
    1324:	54000701 	b.ne	1404 <TEE_CopyObjectAttributes1+0x124>
/home/optee/RPi3/optee_os/lib/libutee/tee_api_objects.c:366
    1328:	b9403ba0 	ldr	w0, [x29,#56]
    132c:	120f0000 	and	w0, w0, #0x20000
    1330:	6b1f001f 	cmp	w0, wzr
    1334:	540001a1 	b.ne	1368 <TEE_CopyObjectAttributes1+0x88>
/home/optee/RPi3/optee_os/lib/libutee/tee_api_objects.c:367
    1338:	f0000060 	adrp	x0, 10000 <mpa_set_oct_str+0x80>
    133c:	912e0001 	add	x1, x0, #0xb80
    1340:	f0000060 	adrp	x0, 10000 <mpa_set_oct_str+0x80>
    1344:	91344000 	add	x0, x0, #0xd10
    1348:	52800005 	mov	w5, #0x0                   	// #0
    134c:	aa0103e4 	mov	x4, x1
    1350:	52800023 	mov	w3, #0x1                   	// #1
    1354:	52800022 	mov	w2, #0x1                   	// #1
    1358:	52802de1 	mov	w1, #0x16f                 	// #367
    135c:	940020ec 	bl	970c <trace_printf>
    1360:	52800000 	mov	w0, #0x0                   	// #0
    1364:	940003c3 	bl	2270 <__TEE_Panic>
/home/optee/RPi3/optee_os/lib/libutee/tee_api_objects.c:369
    1368:	b9405ba0 	ldr	w0, [x29,#88]
    136c:	12100000 	and	w0, w0, #0x10000
    1370:	6b1f001f 	cmp	w0, wzr
    1374:	540001a0 	b.eq	13a8 <TEE_CopyObjectAttributes1+0xc8>
/home/optee/RPi3/optee_os/lib/libutee/tee_api_objects.c:370
    1378:	f0000060 	adrp	x0, 10000 <mpa_set_oct_str+0x80>
    137c:	912e0001 	add	x1, x0, #0xb80
    1380:	f0000060 	adrp	x0, 10000 <mpa_set_oct_str+0x80>
    1384:	91344000 	add	x0, x0, #0xd10
    1388:	52800005 	mov	w5, #0x0                   	// #0
    138c:	aa0103e4 	mov	x4, x1
    1390:	52800023 	mov	w3, #0x1                   	// #1
    1394:	52800022 	mov	w2, #0x1                   	// #1
    1398:	52802e41 	mov	w1, #0x172                 	// #370
    139c:	940020dc 	bl	970c <trace_printf>
    13a0:	52800000 	mov	w0, #0x0                   	// #0
    13a4:	940003b3 	bl	2270 <__TEE_Panic>
/home/optee/RPi3/optee_os/lib/libutee/tee_api_objects.c:372
    13a8:	b9405ba0 	ldr	w0, [x29,#88]
    13ac:	120f0000 	and	w0, w0, #0x20000
    13b0:	6b1f001f 	cmp	w0, wzr
    13b4:	540001a0 	b.eq	13e8 <TEE_CopyObjectAttributes1+0x108>
/home/optee/RPi3/optee_os/lib/libutee/tee_api_objects.c:373
    13b8:	f0000060 	adrp	x0, 10000 <mpa_set_oct_str+0x80>
    13bc:	912e0001 	add	x1, x0, #0xb80
    13c0:	f0000060 	adrp	x0, 10000 <mpa_set_oct_str+0x80>
    13c4:	91344000 	add	x0, x0, #0xd10
    13c8:	52800005 	mov	w5, #0x0                   	// #0
    13cc:	aa0103e4 	mov	x4, x1
    13d0:	52800023 	mov	w3, #0x1                   	// #1
    13d4:	52800022 	mov	w2, #0x1                   	// #1
    13d8:	52802ea1 	mov	w1, #0x175                 	// #373
    13dc:	940020cc 	bl	970c <trace_printf>
    13e0:	52800000 	mov	w0, #0x0                   	// #0
    13e4:	940003a3 	bl	2270 <__TEE_Panic>
/home/optee/RPi3/optee_os/lib/libutee/tee_api_objects.c:375
    13e8:	f9400fa0 	ldr	x0, [x29,#24]
    13ec:	f9400ba1 	ldr	x1, [x29,#16]
    13f0:	94003cd7 	bl	1074c <utee_cryp_obj_copy>
    13f4:	b9005fa0 	str	w0, [x29,#92]
    13f8:	14000004 	b	1408 <TEE_CopyObjectAttributes1+0x128>
/home/optee/RPi3/optee_os/lib/libutee/tee_api_objects.c:360
    13fc:	d503201f 	nop
    1400:	14000002 	b	1408 <TEE_CopyObjectAttributes1+0x128>
/home/optee/RPi3/optee_os/lib/libutee/tee_api_objects.c:364
    1404:	d503201f 	nop
/home/optee/RPi3/optee_os/lib/libutee/tee_api_objects.c:379
    1408:	b9405fa0 	ldr	w0, [x29,#92]
    140c:	6b1f001f 	cmp	w0, wzr
    1410:	540002e0 	b.eq	146c <TEE_CopyObjectAttributes1+0x18c>
/home/optee/RPi3/optee_os/lib/libutee/tee_api_objects.c:379 (discriminator 1)
    1414:	b9405fa1 	ldr	w1, [x29,#92]
    1418:	52800020 	mov	w0, #0x1                   	// #1
    141c:	72be0200 	movk	w0, #0xf010, lsl #16
    1420:	6b00003f 	cmp	w1, w0
    1424:	54000240 	b.eq	146c <TEE_CopyObjectAttributes1+0x18c>
/home/optee/RPi3/optee_os/lib/libutee/tee_api_objects.c:380
    1428:	b9405fa1 	ldr	w1, [x29,#92]
    142c:	52800060 	mov	w0, #0x3                   	// #3
    1430:	72be0200 	movk	w0, #0xf010, lsl #16
    1434:	6b00003f 	cmp	w1, w0
    1438:	540001a0 	b.eq	146c <TEE_CopyObjectAttributes1+0x18c>
/home/optee/RPi3/optee_os/lib/libutee/tee_api_objects.c:382
    143c:	f0000060 	adrp	x0, 10000 <mpa_set_oct_str+0x80>
    1440:	912e0001 	add	x1, x0, #0xb80
    1444:	f0000060 	adrp	x0, 10000 <mpa_set_oct_str+0x80>
    1448:	91344000 	add	x0, x0, #0xd10
    144c:	b9405fa5 	ldr	w5, [x29,#92]
    1450:	aa0103e4 	mov	x4, x1
    1454:	52800023 	mov	w3, #0x1                   	// #1
    1458:	52800022 	mov	w2, #0x1                   	// #1
    145c:	52802fc1 	mov	w1, #0x17e                 	// #382
    1460:	940020ab 	bl	970c <trace_printf>
    1464:	b9405fa0 	ldr	w0, [x29,#92]
    1468:	94000382 	bl	2270 <__TEE_Panic>
/home/optee/RPi3/optee_os/lib/libutee/tee_api_objects.c:384
    146c:	b9405fa0 	ldr	w0, [x29,#92]
/home/optee/RPi3/optee_os/lib/libutee/tee_api_objects.c:385
    1470:	a8c67bfd 	ldp	x29, x30, [sp],#96
    1474:	d65f03c0 	ret

0000000000001478 <TEE_GenerateKey>:
TEE_GenerateKey():
/home/optee/RPi3/optee_os/lib/libutee/tee_api_objects.c:389
    1478:	a9ba7bfd 	stp	x29, x30, [sp,#-96]!
    147c:	910003fd 	mov	x29, sp
    1480:	a90153f3 	stp	x19, x20, [sp,#16]
    1484:	f9001fa0 	str	x0, [x29,#56]
    1488:	b90037a1 	str	w1, [x29,#52]
    148c:	f90017a2 	str	x2, [x29,#40]
    1490:	b90033a3 	str	w3, [x29,#48]
    1494:	910003e0 	mov	x0, sp
    1498:	aa0003f4 	mov	x20, x0
/home/optee/RPi3/optee_os/lib/libutee/tee_api_objects.c:391
    149c:	b94033a2 	ldr	w2, [x29,#48]
    14a0:	2a0203e0 	mov	w0, w2
    14a4:	d1000400 	sub	x0, x0, #0x1
    14a8:	f9002fa0 	str	x0, [x29,#88]
    14ac:	2a0203e0 	mov	w0, w2
    14b0:	aa0003f2 	mov	x18, x0
    14b4:	d2800013 	mov	x19, #0x0                   	// #0
    14b8:	aa1203e0 	mov	x0, x18
    14bc:	aa1303e1 	mov	x1, x19
    14c0:	d37ffc03 	lsr	x3, x0, #63
    14c4:	d37ff82b 	lsl	x11, x1, #1
    14c8:	aa0b006b 	orr	x11, x3, x11
    14cc:	d37ff80a 	lsl	x10, x0, #1
    14d0:	aa0a03e0 	mov	x0, x10
    14d4:	aa0b03e1 	mov	x1, x11
    14d8:	ab120003 	adds	x3, x0, x18
    14dc:	9a130020 	adc	x0, x1, x19
    14e0:	aa0303ee 	mov	x14, x3
    14e4:	aa0003ef 	mov	x15, x0
    14e8:	d37afdc0 	lsr	x0, x14, #58
    14ec:	d37ae5e9 	lsl	x9, x15, #6
    14f0:	aa090009 	orr	x9, x0, x9
    14f4:	d37ae5c8 	lsl	x8, x14, #6
    14f8:	2a0203e0 	mov	w0, w2
    14fc:	aa0003f0 	mov	x16, x0
    1500:	d2800011 	mov	x17, #0x0                   	// #0
    1504:	aa1003e0 	mov	x0, x16
    1508:	aa1103e1 	mov	x1, x17
    150c:	d37ffc03 	lsr	x3, x0, #63
    1510:	d37ff827 	lsl	x7, x1, #1
    1514:	aa070067 	orr	x7, x3, x7
    1518:	d37ff806 	lsl	x6, x0, #1
    151c:	aa0603e0 	mov	x0, x6
    1520:	aa0703e1 	mov	x1, x7
    1524:	ab100003 	adds	x3, x0, x16
    1528:	9a110020 	adc	x0, x1, x17
    152c:	aa0303ec 	mov	x12, x3
    1530:	aa0003ed 	mov	x13, x0
    1534:	d37afd80 	lsr	x0, x12, #58
    1538:	d37ae5a5 	lsl	x5, x13, #6
    153c:	aa050005 	orr	x5, x0, x5
    1540:	d37ae584 	lsl	x4, x12, #6
    1544:	2a0203e1 	mov	w1, w2
    1548:	aa0103e0 	mov	x0, x1
    154c:	d37ff800 	lsl	x0, x0, #1
    1550:	8b010000 	add	x0, x0, x1
    1554:	d37df000 	lsl	x0, x0, #3
    1558:	91001c00 	add	x0, x0, #0x7
    155c:	91003c00 	add	x0, x0, #0xf
    1560:	d344fc00 	lsr	x0, x0, #4
    1564:	d37cec00 	lsl	x0, x0, #4
    1568:	cb2063ff 	sub	sp, sp, x0
    156c:	910003e0 	mov	x0, sp
    1570:	91001c00 	add	x0, x0, #0x7
    1574:	d343fc00 	lsr	x0, x0, #3
    1578:	d37df000 	lsl	x0, x0, #3
    157c:	f9002ba0 	str	x0, [x29,#80]
/home/optee/RPi3/optee_os/lib/libutee/tee_api_objects.c:393
    1580:	f9402ba0 	ldr	x0, [x29,#80]
    1584:	b94033a2 	ldr	w2, [x29,#48]
    1588:	f94017a1 	ldr	x1, [x29,#40]
    158c:	97fffbc5 	bl	4a0 <__utee_from_attr>
/home/optee/RPi3/optee_os/lib/libutee/tee_api_objects.c:394
    1590:	f9401fa0 	ldr	x0, [x29,#56]
    1594:	b94037a1 	ldr	w1, [x29,#52]
/home/optee/RPi3/optee_os/lib/libutee/tee_api_objects.c:395
    1598:	f9402ba2 	ldr	x2, [x29,#80]
/home/optee/RPi3/optee_os/lib/libutee/tee_api_objects.c:394
    159c:	b94033a3 	ldr	w3, [x29,#48]
    15a0:	94003cb0 	bl	10860 <utee_cryp_obj_generate_key>
    15a4:	b9004fa0 	str	w0, [x29,#76]
/home/optee/RPi3/optee_os/lib/libutee/tee_api_objects.c:397
    15a8:	b9404fa0 	ldr	w0, [x29,#76]
    15ac:	6b1f001f 	cmp	w0, wzr
    15b0:	54000220 	b.eq	15f4 <TEE_GenerateKey+0x17c>
/home/optee/RPi3/optee_os/lib/libutee/tee_api_objects.c:397 (discriminator 1)
    15b4:	b9404fa1 	ldr	w1, [x29,#76]
    15b8:	129fff20 	mov	w0, #0xffff0006            	// #-65530
    15bc:	6b00003f 	cmp	w1, w0
    15c0:	540001a0 	b.eq	15f4 <TEE_GenerateKey+0x17c>
/home/optee/RPi3/optee_os/lib/libutee/tee_api_objects.c:398
    15c4:	f0000060 	adrp	x0, 10000 <mpa_set_oct_str+0x80>
    15c8:	912e0001 	add	x1, x0, #0xb80
    15cc:	f0000060 	adrp	x0, 10000 <mpa_set_oct_str+0x80>
    15d0:	9134c000 	add	x0, x0, #0xd30
    15d4:	52800005 	mov	w5, #0x0                   	// #0
    15d8:	aa0103e4 	mov	x4, x1
    15dc:	52800023 	mov	w3, #0x1                   	// #1
    15e0:	52800022 	mov	w2, #0x1                   	// #1
    15e4:	528031c1 	mov	w1, #0x18e                 	// #398
    15e8:	94002049 	bl	970c <trace_printf>
    15ec:	52800000 	mov	w0, #0x0                   	// #0
    15f0:	94000320 	bl	2270 <__TEE_Panic>
/home/optee/RPi3/optee_os/lib/libutee/tee_api_objects.c:400
    15f4:	b9404fa0 	ldr	w0, [x29,#76]
    15f8:	9100029f 	mov	sp, x20
/home/optee/RPi3/optee_os/lib/libutee/tee_api_objects.c:401
    15fc:	910003bf 	mov	sp, x29
    1600:	a94153f3 	ldp	x19, x20, [sp,#16]
    1604:	a8c67bfd 	ldp	x29, x30, [sp],#96
    1608:	d65f03c0 	ret

000000000000160c <TEE_OpenPersistentObject>:
TEE_OpenPersistentObject():
/home/optee/RPi3/optee_os/lib/libutee/tee_api_objects.c:408
    160c:	a9bc7bfd 	stp	x29, x30, [sp,#-64]!
    1610:	910003fd 	mov	x29, sp
    1614:	b9002fa0 	str	w0, [x29,#44]
    1618:	f90013a1 	str	x1, [x29,#32]
    161c:	b9002ba2 	str	w2, [x29,#40]
    1620:	b9001fa3 	str	w3, [x29,#28]
    1624:	f9000ba4 	str	x4, [x29,#16]
/home/optee/RPi3/optee_os/lib/libutee/tee_api_objects.c:412
    1628:	b9402fa0 	ldr	w0, [x29,#44]
    162c:	7100041f 	cmp	w0, #0x1
    1630:	54000080 	b.eq	1640 <TEE_OpenPersistentObject+0x34>
/home/optee/RPi3/optee_os/lib/libutee/tee_api_objects.c:413
    1634:	129ffee0 	mov	w0, #0xffff0008            	// #-65528
    1638:	b9003fa0 	str	w0, [x29,#60]
/home/optee/RPi3/optee_os/lib/libutee/tee_api_objects.c:414
    163c:	14000025 	b	16d0 <TEE_OpenPersistentObject+0xc4>
/home/optee/RPi3/optee_os/lib/libutee/tee_api_objects.c:417
    1640:	f94013a0 	ldr	x0, [x29,#32]
    1644:	eb1f001f 	cmp	x0, xzr
    1648:	54000081 	b.ne	1658 <TEE_OpenPersistentObject+0x4c>
/home/optee/RPi3/optee_os/lib/libutee/tee_api_objects.c:418
    164c:	129ffee0 	mov	w0, #0xffff0008            	// #-65528
    1650:	b9003fa0 	str	w0, [x29,#60]
/home/optee/RPi3/optee_os/lib/libutee/tee_api_objects.c:419
    1654:	1400001f 	b	16d0 <TEE_OpenPersistentObject+0xc4>
/home/optee/RPi3/optee_os/lib/libutee/tee_api_objects.c:422
    1658:	b9402ba0 	ldr	w0, [x29,#40]
    165c:	7101001f 	cmp	w0, #0x40
    1660:	54000089 	b.ls	1670 <TEE_OpenPersistentObject+0x64>
/home/optee/RPi3/optee_os/lib/libutee/tee_api_objects.c:423
    1664:	129fff20 	mov	w0, #0xffff0006            	// #-65530
    1668:	b9003fa0 	str	w0, [x29,#60]
/home/optee/RPi3/optee_os/lib/libutee/tee_api_objects.c:424
    166c:	14000019 	b	16d0 <TEE_OpenPersistentObject+0xc4>
/home/optee/RPi3/optee_os/lib/libutee/tee_api_objects.c:427
    1670:	f9400ba0 	ldr	x0, [x29,#16]
    1674:	eb1f001f 	cmp	x0, xzr
    1678:	54000081 	b.ne	1688 <TEE_OpenPersistentObject+0x7c>
/home/optee/RPi3/optee_os/lib/libutee/tee_api_objects.c:428
    167c:	129fff20 	mov	w0, #0xffff0006            	// #-65530
    1680:	b9003fa0 	str	w0, [x29,#60]
/home/optee/RPi3/optee_os/lib/libutee/tee_api_objects.c:429
    1684:	14000013 	b	16d0 <TEE_OpenPersistentObject+0xc4>
/home/optee/RPi3/optee_os/lib/libutee/tee_api_objects.c:432
    1688:	b9402fa0 	ldr	w0, [x29,#44]
    168c:	b9402ba1 	ldr	w1, [x29,#40]
    1690:	b9401fa2 	ldr	w2, [x29,#28]
    1694:	9100e3a3 	add	x3, x29, #0x38
    1698:	aa0303e4 	mov	x4, x3
    169c:	aa0203e3 	mov	x3, x2
    16a0:	aa0103e2 	mov	x2, x1
    16a4:	f94013a1 	ldr	x1, [x29,#32]
    16a8:	94003c47 	bl	107c4 <utee_storage_obj_open>
    16ac:	b9003fa0 	str	w0, [x29,#60]
/home/optee/RPi3/optee_os/lib/libutee/tee_api_objects.c:434
    16b0:	b9403fa0 	ldr	w0, [x29,#60]
    16b4:	6b1f001f 	cmp	w0, wzr
    16b8:	540000c1 	b.ne	16d0 <TEE_OpenPersistentObject+0xc4>
/home/optee/RPi3/optee_os/lib/libutee/tee_api_objects.c:435
    16bc:	b9403ba0 	ldr	w0, [x29,#56]
    16c0:	2a0003e0 	mov	w0, w0
    16c4:	aa0003e1 	mov	x1, x0
    16c8:	f9400ba0 	ldr	x0, [x29,#16]
    16cc:	f9000001 	str	x1, [x0]
/home/optee/RPi3/optee_os/lib/libutee/tee_api_objects.c:438
    16d0:	b9403fa0 	ldr	w0, [x29,#60]
    16d4:	6b1f001f 	cmp	w0, wzr
    16d8:	54000460 	b.eq	1764 <TEE_OpenPersistentObject+0x158>
/home/optee/RPi3/optee_os/lib/libutee/tee_api_objects.c:438 (discriminator 1)
    16dc:	b9403fa1 	ldr	w1, [x29,#60]
    16e0:	129ffee0 	mov	w0, #0xffff0008            	// #-65528
    16e4:	6b00003f 	cmp	w1, w0
    16e8:	540003e0 	b.eq	1764 <TEE_OpenPersistentObject+0x158>
/home/optee/RPi3/optee_os/lib/libutee/tee_api_objects.c:439
    16ec:	b9403fa1 	ldr	w1, [x29,#60]
    16f0:	129fff80 	mov	w0, #0xffff0003            	// #-65533
    16f4:	6b00003f 	cmp	w1, w0
    16f8:	54000360 	b.eq	1764 <TEE_OpenPersistentObject+0x158>
/home/optee/RPi3/optee_os/lib/libutee/tee_api_objects.c:440
    16fc:	b9403fa1 	ldr	w1, [x29,#60]
    1700:	129ffe60 	mov	w0, #0xffff000c            	// #-65524
    1704:	6b00003f 	cmp	w1, w0
    1708:	540002e0 	b.eq	1764 <TEE_OpenPersistentObject+0x158>
/home/optee/RPi3/optee_os/lib/libutee/tee_api_objects.c:441
    170c:	b9403fa1 	ldr	w1, [x29,#60]
    1710:	52800020 	mov	w0, #0x1                   	// #1
    1714:	72be0200 	movk	w0, #0xf010, lsl #16
    1718:	6b00003f 	cmp	w1, w0
    171c:	54000240 	b.eq	1764 <TEE_OpenPersistentObject+0x158>
/home/optee/RPi3/optee_os/lib/libutee/tee_api_objects.c:442
    1720:	b9403fa1 	ldr	w1, [x29,#60]
    1724:	52800060 	mov	w0, #0x3                   	// #3
    1728:	72be0200 	movk	w0, #0xf010, lsl #16
    172c:	6b00003f 	cmp	w1, w0
    1730:	540001a0 	b.eq	1764 <TEE_OpenPersistentObject+0x158>
/home/optee/RPi3/optee_os/lib/libutee/tee_api_objects.c:444
    1734:	f0000060 	adrp	x0, 10000 <mpa_set_oct_str+0x80>
    1738:	912e0001 	add	x1, x0, #0xb80
    173c:	f0000060 	adrp	x0, 10000 <mpa_set_oct_str+0x80>
    1740:	91350000 	add	x0, x0, #0xd40
    1744:	52800005 	mov	w5, #0x0                   	// #0
    1748:	aa0103e4 	mov	x4, x1
    174c:	52800023 	mov	w3, #0x1                   	// #1
    1750:	52800022 	mov	w2, #0x1                   	// #1
    1754:	52803781 	mov	w1, #0x1bc                 	// #444
    1758:	94001fed 	bl	970c <trace_printf>
    175c:	52800000 	mov	w0, #0x0                   	// #0
    1760:	940002c4 	bl	2270 <__TEE_Panic>
/home/optee/RPi3/optee_os/lib/libutee/tee_api_objects.c:446
    1764:	b9403fa0 	ldr	w0, [x29,#60]
/home/optee/RPi3/optee_os/lib/libutee/tee_api_objects.c:447
    1768:	a8c47bfd 	ldp	x29, x30, [sp],#64
    176c:	d65f03c0 	ret

0000000000001770 <TEE_CreatePersistentObject>:
TEE_CreatePersistentObject():
/home/optee/RPi3/optee_os/lib/libutee/tee_api_objects.c:455
    1770:	a9bb7bfd 	stp	x29, x30, [sp,#-80]!
    1774:	910003fd 	mov	x29, sp
    1778:	b9003fa0 	str	w0, [x29,#60]
    177c:	f9001ba1 	str	x1, [x29,#48]
    1780:	b9003ba2 	str	w2, [x29,#56]
    1784:	b9002fa3 	str	w3, [x29,#44]
    1788:	f90013a4 	str	x4, [x29,#32]
    178c:	f9000fa5 	str	x5, [x29,#24]
    1790:	b9002ba6 	str	w6, [x29,#40]
    1794:	f9000ba7 	str	x7, [x29,#16]
/home/optee/RPi3/optee_os/lib/libutee/tee_api_objects.c:466
    1798:	b9403fa0 	ldr	w0, [x29,#60]
    179c:	7100041f 	cmp	w0, #0x1
    17a0:	54000080 	b.eq	17b0 <TEE_CreatePersistentObject+0x40>
/home/optee/RPi3/optee_os/lib/libutee/tee_api_objects.c:467
    17a4:	129ffee0 	mov	w0, #0xffff0008            	// #-65528
    17a8:	b9004fa0 	str	w0, [x29,#76]
/home/optee/RPi3/optee_os/lib/libutee/tee_api_objects.c:468
    17ac:	1400002f 	b	1868 <TEE_CreatePersistentObject+0xf8>
/home/optee/RPi3/optee_os/lib/libutee/tee_api_objects.c:473
    17b0:	f9401ba0 	ldr	x0, [x29,#48]
    17b4:	eb1f001f 	cmp	x0, xzr
    17b8:	54000081 	b.ne	17c8 <TEE_CreatePersistentObject+0x58>
/home/optee/RPi3/optee_os/lib/libutee/tee_api_objects.c:474
    17bc:	129ffee0 	mov	w0, #0xffff0008            	// #-65528
    17c0:	b9004fa0 	str	w0, [x29,#76]
/home/optee/RPi3/optee_os/lib/libutee/tee_api_objects.c:475
    17c4:	14000029 	b	1868 <TEE_CreatePersistentObject+0xf8>
/home/optee/RPi3/optee_os/lib/libutee/tee_api_objects.c:478
    17c8:	b9403ba0 	ldr	w0, [x29,#56]
    17cc:	7101001f 	cmp	w0, #0x40
    17d0:	54000089 	b.ls	17e0 <TEE_CreatePersistentObject+0x70>
/home/optee/RPi3/optee_os/lib/libutee/tee_api_objects.c:479
    17d4:	129fff20 	mov	w0, #0xffff0006            	// #-65530
    17d8:	b9004fa0 	str	w0, [x29,#76]
/home/optee/RPi3/optee_os/lib/libutee/tee_api_objects.c:480
    17dc:	14000023 	b	1868 <TEE_CreatePersistentObject+0xf8>
/home/optee/RPi3/optee_os/lib/libutee/tee_api_objects.c:483
    17e0:	b9403fa0 	ldr	w0, [x29,#60]
    17e4:	b9403ba1 	ldr	w1, [x29,#56]
    17e8:	b9402fa2 	ldr	w2, [x29,#44]
    17ec:	f94013a3 	ldr	x3, [x29,#32]
    17f0:	b9402ba4 	ldr	w4, [x29,#40]
    17f4:	910123a5 	add	x5, x29, #0x48
    17f8:	aa0503e7 	mov	x7, x5
    17fc:	aa0403e6 	mov	x6, x4
    1800:	f9400fa5 	ldr	x5, [x29,#24]
    1804:	aa0303e4 	mov	x4, x3
    1808:	aa0203e3 	mov	x3, x2
    180c:	aa0103e2 	mov	x2, x1
    1810:	f9401ba1 	ldr	x1, [x29,#48]
    1814:	94003bef 	bl	107d0 <utee_storage_obj_create>
    1818:	b9004fa0 	str	w0, [x29,#76]
/home/optee/RPi3/optee_os/lib/libutee/tee_api_objects.c:486
    181c:	b9404fa0 	ldr	w0, [x29,#76]
    1820:	6b1f001f 	cmp	w0, wzr
    1824:	54000221 	b.ne	1868 <TEE_CreatePersistentObject+0xf8>
/home/optee/RPi3/optee_os/lib/libutee/tee_api_objects.c:487
    1828:	f9400ba0 	ldr	x0, [x29,#16]
    182c:	eb1f001f 	cmp	x0, xzr
    1830:	540000e0 	b.eq	184c <TEE_CreatePersistentObject+0xdc>
/home/optee/RPi3/optee_os/lib/libutee/tee_api_objects.c:488
    1834:	b9404ba0 	ldr	w0, [x29,#72]
    1838:	2a0003e0 	mov	w0, w0
    183c:	aa0003e1 	mov	x1, x0
    1840:	f9400ba0 	ldr	x0, [x29,#16]
    1844:	f9000001 	str	x1, [x0]
    1848:	14000005 	b	185c <TEE_CreatePersistentObject+0xec>
/home/optee/RPi3/optee_os/lib/libutee/tee_api_objects.c:490
    184c:	b9404ba0 	ldr	w0, [x29,#72]
    1850:	2a0003e0 	mov	w0, w0
    1854:	94003bb5 	bl	10728 <utee_cryp_obj_close>
    1858:	b9004fa0 	str	w0, [x29,#76]
/home/optee/RPi3/optee_os/lib/libutee/tee_api_objects.c:491
    185c:	b9404fa0 	ldr	w0, [x29,#76]
    1860:	6b1f001f 	cmp	w0, wzr
    1864:	540005e0 	b.eq	1920 <TEE_CreatePersistentObject+0x1b0>
/home/optee/RPi3/optee_os/lib/libutee/tee_api_objects.c:495
    1868:	f9400ba0 	ldr	x0, [x29,#16]
    186c:	eb1f001f 	cmp	x0, xzr
    1870:	54000060 	b.eq	187c <TEE_CreatePersistentObject+0x10c>
/home/optee/RPi3/optee_os/lib/libutee/tee_api_objects.c:496
    1874:	f9400ba0 	ldr	x0, [x29,#16]
    1878:	f900001f 	str	xzr, [x0]
/home/optee/RPi3/optee_os/lib/libutee/tee_api_objects.c:497
    187c:	b9404fa1 	ldr	w1, [x29,#76]
    1880:	129ffee0 	mov	w0, #0xffff0008            	// #-65528
    1884:	6b00003f 	cmp	w1, w0
    1888:	540002e0 	b.eq	18e4 <TEE_CreatePersistentObject+0x174>
/home/optee/RPi3/optee_os/lib/libutee/tee_api_objects.c:497 (discriminator 1)
    188c:	b9404fa1 	ldr	w1, [x29,#76]
    1890:	129fff80 	mov	w0, #0xffff0003            	// #-65533
    1894:	6b00003f 	cmp	w1, w0
    1898:	54000260 	b.eq	18e4 <TEE_CreatePersistentObject+0x174>
/home/optee/RPi3/optee_os/lib/libutee/tee_api_objects.c:498
    189c:	b9404fa1 	ldr	w1, [x29,#76]
    18a0:	129ffe60 	mov	w0, #0xffff000c            	// #-65524
    18a4:	6b00003f 	cmp	w1, w0
    18a8:	540001e0 	b.eq	18e4 <TEE_CreatePersistentObject+0x174>
/home/optee/RPi3/optee_os/lib/libutee/tee_api_objects.c:499
    18ac:	b9404fa1 	ldr	w1, [x29,#76]
    18b0:	1299f7c0 	mov	w0, #0xffff3041            	// #-53183
    18b4:	6b00003f 	cmp	w1, w0
    18b8:	54000160 	b.eq	18e4 <TEE_CreatePersistentObject+0x174>
/home/optee/RPi3/optee_os/lib/libutee/tee_api_objects.c:500
    18bc:	b9404fa1 	ldr	w1, [x29,#76]
    18c0:	52800020 	mov	w0, #0x1                   	// #1
    18c4:	72be0200 	movk	w0, #0xf010, lsl #16
    18c8:	6b00003f 	cmp	w1, w0
    18cc:	540000c0 	b.eq	18e4 <TEE_CreatePersistentObject+0x174>
/home/optee/RPi3/optee_os/lib/libutee/tee_api_objects.c:501
    18d0:	b9404fa1 	ldr	w1, [x29,#76]
    18d4:	52800060 	mov	w0, #0x3                   	// #3
    18d8:	72be0200 	movk	w0, #0xf010, lsl #16
    18dc:	6b00003f 	cmp	w1, w0
    18e0:	54000061 	b.ne	18ec <TEE_CreatePersistentObject+0x17c>
/home/optee/RPi3/optee_os/lib/libutee/tee_api_objects.c:503
    18e4:	b9404fa0 	ldr	w0, [x29,#76]
    18e8:	14000010 	b	1928 <TEE_CreatePersistentObject+0x1b8>
/home/optee/RPi3/optee_os/lib/libutee/tee_api_objects.c:504
    18ec:	f0000060 	adrp	x0, 10000 <mpa_set_oct_str+0x80>
    18f0:	912e0001 	add	x1, x0, #0xb80
    18f4:	f0000060 	adrp	x0, 10000 <mpa_set_oct_str+0x80>
    18f8:	91358000 	add	x0, x0, #0xd60
    18fc:	52800005 	mov	w5, #0x0                   	// #0
    1900:	aa0103e4 	mov	x4, x1
    1904:	52800023 	mov	w3, #0x1                   	// #1
    1908:	52800022 	mov	w2, #0x1                   	// #1
    190c:	52803f01 	mov	w1, #0x1f8                 	// #504
    1910:	94001f7f 	bl	970c <trace_printf>
    1914:	52800000 	mov	w0, #0x0                   	// #0
    1918:	94000256 	bl	2270 <__TEE_Panic>
    191c:	14000002 	b	1924 <TEE_CreatePersistentObject+0x1b4>
/home/optee/RPi3/optee_os/lib/libutee/tee_api_objects.c:492
    1920:	d503201f 	nop
/home/optee/RPi3/optee_os/lib/libutee/tee_api_objects.c:506
    1924:	52800000 	mov	w0, #0x0                   	// #0
/home/optee/RPi3/optee_os/lib/libutee/tee_api_objects.c:507 (discriminator 1)
    1928:	a8c57bfd 	ldp	x29, x30, [sp],#80
    192c:	d65f03c0 	ret

0000000000001930 <TEE_CloseAndDeletePersistentObject>:
TEE_CloseAndDeletePersistentObject():
/home/optee/RPi3/optee_os/lib/libutee/tee_api_objects.c:516
    1930:	a9bd7bfd 	stp	x29, x30, [sp,#-48]!
    1934:	910003fd 	mov	x29, sp
    1938:	f9000fa0 	str	x0, [x29,#24]
/home/optee/RPi3/optee_os/lib/libutee/tee_api_objects.c:519
    193c:	f9400fa0 	ldr	x0, [x29,#24]
    1940:	eb1f001f 	cmp	x0, xzr
    1944:	54000280 	b.eq	1994 <TEE_CloseAndDeletePersistentObject+0x64>
/home/optee/RPi3/optee_os/lib/libutee/tee_api_objects.c:522
    1948:	f9400fa0 	ldr	x0, [x29,#24]
    194c:	94000015 	bl	19a0 <TEE_CloseAndDeletePersistentObject1>
    1950:	b9002fa0 	str	w0, [x29,#44]
/home/optee/RPi3/optee_os/lib/libutee/tee_api_objects.c:524
    1954:	b9402fa0 	ldr	w0, [x29,#44]
    1958:	6b1f001f 	cmp	w0, wzr
    195c:	540001e0 	b.eq	1998 <TEE_CloseAndDeletePersistentObject+0x68>
/home/optee/RPi3/optee_os/lib/libutee/tee_api_objects.c:525
    1960:	f0000060 	adrp	x0, 10000 <mpa_set_oct_str+0x80>
    1964:	912e0001 	add	x1, x0, #0xb80
    1968:	f0000060 	adrp	x0, 10000 <mpa_set_oct_str+0x80>
    196c:	91360000 	add	x0, x0, #0xd80
    1970:	52800005 	mov	w5, #0x0                   	// #0
    1974:	aa0103e4 	mov	x4, x1
    1978:	52800023 	mov	w3, #0x1                   	// #1
    197c:	52800022 	mov	w2, #0x1                   	// #1
    1980:	528041a1 	mov	w1, #0x20d                 	// #525
    1984:	94001f62 	bl	970c <trace_printf>
    1988:	52800000 	mov	w0, #0x0                   	// #0
    198c:	94000239 	bl	2270 <__TEE_Panic>
    1990:	14000002 	b	1998 <TEE_CloseAndDeletePersistentObject+0x68>
/home/optee/RPi3/optee_os/lib/libutee/tee_api_objects.c:520
    1994:	d503201f 	nop
/home/optee/RPi3/optee_os/lib/libutee/tee_api_objects.c:526
    1998:	a8c37bfd 	ldp	x29, x30, [sp],#48
    199c:	d65f03c0 	ret

00000000000019a0 <TEE_CloseAndDeletePersistentObject1>:
TEE_CloseAndDeletePersistentObject1():
/home/optee/RPi3/optee_os/lib/libutee/tee_api_objects.c:529
    19a0:	a9bd7bfd 	stp	x29, x30, [sp,#-48]!
    19a4:	910003fd 	mov	x29, sp
    19a8:	f9000fa0 	str	x0, [x29,#24]
/home/optee/RPi3/optee_os/lib/libutee/tee_api_objects.c:532
    19ac:	f9400fa0 	ldr	x0, [x29,#24]
    19b0:	eb1f001f 	cmp	x0, xzr
    19b4:	54000081 	b.ne	19c4 <TEE_CloseAndDeletePersistentObject1+0x24>
/home/optee/RPi3/optee_os/lib/libutee/tee_api_objects.c:533
    19b8:	52800060 	mov	w0, #0x3                   	// #3
    19bc:	72be0200 	movk	w0, #0xf010, lsl #16
    19c0:	14000019 	b	1a24 <TEE_CloseAndDeletePersistentObject1+0x84>
/home/optee/RPi3/optee_os/lib/libutee/tee_api_objects.c:535
    19c4:	f9400fa0 	ldr	x0, [x29,#24]
    19c8:	94003b85 	bl	107dc <utee_storage_obj_del>
    19cc:	b9002fa0 	str	w0, [x29,#44]
/home/optee/RPi3/optee_os/lib/libutee/tee_api_objects.c:537
    19d0:	b9402fa0 	ldr	w0, [x29,#44]
    19d4:	6b1f001f 	cmp	w0, wzr
    19d8:	54000240 	b.eq	1a20 <TEE_CloseAndDeletePersistentObject1+0x80>
/home/optee/RPi3/optee_os/lib/libutee/tee_api_objects.c:537 (discriminator 1)
    19dc:	b9402fa1 	ldr	w1, [x29,#44]
    19e0:	52800060 	mov	w0, #0x3                   	// #3
    19e4:	72be0200 	movk	w0, #0xf010, lsl #16
    19e8:	6b00003f 	cmp	w1, w0
    19ec:	540001a0 	b.eq	1a20 <TEE_CloseAndDeletePersistentObject1+0x80>
/home/optee/RPi3/optee_os/lib/libutee/tee_api_objects.c:538
    19f0:	f0000060 	adrp	x0, 10000 <mpa_set_oct_str+0x80>
    19f4:	912e0001 	add	x1, x0, #0xb80
    19f8:	f0000060 	adrp	x0, 10000 <mpa_set_oct_str+0x80>
    19fc:	9136a000 	add	x0, x0, #0xda8
    1a00:	52800005 	mov	w5, #0x0                   	// #0
    1a04:	aa0103e4 	mov	x4, x1
    1a08:	52800023 	mov	w3, #0x1                   	// #1
    1a0c:	52800022 	mov	w2, #0x1                   	// #1
    1a10:	52804341 	mov	w1, #0x21a                 	// #538
    1a14:	94001f3e 	bl	970c <trace_printf>
    1a18:	52800000 	mov	w0, #0x0                   	// #0
    1a1c:	94000215 	bl	2270 <__TEE_Panic>
/home/optee/RPi3/optee_os/lib/libutee/tee_api_objects.c:540
    1a20:	b9402fa0 	ldr	w0, [x29,#44]
/home/optee/RPi3/optee_os/lib/libutee/tee_api_objects.c:541
    1a24:	a8c37bfd 	ldp	x29, x30, [sp],#48
    1a28:	d65f03c0 	ret

0000000000001a2c <TEE_RenamePersistentObject>:
TEE_RenamePersistentObject():
/home/optee/RPi3/optee_os/lib/libutee/tee_api_objects.c:547
    1a2c:	a9bc7bfd 	stp	x29, x30, [sp,#-64]!
    1a30:	910003fd 	mov	x29, sp
    1a34:	f90017a0 	str	x0, [x29,#40]
    1a38:	f90013a1 	str	x1, [x29,#32]
    1a3c:	b9001fa2 	str	w2, [x29,#28]
/home/optee/RPi3/optee_os/lib/libutee/tee_api_objects.c:550
    1a40:	f94017a0 	ldr	x0, [x29,#40]
    1a44:	eb1f001f 	cmp	x0, xzr
    1a48:	54000081 	b.ne	1a58 <TEE_RenamePersistentObject+0x2c>
/home/optee/RPi3/optee_os/lib/libutee/tee_api_objects.c:551
    1a4c:	129ffee0 	mov	w0, #0xffff0008            	// #-65528
    1a50:	b9003fa0 	str	w0, [x29,#60]
/home/optee/RPi3/optee_os/lib/libutee/tee_api_objects.c:552
    1a54:	14000013 	b	1aa0 <TEE_RenamePersistentObject+0x74>
/home/optee/RPi3/optee_os/lib/libutee/tee_api_objects.c:555
    1a58:	f94013a0 	ldr	x0, [x29,#32]
    1a5c:	eb1f001f 	cmp	x0, xzr
    1a60:	54000081 	b.ne	1a70 <TEE_RenamePersistentObject+0x44>
/home/optee/RPi3/optee_os/lib/libutee/tee_api_objects.c:556
    1a64:	129fff20 	mov	w0, #0xffff0006            	// #-65530
    1a68:	b9003fa0 	str	w0, [x29,#60]
/home/optee/RPi3/optee_os/lib/libutee/tee_api_objects.c:557
    1a6c:	1400000d 	b	1aa0 <TEE_RenamePersistentObject+0x74>
/home/optee/RPi3/optee_os/lib/libutee/tee_api_objects.c:560
    1a70:	b9401fa0 	ldr	w0, [x29,#28]
    1a74:	7101001f 	cmp	w0, #0x40
    1a78:	54000089 	b.ls	1a88 <TEE_RenamePersistentObject+0x5c>
/home/optee/RPi3/optee_os/lib/libutee/tee_api_objects.c:561
    1a7c:	129fff20 	mov	w0, #0xffff0006            	// #-65530
    1a80:	b9003fa0 	str	w0, [x29,#60]
/home/optee/RPi3/optee_os/lib/libutee/tee_api_objects.c:562
    1a84:	14000007 	b	1aa0 <TEE_RenamePersistentObject+0x74>
/home/optee/RPi3/optee_os/lib/libutee/tee_api_objects.c:565
    1a88:	f94017a0 	ldr	x0, [x29,#40]
    1a8c:	b9401fa1 	ldr	w1, [x29,#28]
    1a90:	aa0103e2 	mov	x2, x1
    1a94:	f94013a1 	ldr	x1, [x29,#32]
    1a98:	94003b54 	bl	107e8 <utee_storage_obj_rename>
    1a9c:	b9003fa0 	str	w0, [x29,#60]
/home/optee/RPi3/optee_os/lib/libutee/tee_api_objects.c:569
    1aa0:	b9403fa0 	ldr	w0, [x29,#60]
    1aa4:	6b1f001f 	cmp	w0, wzr
    1aa8:	54000360 	b.eq	1b14 <TEE_RenamePersistentObject+0xe8>
/home/optee/RPi3/optee_os/lib/libutee/tee_api_objects.c:569 (discriminator 1)
    1aac:	b9403fa1 	ldr	w1, [x29,#60]
    1ab0:	129fff80 	mov	w0, #0xffff0003            	// #-65533
    1ab4:	6b00003f 	cmp	w1, w0
    1ab8:	540002e0 	b.eq	1b14 <TEE_RenamePersistentObject+0xe8>
/home/optee/RPi3/optee_os/lib/libutee/tee_api_objects.c:570
    1abc:	b9403fa1 	ldr	w1, [x29,#60]
    1ac0:	52800020 	mov	w0, #0x1                   	// #1
    1ac4:	72be0200 	movk	w0, #0xf010, lsl #16
    1ac8:	6b00003f 	cmp	w1, w0
    1acc:	54000240 	b.eq	1b14 <TEE_RenamePersistentObject+0xe8>
/home/optee/RPi3/optee_os/lib/libutee/tee_api_objects.c:571
    1ad0:	b9403fa1 	ldr	w1, [x29,#60]
    1ad4:	52800060 	mov	w0, #0x3                   	// #3
    1ad8:	72be0200 	movk	w0, #0xf010, lsl #16
    1adc:	6b00003f 	cmp	w1, w0
    1ae0:	540001a0 	b.eq	1b14 <TEE_RenamePersistentObject+0xe8>
/home/optee/RPi3/optee_os/lib/libutee/tee_api_objects.c:573
    1ae4:	f0000060 	adrp	x0, 10000 <mpa_set_oct_str+0x80>
    1ae8:	912e0001 	add	x1, x0, #0xb80
    1aec:	f0000060 	adrp	x0, 10000 <mpa_set_oct_str+0x80>
    1af0:	91374000 	add	x0, x0, #0xdd0
    1af4:	52800005 	mov	w5, #0x0                   	// #0
    1af8:	aa0103e4 	mov	x4, x1
    1afc:	52800023 	mov	w3, #0x1                   	// #1
    1b00:	52800022 	mov	w2, #0x1                   	// #1
    1b04:	528047a1 	mov	w1, #0x23d                 	// #573
    1b08:	94001f01 	bl	970c <trace_printf>
    1b0c:	52800000 	mov	w0, #0x0                   	// #0
    1b10:	940001d8 	bl	2270 <__TEE_Panic>
/home/optee/RPi3/optee_os/lib/libutee/tee_api_objects.c:575
    1b14:	b9403fa0 	ldr	w0, [x29,#60]
/home/optee/RPi3/optee_os/lib/libutee/tee_api_objects.c:576
    1b18:	a8c47bfd 	ldp	x29, x30, [sp],#64
    1b1c:	d65f03c0 	ret

0000000000001b20 <TEE_AllocatePersistentObjectEnumerator>:
TEE_AllocatePersistentObjectEnumerator():
/home/optee/RPi3/optee_os/lib/libutee/tee_api_objects.c:580
    1b20:	a9bd7bfd 	stp	x29, x30, [sp,#-48]!
    1b24:	910003fd 	mov	x29, sp
    1b28:	f9000fa0 	str	x0, [x29,#24]
/home/optee/RPi3/optee_os/lib/libutee/tee_api_objects.c:584
    1b2c:	f9400fa0 	ldr	x0, [x29,#24]
    1b30:	eb1f001f 	cmp	x0, xzr
    1b34:	54000061 	b.ne	1b40 <TEE_AllocatePersistentObjectEnumerator+0x20>
/home/optee/RPi3/optee_os/lib/libutee/tee_api_objects.c:585
    1b38:	129fff20 	mov	w0, #0xffff0006            	// #-65530
    1b3c:	14000021 	b	1bc0 <TEE_AllocatePersistentObjectEnumerator+0xa0>
/home/optee/RPi3/optee_os/lib/libutee/tee_api_objects.c:587
    1b40:	9100a3a0 	add	x0, x29, #0x28
    1b44:	94003b2c 	bl	107f4 <utee_storage_alloc_enum>
    1b48:	b9002fa0 	str	w0, [x29,#44]
/home/optee/RPi3/optee_os/lib/libutee/tee_api_objects.c:589
    1b4c:	b9402fa0 	ldr	w0, [x29,#44]
    1b50:	6b1f001f 	cmp	w0, wzr
    1b54:	54000040 	b.eq	1b5c <TEE_AllocatePersistentObjectEnumerator+0x3c>
/home/optee/RPi3/optee_os/lib/libutee/tee_api_objects.c:590
    1b58:	b9002bbf 	str	wzr, [x29,#40]
/home/optee/RPi3/optee_os/lib/libutee/tee_api_objects.c:592
    1b5c:	b9402ba0 	ldr	w0, [x29,#40]
    1b60:	2a0003e0 	mov	w0, w0
    1b64:	aa0003e1 	mov	x1, x0
    1b68:	f9400fa0 	ldr	x0, [x29,#24]
    1b6c:	f9000001 	str	x1, [x0]
/home/optee/RPi3/optee_os/lib/libutee/tee_api_objects.c:594
    1b70:	b9402fa0 	ldr	w0, [x29,#44]
    1b74:	6b1f001f 	cmp	w0, wzr
    1b78:	54000220 	b.eq	1bbc <TEE_AllocatePersistentObjectEnumerator+0x9c>
/home/optee/RPi3/optee_os/lib/libutee/tee_api_objects.c:594 (discriminator 1)
    1b7c:	b9402fa1 	ldr	w1, [x29,#44]
    1b80:	129fff80 	mov	w0, #0xffff0003            	// #-65533
    1b84:	6b00003f 	cmp	w1, w0
    1b88:	540001a0 	b.eq	1bbc <TEE_AllocatePersistentObjectEnumerator+0x9c>
/home/optee/RPi3/optee_os/lib/libutee/tee_api_objects.c:596
    1b8c:	f0000060 	adrp	x0, 10000 <mpa_set_oct_str+0x80>
    1b90:	912e0001 	add	x1, x0, #0xb80
    1b94:	f0000060 	adrp	x0, 10000 <mpa_set_oct_str+0x80>
    1b98:	9137c000 	add	x0, x0, #0xdf0
    1b9c:	52800005 	mov	w5, #0x0                   	// #0
    1ba0:	aa0103e4 	mov	x4, x1
    1ba4:	52800023 	mov	w3, #0x1                   	// #1
    1ba8:	52800022 	mov	w2, #0x1                   	// #1
    1bac:	52804a81 	mov	w1, #0x254                 	// #596
    1bb0:	94001ed7 	bl	970c <trace_printf>
    1bb4:	52800000 	mov	w0, #0x0                   	// #0
    1bb8:	940001ae 	bl	2270 <__TEE_Panic>
/home/optee/RPi3/optee_os/lib/libutee/tee_api_objects.c:598
    1bbc:	b9402fa0 	ldr	w0, [x29,#44]
/home/optee/RPi3/optee_os/lib/libutee/tee_api_objects.c:599 (discriminator 1)
    1bc0:	a8c37bfd 	ldp	x29, x30, [sp],#48
    1bc4:	d65f03c0 	ret

0000000000001bc8 <TEE_FreePersistentObjectEnumerator>:
TEE_FreePersistentObjectEnumerator():
/home/optee/RPi3/optee_os/lib/libutee/tee_api_objects.c:602
    1bc8:	a9bd7bfd 	stp	x29, x30, [sp,#-48]!
    1bcc:	910003fd 	mov	x29, sp
    1bd0:	f9000fa0 	str	x0, [x29,#24]
/home/optee/RPi3/optee_os/lib/libutee/tee_api_objects.c:605
    1bd4:	f9400fa0 	ldr	x0, [x29,#24]
    1bd8:	eb1f001f 	cmp	x0, xzr
    1bdc:	54000280 	b.eq	1c2c <TEE_FreePersistentObjectEnumerator+0x64>
/home/optee/RPi3/optee_os/lib/libutee/tee_api_objects.c:608
    1be0:	f9400fa0 	ldr	x0, [x29,#24]
    1be4:	94003b07 	bl	10800 <utee_storage_free_enum>
    1be8:	b9002fa0 	str	w0, [x29,#44]
/home/optee/RPi3/optee_os/lib/libutee/tee_api_objects.c:610
    1bec:	b9402fa0 	ldr	w0, [x29,#44]
    1bf0:	6b1f001f 	cmp	w0, wzr
    1bf4:	540001e0 	b.eq	1c30 <TEE_FreePersistentObjectEnumerator+0x68>
/home/optee/RPi3/optee_os/lib/libutee/tee_api_objects.c:611
    1bf8:	f0000060 	adrp	x0, 10000 <mpa_set_oct_str+0x80>
    1bfc:	912e0001 	add	x1, x0, #0xb80
    1c00:	f0000060 	adrp	x0, 10000 <mpa_set_oct_str+0x80>
    1c04:	91386000 	add	x0, x0, #0xe18
    1c08:	52800005 	mov	w5, #0x0                   	// #0
    1c0c:	aa0103e4 	mov	x4, x1
    1c10:	52800023 	mov	w3, #0x1                   	// #1
    1c14:	52800022 	mov	w2, #0x1                   	// #1
    1c18:	52804c61 	mov	w1, #0x263                 	// #611
    1c1c:	94001ebc 	bl	970c <trace_printf>
    1c20:	52800000 	mov	w0, #0x0                   	// #0
    1c24:	94000193 	bl	2270 <__TEE_Panic>
    1c28:	14000002 	b	1c30 <TEE_FreePersistentObjectEnumerator+0x68>
/home/optee/RPi3/optee_os/lib/libutee/tee_api_objects.c:606
    1c2c:	d503201f 	nop
/home/optee/RPi3/optee_os/lib/libutee/tee_api_objects.c:612
    1c30:	a8c37bfd 	ldp	x29, x30, [sp],#48
    1c34:	d65f03c0 	ret

0000000000001c38 <TEE_ResetPersistentObjectEnumerator>:
TEE_ResetPersistentObjectEnumerator():
/home/optee/RPi3/optee_os/lib/libutee/tee_api_objects.c:615
    1c38:	a9bd7bfd 	stp	x29, x30, [sp,#-48]!
    1c3c:	910003fd 	mov	x29, sp
    1c40:	f9000fa0 	str	x0, [x29,#24]
/home/optee/RPi3/optee_os/lib/libutee/tee_api_objects.c:618
    1c44:	f9400fa0 	ldr	x0, [x29,#24]
    1c48:	eb1f001f 	cmp	x0, xzr
    1c4c:	54000280 	b.eq	1c9c <TEE_ResetPersistentObjectEnumerator+0x64>
/home/optee/RPi3/optee_os/lib/libutee/tee_api_objects.c:621
    1c50:	f9400fa0 	ldr	x0, [x29,#24]
    1c54:	94003aee 	bl	1080c <utee_storage_reset_enum>
    1c58:	b9002fa0 	str	w0, [x29,#44]
/home/optee/RPi3/optee_os/lib/libutee/tee_api_objects.c:623
    1c5c:	b9402fa0 	ldr	w0, [x29,#44]
    1c60:	6b1f001f 	cmp	w0, wzr
    1c64:	540001e0 	b.eq	1ca0 <TEE_ResetPersistentObjectEnumerator+0x68>
/home/optee/RPi3/optee_os/lib/libutee/tee_api_objects.c:624
    1c68:	f0000060 	adrp	x0, 10000 <mpa_set_oct_str+0x80>
    1c6c:	912e0001 	add	x1, x0, #0xb80
    1c70:	f0000060 	adrp	x0, 10000 <mpa_set_oct_str+0x80>
    1c74:	91390000 	add	x0, x0, #0xe40
    1c78:	52800005 	mov	w5, #0x0                   	// #0
    1c7c:	aa0103e4 	mov	x4, x1
    1c80:	52800023 	mov	w3, #0x1                   	// #1
    1c84:	52800022 	mov	w2, #0x1                   	// #1
    1c88:	52804e01 	mov	w1, #0x270                 	// #624
    1c8c:	94001ea0 	bl	970c <trace_printf>
    1c90:	52800000 	mov	w0, #0x0                   	// #0
    1c94:	94000177 	bl	2270 <__TEE_Panic>
    1c98:	14000002 	b	1ca0 <TEE_ResetPersistentObjectEnumerator+0x68>
/home/optee/RPi3/optee_os/lib/libutee/tee_api_objects.c:619
    1c9c:	d503201f 	nop
/home/optee/RPi3/optee_os/lib/libutee/tee_api_objects.c:625
    1ca0:	a8c37bfd 	ldp	x29, x30, [sp],#48
    1ca4:	d65f03c0 	ret

0000000000001ca8 <TEE_StartPersistentObjectEnumerator>:
TEE_StartPersistentObjectEnumerator():
/home/optee/RPi3/optee_os/lib/libutee/tee_api_objects.c:630
    1ca8:	a9bd7bfd 	stp	x29, x30, [sp,#-48]!
    1cac:	910003fd 	mov	x29, sp
    1cb0:	f9000fa0 	str	x0, [x29,#24]
    1cb4:	b90017a1 	str	w1, [x29,#20]
/home/optee/RPi3/optee_os/lib/libutee/tee_api_objects.c:633
    1cb8:	b94017a0 	ldr	w0, [x29,#20]
    1cbc:	7100041f 	cmp	w0, #0x1
    1cc0:	54000060 	b.eq	1ccc <TEE_StartPersistentObjectEnumerator+0x24>
/home/optee/RPi3/optee_os/lib/libutee/tee_api_objects.c:634
    1cc4:	129ffee0 	mov	w0, #0xffff0008            	// #-65528
    1cc8:	14000023 	b	1d54 <TEE_StartPersistentObjectEnumerator+0xac>
/home/optee/RPi3/optee_os/lib/libutee/tee_api_objects.c:636
    1ccc:	f9400fa0 	ldr	x0, [x29,#24]
    1cd0:	b94017a1 	ldr	w1, [x29,#20]
    1cd4:	94003ad1 	bl	10818 <utee_storage_start_enum>
    1cd8:	b9002fa0 	str	w0, [x29,#44]
/home/optee/RPi3/optee_os/lib/libutee/tee_api_objects.c:639
    1cdc:	b9402fa0 	ldr	w0, [x29,#44]
    1ce0:	6b1f001f 	cmp	w0, wzr
    1ce4:	54000360 	b.eq	1d50 <TEE_StartPersistentObjectEnumerator+0xa8>
/home/optee/RPi3/optee_os/lib/libutee/tee_api_objects.c:639 (discriminator 1)
    1ce8:	b9402fa1 	ldr	w1, [x29,#44]
    1cec:	129ffee0 	mov	w0, #0xffff0008            	// #-65528
    1cf0:	6b00003f 	cmp	w1, w0
    1cf4:	540002e0 	b.eq	1d50 <TEE_StartPersistentObjectEnumerator+0xa8>
/home/optee/RPi3/optee_os/lib/libutee/tee_api_objects.c:640
    1cf8:	b9402fa1 	ldr	w1, [x29,#44]
    1cfc:	52800020 	mov	w0, #0x1                   	// #1
    1d00:	72be0200 	movk	w0, #0xf010, lsl #16
    1d04:	6b00003f 	cmp	w1, w0
    1d08:	54000240 	b.eq	1d50 <TEE_StartPersistentObjectEnumerator+0xa8>
/home/optee/RPi3/optee_os/lib/libutee/tee_api_objects.c:641
    1d0c:	b9402fa1 	ldr	w1, [x29,#44]
    1d10:	52800060 	mov	w0, #0x3                   	// #3
    1d14:	72be0200 	movk	w0, #0xf010, lsl #16
    1d18:	6b00003f 	cmp	w1, w0
    1d1c:	540001a0 	b.eq	1d50 <TEE_StartPersistentObjectEnumerator+0xa8>
/home/optee/RPi3/optee_os/lib/libutee/tee_api_objects.c:643
    1d20:	f0000060 	adrp	x0, 10000 <mpa_set_oct_str+0x80>
    1d24:	912e0001 	add	x1, x0, #0xb80
    1d28:	f0000060 	adrp	x0, 10000 <mpa_set_oct_str+0x80>
    1d2c:	9139a000 	add	x0, x0, #0xe68
    1d30:	52800005 	mov	w5, #0x0                   	// #0
    1d34:	aa0103e4 	mov	x4, x1
    1d38:	52800023 	mov	w3, #0x1                   	// #1
    1d3c:	52800022 	mov	w2, #0x1                   	// #1
    1d40:	52805061 	mov	w1, #0x283                 	// #643
    1d44:	94001e72 	bl	970c <trace_printf>
    1d48:	52800000 	mov	w0, #0x0                   	// #0
    1d4c:	94000149 	bl	2270 <__TEE_Panic>
/home/optee/RPi3/optee_os/lib/libutee/tee_api_objects.c:645
    1d50:	b9402fa0 	ldr	w0, [x29,#44]
/home/optee/RPi3/optee_os/lib/libutee/tee_api_objects.c:646
    1d54:	a8c37bfd 	ldp	x29, x30, [sp],#48
    1d58:	d65f03c0 	ret

0000000000001d5c <TEE_GetNextPersistentObject>:
TEE_GetNextPersistentObject():
/home/optee/RPi3/optee_os/lib/libutee/tee_api_objects.c:651
    1d5c:	a9b97bfd 	stp	x29, x30, [sp,#-112]!
    1d60:	910003fd 	mov	x29, sp
    1d64:	f90017a0 	str	x0, [x29,#40]
    1d68:	f90013a1 	str	x1, [x29,#32]
    1d6c:	f9000fa2 	str	x2, [x29,#24]
    1d70:	f9000ba3 	str	x3, [x29,#16]
/home/optee/RPi3/optee_os/lib/libutee/tee_api_objects.c:657
    1d74:	f9400fa0 	ldr	x0, [x29,#24]
    1d78:	eb1f001f 	cmp	x0, xzr
    1d7c:	54000081 	b.ne	1d8c <TEE_GetNextPersistentObject+0x30>
/home/optee/RPi3/optee_os/lib/libutee/tee_api_objects.c:658
    1d80:	129fff20 	mov	w0, #0xffff0006            	// #-65530
    1d84:	b9006fa0 	str	w0, [x29,#108]
/home/optee/RPi3/optee_os/lib/libutee/tee_api_objects.c:659
    1d88:	1400001e 	b	1e00 <TEE_GetNextPersistentObject+0xa4>
/home/optee/RPi3/optee_os/lib/libutee/tee_api_objects.c:662
    1d8c:	f9400ba0 	ldr	x0, [x29,#16]
    1d90:	eb1f001f 	cmp	x0, xzr
    1d94:	54000081 	b.ne	1da4 <TEE_GetNextPersistentObject+0x48>
/home/optee/RPi3/optee_os/lib/libutee/tee_api_objects.c:663
    1d98:	129fff20 	mov	w0, #0xffff0006            	// #-65530
    1d9c:	b9006fa0 	str	w0, [x29,#108]
/home/optee/RPi3/optee_os/lib/libutee/tee_api_objects.c:664
    1da0:	14000018 	b	1e00 <TEE_GetNextPersistentObject+0xa4>
/home/optee/RPi3/optee_os/lib/libutee/tee_api_objects.c:667
    1da4:	f94013a0 	ldr	x0, [x29,#32]
    1da8:	eb1f001f 	cmp	x0, xzr
    1dac:	54000080 	b.eq	1dbc <TEE_GetNextPersistentObject+0x60>
/home/optee/RPi3/optee_os/lib/libutee/tee_api_objects.c:668
    1db0:	f94013a0 	ldr	x0, [x29,#32]
    1db4:	f90033a0 	str	x0, [x29,#96]
    1db8:	14000003 	b	1dc4 <TEE_GetNextPersistentObject+0x68>
/home/optee/RPi3/optee_os/lib/libutee/tee_api_objects.c:670
    1dbc:	9100e3a0 	add	x0, x29, #0x38
    1dc0:	f90033a0 	str	x0, [x29,#96]
/home/optee/RPi3/optee_os/lib/libutee/tee_api_objects.c:671
    1dc4:	f9400ba0 	ldr	x0, [x29,#16]
    1dc8:	b9400000 	ldr	w0, [x0]
    1dcc:	2a0003e0 	mov	w0, w0
    1dd0:	f9002fa0 	str	x0, [x29,#88]
/home/optee/RPi3/optee_os/lib/libutee/tee_api_objects.c:672
    1dd4:	f94017a0 	ldr	x0, [x29,#40]
    1dd8:	910163a1 	add	x1, x29, #0x58
    1ddc:	aa0103e3 	mov	x3, x1
    1de0:	f9400fa2 	ldr	x2, [x29,#24]
    1de4:	f94033a1 	ldr	x1, [x29,#96]
    1de8:	94003a8f 	bl	10824 <utee_storage_next_enum>
    1dec:	b9006fa0 	str	w0, [x29,#108]
/home/optee/RPi3/optee_os/lib/libutee/tee_api_objects.c:674
    1df0:	f9402fa0 	ldr	x0, [x29,#88]
    1df4:	2a0003e1 	mov	w1, w0
    1df8:	f9400ba0 	ldr	x0, [x29,#16]
    1dfc:	b9000001 	str	w1, [x0]
/home/optee/RPi3/optee_os/lib/libutee/tee_api_objects.c:677
    1e00:	b9406fa0 	ldr	w0, [x29,#108]
    1e04:	6b1f001f 	cmp	w0, wzr
    1e08:	54000360 	b.eq	1e74 <TEE_GetNextPersistentObject+0x118>
/home/optee/RPi3/optee_os/lib/libutee/tee_api_objects.c:677 (discriminator 1)
    1e0c:	b9406fa1 	ldr	w1, [x29,#108]
    1e10:	129ffee0 	mov	w0, #0xffff0008            	// #-65528
    1e14:	6b00003f 	cmp	w1, w0
    1e18:	540002e0 	b.eq	1e74 <TEE_GetNextPersistentObject+0x118>
/home/optee/RPi3/optee_os/lib/libutee/tee_api_objects.c:678
    1e1c:	b9406fa1 	ldr	w1, [x29,#108]
    1e20:	52800020 	mov	w0, #0x1                   	// #1
    1e24:	72be0200 	movk	w0, #0xf010, lsl #16
    1e28:	6b00003f 	cmp	w1, w0
    1e2c:	54000240 	b.eq	1e74 <TEE_GetNextPersistentObject+0x118>
/home/optee/RPi3/optee_os/lib/libutee/tee_api_objects.c:679
    1e30:	b9406fa1 	ldr	w1, [x29,#108]
    1e34:	52800060 	mov	w0, #0x3                   	// #3
    1e38:	72be0200 	movk	w0, #0xf010, lsl #16
    1e3c:	6b00003f 	cmp	w1, w0
    1e40:	540001a0 	b.eq	1e74 <TEE_GetNextPersistentObject+0x118>
/home/optee/RPi3/optee_os/lib/libutee/tee_api_objects.c:681
    1e44:	f0000060 	adrp	x0, 10000 <mpa_set_oct_str+0x80>
    1e48:	912e0001 	add	x1, x0, #0xb80
    1e4c:	f0000060 	adrp	x0, 10000 <mpa_set_oct_str+0x80>
    1e50:	913a4000 	add	x0, x0, #0xe90
    1e54:	52800005 	mov	w5, #0x0                   	// #0
    1e58:	aa0103e4 	mov	x4, x1
    1e5c:	52800023 	mov	w3, #0x1                   	// #1
    1e60:	52800022 	mov	w2, #0x1                   	// #1
    1e64:	52805521 	mov	w1, #0x2a9                 	// #681
    1e68:	94001e29 	bl	970c <trace_printf>
    1e6c:	52800000 	mov	w0, #0x0                   	// #0
    1e70:	94000100 	bl	2270 <__TEE_Panic>
/home/optee/RPi3/optee_os/lib/libutee/tee_api_objects.c:683
    1e74:	b9406fa0 	ldr	w0, [x29,#108]
/home/optee/RPi3/optee_os/lib/libutee/tee_api_objects.c:684
    1e78:	a8c77bfd 	ldp	x29, x30, [sp],#112
    1e7c:	d65f03c0 	ret

0000000000001e80 <TEE_ReadObjectData>:
TEE_ReadObjectData():
/home/optee/RPi3/optee_os/lib/libutee/tee_api_objects.c:690
    1e80:	a9bc7bfd 	stp	x29, x30, [sp,#-64]!
    1e84:	910003fd 	mov	x29, sp
    1e88:	f90017a0 	str	x0, [x29,#40]
    1e8c:	f90013a1 	str	x1, [x29,#32]
    1e90:	b9001fa2 	str	w2, [x29,#28]
    1e94:	f9000ba3 	str	x3, [x29,#16]
/home/optee/RPi3/optee_os/lib/libutee/tee_api_objects.c:694
    1e98:	f94017a0 	ldr	x0, [x29,#40]
    1e9c:	eb1f001f 	cmp	x0, xzr
    1ea0:	54000081 	b.ne	1eb0 <TEE_ReadObjectData+0x30>
/home/optee/RPi3/optee_os/lib/libutee/tee_api_objects.c:695
    1ea4:	129fff20 	mov	w0, #0xffff0006            	// #-65530
    1ea8:	b9003fa0 	str	w0, [x29,#60]
/home/optee/RPi3/optee_os/lib/libutee/tee_api_objects.c:696
    1eac:	14000011 	b	1ef0 <TEE_ReadObjectData+0x70>
/home/optee/RPi3/optee_os/lib/libutee/tee_api_objects.c:699
    1eb0:	f9400ba0 	ldr	x0, [x29,#16]
    1eb4:	b9400000 	ldr	w0, [x0]
    1eb8:	2a0003e0 	mov	w0, w0
    1ebc:	f9001ba0 	str	x0, [x29,#48]
/home/optee/RPi3/optee_os/lib/libutee/tee_api_objects.c:700
    1ec0:	f94017a0 	ldr	x0, [x29,#40]
    1ec4:	b9401fa1 	ldr	w1, [x29,#28]
    1ec8:	9100c3a2 	add	x2, x29, #0x30
    1ecc:	aa0203e3 	mov	x3, x2
    1ed0:	aa0103e2 	mov	x2, x1
    1ed4:	f94013a1 	ldr	x1, [x29,#32]
    1ed8:	94003a56 	bl	10830 <utee_storage_obj_read>
    1edc:	b9003fa0 	str	w0, [x29,#60]
/home/optee/RPi3/optee_os/lib/libutee/tee_api_objects.c:702
    1ee0:	f9401ba0 	ldr	x0, [x29,#48]
    1ee4:	2a0003e1 	mov	w1, w0
    1ee8:	f9400ba0 	ldr	x0, [x29,#16]
    1eec:	b9000001 	str	w1, [x0]
/home/optee/RPi3/optee_os/lib/libutee/tee_api_objects.c:705
    1ef0:	b9403fa0 	ldr	w0, [x29,#60]
    1ef4:	6b1f001f 	cmp	w0, wzr
    1ef8:	540002e0 	b.eq	1f54 <TEE_ReadObjectData+0xd4>
/home/optee/RPi3/optee_os/lib/libutee/tee_api_objects.c:705 (discriminator 1)
    1efc:	b9403fa1 	ldr	w1, [x29,#60]
    1f00:	52800020 	mov	w0, #0x1                   	// #1
    1f04:	72be0200 	movk	w0, #0xf010, lsl #16
    1f08:	6b00003f 	cmp	w1, w0
    1f0c:	54000240 	b.eq	1f54 <TEE_ReadObjectData+0xd4>
/home/optee/RPi3/optee_os/lib/libutee/tee_api_objects.c:706
    1f10:	b9403fa1 	ldr	w1, [x29,#60]
    1f14:	52800060 	mov	w0, #0x3                   	// #3
    1f18:	72be0200 	movk	w0, #0xf010, lsl #16
    1f1c:	6b00003f 	cmp	w1, w0
    1f20:	540001a0 	b.eq	1f54 <TEE_ReadObjectData+0xd4>
/home/optee/RPi3/optee_os/lib/libutee/tee_api_objects.c:708
    1f24:	f0000060 	adrp	x0, 10000 <mpa_set_oct_str+0x80>
    1f28:	912e0001 	add	x1, x0, #0xb80
    1f2c:	f0000060 	adrp	x0, 10000 <mpa_set_oct_str+0x80>
    1f30:	913ac000 	add	x0, x0, #0xeb0
    1f34:	52800005 	mov	w5, #0x0                   	// #0
    1f38:	aa0103e4 	mov	x4, x1
    1f3c:	52800023 	mov	w3, #0x1                   	// #1
    1f40:	52800022 	mov	w2, #0x1                   	// #1
    1f44:	52805881 	mov	w1, #0x2c4                 	// #708
    1f48:	94001df1 	bl	970c <trace_printf>
    1f4c:	52800000 	mov	w0, #0x0                   	// #0
    1f50:	940000c8 	bl	2270 <__TEE_Panic>
/home/optee/RPi3/optee_os/lib/libutee/tee_api_objects.c:710
    1f54:	b9403fa0 	ldr	w0, [x29,#60]
/home/optee/RPi3/optee_os/lib/libutee/tee_api_objects.c:711
    1f58:	a8c47bfd 	ldp	x29, x30, [sp],#64
    1f5c:	d65f03c0 	ret

0000000000001f60 <TEE_WriteObjectData>:
TEE_WriteObjectData():
/home/optee/RPi3/optee_os/lib/libutee/tee_api_objects.c:715
    1f60:	a9bc7bfd 	stp	x29, x30, [sp,#-64]!
    1f64:	910003fd 	mov	x29, sp
    1f68:	f90017a0 	str	x0, [x29,#40]
    1f6c:	f90013a1 	str	x1, [x29,#32]
    1f70:	b9001fa2 	str	w2, [x29,#28]
/home/optee/RPi3/optee_os/lib/libutee/tee_api_objects.c:718
    1f74:	f94017a0 	ldr	x0, [x29,#40]
    1f78:	eb1f001f 	cmp	x0, xzr
    1f7c:	54000081 	b.ne	1f8c <TEE_WriteObjectData+0x2c>
/home/optee/RPi3/optee_os/lib/libutee/tee_api_objects.c:719
    1f80:	129fff20 	mov	w0, #0xffff0006            	// #-65530
    1f84:	b9003fa0 	str	w0, [x29,#60]
/home/optee/RPi3/optee_os/lib/libutee/tee_api_objects.c:720
    1f88:	14000007 	b	1fa4 <TEE_WriteObjectData+0x44>
/home/optee/RPi3/optee_os/lib/libutee/tee_api_objects.c:728
    1f8c:	f94017a0 	ldr	x0, [x29,#40]
    1f90:	b9401fa1 	ldr	w1, [x29,#28]
    1f94:	aa0103e2 	mov	x2, x1
    1f98:	f94013a1 	ldr	x1, [x29,#32]
    1f9c:	94003a28 	bl	1083c <utee_storage_obj_write>
    1fa0:	b9003fa0 	str	w0, [x29,#60]
/home/optee/RPi3/optee_os/lib/libutee/tee_api_objects.c:731
    1fa4:	b9403fa0 	ldr	w0, [x29,#60]
    1fa8:	6b1f001f 	cmp	w0, wzr
    1fac:	540003e0 	b.eq	2028 <TEE_WriteObjectData+0xc8>
/home/optee/RPi3/optee_os/lib/libutee/tee_api_objects.c:731 (discriminator 1)
    1fb0:	b9403fa1 	ldr	w1, [x29,#60]
    1fb4:	1299f7c0 	mov	w0, #0xffff3041            	// #-53183
    1fb8:	6b00003f 	cmp	w1, w0
    1fbc:	54000360 	b.eq	2028 <TEE_WriteObjectData+0xc8>
/home/optee/RPi3/optee_os/lib/libutee/tee_api_objects.c:732
    1fc0:	b9403fa1 	ldr	w1, [x29,#60]
    1fc4:	1299fe00 	mov	w0, #0xffff300f            	// #-53233
    1fc8:	6b00003f 	cmp	w1, w0
    1fcc:	540002e0 	b.eq	2028 <TEE_WriteObjectData+0xc8>
/home/optee/RPi3/optee_os/lib/libutee/tee_api_objects.c:733
    1fd0:	b9403fa1 	ldr	w1, [x29,#60]
    1fd4:	52800020 	mov	w0, #0x1                   	// #1
    1fd8:	72be0200 	movk	w0, #0xf010, lsl #16
    1fdc:	6b00003f 	cmp	w1, w0
    1fe0:	54000240 	b.eq	2028 <TEE_WriteObjectData+0xc8>
/home/optee/RPi3/optee_os/lib/libutee/tee_api_objects.c:734
    1fe4:	b9403fa1 	ldr	w1, [x29,#60]
    1fe8:	52800060 	mov	w0, #0x3                   	// #3
    1fec:	72be0200 	movk	w0, #0xf010, lsl #16
    1ff0:	6b00003f 	cmp	w1, w0
    1ff4:	540001a0 	b.eq	2028 <TEE_WriteObjectData+0xc8>
/home/optee/RPi3/optee_os/lib/libutee/tee_api_objects.c:736
    1ff8:	f0000060 	adrp	x0, 10000 <mpa_set_oct_str+0x80>
    1ffc:	912e0001 	add	x1, x0, #0xb80
    2000:	d0000060 	adrp	x0, 10000 <mpa_set_oct_str+0x80>
    2004:	913b2000 	add	x0, x0, #0xec8
    2008:	52800005 	mov	w5, #0x0                   	// #0
    200c:	aa0103e4 	mov	x4, x1
    2010:	52800023 	mov	w3, #0x1                   	// #1
    2014:	52800022 	mov	w2, #0x1                   	// #1
    2018:	52805c01 	mov	w1, #0x2e0                 	// #736
    201c:	94001dbc 	bl	970c <trace_printf>
    2020:	52800000 	mov	w0, #0x0                   	// #0
    2024:	94000093 	bl	2270 <__TEE_Panic>
/home/optee/RPi3/optee_os/lib/libutee/tee_api_objects.c:738
    2028:	b9403fa0 	ldr	w0, [x29,#60]
/home/optee/RPi3/optee_os/lib/libutee/tee_api_objects.c:739
    202c:	a8c47bfd 	ldp	x29, x30, [sp],#64
    2030:	d65f03c0 	ret

0000000000002034 <TEE_TruncateObjectData>:
TEE_TruncateObjectData():
/home/optee/RPi3/optee_os/lib/libutee/tee_api_objects.c:742
    2034:	a9bd7bfd 	stp	x29, x30, [sp,#-48]!
    2038:	910003fd 	mov	x29, sp
    203c:	f9000fa0 	str	x0, [x29,#24]
    2040:	b90017a1 	str	w1, [x29,#20]
/home/optee/RPi3/optee_os/lib/libutee/tee_api_objects.c:745
    2044:	f9400fa0 	ldr	x0, [x29,#24]
    2048:	eb1f001f 	cmp	x0, xzr
    204c:	54000081 	b.ne	205c <TEE_TruncateObjectData+0x28>
/home/optee/RPi3/optee_os/lib/libutee/tee_api_objects.c:746
    2050:	129fff20 	mov	w0, #0xffff0006            	// #-65530
    2054:	b9002fa0 	str	w0, [x29,#44]
/home/optee/RPi3/optee_os/lib/libutee/tee_api_objects.c:747
    2058:	14000005 	b	206c <TEE_TruncateObjectData+0x38>
/home/optee/RPi3/optee_os/lib/libutee/tee_api_objects.c:750
    205c:	f9400fa0 	ldr	x0, [x29,#24]
    2060:	b94017a1 	ldr	w1, [x29,#20]
    2064:	940039f9 	bl	10848 <utee_storage_obj_trunc>
    2068:	b9002fa0 	str	w0, [x29,#44]
/home/optee/RPi3/optee_os/lib/libutee/tee_api_objects.c:753
    206c:	b9402fa0 	ldr	w0, [x29,#44]
    2070:	6b1f001f 	cmp	w0, wzr
    2074:	54000360 	b.eq	20e0 <TEE_TruncateObjectData+0xac>
/home/optee/RPi3/optee_os/lib/libutee/tee_api_objects.c:753 (discriminator 1)
    2078:	b9402fa1 	ldr	w1, [x29,#44]
    207c:	1299f7c0 	mov	w0, #0xffff3041            	// #-53183
    2080:	6b00003f 	cmp	w1, w0
    2084:	540002e0 	b.eq	20e0 <TEE_TruncateObjectData+0xac>
/home/optee/RPi3/optee_os/lib/libutee/tee_api_objects.c:754
    2088:	b9402fa1 	ldr	w1, [x29,#44]
    208c:	52800020 	mov	w0, #0x1                   	// #1
    2090:	72be0200 	movk	w0, #0xf010, lsl #16
    2094:	6b00003f 	cmp	w1, w0
    2098:	54000240 	b.eq	20e0 <TEE_TruncateObjectData+0xac>
/home/optee/RPi3/optee_os/lib/libutee/tee_api_objects.c:755
    209c:	b9402fa1 	ldr	w1, [x29,#44]
    20a0:	52800060 	mov	w0, #0x3                   	// #3
    20a4:	72be0200 	movk	w0, #0xf010, lsl #16
    20a8:	6b00003f 	cmp	w1, w0
    20ac:	540001a0 	b.eq	20e0 <TEE_TruncateObjectData+0xac>
/home/optee/RPi3/optee_os/lib/libutee/tee_api_objects.c:757
    20b0:	d0000060 	adrp	x0, 10000 <mpa_set_oct_str+0x80>
    20b4:	912e0001 	add	x1, x0, #0xb80
    20b8:	d0000060 	adrp	x0, 10000 <mpa_set_oct_str+0x80>
    20bc:	913b8000 	add	x0, x0, #0xee0
    20c0:	52800005 	mov	w5, #0x0                   	// #0
    20c4:	aa0103e4 	mov	x4, x1
    20c8:	52800023 	mov	w3, #0x1                   	// #1
    20cc:	52800022 	mov	w2, #0x1                   	// #1
    20d0:	52805ea1 	mov	w1, #0x2f5                 	// #757
    20d4:	94001d8e 	bl	970c <trace_printf>
    20d8:	52800000 	mov	w0, #0x0                   	// #0
    20dc:	94000065 	bl	2270 <__TEE_Panic>
/home/optee/RPi3/optee_os/lib/libutee/tee_api_objects.c:759
    20e0:	b9402fa0 	ldr	w0, [x29,#44]
/home/optee/RPi3/optee_os/lib/libutee/tee_api_objects.c:760
    20e4:	a8c37bfd 	ldp	x29, x30, [sp],#48
    20e8:	d65f03c0 	ret

00000000000020ec <TEE_SeekObjectData>:
TEE_SeekObjectData():
/home/optee/RPi3/optee_os/lib/libutee/tee_api_objects.c:764
    20ec:	a9bc7bfd 	stp	x29, x30, [sp,#-64]!
    20f0:	910003fd 	mov	x29, sp
    20f4:	f9000fa0 	str	x0, [x29,#24]
    20f8:	b90017a1 	str	w1, [x29,#20]
    20fc:	b90013a2 	str	w2, [x29,#16]
/home/optee/RPi3/optee_os/lib/libutee/tee_api_objects.c:768
    2100:	f9400fa0 	ldr	x0, [x29,#24]
    2104:	eb1f001f 	cmp	x0, xzr
    2108:	54000081 	b.ne	2118 <TEE_SeekObjectData+0x2c>
/home/optee/RPi3/optee_os/lib/libutee/tee_api_objects.c:769
    210c:	129fff20 	mov	w0, #0xffff0006            	// #-65530
    2110:	b9003fa0 	str	w0, [x29,#60]
/home/optee/RPi3/optee_os/lib/libutee/tee_api_objects.c:770
    2114:	14000037 	b	21f0 <TEE_SeekObjectData+0x104>
/home/optee/RPi3/optee_os/lib/libutee/tee_api_objects.c:773
    2118:	f9400fa0 	ldr	x0, [x29,#24]
    211c:	910083a1 	add	x1, x29, #0x20
    2120:	94003976 	bl	106f8 <utee_cryp_obj_get_info>
    2124:	b9003fa0 	str	w0, [x29,#60]
/home/optee/RPi3/optee_os/lib/libutee/tee_api_objects.c:774
    2128:	b9403fa0 	ldr	w0, [x29,#60]
    212c:	6b1f001f 	cmp	w0, wzr
    2130:	540005e1 	b.ne	21ec <TEE_SeekObjectData+0x100>
/home/optee/RPi3/optee_os/lib/libutee/tee_api_objects.c:777
    2134:	b94013a0 	ldr	w0, [x29,#16]
    2138:	7100041f 	cmp	w0, #0x1
    213c:	540000c0 	b.eq	2154 <TEE_SeekObjectData+0x68>
    2140:	7100041f 	cmp	w0, #0x1
    2144:	540003e3 	b.cc	21c0 <TEE_SeekObjectData+0xd4>
    2148:	7100081f 	cmp	w0, #0x2
    214c:	540001c0 	b.eq	2184 <TEE_SeekObjectData+0x98>
    2150:	14000019 	b	21b4 <TEE_SeekObjectData+0xc8>
/home/optee/RPi3/optee_os/lib/libutee/tee_api_objects.c:785
    2154:	b94017a0 	ldr	w0, [x29,#20]
    2158:	6b1f001f 	cmp	w0, wzr
    215c:	5400036d 	b.le	21c8 <TEE_SeekObjectData+0xdc>
/home/optee/RPi3/optee_os/lib/libutee/tee_api_objects.c:788 (discriminator 1)
    2160:	b94037a1 	ldr	w1, [x29,#52]
    2164:	b94017a0 	ldr	w0, [x29,#20]
    2168:	0b000021 	add	w1, w1, w0
/home/optee/RPi3/optee_os/lib/libutee/tee_api_objects.c:789 (discriminator 1)
    216c:	b94037a0 	ldr	w0, [x29,#52]
/home/optee/RPi3/optee_os/lib/libutee/tee_api_objects.c:785 (discriminator 1)
    2170:	6b00003f 	cmp	w1, w0
    2174:	540002a2 	b.cs	21c8 <TEE_SeekObjectData+0xdc>
/home/optee/RPi3/optee_os/lib/libutee/tee_api_objects.c:790
    2178:	1299fe00 	mov	w0, #0xffff300f            	// #-53233
    217c:	b9003fa0 	str	w0, [x29,#60]
/home/optee/RPi3/optee_os/lib/libutee/tee_api_objects.c:791
    2180:	1400001c 	b	21f0 <TEE_SeekObjectData+0x104>
/home/optee/RPi3/optee_os/lib/libutee/tee_api_objects.c:795
    2184:	b94017a0 	ldr	w0, [x29,#20]
    2188:	6b1f001f 	cmp	w0, wzr
    218c:	5400022d 	b.le	21d0 <TEE_SeekObjectData+0xe4>
/home/optee/RPi3/optee_os/lib/libutee/tee_api_objects.c:797 (discriminator 1)
    2190:	b94033a1 	ldr	w1, [x29,#48]
    2194:	b94017a0 	ldr	w0, [x29,#20]
    2198:	0b000021 	add	w1, w1, w0
    219c:	b94033a0 	ldr	w0, [x29,#48]
/home/optee/RPi3/optee_os/lib/libutee/tee_api_objects.c:795 (discriminator 1)
    21a0:	6b00003f 	cmp	w1, w0
    21a4:	54000162 	b.cs	21d0 <TEE_SeekObjectData+0xe4>
/home/optee/RPi3/optee_os/lib/libutee/tee_api_objects.c:798
    21a8:	1299fe00 	mov	w0, #0xffff300f            	// #-53233
    21ac:	b9003fa0 	str	w0, [x29,#60]
/home/optee/RPi3/optee_os/lib/libutee/tee_api_objects.c:799
    21b0:	14000010 	b	21f0 <TEE_SeekObjectData+0x104>
/home/optee/RPi3/optee_os/lib/libutee/tee_api_objects.c:803
    21b4:	129ffee0 	mov	w0, #0xffff0008            	// #-65528
    21b8:	b9003fa0 	str	w0, [x29,#60]
/home/optee/RPi3/optee_os/lib/libutee/tee_api_objects.c:804
    21bc:	1400000d 	b	21f0 <TEE_SeekObjectData+0x104>
/home/optee/RPi3/optee_os/lib/libutee/tee_api_objects.c:783
    21c0:	d503201f 	nop
    21c4:	14000004 	b	21d4 <TEE_SeekObjectData+0xe8>
/home/optee/RPi3/optee_os/lib/libutee/tee_api_objects.c:793
    21c8:	d503201f 	nop
    21cc:	14000002 	b	21d4 <TEE_SeekObjectData+0xe8>
/home/optee/RPi3/optee_os/lib/libutee/tee_api_objects.c:801
    21d0:	d503201f 	nop
/home/optee/RPi3/optee_os/lib/libutee/tee_api_objects.c:807
    21d4:	f9400fa0 	ldr	x0, [x29,#24]
    21d8:	b98017a1 	ldrsw	x1, [x29,#20]
    21dc:	b94013a2 	ldr	w2, [x29,#16]
    21e0:	9400399d 	bl	10854 <utee_storage_obj_seek>
    21e4:	b9003fa0 	str	w0, [x29,#60]
    21e8:	14000002 	b	21f0 <TEE_SeekObjectData+0x104>
/home/optee/RPi3/optee_os/lib/libutee/tee_api_objects.c:775
    21ec:	d503201f 	nop
/home/optee/RPi3/optee_os/lib/libutee/tee_api_objects.c:810
    21f0:	b9403fa0 	ldr	w0, [x29,#60]
    21f4:	6b1f001f 	cmp	w0, wzr
    21f8:	54000360 	b.eq	2264 <TEE_SeekObjectData+0x178>
/home/optee/RPi3/optee_os/lib/libutee/tee_api_objects.c:810 (discriminator 1)
    21fc:	b9403fa1 	ldr	w1, [x29,#60]
    2200:	1299fe00 	mov	w0, #0xffff300f            	// #-53233
    2204:	6b00003f 	cmp	w1, w0
    2208:	540002e0 	b.eq	2264 <TEE_SeekObjectData+0x178>
/home/optee/RPi3/optee_os/lib/libutee/tee_api_objects.c:811
    220c:	b9403fa1 	ldr	w1, [x29,#60]
    2210:	52800020 	mov	w0, #0x1                   	// #1
    2214:	72be0200 	movk	w0, #0xf010, lsl #16
    2218:	6b00003f 	cmp	w1, w0
    221c:	54000240 	b.eq	2264 <TEE_SeekObjectData+0x178>
/home/optee/RPi3/optee_os/lib/libutee/tee_api_objects.c:812
    2220:	b9403fa1 	ldr	w1, [x29,#60]
    2224:	52800060 	mov	w0, #0x3                   	// #3
    2228:	72be0200 	movk	w0, #0xf010, lsl #16
    222c:	6b00003f 	cmp	w1, w0
    2230:	540001a0 	b.eq	2264 <TEE_SeekObjectData+0x178>
/home/optee/RPi3/optee_os/lib/libutee/tee_api_objects.c:814
    2234:	d0000060 	adrp	x0, 10000 <mpa_set_oct_str+0x80>
    2238:	912e0001 	add	x1, x0, #0xb80
    223c:	d0000060 	adrp	x0, 10000 <mpa_set_oct_str+0x80>
    2240:	913be000 	add	x0, x0, #0xef8
    2244:	52800005 	mov	w5, #0x0                   	// #0
    2248:	aa0103e4 	mov	x4, x1
    224c:	52800023 	mov	w3, #0x1                   	// #1
    2250:	52800022 	mov	w2, #0x1                   	// #1
    2254:	528065c1 	mov	w1, #0x32e                 	// #814
    2258:	94001d2d 	bl	970c <trace_printf>
    225c:	52800000 	mov	w0, #0x0                   	// #0
    2260:	94000004 	bl	2270 <__TEE_Panic>
/home/optee/RPi3/optee_os/lib/libutee/tee_api_objects.c:816
    2264:	b9403fa0 	ldr	w0, [x29,#60]
/home/optee/RPi3/optee_os/lib/libutee/tee_api_objects.c:817
    2268:	a8c47bfd 	ldp	x29, x30, [sp],#64
    226c:	d65f03c0 	ret

0000000000002270 <__TEE_Panic>:
__TEE_Panic():
/home/optee/RPi3/optee_os/lib/libutee/tee_api_panic.c:35
    2270:	a9be7bfd 	stp	x29, x30, [sp,#-32]!
    2274:	910003fd 	mov	x29, sp
    2278:	b9001fa0 	str	w0, [x29,#28]
/home/optee/RPi3/optee_os/lib/libutee/tee_api_panic.c:36
    227c:	b9401fa0 	ldr	w0, [x29,#28]
    2280:	940038dc 	bl	105f0 <utee_panic>

0000000000002284 <TEE_Panic>:
TEE_Panic():
/home/optee/RPi3/optee_os/lib/libutee/tee_api_panic.c:40
    2284:	a9be7bfd 	stp	x29, x30, [sp,#-32]!
    2288:	910003fd 	mov	x29, sp
    228c:	b9001fa0 	str	w0, [x29,#28]
/home/optee/RPi3/optee_os/lib/libutee/tee_api_panic.c:41
    2290:	b9401fa0 	ldr	w0, [x29,#28]
    2294:	97fffff7 	bl	2270 <__TEE_Panic>

0000000000002298 <ta_header_save_params>:
ta_header_save_params():
/home/optee/RPi3/optee_os/lib/libutee/arch/arm/user_ta_entry.c:62
    2298:	a9be7bfd 	stp	x29, x30, [sp,#-32]!
    229c:	910003fd 	mov	x29, sp
    22a0:	b9001fa0 	str	w0, [x29,#28]
    22a4:	f9000ba1 	str	x1, [x29,#16]
/home/optee/RPi3/optee_os/lib/libutee/arch/arm/user_ta_entry.c:63
    22a8:	90000080 	adrp	x0, 12000 <PRIME_TABLE+0x5d0>
    22ac:	f9454400 	ldr	x0, [x0,#2696]
    22b0:	b9401fa1 	ldr	w1, [x29,#28]
    22b4:	b9000001 	str	w1, [x0]
/home/optee/RPi3/optee_os/lib/libutee/arch/arm/user_ta_entry.c:65
    22b8:	f9400ba0 	ldr	x0, [x29,#16]
    22bc:	eb1f001f 	cmp	x0, xzr
    22c0:	540000e0 	b.eq	22dc <ta_header_save_params+0x44>
/home/optee/RPi3/optee_os/lib/libutee/arch/arm/user_ta_entry.c:66
    22c4:	90000080 	adrp	x0, 12000 <PRIME_TABLE+0x5d0>
    22c8:	f9454c00 	ldr	x0, [x0,#2712]
    22cc:	d2800802 	mov	x2, #0x40                  	// #64
    22d0:	f9400ba1 	ldr	x1, [x29,#16]
    22d4:	940012b7 	bl	6db0 <memcpy>
/home/optee/RPi3/optee_os/lib/libutee/arch/arm/user_ta_entry.c:69
    22d8:	14000006 	b	22f0 <ta_header_save_params+0x58>
/home/optee/RPi3/optee_os/lib/libutee/arch/arm/user_ta_entry.c:68
    22dc:	90000080 	adrp	x0, 12000 <PRIME_TABLE+0x5d0>
    22e0:	f9454c00 	ldr	x0, [x0,#2712]
    22e4:	d2800802 	mov	x2, #0x40                  	// #64
    22e8:	52800001 	mov	w1, #0x0                   	// #0
    22ec:	94001394 	bl	713c <memset>
/home/optee/RPi3/optee_os/lib/libutee/arch/arm/user_ta_entry.c:69
    22f0:	d503201f 	nop
    22f4:	a8c27bfd 	ldp	x29, x30, [sp],#32
    22f8:	d65f03c0 	ret

00000000000022fc <ta_header_get_session>:
ta_header_get_session():
/home/optee/RPi3/optee_os/lib/libutee/arch/arm/user_ta_entry.c:72
    22fc:	d10083ff 	sub	sp, sp, #0x20
    2300:	b9000fe0 	str	w0, [sp,#12]
/home/optee/RPi3/optee_os/lib/libutee/arch/arm/user_ta_entry.c:75
    2304:	b0000080 	adrp	x0, 13000 <ta_props>
    2308:	91036000 	add	x0, x0, #0xd8
    230c:	f9400000 	ldr	x0, [x0]
    2310:	f9000fe0 	str	x0, [sp,#24]
    2314:	1400000b 	b	2340 <ta_header_get_session+0x44>
/home/optee/RPi3/optee_os/lib/libutee/arch/arm/user_ta_entry.c:76
    2318:	f9400fe0 	ldr	x0, [sp,#24]
    231c:	b9400001 	ldr	w1, [x0]
    2320:	b9400fe0 	ldr	w0, [sp,#12]
    2324:	6b00003f 	cmp	w1, w0
    2328:	54000061 	b.ne	2334 <ta_header_get_session+0x38>
/home/optee/RPi3/optee_os/lib/libutee/arch/arm/user_ta_entry.c:77
    232c:	f9400fe0 	ldr	x0, [sp,#24]
    2330:	14000008 	b	2350 <ta_header_get_session+0x54>
/home/optee/RPi3/optee_os/lib/libutee/arch/arm/user_ta_entry.c:75 (discriminator 2)
    2334:	f9400fe0 	ldr	x0, [sp,#24]
    2338:	f9400800 	ldr	x0, [x0,#16]
    233c:	f9000fe0 	str	x0, [sp,#24]
/home/optee/RPi3/optee_os/lib/libutee/arch/arm/user_ta_entry.c:75 (discriminator 1)
    2340:	f9400fe0 	ldr	x0, [sp,#24]
    2344:	eb1f001f 	cmp	x0, xzr
    2348:	54fffe81 	b.ne	2318 <ta_header_get_session+0x1c>
/home/optee/RPi3/optee_os/lib/libutee/arch/arm/user_ta_entry.c:79
    234c:	d2800000 	mov	x0, #0x0                   	// #0
/home/optee/RPi3/optee_os/lib/libutee/arch/arm/user_ta_entry.c:80
    2350:	910083ff 	add	sp, sp, #0x20
    2354:	d65f03c0 	ret

0000000000002358 <ta_header_add_session>:
ta_header_add_session():
/home/optee/RPi3/optee_os/lib/libutee/arch/arm/user_ta_entry.c:83
    2358:	a9bd7bfd 	stp	x29, x30, [sp,#-48]!
    235c:	910003fd 	mov	x29, sp
    2360:	b9001fa0 	str	w0, [x29,#28]
/home/optee/RPi3/optee_os/lib/libutee/arch/arm/user_ta_entry.c:84
    2364:	b9401fa0 	ldr	w0, [x29,#28]
    2368:	97ffffe5 	bl	22fc <ta_header_get_session>
    236c:	f90017a0 	str	x0, [x29,#40]
/home/optee/RPi3/optee_os/lib/libutee/arch/arm/user_ta_entry.c:86
    2370:	f94017a0 	ldr	x0, [x29,#40]
    2374:	eb1f001f 	cmp	x0, xzr
    2378:	54000060 	b.eq	2384 <ta_header_add_session+0x2c>
/home/optee/RPi3/optee_os/lib/libutee/arch/arm/user_ta_entry.c:87
    237c:	52800000 	mov	w0, #0x0                   	// #0
    2380:	14000048 	b	24a0 <ta_header_add_session+0x148>
/home/optee/RPi3/optee_os/lib/libutee/arch/arm/user_ta_entry.c:89
    2384:	f00000c0 	adrp	x0, 1d000 <buf.3336+0x2e8>
    2388:	91348000 	add	x0, x0, #0xd20
    238c:	b9400000 	ldr	w0, [x0]
    2390:	11000401 	add	w1, w0, #0x1
    2394:	f00000c0 	adrp	x0, 1d000 <buf.3336+0x2e8>
    2398:	91348000 	add	x0, x0, #0xd20
    239c:	b9000001 	str	w1, [x0]
/home/optee/RPi3/optee_os/lib/libutee/arch/arm/user_ta_entry.c:91
    23a0:	f00000c0 	adrp	x0, 1d000 <buf.3336+0x2e8>
    23a4:	91348000 	add	x0, x0, #0xd20
    23a8:	b9400000 	ldr	w0, [x0]
    23ac:	7100041f 	cmp	w0, #0x1
    23b0:	54000381 	b.ne	2420 <ta_header_add_session+0xc8>
/home/optee/RPi3/optee_os/lib/libutee/arch/arm/user_ta_entry.c:94
    23b4:	f00000c0 	adrp	x0, 1d000 <buf.3336+0x2e8>
    23b8:	91349000 	add	x0, x0, #0xd24
    23bc:	39400000 	ldrb	w0, [x0]
    23c0:	52000000 	eor	w0, w0, #0x1
    23c4:	53001c00 	uxtb	w0, w0
    23c8:	6b1f001f 	cmp	w0, wzr
    23cc:	540001c0 	b.eq	2404 <ta_header_add_session+0xac>
/home/optee/RPi3/optee_os/lib/libutee/arch/arm/user_ta_entry.c:95
    23d0:	97fff832 	bl	498 <tahead_get_trace_level>
    23d4:	94001c99 	bl	9638 <trace_set_level>
/home/optee/RPi3/optee_os/lib/libutee/arch/arm/user_ta_entry.c:96
    23d8:	90000080 	adrp	x0, 12000 <PRIME_TABLE+0x5d0>
    23dc:	f9452c00 	ldr	x0, [x0,#2648]
    23e0:	f9400001 	ldr	x1, [x0]
    23e4:	90000080 	adrp	x0, 12000 <PRIME_TABLE+0x5d0>
    23e8:	f9454000 	ldr	x0, [x0,#2688]
    23ec:	94001101 	bl	67f0 <malloc_add_pool>
/home/optee/RPi3/optee_os/lib/libutee/arch/arm/user_ta_entry.c:97
    23f0:	9400011d 	bl	2864 <_TEE_MathAPI_Init>
/home/optee/RPi3/optee_os/lib/libutee/arch/arm/user_ta_entry.c:98
    23f4:	f00000c0 	adrp	x0, 1d000 <buf.3336+0x2e8>
    23f8:	91349000 	add	x0, x0, #0xd24
    23fc:	52800021 	mov	w1, #0x1                   	// #1
    2400:	39000001 	strb	w1, [x0]
/home/optee/RPi3/optee_os/lib/libutee/arch/arm/user_ta_entry.c:101
    2404:	97fff707 	bl	20 <TA_CreateEntryPoint>
    2408:	b90027a0 	str	w0, [x29,#36]
/home/optee/RPi3/optee_os/lib/libutee/arch/arm/user_ta_entry.c:102
    240c:	b94027a0 	ldr	w0, [x29,#36]
    2410:	6b1f001f 	cmp	w0, wzr
    2414:	54000060 	b.eq	2420 <ta_header_add_session+0xc8>
/home/optee/RPi3/optee_os/lib/libutee/arch/arm/user_ta_entry.c:103
    2418:	b94027a0 	ldr	w0, [x29,#36]
    241c:	14000021 	b	24a0 <ta_header_add_session+0x148>
/home/optee/RPi3/optee_os/lib/libutee/arch/arm/user_ta_entry.c:106
    2420:	52b00001 	mov	w1, #0x80000000            	// #-2147483648
    2424:	52800400 	mov	w0, #0x20                  	// #32
    2428:	940006de 	bl	3fa0 <TEE_Malloc>
    242c:	f90017a0 	str	x0, [x29,#40]
/home/optee/RPi3/optee_os/lib/libutee/arch/arm/user_ta_entry.c:108
    2430:	f94017a0 	ldr	x0, [x29,#40]
    2434:	eb1f001f 	cmp	x0, xzr
    2438:	54000061 	b.ne	2444 <ta_header_add_session+0xec>
/home/optee/RPi3/optee_os/lib/libutee/arch/arm/user_ta_entry.c:109
    243c:	129ffe60 	mov	w0, #0xffff000c            	// #-65524
    2440:	14000018 	b	24a0 <ta_header_add_session+0x148>
/home/optee/RPi3/optee_os/lib/libutee/arch/arm/user_ta_entry.c:110
    2444:	f94017a0 	ldr	x0, [x29,#40]
    2448:	b9401fa1 	ldr	w1, [x29,#28]
    244c:	b9000001 	str	w1, [x0]
/home/optee/RPi3/optee_os/lib/libutee/arch/arm/user_ta_entry.c:111
    2450:	f94017a0 	ldr	x0, [x29,#40]
    2454:	f900041f 	str	xzr, [x0,#8]
/home/optee/RPi3/optee_os/lib/libutee/arch/arm/user_ta_entry.c:112
    2458:	f94017a0 	ldr	x0, [x29,#40]
    245c:	f900081f 	str	xzr, [x0,#16]
    2460:	b0000080 	adrp	x0, 13000 <ta_props>
    2464:	91036000 	add	x0, x0, #0xd8
    2468:	f9400401 	ldr	x1, [x0,#8]
    246c:	f94017a0 	ldr	x0, [x29,#40]
    2470:	f9000c01 	str	x1, [x0,#24]
    2474:	b0000080 	adrp	x0, 13000 <ta_props>
    2478:	91036000 	add	x0, x0, #0xd8
    247c:	f9400400 	ldr	x0, [x0,#8]
    2480:	f94017a1 	ldr	x1, [x29,#40]
    2484:	f9000001 	str	x1, [x0]
    2488:	f94017a0 	ldr	x0, [x29,#40]
    248c:	91004001 	add	x1, x0, #0x10
    2490:	b0000080 	adrp	x0, 13000 <ta_props>
    2494:	91036000 	add	x0, x0, #0xd8
    2498:	f9000401 	str	x1, [x0,#8]
/home/optee/RPi3/optee_os/lib/libutee/arch/arm/user_ta_entry.c:114
    249c:	52800000 	mov	w0, #0x0                   	// #0
/home/optee/RPi3/optee_os/lib/libutee/arch/arm/user_ta_entry.c:115
    24a0:	a8c37bfd 	ldp	x29, x30, [sp],#48
    24a4:	d65f03c0 	ret

00000000000024a8 <ta_header_remove_session>:
ta_header_remove_session():
/home/optee/RPi3/optee_os/lib/libutee/arch/arm/user_ta_entry.c:118
    24a8:	a9bd7bfd 	stp	x29, x30, [sp,#-48]!
    24ac:	910003fd 	mov	x29, sp
    24b0:	b9001fa0 	str	w0, [x29,#28]
/home/optee/RPi3/optee_os/lib/libutee/arch/arm/user_ta_entry.c:121
    24b4:	b0000080 	adrp	x0, 13000 <ta_props>
    24b8:	91036000 	add	x0, x0, #0xd8
    24bc:	f9400000 	ldr	x0, [x0]
    24c0:	f90017a0 	str	x0, [x29,#40]
    24c4:	1400002d 	b	2578 <ta_header_remove_session+0xd0>
/home/optee/RPi3/optee_os/lib/libutee/arch/arm/user_ta_entry.c:122
    24c8:	f94017a0 	ldr	x0, [x29,#40]
    24cc:	b9400001 	ldr	w1, [x0]
    24d0:	b9401fa0 	ldr	w0, [x29,#28]
    24d4:	6b00003f 	cmp	w1, w0
    24d8:	540004a1 	b.ne	256c <ta_header_remove_session+0xc4>
/home/optee/RPi3/optee_os/lib/libutee/arch/arm/user_ta_entry.c:123
    24dc:	f94017a0 	ldr	x0, [x29,#40]
    24e0:	f9400800 	ldr	x0, [x0,#16]
    24e4:	eb1f001f 	cmp	x0, xzr
    24e8:	540000e0 	b.eq	2504 <ta_header_remove_session+0x5c>
/home/optee/RPi3/optee_os/lib/libutee/arch/arm/user_ta_entry.c:123 (discriminator 1)
    24ec:	f94017a0 	ldr	x0, [x29,#40]
    24f0:	f9400800 	ldr	x0, [x0,#16]
    24f4:	f94017a1 	ldr	x1, [x29,#40]
    24f8:	f9400c21 	ldr	x1, [x1,#24]
    24fc:	f9000c01 	str	x1, [x0,#24]
    2500:	14000006 	b	2518 <ta_header_remove_session+0x70>
/home/optee/RPi3/optee_os/lib/libutee/arch/arm/user_ta_entry.c:123 (discriminator 2)
    2504:	f94017a0 	ldr	x0, [x29,#40]
    2508:	f9400c01 	ldr	x1, [x0,#24]
    250c:	b0000080 	adrp	x0, 13000 <ta_props>
    2510:	91036000 	add	x0, x0, #0xd8
    2514:	f9000401 	str	x1, [x0,#8]
/home/optee/RPi3/optee_os/lib/libutee/arch/arm/user_ta_entry.c:123 (discriminator 4)
    2518:	f94017a0 	ldr	x0, [x29,#40]
    251c:	f9400c00 	ldr	x0, [x0,#24]
    2520:	f94017a1 	ldr	x1, [x29,#40]
    2524:	f9400821 	ldr	x1, [x1,#16]
    2528:	f9000001 	str	x1, [x0]
/home/optee/RPi3/optee_os/lib/libutee/arch/arm/user_ta_entry.c:124 (discriminator 4)
    252c:	f94017a0 	ldr	x0, [x29,#40]
    2530:	940006af 	bl	3fec <TEE_Free>
/home/optee/RPi3/optee_os/lib/libutee/arch/arm/user_ta_entry.c:126 (discriminator 4)
    2534:	f00000c0 	adrp	x0, 1d000 <buf.3336+0x2e8>
    2538:	91348000 	add	x0, x0, #0xd20
    253c:	b9400000 	ldr	w0, [x0]
    2540:	51000401 	sub	w1, w0, #0x1
    2544:	f00000c0 	adrp	x0, 1d000 <buf.3336+0x2e8>
    2548:	91348000 	add	x0, x0, #0xd20
    254c:	b9000001 	str	w1, [x0]
/home/optee/RPi3/optee_os/lib/libutee/arch/arm/user_ta_entry.c:127 (discriminator 4)
    2550:	f00000c0 	adrp	x0, 1d000 <buf.3336+0x2e8>
    2554:	91348000 	add	x0, x0, #0xd20
    2558:	b9400000 	ldr	w0, [x0]
    255c:	6b1f001f 	cmp	w0, wzr
    2560:	54000141 	b.ne	2588 <ta_header_remove_session+0xe0>
/home/optee/RPi3/optee_os/lib/libutee/arch/arm/user_ta_entry.c:128
    2564:	97fff6bd 	bl	58 <TA_DestroyEntryPoint>
/home/optee/RPi3/optee_os/lib/libutee/arch/arm/user_ta_entry.c:130
    2568:	14000008 	b	2588 <ta_header_remove_session+0xe0>
/home/optee/RPi3/optee_os/lib/libutee/arch/arm/user_ta_entry.c:121 (discriminator 2)
    256c:	f94017a0 	ldr	x0, [x29,#40]
    2570:	f9400800 	ldr	x0, [x0,#16]
    2574:	f90017a0 	str	x0, [x29,#40]
/home/optee/RPi3/optee_os/lib/libutee/arch/arm/user_ta_entry.c:121 (discriminator 1)
    2578:	f94017a0 	ldr	x0, [x29,#40]
    257c:	eb1f001f 	cmp	x0, xzr
    2580:	54fffa41 	b.ne	24c8 <ta_header_remove_session+0x20>
    2584:	14000002 	b	258c <ta_header_remove_session+0xe4>
/home/optee/RPi3/optee_os/lib/libutee/arch/arm/user_ta_entry.c:130
    2588:	d503201f 	nop
/home/optee/RPi3/optee_os/lib/libutee/arch/arm/user_ta_entry.c:133
    258c:	a8c37bfd 	ldp	x29, x30, [sp],#48
    2590:	d65f03c0 	ret

0000000000002594 <entry_open_session>:
entry_open_session():
/home/optee/RPi3/optee_os/lib/libutee/arch/arm/user_ta_entry.c:137
    2594:	a9b87bfd 	stp	x29, x30, [sp,#-128]!
    2598:	910003fd 	mov	x29, sp
    259c:	f9000fa0 	str	x0, [x29,#24]
    25a0:	f9000ba1 	str	x1, [x29,#16]
/home/optee/RPi3/optee_os/lib/libutee/arch/arm/user_ta_entry.c:143
    25a4:	f9400fa0 	ldr	x0, [x29,#24]
    25a8:	97ffff6c 	bl	2358 <ta_header_add_session>
    25ac:	b9007fa0 	str	w0, [x29,#124]
/home/optee/RPi3/optee_os/lib/libutee/arch/arm/user_ta_entry.c:144
    25b0:	b9407fa0 	ldr	w0, [x29,#124]
    25b4:	6b1f001f 	cmp	w0, wzr
    25b8:	54000060 	b.eq	25c4 <entry_open_session+0x30>
/home/optee/RPi3/optee_os/lib/libutee/arch/arm/user_ta_entry.c:145
    25bc:	b9407fa0 	ldr	w0, [x29,#124]
    25c0:	14000025 	b	2654 <entry_open_session+0xc0>
/home/optee/RPi3/optee_os/lib/libutee/arch/arm/user_ta_entry.c:147
    25c4:	f9400fa0 	ldr	x0, [x29,#24]
    25c8:	97ffff4d 	bl	22fc <ta_header_get_session>
    25cc:	f9003ba0 	str	x0, [x29,#112]
/home/optee/RPi3/optee_os/lib/libutee/arch/arm/user_ta_entry.c:148
    25d0:	f9403ba0 	ldr	x0, [x29,#112]
    25d4:	eb1f001f 	cmp	x0, xzr
    25d8:	54000061 	b.ne	25e4 <entry_open_session+0x50>
/home/optee/RPi3/optee_os/lib/libutee/arch/arm/user_ta_entry.c:149
    25dc:	129fff00 	mov	w0, #0xffff0007            	// #-65529
    25e0:	1400001d 	b	2654 <entry_open_session+0xc0>
/home/optee/RPi3/optee_os/lib/libutee/arch/arm/user_ta_entry.c:151
    25e4:	9101b3a1 	add	x1, x29, #0x6c
    25e8:	9100a3a0 	add	x0, x29, #0x28
    25ec:	f9400ba2 	ldr	x2, [x29,#16]
    25f0:	9400046e 	bl	37a8 <__utee_to_param>
/home/optee/RPi3/optee_os/lib/libutee/arch/arm/user_ta_entry.c:152
    25f4:	b9406fa0 	ldr	w0, [x29,#108]
    25f8:	9100a3a1 	add	x1, x29, #0x28
    25fc:	97ffff27 	bl	2298 <ta_header_save_params>
/home/optee/RPi3/optee_os/lib/libutee/arch/arm/user_ta_entry.c:154
    2600:	b9406fa3 	ldr	w3, [x29,#108]
    2604:	f9403ba0 	ldr	x0, [x29,#112]
    2608:	91002001 	add	x1, x0, #0x8
    260c:	9100a3a0 	add	x0, x29, #0x28
    2610:	aa0103e2 	mov	x2, x1
    2614:	aa0003e1 	mov	x1, x0
    2618:	2a0303e0 	mov	w0, w3
    261c:	97fff69d 	bl	90 <TA_OpenSessionEntryPoint>
    2620:	b9007fa0 	str	w0, [x29,#124]
/home/optee/RPi3/optee_os/lib/libutee/arch/arm/user_ta_entry.c:157
    2624:	b9406fa0 	ldr	w0, [x29,#108]
    2628:	9100a3a1 	add	x1, x29, #0x28
    262c:	aa0103e2 	mov	x2, x1
    2630:	2a0003e1 	mov	w1, w0
    2634:	f9400ba0 	ldr	x0, [x29,#16]
    2638:	940003fa 	bl	3620 <__utee_from_param>
/home/optee/RPi3/optee_os/lib/libutee/arch/arm/user_ta_entry.c:159
    263c:	b9407fa0 	ldr	w0, [x29,#124]
    2640:	6b1f001f 	cmp	w0, wzr
    2644:	54000060 	b.eq	2650 <entry_open_session+0xbc>
/home/optee/RPi3/optee_os/lib/libutee/arch/arm/user_ta_entry.c:160
    2648:	f9400fa0 	ldr	x0, [x29,#24]
    264c:	97ffff97 	bl	24a8 <ta_header_remove_session>
/home/optee/RPi3/optee_os/lib/libutee/arch/arm/user_ta_entry.c:161
    2650:	b9407fa0 	ldr	w0, [x29,#124]
/home/optee/RPi3/optee_os/lib/libutee/arch/arm/user_ta_entry.c:162 (discriminator 1)
    2654:	a8c87bfd 	ldp	x29, x30, [sp],#128
    2658:	d65f03c0 	ret

000000000000265c <entry_close_session>:
entry_close_session():
/home/optee/RPi3/optee_os/lib/libutee/arch/arm/user_ta_entry.c:165
    265c:	a9bd7bfd 	stp	x29, x30, [sp,#-48]!
    2660:	910003fd 	mov	x29, sp
    2664:	f9000fa0 	str	x0, [x29,#24]
/home/optee/RPi3/optee_os/lib/libutee/arch/arm/user_ta_entry.c:166
    2668:	f9400fa0 	ldr	x0, [x29,#24]
    266c:	97ffff24 	bl	22fc <ta_header_get_session>
    2670:	f90017a0 	str	x0, [x29,#40]
/home/optee/RPi3/optee_os/lib/libutee/arch/arm/user_ta_entry.c:168
    2674:	f94017a0 	ldr	x0, [x29,#40]
    2678:	eb1f001f 	cmp	x0, xzr
    267c:	54000061 	b.ne	2688 <entry_close_session+0x2c>
/home/optee/RPi3/optee_os/lib/libutee/arch/arm/user_ta_entry.c:169
    2680:	129fff00 	mov	w0, #0xffff0007            	// #-65529
    2684:	14000007 	b	26a0 <entry_close_session+0x44>
/home/optee/RPi3/optee_os/lib/libutee/arch/arm/user_ta_entry.c:171
    2688:	f94017a0 	ldr	x0, [x29,#40]
    268c:	f9400400 	ldr	x0, [x0,#8]
    2690:	97fff698 	bl	f0 <TA_CloseSessionEntryPoint>
/home/optee/RPi3/optee_os/lib/libutee/arch/arm/user_ta_entry.c:173
    2694:	f9400fa0 	ldr	x0, [x29,#24]
    2698:	97ffff84 	bl	24a8 <ta_header_remove_session>
/home/optee/RPi3/optee_os/lib/libutee/arch/arm/user_ta_entry.c:174
    269c:	52800000 	mov	w0, #0x0                   	// #0
/home/optee/RPi3/optee_os/lib/libutee/arch/arm/user_ta_entry.c:175
    26a0:	a8c37bfd 	ldp	x29, x30, [sp],#48
    26a4:	d65f03c0 	ret

00000000000026a8 <entry_invoke_command>:
entry_invoke_command():
/home/optee/RPi3/optee_os/lib/libutee/arch/arm/user_ta_entry.c:179
    26a8:	a9b87bfd 	stp	x29, x30, [sp,#-128]!
    26ac:	910003fd 	mov	x29, sp
    26b0:	f90017a0 	str	x0, [x29,#40]
    26b4:	f90013a1 	str	x1, [x29,#32]
    26b8:	f9000fa2 	str	x2, [x29,#24]
/home/optee/RPi3/optee_os/lib/libutee/arch/arm/user_ta_entry.c:183
    26bc:	f94017a0 	ldr	x0, [x29,#40]
    26c0:	97ffff0f 	bl	22fc <ta_header_get_session>
    26c4:	f9003fa0 	str	x0, [x29,#120]
/home/optee/RPi3/optee_os/lib/libutee/arch/arm/user_ta_entry.c:185
    26c8:	f9403fa0 	ldr	x0, [x29,#120]
    26cc:	eb1f001f 	cmp	x0, xzr
    26d0:	54000061 	b.ne	26dc <entry_invoke_command+0x34>
/home/optee/RPi3/optee_os/lib/libutee/arch/arm/user_ta_entry.c:186
    26d4:	129fff00 	mov	w0, #0xffff0007            	// #-65529
    26d8:	1400001a 	b	2740 <entry_invoke_command+0x98>
/home/optee/RPi3/optee_os/lib/libutee/arch/arm/user_ta_entry.c:188
    26dc:	9101c3a1 	add	x1, x29, #0x70
    26e0:	9100c3a0 	add	x0, x29, #0x30
    26e4:	f94013a2 	ldr	x2, [x29,#32]
    26e8:	94000430 	bl	37a8 <__utee_to_param>
/home/optee/RPi3/optee_os/lib/libutee/arch/arm/user_ta_entry.c:189
    26ec:	b94073a0 	ldr	w0, [x29,#112]
    26f0:	9100c3a1 	add	x1, x29, #0x30
    26f4:	97fffee9 	bl	2298 <ta_header_save_params>
/home/optee/RPi3/optee_os/lib/libutee/arch/arm/user_ta_entry.c:191
    26f8:	f9403fa0 	ldr	x0, [x29,#120]
    26fc:	f9400400 	ldr	x0, [x0,#8]
    2700:	f9400fa1 	ldr	x1, [x29,#24]
    2704:	2a0103e4 	mov	w4, w1
    2708:	b94073a1 	ldr	w1, [x29,#112]
    270c:	9100c3a2 	add	x2, x29, #0x30
    2710:	aa0203e3 	mov	x3, x2
    2714:	2a0103e2 	mov	w2, w1
    2718:	2a0403e1 	mov	w1, w4
    271c:	97fff742 	bl	424 <TA_InvokeCommandEntryPoint>
    2720:	b90077a0 	str	w0, [x29,#116]
/home/optee/RPi3/optee_os/lib/libutee/arch/arm/user_ta_entry.c:194
    2724:	b94073a0 	ldr	w0, [x29,#112]
    2728:	9100c3a1 	add	x1, x29, #0x30
    272c:	aa0103e2 	mov	x2, x1
    2730:	2a0003e1 	mov	w1, w0
    2734:	f94013a0 	ldr	x0, [x29,#32]
    2738:	940003ba 	bl	3620 <__utee_from_param>
/home/optee/RPi3/optee_os/lib/libutee/arch/arm/user_ta_entry.c:195
    273c:	b94077a0 	ldr	w0, [x29,#116]
/home/optee/RPi3/optee_os/lib/libutee/arch/arm/user_ta_entry.c:196 (discriminator 1)
    2740:	a8c87bfd 	ldp	x29, x30, [sp],#128
    2744:	d65f03c0 	ret

0000000000002748 <__utee_entry>:
__utee_entry():
/home/optee/RPi3/optee_os/lib/libutee/arch/arm/user_ta_entry.c:200
    2748:	a9bc7bfd 	stp	x29, x30, [sp,#-64]!
    274c:	910003fd 	mov	x29, sp
    2750:	f90017a0 	str	x0, [x29,#40]
    2754:	f90013a1 	str	x1, [x29,#32]
    2758:	f9000fa2 	str	x2, [x29,#24]
    275c:	f9000ba3 	str	x3, [x29,#16]
/home/optee/RPi3/optee_os/lib/libutee/arch/arm/user_ta_entry.c:203
    2760:	f94017a0 	ldr	x0, [x29,#40]
    2764:	f100041f 	cmp	x0, #0x1
    2768:	54000160 	b.eq	2794 <__utee_entry+0x4c>
    276c:	f100041f 	cmp	x0, #0x1
    2770:	54000083 	b.cc	2780 <__utee_entry+0x38>
    2774:	f100081f 	cmp	x0, #0x2
    2778:	54000160 	b.eq	27a4 <__utee_entry+0x5c>
    277c:	14000010 	b	27bc <__utee_entry+0x74>
/home/optee/RPi3/optee_os/lib/libutee/arch/arm/user_ta_entry.c:205
    2780:	f9400fa1 	ldr	x1, [x29,#24]
    2784:	f94013a0 	ldr	x0, [x29,#32]
    2788:	97ffff83 	bl	2594 <entry_open_session>
    278c:	b9003fa0 	str	w0, [x29,#60]
/home/optee/RPi3/optee_os/lib/libutee/arch/arm/user_ta_entry.c:206
    2790:	1400001a 	b	27f8 <__utee_entry+0xb0>
/home/optee/RPi3/optee_os/lib/libutee/arch/arm/user_ta_entry.c:208
    2794:	f94013a0 	ldr	x0, [x29,#32]
    2798:	97ffffb1 	bl	265c <entry_close_session>
    279c:	b9003fa0 	str	w0, [x29,#60]
/home/optee/RPi3/optee_os/lib/libutee/arch/arm/user_ta_entry.c:209
    27a0:	14000016 	b	27f8 <__utee_entry+0xb0>
/home/optee/RPi3/optee_os/lib/libutee/arch/arm/user_ta_entry.c:211
    27a4:	f9400ba2 	ldr	x2, [x29,#16]
    27a8:	f9400fa1 	ldr	x1, [x29,#24]
    27ac:	f94013a0 	ldr	x0, [x29,#32]
    27b0:	97ffffbe 	bl	26a8 <entry_invoke_command>
    27b4:	b9003fa0 	str	w0, [x29,#60]
/home/optee/RPi3/optee_os/lib/libutee/arch/arm/user_ta_entry.c:212
    27b8:	14000010 	b	27f8 <__utee_entry+0xb0>
/home/optee/RPi3/optee_os/lib/libutee/arch/arm/user_ta_entry.c:214
    27bc:	12800000 	mov	w0, #0xffffffff            	// #-1
    27c0:	b9003fa0 	str	w0, [x29,#60]
/home/optee/RPi3/optee_os/lib/libutee/arch/arm/user_ta_entry.c:215
    27c4:	d0000060 	adrp	x0, 10000 <mpa_set_oct_str+0x80>
    27c8:	913c4001 	add	x1, x0, #0xf10
    27cc:	d0000060 	adrp	x0, 10000 <mpa_set_oct_str+0x80>
    27d0:	913c8000 	add	x0, x0, #0xf20
    27d4:	52800005 	mov	w5, #0x0                   	// #0
    27d8:	aa0103e4 	mov	x4, x1
    27dc:	52800023 	mov	w3, #0x1                   	// #1
    27e0:	52800022 	mov	w2, #0x1                   	// #1
    27e4:	52801ae1 	mov	w1, #0xd7                  	// #215
    27e8:	94001bc9 	bl	970c <trace_printf>
    27ec:	52800000 	mov	w0, #0x0                   	// #0
    27f0:	97fffea0 	bl	2270 <__TEE_Panic>
/home/optee/RPi3/optee_os/lib/libutee/arch/arm/user_ta_entry.c:216
    27f4:	d503201f 	nop
/home/optee/RPi3/optee_os/lib/libutee/arch/arm/user_ta_entry.c:218
    27f8:	d2800001 	mov	x1, #0x0                   	// #0
    27fc:	52800000 	mov	w0, #0x0                   	// #0
    2800:	97fffea6 	bl	2298 <ta_header_save_params>
/home/optee/RPi3/optee_os/lib/libutee/arch/arm/user_ta_entry.c:219
    2804:	b9403fa0 	ldr	w0, [x29,#60]
    2808:	94003774 	bl	105d8 <utee_return>

000000000000280c <TEE_BigInt_Panic>:
TEE_BigInt_Panic():
/home/optee/RPi3/optee_os/lib/libutee/tee_api_arith.c:63
    280c:	a9be7bfd 	stp	x29, x30, [sp,#-32]!
    2810:	910003fd 	mov	x29, sp
    2814:	f9000fa0 	str	x0, [x29,#24]
/home/optee/RPi3/optee_os/lib/libutee/tee_api_arith.c:64
    2818:	d0000060 	adrp	x0, 10000 <mpa_set_oct_str+0x80>
    281c:	913cc000 	add	x0, x0, #0xf30
    2820:	f9400fa1 	ldr	x1, [x29,#24]
    2824:	940008cc 	bl	4b54 <printf>
/home/optee/RPi3/optee_os/lib/libutee/tee_api_arith.c:65
    2828:	d0000060 	adrp	x0, 10000 <mpa_set_oct_str+0x80>
    282c:	913d0001 	add	x1, x0, #0xf40
    2830:	d0000060 	adrp	x0, 10000 <mpa_set_oct_str+0x80>
    2834:	913ea000 	add	x0, x0, #0xfa8
    2838:	528c24e5 	mov	w5, #0x6127                	// #24871
    283c:	72a01625 	movk	w5, #0xb1, lsl #16
    2840:	aa0103e4 	mov	x4, x1
    2844:	52800023 	mov	w3, #0x1                   	// #1
    2848:	52800022 	mov	w2, #0x1                   	// #1
    284c:	52800821 	mov	w1, #0x41                  	// #65
    2850:	94001baf 	bl	970c <trace_printf>
    2854:	528c24e0 	mov	w0, #0x6127                	// #24871
    2858:	72a01620 	movk	w0, #0xb1, lsl #16
    285c:	97fffe85 	bl	2270 <__TEE_Panic>
/home/optee/RPi3/optee_os/lib/libutee/tee_api_arith.c:67 (discriminator 1)
    2860:	14000000 	b	2860 <TEE_BigInt_Panic+0x54>

0000000000002864 <_TEE_MathAPI_Init>:
_TEE_MathAPI_Init():
/home/optee/RPi3/optee_os/lib/libutee/tee_api_arith.c:78
    2864:	a9bf7bfd 	stp	x29, x30, [sp,#-16]!
    2868:	910003fd 	mov	x29, sp
/home/optee/RPi3/optee_os/lib/libutee/tee_api_arith.c:79
    286c:	b0000080 	adrp	x0, 13000 <ta_props>
    2870:	9103a000 	add	x0, x0, #0xe8
    2874:	f9400000 	ldr	x0, [x0]
    2878:	52810002 	mov	w2, #0x800                 	// #2048
    287c:	d2836801 	mov	x1, #0x1b40                	// #6976
    2880:	94002840 	bl	c980 <mpa_init_scratch_mem>
/home/optee/RPi3/optee_os/lib/libutee/tee_api_arith.c:81
    2884:	90000080 	adrp	x0, 12000 <PRIME_TABLE+0x5d0>
    2888:	f9453400 	ldr	x0, [x0,#2664]
    288c:	94002a86 	bl	d2a4 <mpa_set_random_generator>
/home/optee/RPi3/optee_os/lib/libutee/tee_api_arith.c:82
    2890:	d503201f 	nop
    2894:	a8c17bfd 	ldp	x29, x30, [sp],#16
    2898:	d65f03c0 	ret

000000000000289c <TEE_BigIntInit>:
TEE_BigIntInit():
/home/optee/RPi3/optee_os/lib/libutee/tee_api_arith.c:88
    289c:	a9be7bfd 	stp	x29, x30, [sp,#-32]!
    28a0:	910003fd 	mov	x29, sp
    28a4:	f9000fa0 	str	x0, [x29,#24]
    28a8:	b90017a1 	str	w1, [x29,#20]
/home/optee/RPi3/optee_os/lib/libutee/tee_api_arith.c:89
    28ac:	b94017a1 	ldr	w1, [x29,#20]
    28b0:	f9400fa0 	ldr	x0, [x29,#24]
    28b4:	940032a3 	bl	f340 <mpa_init_static>
/home/optee/RPi3/optee_os/lib/libutee/tee_api_arith.c:90
    28b8:	d503201f 	nop
    28bc:	a8c27bfd 	ldp	x29, x30, [sp],#32
    28c0:	d65f03c0 	ret

00000000000028c4 <TEE_BigIntInitFMM>:
TEE_BigIntInitFMM():
/home/optee/RPi3/optee_os/lib/libutee/tee_api_arith.c:96
    28c4:	d10083ff 	sub	sp, sp, #0x20
    28c8:	f90007e0 	str	x0, [sp,#8]
    28cc:	b90007e1 	str	w1, [sp,#4]
/home/optee/RPi3/optee_os/lib/libutee/tee_api_arith.c:97
    28d0:	f94007e0 	ldr	x0, [sp,#8]
    28d4:	f9000fe0 	str	x0, [sp,#24]
/home/optee/RPi3/optee_os/lib/libutee/tee_api_arith.c:99
    28d8:	b94007e1 	ldr	w1, [sp,#4]
    28dc:	321f73e0 	mov	w0, #0x3ffffffe            	// #1073741822
    28e0:	0b000020 	add	w0, w1, w0
    28e4:	531e7400 	lsl	w0, w0, #2
    28e8:	2a0003e0 	mov	w0, w0
    28ec:	91000c00 	add	x0, x0, #0x3
    28f0:	d342fc00 	lsr	x0, x0, #2
    28f4:	2a0003e1 	mov	w1, w0
    28f8:	f9400fe0 	ldr	x0, [sp,#24]
    28fc:	b9000001 	str	w1, [x0]
/home/optee/RPi3/optee_os/lib/libutee/tee_api_arith.c:100
    2900:	f9400fe0 	ldr	x0, [sp,#24]
    2904:	b900041f 	str	wzr, [x0,#4]
/home/optee/RPi3/optee_os/lib/libutee/tee_api_arith.c:101
    2908:	d503201f 	nop
    290c:	910083ff 	add	sp, sp, #0x20
    2910:	d65f03c0 	ret

0000000000002914 <TEE_BigIntInitFMMContext>:
TEE_BigIntInitFMMContext():
/home/optee/RPi3/optee_os/lib/libutee/tee_api_arith.c:108
    2914:	a9bc7bfd 	stp	x29, x30, [sp,#-64]!
    2918:	910003fd 	mov	x29, sp
    291c:	f90017a0 	str	x0, [x29,#40]
    2920:	b90027a1 	str	w1, [x29,#36]
    2924:	f9000fa2 	str	x2, [x29,#24]
/home/optee/RPi3/optee_os/lib/libutee/tee_api_arith.c:109
    2928:	f94017a0 	ldr	x0, [x29,#40]
    292c:	f9001fa0 	str	x0, [x29,#56]
/home/optee/RPi3/optee_os/lib/libutee/tee_api_arith.c:110
    2930:	f9400fa0 	ldr	x0, [x29,#24]
    2934:	f9001ba0 	str	x0, [x29,#48]
/home/optee/RPi3/optee_os/lib/libutee/tee_api_arith.c:112
    2938:	b94027a1 	ldr	w1, [x29,#36]
    293c:	f9401fa0 	ldr	x0, [x29,#56]
    2940:	94003298 	bl	f3a0 <mpa_init_static_fmm_context>
/home/optee/RPi3/optee_os/lib/libutee/tee_api_arith.c:113
    2944:	f9401fa0 	ldr	x0, [x29,#56]
    2948:	f9400001 	ldr	x1, [x0]
    294c:	f9401fa0 	ldr	x0, [x29,#56]
    2950:	f9400402 	ldr	x2, [x0,#8]
    2954:	f9401fa0 	ldr	x0, [x29,#56]
    2958:	91004003 	add	x3, x0, #0x10
    295c:	b0000080 	adrp	x0, 13000 <ta_props>
    2960:	9103a000 	add	x0, x0, #0xe8
    2964:	f9400000 	ldr	x0, [x0]
    2968:	aa0003e4 	mov	x4, x0
    296c:	f9401ba0 	ldr	x0, [x29,#48]
    2970:	94001ec3 	bl	a47c <mpa_compute_fmm_context>
/home/optee/RPi3/optee_os/lib/libutee/tee_api_arith.c:116
    2974:	d503201f 	nop
    2978:	a8c47bfd 	ldp	x29, x30, [sp],#64
    297c:	d65f03c0 	ret

0000000000002980 <TEE_BigIntFMMSizeInU32>:
TEE_BigIntFMMSizeInU32():
/home/optee/RPi3/optee_os/lib/libutee/tee_api_arith.c:126
    2980:	d10043ff 	sub	sp, sp, #0x10
    2984:	b9000fe0 	str	w0, [sp,#12]
/home/optee/RPi3/optee_os/lib/libutee/tee_api_arith.c:127
    2988:	b9400fe0 	ldr	w0, [sp,#12]
    298c:	11007c00 	add	w0, w0, #0x1f
    2990:	53057c00 	lsr	w0, w0, #5
    2994:	11000c00 	add	w0, w0, #0x3
/home/optee/RPi3/optee_os/lib/libutee/tee_api_arith.c:128
    2998:	910043ff 	add	sp, sp, #0x10
    299c:	d65f03c0 	ret

00000000000029a0 <TEE_BigIntFMMContextSizeInU32>:
TEE_BigIntFMMContextSizeInU32():
/home/optee/RPi3/optee_os/lib/libutee/tee_api_arith.c:134
    29a0:	d10043ff 	sub	sp, sp, #0x10
    29a4:	b9000fe0 	str	w0, [sp,#12]
/home/optee/RPi3/optee_os/lib/libutee/tee_api_arith.c:135
    29a8:	b9400fe0 	ldr	w0, [sp,#12]
    29ac:	11007c00 	add	w0, w0, #0x1f
    29b0:	53057c00 	lsr	w0, w0, #5
    29b4:	11001c00 	add	w0, w0, #0x7
    29b8:	531f7800 	lsl	w0, w0, #1
/home/optee/RPi3/optee_os/lib/libutee/tee_api_arith.c:136
    29bc:	910043ff 	add	sp, sp, #0x10
    29c0:	d65f03c0 	ret

00000000000029c4 <TEE_BigIntConvertFromOctetString>:
TEE_BigIntConvertFromOctetString():
/home/optee/RPi3/optee_os/lib/libutee/tee_api_arith.c:149
    29c4:	a9bb7bfd 	stp	x29, x30, [sp,#-80]!
    29c8:	910003fd 	mov	x29, sp
    29cc:	f90017a0 	str	x0, [x29,#40]
    29d0:	f90013a1 	str	x1, [x29,#32]
    29d4:	b9001fa2 	str	w2, [x29,#28]
    29d8:	b9001ba3 	str	w3, [x29,#24]
/home/optee/RPi3/optee_os/lib/libutee/tee_api_arith.c:151
    29dc:	f94017a0 	ldr	x0, [x29,#40]
    29e0:	f90023a0 	str	x0, [x29,#64]
/home/optee/RPi3/optee_os/lib/libutee/tee_api_arith.c:152
    29e4:	b9401ba0 	ldr	w0, [x29,#24]
    29e8:	531f7c00 	lsr	w0, w0, #31
    29ec:	3900ffa0 	strb	w0, [x29,#63]
/home/optee/RPi3/optee_os/lib/libutee/tee_api_arith.c:154
    29f0:	b9401fa0 	ldr	w0, [x29,#28]
    29f4:	3940ffa3 	ldrb	w3, [x29,#63]
    29f8:	aa0003e2 	mov	x2, x0
    29fc:	f94013a1 	ldr	x1, [x29,#32]
    2a00:	f94023a0 	ldr	x0, [x29,#64]
    2a04:	9400355f 	bl	ff80 <mpa_set_oct_str>
    2a08:	6b1f001f 	cmp	w0, wzr
    2a0c:	54000080 	b.eq	2a1c <TEE_BigIntConvertFromOctetString+0x58>
/home/optee/RPi3/optee_os/lib/libutee/tee_api_arith.c:155
    2a10:	1299fe00 	mov	w0, #0xffff300f            	// #-53233
    2a14:	b9004fa0 	str	w0, [x29,#76]
    2a18:	14000002 	b	2a20 <TEE_BigIntConvertFromOctetString+0x5c>
/home/optee/RPi3/optee_os/lib/libutee/tee_api_arith.c:157
    2a1c:	b9004fbf 	str	wzr, [x29,#76]
/home/optee/RPi3/optee_os/lib/libutee/tee_api_arith.c:159
    2a20:	b9404fa0 	ldr	w0, [x29,#76]
    2a24:	6b1f001f 	cmp	w0, wzr
    2a28:	54000220 	b.eq	2a6c <TEE_BigIntConvertFromOctetString+0xa8>
/home/optee/RPi3/optee_os/lib/libutee/tee_api_arith.c:159 (discriminator 1)
    2a2c:	b9404fa1 	ldr	w1, [x29,#76]
    2a30:	1299fe00 	mov	w0, #0xffff300f            	// #-53233
    2a34:	6b00003f 	cmp	w1, w0
    2a38:	540001a0 	b.eq	2a6c <TEE_BigIntConvertFromOctetString+0xa8>
/home/optee/RPi3/optee_os/lib/libutee/tee_api_arith.c:161
    2a3c:	d0000060 	adrp	x0, 10000 <mpa_set_oct_str+0x80>
    2a40:	913d0001 	add	x1, x0, #0xf40
    2a44:	d0000060 	adrp	x0, 10000 <mpa_set_oct_str+0x80>
    2a48:	913f0000 	add	x0, x0, #0xfc0
    2a4c:	b9404fa5 	ldr	w5, [x29,#76]
    2a50:	aa0103e4 	mov	x4, x1
    2a54:	52800023 	mov	w3, #0x1                   	// #1
    2a58:	52800022 	mov	w2, #0x1                   	// #1
    2a5c:	52801421 	mov	w1, #0xa1                  	// #161
    2a60:	94001b2b 	bl	970c <trace_printf>
    2a64:	b9404fa0 	ldr	w0, [x29,#76]
    2a68:	97fffe02 	bl	2270 <__TEE_Panic>
/home/optee/RPi3/optee_os/lib/libutee/tee_api_arith.c:163
    2a6c:	b9404fa0 	ldr	w0, [x29,#76]
/home/optee/RPi3/optee_os/lib/libutee/tee_api_arith.c:164
    2a70:	a8c57bfd 	ldp	x29, x30, [sp],#80
    2a74:	d65f03c0 	ret

0000000000002a78 <TEE_BigIntConvertToOctetString>:
TEE_BigIntConvertToOctetString():
/home/optee/RPi3/optee_os/lib/libutee/tee_api_arith.c:172
    2a78:	a9bb7bfd 	stp	x29, x30, [sp,#-80]!
    2a7c:	910003fd 	mov	x29, sp
    2a80:	f90017a0 	str	x0, [x29,#40]
    2a84:	f90013a1 	str	x1, [x29,#32]
    2a88:	f9000fa2 	str	x2, [x29,#24]
/home/optee/RPi3/optee_os/lib/libutee/tee_api_arith.c:173
    2a8c:	f9400fa0 	ldr	x0, [x29,#24]
    2a90:	f90023a0 	str	x0, [x29,#64]
/home/optee/RPi3/optee_os/lib/libutee/tee_api_arith.c:174
    2a94:	f94013a0 	ldr	x0, [x29,#32]
    2a98:	b9400000 	ldr	w0, [x0]
    2a9c:	2a0003e0 	mov	w0, w0
    2aa0:	f9001fa0 	str	x0, [x29,#56]
/home/optee/RPi3/optee_os/lib/libutee/tee_api_arith.c:177
    2aa4:	9100e3a0 	add	x0, x29, #0x38
    2aa8:	f94023a2 	ldr	x2, [x29,#64]
    2aac:	aa0003e1 	mov	x1, x0
    2ab0:	f94017a0 	ldr	x0, [x29,#40]
    2ab4:	940035a9 	bl	10158 <mpa_get_oct_str>
    2ab8:	6b1f001f 	cmp	w0, wzr
    2abc:	54000080 	b.eq	2acc <TEE_BigIntConvertToOctetString+0x54>
/home/optee/RPi3/optee_os/lib/libutee/tee_api_arith.c:178
    2ac0:	129ffde0 	mov	w0, #0xffff0010            	// #-65520
    2ac4:	b9004fa0 	str	w0, [x29,#76]
    2ac8:	14000002 	b	2ad0 <TEE_BigIntConvertToOctetString+0x58>
/home/optee/RPi3/optee_os/lib/libutee/tee_api_arith.c:180
    2acc:	b9004fbf 	str	wzr, [x29,#76]
/home/optee/RPi3/optee_os/lib/libutee/tee_api_arith.c:182
    2ad0:	f9401fa0 	ldr	x0, [x29,#56]
    2ad4:	2a0003e1 	mov	w1, w0
    2ad8:	f94013a0 	ldr	x0, [x29,#32]
    2adc:	b9000001 	str	w1, [x0]
/home/optee/RPi3/optee_os/lib/libutee/tee_api_arith.c:184
    2ae0:	b9404fa0 	ldr	w0, [x29,#76]
    2ae4:	6b1f001f 	cmp	w0, wzr
    2ae8:	54000220 	b.eq	2b2c <TEE_BigIntConvertToOctetString+0xb4>
/home/optee/RPi3/optee_os/lib/libutee/tee_api_arith.c:184 (discriminator 1)
    2aec:	b9404fa1 	ldr	w1, [x29,#76]
    2af0:	129ffde0 	mov	w0, #0xffff0010            	// #-65520
    2af4:	6b00003f 	cmp	w1, w0
    2af8:	540001a0 	b.eq	2b2c <TEE_BigIntConvertToOctetString+0xb4>
/home/optee/RPi3/optee_os/lib/libutee/tee_api_arith.c:186
    2afc:	d0000060 	adrp	x0, 10000 <mpa_set_oct_str+0x80>
    2b00:	913d0001 	add	x1, x0, #0xf40
    2b04:	d0000060 	adrp	x0, 10000 <mpa_set_oct_str+0x80>
    2b08:	913fa000 	add	x0, x0, #0xfe8
    2b0c:	b9404fa5 	ldr	w5, [x29,#76]
    2b10:	aa0103e4 	mov	x4, x1
    2b14:	52800023 	mov	w3, #0x1                   	// #1
    2b18:	52800022 	mov	w2, #0x1                   	// #1
    2b1c:	52801741 	mov	w1, #0xba                  	// #186
    2b20:	94001afb 	bl	970c <trace_printf>
    2b24:	b9404fa0 	ldr	w0, [x29,#76]
    2b28:	97fffdd2 	bl	2270 <__TEE_Panic>
/home/optee/RPi3/optee_os/lib/libutee/tee_api_arith.c:188
    2b2c:	b9404fa0 	ldr	w0, [x29,#76]
/home/optee/RPi3/optee_os/lib/libutee/tee_api_arith.c:189
    2b30:	a8c57bfd 	ldp	x29, x30, [sp],#80
    2b34:	d65f03c0 	ret

0000000000002b38 <TEE_BigIntConvertFromS32>:
TEE_BigIntConvertFromS32():
/home/optee/RPi3/optee_os/lib/libutee/tee_api_arith.c:195
    2b38:	a9bd7bfd 	stp	x29, x30, [sp,#-48]!
    2b3c:	910003fd 	mov	x29, sp
    2b40:	f9000fa0 	str	x0, [x29,#24]
    2b44:	b90017a1 	str	w1, [x29,#20]
/home/optee/RPi3/optee_os/lib/libutee/tee_api_arith.c:196
    2b48:	f9400fa0 	ldr	x0, [x29,#24]
    2b4c:	f90017a0 	str	x0, [x29,#40]
/home/optee/RPi3/optee_os/lib/libutee/tee_api_arith.c:199
    2b50:	b94017a1 	ldr	w1, [x29,#20]
    2b54:	f94017a0 	ldr	x0, [x29,#40]
    2b58:	9400201f 	bl	abd4 <mpa_set_S32>
/home/optee/RPi3/optee_os/lib/libutee/tee_api_arith.c:203
    2b5c:	d503201f 	nop
    2b60:	a8c37bfd 	ldp	x29, x30, [sp],#48
    2b64:	d65f03c0 	ret

0000000000002b68 <TEE_BigIntConvertToS32>:
TEE_BigIntConvertToS32():
/home/optee/RPi3/optee_os/lib/libutee/tee_api_arith.c:209
    2b68:	a9bd7bfd 	stp	x29, x30, [sp,#-48]!
    2b6c:	910003fd 	mov	x29, sp
    2b70:	f9000fa0 	str	x0, [x29,#24]
    2b74:	f9000ba1 	str	x1, [x29,#16]
/home/optee/RPi3/optee_os/lib/libutee/tee_api_arith.c:211
    2b78:	f9400ba0 	ldr	x0, [x29,#16]
    2b7c:	f90013a0 	str	x0, [x29,#32]
/home/optee/RPi3/optee_os/lib/libutee/tee_api_arith.c:213
    2b80:	f94013a1 	ldr	x1, [x29,#32]
    2b84:	f9400fa0 	ldr	x0, [x29,#24]
    2b88:	9400202d 	bl	ac3c <mpa_get_S32>
    2b8c:	6b1f001f 	cmp	w0, wzr
    2b90:	54000061 	b.ne	2b9c <TEE_BigIntConvertToS32+0x34>
/home/optee/RPi3/optee_os/lib/libutee/tee_api_arith.c:214
    2b94:	b9002fbf 	str	wzr, [x29,#44]
    2b98:	14000003 	b	2ba4 <TEE_BigIntConvertToS32+0x3c>
/home/optee/RPi3/optee_os/lib/libutee/tee_api_arith.c:216
    2b9c:	1299fe00 	mov	w0, #0xffff300f            	// #-53233
    2ba0:	b9002fa0 	str	w0, [x29,#44]
/home/optee/RPi3/optee_os/lib/libutee/tee_api_arith.c:218
    2ba4:	b9402fa0 	ldr	w0, [x29,#44]
    2ba8:	6b1f001f 	cmp	w0, wzr
    2bac:	54000220 	b.eq	2bf0 <TEE_BigIntConvertToS32+0x88>
/home/optee/RPi3/optee_os/lib/libutee/tee_api_arith.c:218 (discriminator 1)
    2bb0:	b9402fa1 	ldr	w1, [x29,#44]
    2bb4:	1299fe00 	mov	w0, #0xffff300f            	// #-53233
    2bb8:	6b00003f 	cmp	w1, w0
    2bbc:	540001a0 	b.eq	2bf0 <TEE_BigIntConvertToS32+0x88>
/home/optee/RPi3/optee_os/lib/libutee/tee_api_arith.c:220
    2bc0:	d0000060 	adrp	x0, 10000 <mpa_set_oct_str+0x80>
    2bc4:	913d0001 	add	x1, x0, #0xf40
    2bc8:	f0000060 	adrp	x0, 11000 <__func__.3864+0x18>
    2bcc:	91002000 	add	x0, x0, #0x8
    2bd0:	b9402fa5 	ldr	w5, [x29,#44]
    2bd4:	aa0103e4 	mov	x4, x1
    2bd8:	52800023 	mov	w3, #0x1                   	// #1
    2bdc:	52800022 	mov	w2, #0x1                   	// #1
    2be0:	52801b81 	mov	w1, #0xdc                  	// #220
    2be4:	94001aca 	bl	970c <trace_printf>
    2be8:	b9402fa0 	ldr	w0, [x29,#44]
    2bec:	97fffda1 	bl	2270 <__TEE_Panic>
/home/optee/RPi3/optee_os/lib/libutee/tee_api_arith.c:222
    2bf0:	b9402fa0 	ldr	w0, [x29,#44]
/home/optee/RPi3/optee_os/lib/libutee/tee_api_arith.c:223
    2bf4:	a8c37bfd 	ldp	x29, x30, [sp],#48
    2bf8:	d65f03c0 	ret

0000000000002bfc <TEE_BigIntCmp>:
TEE_BigIntCmp():
/home/optee/RPi3/optee_os/lib/libutee/tee_api_arith.c:233
    2bfc:	a9bd7bfd 	stp	x29, x30, [sp,#-48]!
    2c00:	910003fd 	mov	x29, sp
    2c04:	f9000fa0 	str	x0, [x29,#24]
    2c08:	f9000ba1 	str	x1, [x29,#16]
/home/optee/RPi3/optee_os/lib/libutee/tee_api_arith.c:234
    2c0c:	f9400fa0 	ldr	x0, [x29,#24]
    2c10:	f90017a0 	str	x0, [x29,#40]
/home/optee/RPi3/optee_os/lib/libutee/tee_api_arith.c:235
    2c14:	f9400ba0 	ldr	x0, [x29,#16]
    2c18:	f90013a0 	str	x0, [x29,#32]
/home/optee/RPi3/optee_os/lib/libutee/tee_api_arith.c:237
    2c1c:	f94013a1 	ldr	x1, [x29,#32]
    2c20:	f94017a0 	ldr	x0, [x29,#40]
    2c24:	940030df 	bl	efa0 <mpa_cmp>
/home/optee/RPi3/optee_os/lib/libutee/tee_api_arith.c:238
    2c28:	a8c37bfd 	ldp	x29, x30, [sp],#48
    2c2c:	d65f03c0 	ret

0000000000002c30 <TEE_BigIntCmpS32>:
TEE_BigIntCmpS32():
/home/optee/RPi3/optee_os/lib/libutee/tee_api_arith.c:244
    2c30:	a9bd7bfd 	stp	x29, x30, [sp,#-48]!
    2c34:	910003fd 	mov	x29, sp
    2c38:	f9000fa0 	str	x0, [x29,#24]
    2c3c:	b90017a1 	str	w1, [x29,#20]
/home/optee/RPi3/optee_os/lib/libutee/tee_api_arith.c:245
    2c40:	f9400fa0 	ldr	x0, [x29,#24]
    2c44:	f90017a0 	str	x0, [x29,#40]
/home/optee/RPi3/optee_os/lib/libutee/tee_api_arith.c:247
    2c48:	b94017a1 	ldr	w1, [x29,#20]
    2c4c:	f94017a0 	ldr	x0, [x29,#40]
    2c50:	9400310b 	bl	f07c <mpa_cmp_short>
/home/optee/RPi3/optee_os/lib/libutee/tee_api_arith.c:248
    2c54:	a8c37bfd 	ldp	x29, x30, [sp],#48
    2c58:	d65f03c0 	ret

0000000000002c5c <TEE_BigIntShiftRight>:
TEE_BigIntShiftRight():
/home/optee/RPi3/optee_os/lib/libutee/tee_api_arith.c:255
    2c5c:	a9bc7bfd 	stp	x29, x30, [sp,#-64]!
    2c60:	910003fd 	mov	x29, sp
    2c64:	f90017a0 	str	x0, [x29,#40]
    2c68:	f90013a1 	str	x1, [x29,#32]
    2c6c:	f9000fa2 	str	x2, [x29,#24]
/home/optee/RPi3/optee_os/lib/libutee/tee_api_arith.c:256
    2c70:	f94017a0 	ldr	x0, [x29,#40]
    2c74:	f9001fa0 	str	x0, [x29,#56]
/home/optee/RPi3/optee_os/lib/libutee/tee_api_arith.c:257
    2c78:	f94013a0 	ldr	x0, [x29,#32]
    2c7c:	f9001ba0 	str	x0, [x29,#48]
/home/optee/RPi3/optee_os/lib/libutee/tee_api_arith.c:259
    2c80:	f9400fa0 	ldr	x0, [x29,#24]
    2c84:	2a0003e2 	mov	w2, w0
    2c88:	f9401ba1 	ldr	x1, [x29,#48]
    2c8c:	f9401fa0 	ldr	x0, [x29,#56]
    2c90:	94002b8b 	bl	dabc <mpa_shift_right>
/home/optee/RPi3/optee_os/lib/libutee/tee_api_arith.c:260
    2c94:	d503201f 	nop
    2c98:	a8c47bfd 	ldp	x29, x30, [sp],#64
    2c9c:	d65f03c0 	ret

0000000000002ca0 <TEE_BigIntGetBit>:
TEE_BigIntGetBit():
/home/optee/RPi3/optee_os/lib/libutee/tee_api_arith.c:266
    2ca0:	a9bd7bfd 	stp	x29, x30, [sp,#-48]!
    2ca4:	910003fd 	mov	x29, sp
    2ca8:	f9000fa0 	str	x0, [x29,#24]
    2cac:	b90017a1 	str	w1, [x29,#20]
/home/optee/RPi3/optee_os/lib/libutee/tee_api_arith.c:267
    2cb0:	f9400fa0 	ldr	x0, [x29,#24]
    2cb4:	f90017a0 	str	x0, [x29,#40]
/home/optee/RPi3/optee_os/lib/libutee/tee_api_arith.c:269
    2cb8:	b94017a1 	ldr	w1, [x29,#20]
    2cbc:	f94017a0 	ldr	x0, [x29,#40]
    2cc0:	94001c8f 	bl	9efc <mpa_get_bit>
    2cc4:	6b1f001f 	cmp	w0, wzr
    2cc8:	1a9f07e0 	cset	w0, ne
    2ccc:	53001c00 	uxtb	w0, w0
/home/optee/RPi3/optee_os/lib/libutee/tee_api_arith.c:270
    2cd0:	a8c37bfd 	ldp	x29, x30, [sp],#48
    2cd4:	d65f03c0 	ret

0000000000002cd8 <TEE_BigIntGetBitCount>:
TEE_BigIntGetBitCount():
/home/optee/RPi3/optee_os/lib/libutee/tee_api_arith.c:276
    2cd8:	a9bd7bfd 	stp	x29, x30, [sp,#-48]!
    2cdc:	910003fd 	mov	x29, sp
    2ce0:	f9000fa0 	str	x0, [x29,#24]
/home/optee/RPi3/optee_os/lib/libutee/tee_api_arith.c:277
    2ce4:	f9400fa0 	ldr	x0, [x29,#24]
    2ce8:	f90017a0 	str	x0, [x29,#40]
/home/optee/RPi3/optee_os/lib/libutee/tee_api_arith.c:279
    2cec:	f94017a0 	ldr	x0, [x29,#40]
    2cf0:	94001c55 	bl	9e44 <mpa_highest_bit_index>
    2cf4:	11000400 	add	w0, w0, #0x1
/home/optee/RPi3/optee_os/lib/libutee/tee_api_arith.c:280
    2cf8:	a8c37bfd 	ldp	x29, x30, [sp],#48
    2cfc:	d65f03c0 	ret

0000000000002d00 <TEE_BigIntAdd>:
TEE_BigIntAdd():
/home/optee/RPi3/optee_os/lib/libutee/tee_api_arith.c:291
    2d00:	a9bb7bfd 	stp	x29, x30, [sp,#-80]!
    2d04:	910003fd 	mov	x29, sp
    2d08:	f90017a0 	str	x0, [x29,#40]
    2d0c:	f90013a1 	str	x1, [x29,#32]
    2d10:	f9000fa2 	str	x2, [x29,#24]
/home/optee/RPi3/optee_os/lib/libutee/tee_api_arith.c:292
    2d14:	f94017a0 	ldr	x0, [x29,#40]
    2d18:	f90027a0 	str	x0, [x29,#72]
/home/optee/RPi3/optee_os/lib/libutee/tee_api_arith.c:293
    2d1c:	f94013a0 	ldr	x0, [x29,#32]
    2d20:	f90023a0 	str	x0, [x29,#64]
/home/optee/RPi3/optee_os/lib/libutee/tee_api_arith.c:294
    2d24:	f9400fa0 	ldr	x0, [x29,#24]
    2d28:	f9001fa0 	str	x0, [x29,#56]
/home/optee/RPi3/optee_os/lib/libutee/tee_api_arith.c:296
    2d2c:	b0000080 	adrp	x0, 13000 <ta_props>
    2d30:	9103a000 	add	x0, x0, #0xe8
    2d34:	f9400000 	ldr	x0, [x0]
    2d38:	aa0003e3 	mov	x3, x0
    2d3c:	f9401fa2 	ldr	x2, [x29,#56]
    2d40:	f94023a1 	ldr	x1, [x29,#64]
    2d44:	f94027a0 	ldr	x0, [x29,#72]
    2d48:	94002da4 	bl	e3d8 <mpa_add>
/home/optee/RPi3/optee_os/lib/libutee/tee_api_arith.c:297
    2d4c:	d503201f 	nop
    2d50:	a8c57bfd 	ldp	x29, x30, [sp],#80
    2d54:	d65f03c0 	ret

0000000000002d58 <TEE_BigIntSub>:
TEE_BigIntSub():
/home/optee/RPi3/optee_os/lib/libutee/tee_api_arith.c:304
    2d58:	a9bb7bfd 	stp	x29, x30, [sp,#-80]!
    2d5c:	910003fd 	mov	x29, sp
    2d60:	f90017a0 	str	x0, [x29,#40]
    2d64:	f90013a1 	str	x1, [x29,#32]
    2d68:	f9000fa2 	str	x2, [x29,#24]
/home/optee/RPi3/optee_os/lib/libutee/tee_api_arith.c:305
    2d6c:	f94017a0 	ldr	x0, [x29,#40]
    2d70:	f90027a0 	str	x0, [x29,#72]
/home/optee/RPi3/optee_os/lib/libutee/tee_api_arith.c:306
    2d74:	f94013a0 	ldr	x0, [x29,#32]
    2d78:	f90023a0 	str	x0, [x29,#64]
/home/optee/RPi3/optee_os/lib/libutee/tee_api_arith.c:307
    2d7c:	f9400fa0 	ldr	x0, [x29,#24]
    2d80:	f9001fa0 	str	x0, [x29,#56]
/home/optee/RPi3/optee_os/lib/libutee/tee_api_arith.c:309
    2d84:	b0000080 	adrp	x0, 13000 <ta_props>
    2d88:	9103a000 	add	x0, x0, #0xe8
    2d8c:	f9400000 	ldr	x0, [x0]
    2d90:	aa0003e3 	mov	x3, x0
    2d94:	f9401fa2 	ldr	x2, [x29,#56]
    2d98:	f94023a1 	ldr	x1, [x29,#64]
    2d9c:	f94027a0 	ldr	x0, [x29,#72]
    2da0:	94002e3d 	bl	e694 <mpa_sub>
/home/optee/RPi3/optee_os/lib/libutee/tee_api_arith.c:310
    2da4:	d503201f 	nop
    2da8:	a8c57bfd 	ldp	x29, x30, [sp],#80
    2dac:	d65f03c0 	ret

0000000000002db0 <TEE_BigIntNeg>:
TEE_BigIntNeg():
/home/optee/RPi3/optee_os/lib/libutee/tee_api_arith.c:316
    2db0:	a9bd7bfd 	stp	x29, x30, [sp,#-48]!
    2db4:	910003fd 	mov	x29, sp
    2db8:	f9000fa0 	str	x0, [x29,#24]
    2dbc:	f9000ba1 	str	x1, [x29,#16]
/home/optee/RPi3/optee_os/lib/libutee/tee_api_arith.c:317
    2dc0:	f9400fa0 	ldr	x0, [x29,#24]
    2dc4:	f90017a0 	str	x0, [x29,#40]
/home/optee/RPi3/optee_os/lib/libutee/tee_api_arith.c:318
    2dc8:	f9400ba0 	ldr	x0, [x29,#16]
    2dcc:	f90013a0 	str	x0, [x29,#32]
/home/optee/RPi3/optee_os/lib/libutee/tee_api_arith.c:320
    2dd0:	f94013a1 	ldr	x1, [x29,#32]
    2dd4:	f94017a0 	ldr	x0, [x29,#40]
    2dd8:	94002eed 	bl	e98c <mpa_neg>
/home/optee/RPi3/optee_os/lib/libutee/tee_api_arith.c:321
    2ddc:	d503201f 	nop
    2de0:	a8c37bfd 	ldp	x29, x30, [sp],#48
    2de4:	d65f03c0 	ret

0000000000002de8 <TEE_BigIntMul>:
TEE_BigIntMul():
/home/optee/RPi3/optee_os/lib/libutee/tee_api_arith.c:328
    2de8:	a9bb7bfd 	stp	x29, x30, [sp,#-80]!
    2dec:	910003fd 	mov	x29, sp
    2df0:	f90017a0 	str	x0, [x29,#40]
    2df4:	f90013a1 	str	x1, [x29,#32]
    2df8:	f9000fa2 	str	x2, [x29,#24]
/home/optee/RPi3/optee_os/lib/libutee/tee_api_arith.c:329
    2dfc:	f94017a0 	ldr	x0, [x29,#40]
    2e00:	f90027a0 	str	x0, [x29,#72]
/home/optee/RPi3/optee_os/lib/libutee/tee_api_arith.c:330
    2e04:	f94013a0 	ldr	x0, [x29,#32]
    2e08:	f90023a0 	str	x0, [x29,#64]
/home/optee/RPi3/optee_os/lib/libutee/tee_api_arith.c:331
    2e0c:	f9400fa0 	ldr	x0, [x29,#24]
    2e10:	f9001fa0 	str	x0, [x29,#56]
/home/optee/RPi3/optee_os/lib/libutee/tee_api_arith.c:333
    2e14:	b0000080 	adrp	x0, 13000 <ta_props>
    2e18:	9103a000 	add	x0, x0, #0xe8
    2e1c:	f9400000 	ldr	x0, [x0]
    2e20:	aa0003e3 	mov	x3, x0
    2e24:	f9401fa2 	ldr	x2, [x29,#56]
    2e28:	f94023a1 	ldr	x1, [x29,#64]
    2e2c:	f94027a0 	ldr	x0, [x29,#72]
    2e30:	94002891 	bl	d074 <mpa_mul>
/home/optee/RPi3/optee_os/lib/libutee/tee_api_arith.c:334
    2e34:	d503201f 	nop
    2e38:	a8c57bfd 	ldp	x29, x30, [sp],#80
    2e3c:	d65f03c0 	ret

0000000000002e40 <TEE_BigIntSquare>:
TEE_BigIntSquare():
/home/optee/RPi3/optee_os/lib/libutee/tee_api_arith.c:340
    2e40:	a9bd7bfd 	stp	x29, x30, [sp,#-48]!
    2e44:	910003fd 	mov	x29, sp
    2e48:	f9000fa0 	str	x0, [x29,#24]
    2e4c:	f9000ba1 	str	x1, [x29,#16]
/home/optee/RPi3/optee_os/lib/libutee/tee_api_arith.c:341
    2e50:	f9400fa0 	ldr	x0, [x29,#24]
    2e54:	f90017a0 	str	x0, [x29,#40]
/home/optee/RPi3/optee_os/lib/libutee/tee_api_arith.c:342
    2e58:	f9400ba0 	ldr	x0, [x29,#16]
    2e5c:	f90013a0 	str	x0, [x29,#32]
/home/optee/RPi3/optee_os/lib/libutee/tee_api_arith.c:344
    2e60:	b0000080 	adrp	x0, 13000 <ta_props>
    2e64:	9103a000 	add	x0, x0, #0xe8
    2e68:	f9400000 	ldr	x0, [x0]
    2e6c:	aa0003e3 	mov	x3, x0
    2e70:	f94013a2 	ldr	x2, [x29,#32]
    2e74:	f94013a1 	ldr	x1, [x29,#32]
    2e78:	f94017a0 	ldr	x0, [x29,#40]
    2e7c:	9400287e 	bl	d074 <mpa_mul>
/home/optee/RPi3/optee_os/lib/libutee/tee_api_arith.c:345
    2e80:	d503201f 	nop
    2e84:	a8c37bfd 	ldp	x29, x30, [sp],#48
    2e88:	d65f03c0 	ret

0000000000002e8c <TEE_BigIntDiv>:
TEE_BigIntDiv():
/home/optee/RPi3/optee_os/lib/libutee/tee_api_arith.c:352
    2e8c:	a9bb7bfd 	stp	x29, x30, [sp,#-80]!
    2e90:	910003fd 	mov	x29, sp
    2e94:	f90017a0 	str	x0, [x29,#40]
    2e98:	f90013a1 	str	x1, [x29,#32]
    2e9c:	f9000fa2 	str	x2, [x29,#24]
    2ea0:	f9000ba3 	str	x3, [x29,#16]
/home/optee/RPi3/optee_os/lib/libutee/tee_api_arith.c:353
    2ea4:	f94017a0 	ldr	x0, [x29,#40]
    2ea8:	f90027a0 	str	x0, [x29,#72]
/home/optee/RPi3/optee_os/lib/libutee/tee_api_arith.c:354
    2eac:	f94013a0 	ldr	x0, [x29,#32]
    2eb0:	f90023a0 	str	x0, [x29,#64]
/home/optee/RPi3/optee_os/lib/libutee/tee_api_arith.c:355
    2eb4:	f9400fa0 	ldr	x0, [x29,#24]
    2eb8:	f9001fa0 	str	x0, [x29,#56]
/home/optee/RPi3/optee_os/lib/libutee/tee_api_arith.c:356
    2ebc:	f9400ba0 	ldr	x0, [x29,#16]
    2ec0:	f9001ba0 	str	x0, [x29,#48]
/home/optee/RPi3/optee_os/lib/libutee/tee_api_arith.c:358
    2ec4:	52800001 	mov	w1, #0x0                   	// #0
    2ec8:	f9400ba0 	ldr	x0, [x29,#16]
    2ecc:	97ffff59 	bl	2c30 <TEE_BigIntCmpS32>
    2ed0:	6b1f001f 	cmp	w0, wzr
    2ed4:	54000081 	b.ne	2ee4 <TEE_BigIntDiv+0x58>
/home/optee/RPi3/optee_os/lib/libutee/tee_api_arith.c:359
    2ed8:	d0000060 	adrp	x0, 10000 <mpa_set_oct_str+0x80>
    2edc:	913d4000 	add	x0, x0, #0xf50
    2ee0:	97fffe4b 	bl	280c <TEE_BigInt_Panic>
/home/optee/RPi3/optee_os/lib/libutee/tee_api_arith.c:361
    2ee4:	b0000080 	adrp	x0, 13000 <ta_props>
    2ee8:	9103a000 	add	x0, x0, #0xe8
    2eec:	f9400000 	ldr	x0, [x0]
    2ef0:	aa0003e4 	mov	x4, x0
    2ef4:	f9401ba3 	ldr	x3, [x29,#48]
    2ef8:	f9401fa2 	ldr	x2, [x29,#56]
    2efc:	f94023a1 	ldr	x1, [x29,#64]
    2f00:	f94027a0 	ldr	x0, [x29,#72]
    2f04:	94002357 	bl	bc60 <mpa_div>
/home/optee/RPi3/optee_os/lib/libutee/tee_api_arith.c:362
    2f08:	d503201f 	nop
    2f0c:	a8c57bfd 	ldp	x29, x30, [sp],#80
    2f10:	d65f03c0 	ret

0000000000002f14 <TEE_BigIntMod>:
TEE_BigIntMod():
/home/optee/RPi3/optee_os/lib/libutee/tee_api_arith.c:373
    2f14:	a9bb7bfd 	stp	x29, x30, [sp,#-80]!
    2f18:	910003fd 	mov	x29, sp
    2f1c:	f90017a0 	str	x0, [x29,#40]
    2f20:	f90013a1 	str	x1, [x29,#32]
    2f24:	f9000fa2 	str	x2, [x29,#24]
/home/optee/RPi3/optee_os/lib/libutee/tee_api_arith.c:374
    2f28:	f94017a0 	ldr	x0, [x29,#40]
    2f2c:	f90027a0 	str	x0, [x29,#72]
/home/optee/RPi3/optee_os/lib/libutee/tee_api_arith.c:375
    2f30:	f94013a0 	ldr	x0, [x29,#32]
    2f34:	f90023a0 	str	x0, [x29,#64]
/home/optee/RPi3/optee_os/lib/libutee/tee_api_arith.c:376
    2f38:	f9400fa0 	ldr	x0, [x29,#24]
    2f3c:	f9001fa0 	str	x0, [x29,#56]
/home/optee/RPi3/optee_os/lib/libutee/tee_api_arith.c:378
    2f40:	52800041 	mov	w1, #0x2                   	// #2
    2f44:	f9400fa0 	ldr	x0, [x29,#24]
    2f48:	97ffff3a 	bl	2c30 <TEE_BigIntCmpS32>
    2f4c:	6b1f001f 	cmp	w0, wzr
    2f50:	5400008a 	b.ge	2f60 <TEE_BigIntMod+0x4c>
/home/optee/RPi3/optee_os/lib/libutee/tee_api_arith.c:379
    2f54:	d0000060 	adrp	x0, 10000 <mpa_set_oct_str+0x80>
    2f58:	913d8000 	add	x0, x0, #0xf60
    2f5c:	97fffe2c 	bl	280c <TEE_BigInt_Panic>
/home/optee/RPi3/optee_os/lib/libutee/tee_api_arith.c:381
    2f60:	b0000080 	adrp	x0, 13000 <ta_props>
    2f64:	9103a000 	add	x0, x0, #0xe8
    2f68:	f9400000 	ldr	x0, [x0]
    2f6c:	aa0003e3 	mov	x3, x0
    2f70:	f9401fa2 	ldr	x2, [x29,#56]
    2f74:	f94023a1 	ldr	x1, [x29,#64]
    2f78:	f94027a0 	ldr	x0, [x29,#72]
    2f7c:	940034e7 	bl	10318 <mpa_mod>
/home/optee/RPi3/optee_os/lib/libutee/tee_api_arith.c:383
    2f80:	52800001 	mov	w1, #0x0                   	// #0
    2f84:	f94027a0 	ldr	x0, [x29,#72]
    2f88:	9400303d 	bl	f07c <mpa_cmp_short>
    2f8c:	6b1f001f 	cmp	w0, wzr
    2f90:	5400012a 	b.ge	2fb4 <TEE_BigIntMod+0xa0>
/home/optee/RPi3/optee_os/lib/libutee/tee_api_arith.c:384
    2f94:	b0000080 	adrp	x0, 13000 <ta_props>
    2f98:	9103a000 	add	x0, x0, #0xe8
    2f9c:	f9400000 	ldr	x0, [x0]
    2fa0:	aa0003e3 	mov	x3, x0
    2fa4:	f9401fa2 	ldr	x2, [x29,#56]
    2fa8:	f94027a1 	ldr	x1, [x29,#72]
    2fac:	f94027a0 	ldr	x0, [x29,#72]
    2fb0:	94002d0a 	bl	e3d8 <mpa_add>
/home/optee/RPi3/optee_os/lib/libutee/tee_api_arith.c:385
    2fb4:	d503201f 	nop
    2fb8:	a8c57bfd 	ldp	x29, x30, [sp],#80
    2fbc:	d65f03c0 	ret

0000000000002fc0 <TEE_BigIntAddMod>:
TEE_BigIntAddMod():
/home/optee/RPi3/optee_os/lib/libutee/tee_api_arith.c:392
    2fc0:	a9bb7bfd 	stp	x29, x30, [sp,#-80]!
    2fc4:	910003fd 	mov	x29, sp
    2fc8:	f90017a0 	str	x0, [x29,#40]
    2fcc:	f90013a1 	str	x1, [x29,#32]
    2fd0:	f9000fa2 	str	x2, [x29,#24]
    2fd4:	f9000ba3 	str	x3, [x29,#16]
/home/optee/RPi3/optee_os/lib/libutee/tee_api_arith.c:393
    2fd8:	f94017a0 	ldr	x0, [x29,#40]
    2fdc:	f90027a0 	str	x0, [x29,#72]
/home/optee/RPi3/optee_os/lib/libutee/tee_api_arith.c:394
    2fe0:	f94013a0 	ldr	x0, [x29,#32]
    2fe4:	f90023a0 	str	x0, [x29,#64]
/home/optee/RPi3/optee_os/lib/libutee/tee_api_arith.c:395
    2fe8:	f9400fa0 	ldr	x0, [x29,#24]
    2fec:	f9001fa0 	str	x0, [x29,#56]
/home/optee/RPi3/optee_os/lib/libutee/tee_api_arith.c:396
    2ff0:	f9400ba0 	ldr	x0, [x29,#16]
    2ff4:	f9001ba0 	str	x0, [x29,#48]
/home/optee/RPi3/optee_os/lib/libutee/tee_api_arith.c:398
    2ff8:	52800041 	mov	w1, #0x2                   	// #2
    2ffc:	f9400ba0 	ldr	x0, [x29,#16]
    3000:	97ffff0c 	bl	2c30 <TEE_BigIntCmpS32>
    3004:	6b1f001f 	cmp	w0, wzr
    3008:	5400008a 	b.ge	3018 <TEE_BigIntAddMod+0x58>
/home/optee/RPi3/optee_os/lib/libutee/tee_api_arith.c:399
    300c:	b0000060 	adrp	x0, 10000 <mpa_set_oct_str+0x80>
    3010:	913d8000 	add	x0, x0, #0xf60
    3014:	97fffdfe 	bl	280c <TEE_BigInt_Panic>
/home/optee/RPi3/optee_os/lib/libutee/tee_api_arith.c:401
    3018:	90000080 	adrp	x0, 13000 <ta_props>
    301c:	9103a000 	add	x0, x0, #0xe8
    3020:	f9400000 	ldr	x0, [x0]
    3024:	aa0003e4 	mov	x4, x0
    3028:	f9401ba3 	ldr	x3, [x29,#48]
    302c:	f9401fa2 	ldr	x2, [x29,#56]
    3030:	f94023a1 	ldr	x1, [x29,#64]
    3034:	f94027a0 	ldr	x0, [x29,#72]
    3038:	940034c7 	bl	10354 <mpa_add_mod>
/home/optee/RPi3/optee_os/lib/libutee/tee_api_arith.c:402
    303c:	52800001 	mov	w1, #0x0                   	// #0
    3040:	f94027a0 	ldr	x0, [x29,#72]
    3044:	9400300e 	bl	f07c <mpa_cmp_short>
    3048:	6b1f001f 	cmp	w0, wzr
    304c:	5400012a 	b.ge	3070 <TEE_BigIntAddMod+0xb0>
/home/optee/RPi3/optee_os/lib/libutee/tee_api_arith.c:403
    3050:	90000080 	adrp	x0, 13000 <ta_props>
    3054:	9103a000 	add	x0, x0, #0xe8
    3058:	f9400000 	ldr	x0, [x0]
    305c:	aa0003e3 	mov	x3, x0
    3060:	f9401ba2 	ldr	x2, [x29,#48]
    3064:	f94027a1 	ldr	x1, [x29,#72]
    3068:	f94027a0 	ldr	x0, [x29,#72]
    306c:	94002cdb 	bl	e3d8 <mpa_add>
/home/optee/RPi3/optee_os/lib/libutee/tee_api_arith.c:404
    3070:	d503201f 	nop
    3074:	a8c57bfd 	ldp	x29, x30, [sp],#80
    3078:	d65f03c0 	ret

000000000000307c <TEE_BigIntSubMod>:
TEE_BigIntSubMod():
/home/optee/RPi3/optee_os/lib/libutee/tee_api_arith.c:411
    307c:	a9bb7bfd 	stp	x29, x30, [sp,#-80]!
    3080:	910003fd 	mov	x29, sp
    3084:	f90017a0 	str	x0, [x29,#40]
    3088:	f90013a1 	str	x1, [x29,#32]
    308c:	f9000fa2 	str	x2, [x29,#24]
    3090:	f9000ba3 	str	x3, [x29,#16]
/home/optee/RPi3/optee_os/lib/libutee/tee_api_arith.c:412
    3094:	f94017a0 	ldr	x0, [x29,#40]
    3098:	f90027a0 	str	x0, [x29,#72]
/home/optee/RPi3/optee_os/lib/libutee/tee_api_arith.c:413
    309c:	f94013a0 	ldr	x0, [x29,#32]
    30a0:	f90023a0 	str	x0, [x29,#64]
/home/optee/RPi3/optee_os/lib/libutee/tee_api_arith.c:414
    30a4:	f9400fa0 	ldr	x0, [x29,#24]
    30a8:	f9001fa0 	str	x0, [x29,#56]
/home/optee/RPi3/optee_os/lib/libutee/tee_api_arith.c:415
    30ac:	f9400ba0 	ldr	x0, [x29,#16]
    30b0:	f9001ba0 	str	x0, [x29,#48]
/home/optee/RPi3/optee_os/lib/libutee/tee_api_arith.c:417
    30b4:	52800041 	mov	w1, #0x2                   	// #2
    30b8:	f9400ba0 	ldr	x0, [x29,#16]
    30bc:	97fffedd 	bl	2c30 <TEE_BigIntCmpS32>
    30c0:	6b1f001f 	cmp	w0, wzr
    30c4:	5400008a 	b.ge	30d4 <TEE_BigIntSubMod+0x58>
/home/optee/RPi3/optee_os/lib/libutee/tee_api_arith.c:418
    30c8:	b0000060 	adrp	x0, 10000 <mpa_set_oct_str+0x80>
    30cc:	913d8000 	add	x0, x0, #0xf60
    30d0:	97fffdcf 	bl	280c <TEE_BigInt_Panic>
/home/optee/RPi3/optee_os/lib/libutee/tee_api_arith.c:420
    30d4:	90000080 	adrp	x0, 13000 <ta_props>
    30d8:	9103a000 	add	x0, x0, #0xe8
    30dc:	f9400000 	ldr	x0, [x0]
    30e0:	aa0003e4 	mov	x4, x0
    30e4:	f9401ba3 	ldr	x3, [x29,#48]
    30e8:	f9401fa2 	ldr	x2, [x29,#56]
    30ec:	f94023a1 	ldr	x1, [x29,#64]
    30f0:	f94027a0 	ldr	x0, [x29,#72]
    30f4:	940034b4 	bl	103c4 <mpa_sub_mod>
/home/optee/RPi3/optee_os/lib/libutee/tee_api_arith.c:421
    30f8:	52800001 	mov	w1, #0x0                   	// #0
    30fc:	f94027a0 	ldr	x0, [x29,#72]
    3100:	94002fdf 	bl	f07c <mpa_cmp_short>
    3104:	6b1f001f 	cmp	w0, wzr
    3108:	5400012a 	b.ge	312c <TEE_BigIntSubMod+0xb0>
/home/optee/RPi3/optee_os/lib/libutee/tee_api_arith.c:422
    310c:	90000080 	adrp	x0, 13000 <ta_props>
    3110:	9103a000 	add	x0, x0, #0xe8
    3114:	f9400000 	ldr	x0, [x0]
    3118:	aa0003e3 	mov	x3, x0
    311c:	f9401ba2 	ldr	x2, [x29,#48]
    3120:	f94027a1 	ldr	x1, [x29,#72]
    3124:	f94027a0 	ldr	x0, [x29,#72]
    3128:	94002cac 	bl	e3d8 <mpa_add>
/home/optee/RPi3/optee_os/lib/libutee/tee_api_arith.c:423
    312c:	d503201f 	nop
    3130:	a8c57bfd 	ldp	x29, x30, [sp],#80
    3134:	d65f03c0 	ret

0000000000003138 <TEE_BigIntMulMod>:
TEE_BigIntMulMod():
/home/optee/RPi3/optee_os/lib/libutee/tee_api_arith.c:430
    3138:	a9ba7bfd 	stp	x29, x30, [sp,#-96]!
    313c:	910003fd 	mov	x29, sp
    3140:	f90017a0 	str	x0, [x29,#40]
    3144:	f90013a1 	str	x1, [x29,#32]
    3148:	f9000fa2 	str	x2, [x29,#24]
    314c:	f9000ba3 	str	x3, [x29,#16]
/home/optee/RPi3/optee_os/lib/libutee/tee_api_arith.c:431
    3150:	f94017a0 	ldr	x0, [x29,#40]
    3154:	f9002fa0 	str	x0, [x29,#88]
/home/optee/RPi3/optee_os/lib/libutee/tee_api_arith.c:432
    3158:	f94013a0 	ldr	x0, [x29,#32]
    315c:	f9002ba0 	str	x0, [x29,#80]
/home/optee/RPi3/optee_os/lib/libutee/tee_api_arith.c:433
    3160:	f9400fa0 	ldr	x0, [x29,#24]
    3164:	f90027a0 	str	x0, [x29,#72]
/home/optee/RPi3/optee_os/lib/libutee/tee_api_arith.c:434
    3168:	f9400ba0 	ldr	x0, [x29,#16]
    316c:	f90023a0 	str	x0, [x29,#64]
/home/optee/RPi3/optee_os/lib/libutee/tee_api_arith.c:437
    3170:	52800041 	mov	w1, #0x2                   	// #2
    3174:	f9400ba0 	ldr	x0, [x29,#16]
    3178:	97fffeae 	bl	2c30 <TEE_BigIntCmpS32>
    317c:	6b1f001f 	cmp	w0, wzr
    3180:	5400008a 	b.ge	3190 <TEE_BigIntMulMod+0x58>
/home/optee/RPi3/optee_os/lib/libutee/tee_api_arith.c:438
    3184:	b0000060 	adrp	x0, 10000 <mpa_set_oct_str+0x80>
    3188:	913d8000 	add	x0, x0, #0xf60
    318c:	97fffda0 	bl	280c <TEE_BigInt_Panic>
/home/optee/RPi3/optee_os/lib/libutee/tee_api_arith.c:448
    3190:	90000080 	adrp	x0, 13000 <ta_props>
    3194:	9103a000 	add	x0, x0, #0xe8
    3198:	f9400001 	ldr	x1, [x0]
    319c:	9100e3a0 	add	x0, x29, #0x38
    31a0:	94002684 	bl	cbb0 <mpa_alloc_static_temp_var>
/home/optee/RPi3/optee_os/lib/libutee/tee_api_arith.c:449
    31a4:	f9401fa5 	ldr	x5, [x29,#56]
    31a8:	90000080 	adrp	x0, 13000 <ta_props>
    31ac:	9103a000 	add	x0, x0, #0xe8
    31b0:	f9400000 	ldr	x0, [x0]
    31b4:	aa0003e4 	mov	x4, x0
    31b8:	f94023a3 	ldr	x3, [x29,#64]
    31bc:	f94027a2 	ldr	x2, [x29,#72]
    31c0:	f9402ba1 	ldr	x1, [x29,#80]
    31c4:	aa0503e0 	mov	x0, x5
    31c8:	9400349b 	bl	10434 <mpa_mul_mod>
/home/optee/RPi3/optee_os/lib/libutee/tee_api_arith.c:450
    31cc:	f9401fa0 	ldr	x0, [x29,#56]
    31d0:	52800001 	mov	w1, #0x0                   	// #0
    31d4:	94002faa 	bl	f07c <mpa_cmp_short>
    31d8:	6b1f001f 	cmp	w0, wzr
    31dc:	5400014a 	b.ge	3204 <TEE_BigIntMulMod+0xcc>
/home/optee/RPi3/optee_os/lib/libutee/tee_api_arith.c:451
    31e0:	f9401fa4 	ldr	x4, [x29,#56]
    31e4:	f9401fa1 	ldr	x1, [x29,#56]
    31e8:	90000080 	adrp	x0, 13000 <ta_props>
    31ec:	9103a000 	add	x0, x0, #0xe8
    31f0:	f9400000 	ldr	x0, [x0]
    31f4:	aa0003e3 	mov	x3, x0
    31f8:	f94023a2 	ldr	x2, [x29,#64]
    31fc:	aa0403e0 	mov	x0, x4
    3200:	94002c76 	bl	e3d8 <mpa_add>
/home/optee/RPi3/optee_os/lib/libutee/tee_api_arith.c:452
    3204:	f9401fa0 	ldr	x0, [x29,#56]
    3208:	aa0003e1 	mov	x1, x0
    320c:	f9402fa0 	ldr	x0, [x29,#88]
    3210:	94001add 	bl	9d84 <mpa_copy>
/home/optee/RPi3/optee_os/lib/libutee/tee_api_arith.c:453
    3214:	90000080 	adrp	x0, 13000 <ta_props>
    3218:	9103a000 	add	x0, x0, #0xe8
    321c:	f9400001 	ldr	x1, [x0]
    3220:	9100e3a0 	add	x0, x29, #0x38
    3224:	9400266e 	bl	cbdc <mpa_free_static_temp_var>
/home/optee/RPi3/optee_os/lib/libutee/tee_api_arith.c:454
    3228:	d503201f 	nop
    322c:	a8c67bfd 	ldp	x29, x30, [sp],#96
    3230:	d65f03c0 	ret

0000000000003234 <TEE_BigIntSquareMod>:
TEE_BigIntSquareMod():
/home/optee/RPi3/optee_os/lib/libutee/tee_api_arith.c:461
    3234:	a9bd7bfd 	stp	x29, x30, [sp,#-48]!
    3238:	910003fd 	mov	x29, sp
    323c:	f90017a0 	str	x0, [x29,#40]
    3240:	f90013a1 	str	x1, [x29,#32]
    3244:	f9000fa2 	str	x2, [x29,#24]
/home/optee/RPi3/optee_os/lib/libutee/tee_api_arith.c:462
    3248:	f9400fa3 	ldr	x3, [x29,#24]
    324c:	f94013a2 	ldr	x2, [x29,#32]
    3250:	f94013a1 	ldr	x1, [x29,#32]
    3254:	f94017a0 	ldr	x0, [x29,#40]
    3258:	97ffffb8 	bl	3138 <TEE_BigIntMulMod>
/home/optee/RPi3/optee_os/lib/libutee/tee_api_arith.c:463
    325c:	d503201f 	nop
    3260:	a8c37bfd 	ldp	x29, x30, [sp],#48
    3264:	d65f03c0 	ret

0000000000003268 <TEE_BigIntInvMod>:
TEE_BigIntInvMod():
/home/optee/RPi3/optee_os/lib/libutee/tee_api_arith.c:470
    3268:	a9bb7bfd 	stp	x29, x30, [sp,#-80]!
    326c:	910003fd 	mov	x29, sp
    3270:	f90017a0 	str	x0, [x29,#40]
    3274:	f90013a1 	str	x1, [x29,#32]
    3278:	f9000fa2 	str	x2, [x29,#24]
/home/optee/RPi3/optee_os/lib/libutee/tee_api_arith.c:471
    327c:	f94017a0 	ldr	x0, [x29,#40]
    3280:	f90027a0 	str	x0, [x29,#72]
/home/optee/RPi3/optee_os/lib/libutee/tee_api_arith.c:472
    3284:	f94013a0 	ldr	x0, [x29,#32]
    3288:	f90023a0 	str	x0, [x29,#64]
/home/optee/RPi3/optee_os/lib/libutee/tee_api_arith.c:473
    328c:	f9400fa0 	ldr	x0, [x29,#24]
    3290:	f9001fa0 	str	x0, [x29,#56]
/home/optee/RPi3/optee_os/lib/libutee/tee_api_arith.c:475
    3294:	52800041 	mov	w1, #0x2                   	// #2
    3298:	f9400fa0 	ldr	x0, [x29,#24]
    329c:	97fffe65 	bl	2c30 <TEE_BigIntCmpS32>
    32a0:	6b1f001f 	cmp	w0, wzr
    32a4:	540000cb 	b.lt	32bc <TEE_BigIntInvMod+0x54>
/home/optee/RPi3/optee_os/lib/libutee/tee_api_arith.c:475 (discriminator 1)
    32a8:	52800001 	mov	w1, #0x0                   	// #0
    32ac:	f94013a0 	ldr	x0, [x29,#32]
    32b0:	97fffe60 	bl	2c30 <TEE_BigIntCmpS32>
    32b4:	6b1f001f 	cmp	w0, wzr
    32b8:	54000081 	b.ne	32c8 <TEE_BigIntInvMod+0x60>
/home/optee/RPi3/optee_os/lib/libutee/tee_api_arith.c:476
    32bc:	b0000060 	adrp	x0, 10000 <mpa_set_oct_str+0x80>
    32c0:	913de000 	add	x0, x0, #0xf78
    32c4:	97fffd52 	bl	280c <TEE_BigInt_Panic>
/home/optee/RPi3/optee_os/lib/libutee/tee_api_arith.c:478
    32c8:	90000080 	adrp	x0, 13000 <ta_props>
    32cc:	9103a000 	add	x0, x0, #0xe8
    32d0:	f9400000 	ldr	x0, [x0]
    32d4:	aa0003e3 	mov	x3, x0
    32d8:	f9401fa2 	ldr	x2, [x29,#56]
    32dc:	f94023a1 	ldr	x1, [x29,#64]
    32e0:	f94027a0 	ldr	x0, [x29,#72]
    32e4:	94003470 	bl	104a4 <mpa_inv_mod>
/home/optee/RPi3/optee_os/lib/libutee/tee_api_arith.c:479
    32e8:	d503201f 	nop
    32ec:	a8c57bfd 	ldp	x29, x30, [sp],#80
    32f0:	d65f03c0 	ret

00000000000032f4 <TEE_BigIntRelativePrime>:
TEE_BigIntRelativePrime():
/home/optee/RPi3/optee_os/lib/libutee/tee_api_arith.c:489
    32f4:	a9bc7bfd 	stp	x29, x30, [sp,#-64]!
    32f8:	910003fd 	mov	x29, sp
    32fc:	f9000fa0 	str	x0, [x29,#24]
    3300:	f9000ba1 	str	x1, [x29,#16]
/home/optee/RPi3/optee_os/lib/libutee/tee_api_arith.c:490
    3304:	f9400fa0 	ldr	x0, [x29,#24]
    3308:	f9001fa0 	str	x0, [x29,#56]
/home/optee/RPi3/optee_os/lib/libutee/tee_api_arith.c:491
    330c:	f9400ba0 	ldr	x0, [x29,#16]
    3310:	f9001ba0 	str	x0, [x29,#48]
/home/optee/RPi3/optee_os/lib/libutee/tee_api_arith.c:495
    3314:	90000080 	adrp	x0, 13000 <ta_props>
    3318:	9103a000 	add	x0, x0, #0xe8
    331c:	f9400001 	ldr	x1, [x0]
    3320:	910083a0 	add	x0, x29, #0x20
    3324:	94002623 	bl	cbb0 <mpa_alloc_static_temp_var>
/home/optee/RPi3/optee_os/lib/libutee/tee_api_arith.c:497
    3328:	f94013a4 	ldr	x4, [x29,#32]
    332c:	90000080 	adrp	x0, 13000 <ta_props>
    3330:	9103a000 	add	x0, x0, #0xe8
    3334:	f9400000 	ldr	x0, [x0]
    3338:	aa0003e3 	mov	x3, x0
    333c:	f9401ba2 	ldr	x2, [x29,#48]
    3340:	f9401fa1 	ldr	x1, [x29,#56]
    3344:	aa0403e0 	mov	x0, x4
    3348:	9400244b 	bl	c474 <mpa_gcd>
/home/optee/RPi3/optee_os/lib/libutee/tee_api_arith.c:498
    334c:	f94013a0 	ldr	x0, [x29,#32]
    3350:	52800021 	mov	w1, #0x1                   	// #1
    3354:	94002f4a 	bl	f07c <mpa_cmp_short>
    3358:	b9002fa0 	str	w0, [x29,#44]
/home/optee/RPi3/optee_os/lib/libutee/tee_api_arith.c:500
    335c:	90000080 	adrp	x0, 13000 <ta_props>
    3360:	9103a000 	add	x0, x0, #0xe8
    3364:	f9400001 	ldr	x1, [x0]
    3368:	910083a0 	add	x0, x29, #0x20
    336c:	9400261c 	bl	cbdc <mpa_free_static_temp_var>
/home/optee/RPi3/optee_os/lib/libutee/tee_api_arith.c:502
    3370:	b9402fa0 	ldr	w0, [x29,#44]
    3374:	6b1f001f 	cmp	w0, wzr
    3378:	1a9f17e0 	cset	w0, eq
    337c:	53001c00 	uxtb	w0, w0
/home/optee/RPi3/optee_os/lib/libutee/tee_api_arith.c:503
    3380:	a8c47bfd 	ldp	x29, x30, [sp],#64
    3384:	d65f03c0 	ret

0000000000003388 <TEE_BigIntComputeExtendedGcd>:
TEE_BigIntComputeExtendedGcd():
/home/optee/RPi3/optee_os/lib/libutee/tee_api_arith.c:511
    3388:	a9b97bfd 	stp	x29, x30, [sp,#-112]!
    338c:	910003fd 	mov	x29, sp
    3390:	f9001fa0 	str	x0, [x29,#56]
    3394:	f9001ba1 	str	x1, [x29,#48]
    3398:	f90017a2 	str	x2, [x29,#40]
    339c:	f90013a3 	str	x3, [x29,#32]
    33a0:	f9000fa4 	str	x4, [x29,#24]
/home/optee/RPi3/optee_os/lib/libutee/tee_api_arith.c:512
    33a4:	f9401fa0 	ldr	x0, [x29,#56]
    33a8:	f90037a0 	str	x0, [x29,#104]
/home/optee/RPi3/optee_os/lib/libutee/tee_api_arith.c:513
    33ac:	f9401ba0 	ldr	x0, [x29,#48]
    33b0:	f90033a0 	str	x0, [x29,#96]
/home/optee/RPi3/optee_os/lib/libutee/tee_api_arith.c:514
    33b4:	f94017a0 	ldr	x0, [x29,#40]
    33b8:	f9002fa0 	str	x0, [x29,#88]
/home/optee/RPi3/optee_os/lib/libutee/tee_api_arith.c:515
    33bc:	f94013a0 	ldr	x0, [x29,#32]
    33c0:	f9002ba0 	str	x0, [x29,#80]
/home/optee/RPi3/optee_os/lib/libutee/tee_api_arith.c:516
    33c4:	f9400fa0 	ldr	x0, [x29,#24]
    33c8:	f90027a0 	str	x0, [x29,#72]
/home/optee/RPi3/optee_os/lib/libutee/tee_api_arith.c:518
    33cc:	90000080 	adrp	x0, 13000 <ta_props>
    33d0:	9103a000 	add	x0, x0, #0xe8
    33d4:	f9400000 	ldr	x0, [x0]
    33d8:	aa0003e5 	mov	x5, x0
    33dc:	f94027a4 	ldr	x4, [x29,#72]
    33e0:	f9402ba3 	ldr	x3, [x29,#80]
    33e4:	f9402fa2 	ldr	x2, [x29,#88]
    33e8:	f94033a1 	ldr	x1, [x29,#96]
    33ec:	f94037a0 	ldr	x0, [x29,#104]
    33f0:	94002483 	bl	c5fc <mpa_extended_gcd>
/home/optee/RPi3/optee_os/lib/libutee/tee_api_arith.c:519
    33f4:	d503201f 	nop
    33f8:	a8c77bfd 	ldp	x29, x30, [sp],#112
    33fc:	d65f03c0 	ret

0000000000003400 <TEE_BigIntIsProbablePrime>:
TEE_BigIntIsProbablePrime():
/home/optee/RPi3/optee_os/lib/libutee/tee_api_arith.c:526
    3400:	a9bd7bfd 	stp	x29, x30, [sp,#-48]!
    3404:	910003fd 	mov	x29, sp
    3408:	f9000fa0 	str	x0, [x29,#24]
    340c:	b90017a1 	str	w1, [x29,#20]
/home/optee/RPi3/optee_os/lib/libutee/tee_api_arith.c:527
    3410:	f9400fa0 	ldr	x0, [x29,#24]
    3414:	f90017a0 	str	x0, [x29,#40]
/home/optee/RPi3/optee_os/lib/libutee/tee_api_arith.c:529
    3418:	b94017a0 	ldr	w0, [x29,#20]
    341c:	71013c1f 	cmp	w0, #0x4f
    3420:	54000068 	b.hi	342c <TEE_BigIntIsProbablePrime+0x2c>
/home/optee/RPi3/optee_os/lib/libutee/tee_api_arith.c:530
    3424:	52800a00 	mov	w0, #0x50                  	// #80
    3428:	b90017a0 	str	w0, [x29,#20]
/home/optee/RPi3/optee_os/lib/libutee/tee_api_arith.c:532
    342c:	b94017a0 	ldr	w0, [x29,#20]
    3430:	7104001f 	cmp	w0, #0x100
    3434:	54000069 	b.ls	3440 <TEE_BigIntIsProbablePrime+0x40>
/home/optee/RPi3/optee_os/lib/libutee/tee_api_arith.c:533
    3438:	52802000 	mov	w0, #0x100                 	// #256
    343c:	b90017a0 	str	w0, [x29,#20]
/home/optee/RPi3/optee_os/lib/libutee/tee_api_arith.c:535
    3440:	b94017a1 	ldr	w1, [x29,#20]
    3444:	90000080 	adrp	x0, 13000 <ta_props>
    3448:	9103a000 	add	x0, x0, #0xe8
    344c:	f9400000 	ldr	x0, [x0]
    3450:	aa0003e2 	mov	x2, x0
    3454:	f94017a0 	ldr	x0, [x29,#40]
    3458:	94001c87 	bl	a674 <mpa_is_prob_prime>
/home/optee/RPi3/optee_os/lib/libutee/tee_api_arith.c:536
    345c:	a8c37bfd 	ldp	x29, x30, [sp],#48
    3460:	d65f03c0 	ret

0000000000003464 <TEE_BigIntConvertToFMM>:
TEE_BigIntConvertToFMM():
/home/optee/RPi3/optee_os/lib/libutee/tee_api_arith.c:549
    3464:	a9bb7bfd 	stp	x29, x30, [sp,#-80]!
    3468:	910003fd 	mov	x29, sp
    346c:	f90017a0 	str	x0, [x29,#40]
    3470:	f90013a1 	str	x1, [x29,#32]
    3474:	f9000fa2 	str	x2, [x29,#24]
    3478:	f9000ba3 	str	x3, [x29,#16]
/home/optee/RPi3/optee_os/lib/libutee/tee_api_arith.c:550
    347c:	f94017a0 	ldr	x0, [x29,#40]
    3480:	f90027a0 	str	x0, [x29,#72]
/home/optee/RPi3/optee_os/lib/libutee/tee_api_arith.c:551
    3484:	f94013a0 	ldr	x0, [x29,#32]
    3488:	f90023a0 	str	x0, [x29,#64]
/home/optee/RPi3/optee_os/lib/libutee/tee_api_arith.c:552
    348c:	f9400fa0 	ldr	x0, [x29,#24]
    3490:	f9001fa0 	str	x0, [x29,#56]
/home/optee/RPi3/optee_os/lib/libutee/tee_api_arith.c:553
    3494:	f9400ba0 	ldr	x0, [x29,#16]
    3498:	f9001ba0 	str	x0, [x29,#48]
/home/optee/RPi3/optee_os/lib/libutee/tee_api_arith.c:556
    349c:	f9401ba0 	ldr	x0, [x29,#48]
    34a0:	f9400401 	ldr	x1, [x0,#8]
    34a4:	f9401ba0 	ldr	x0, [x29,#48]
    34a8:	b9401002 	ldr	w2, [x0,#16]
    34ac:	90000080 	adrp	x0, 13000 <ta_props>
    34b0:	9103a000 	add	x0, x0, #0xe8
    34b4:	f9400000 	ldr	x0, [x0]
    34b8:	aa0003e5 	mov	x5, x0
    34bc:	2a0203e4 	mov	w4, w2
    34c0:	f9401fa3 	ldr	x3, [x29,#56]
    34c4:	aa0103e2 	mov	x2, x1
    34c8:	f94023a1 	ldr	x1, [x29,#64]
    34cc:	f94027a0 	ldr	x0, [x29,#72]
    34d0:	94001c4e 	bl	a608 <mpa_montgomery_mul>
/home/optee/RPi3/optee_os/lib/libutee/tee_api_arith.c:558
    34d4:	d503201f 	nop
    34d8:	a8c57bfd 	ldp	x29, x30, [sp],#80
    34dc:	d65f03c0 	ret

00000000000034e0 <TEE_BigIntConvertFromFMM>:
TEE_BigIntConvertFromFMM():
/home/optee/RPi3/optee_os/lib/libutee/tee_api_arith.c:567
    34e0:	a9b97bfd 	stp	x29, x30, [sp,#-112]!
    34e4:	910003fd 	mov	x29, sp
    34e8:	f9000bf3 	str	x19, [sp,#16]
    34ec:	f9001fa0 	str	x0, [x29,#56]
    34f0:	f9001ba1 	str	x1, [x29,#48]
    34f4:	f90017a2 	str	x2, [x29,#40]
    34f8:	f90013a3 	str	x3, [x29,#32]
/home/optee/RPi3/optee_os/lib/libutee/tee_api_arith.c:568
    34fc:	f9401fa0 	ldr	x0, [x29,#56]
    3500:	f90037a0 	str	x0, [x29,#104]
/home/optee/RPi3/optee_os/lib/libutee/tee_api_arith.c:569
    3504:	f9401ba0 	ldr	x0, [x29,#48]
    3508:	f90033a0 	str	x0, [x29,#96]
/home/optee/RPi3/optee_os/lib/libutee/tee_api_arith.c:570
    350c:	f94017a0 	ldr	x0, [x29,#40]
    3510:	f9002fa0 	str	x0, [x29,#88]
/home/optee/RPi3/optee_os/lib/libutee/tee_api_arith.c:571
    3514:	f94013a0 	ldr	x0, [x29,#32]
    3518:	f9002ba0 	str	x0, [x29,#80]
/home/optee/RPi3/optee_os/lib/libutee/tee_api_arith.c:579
    351c:	90000080 	adrp	x0, 13000 <ta_props>
    3520:	9103a000 	add	x0, x0, #0xe8
    3524:	f9400001 	ldr	x1, [x0]
    3528:	910123a0 	add	x0, x29, #0x48
    352c:	940025a1 	bl	cbb0 <mpa_alloc_static_temp_var>
/home/optee/RPi3/optee_os/lib/libutee/tee_api_arith.c:582
    3530:	f94027b3 	ldr	x19, [x29,#72]
    3534:	94001aaf 	bl	9ff0 <mpa_constant_one>
    3538:	aa0003e6 	mov	x6, x0
    353c:	f9402ba0 	ldr	x0, [x29,#80]
    3540:	b9401001 	ldr	w1, [x0,#16]
    3544:	90000080 	adrp	x0, 13000 <ta_props>
    3548:	9103a000 	add	x0, x0, #0xe8
    354c:	f9400000 	ldr	x0, [x0]
    3550:	aa0003e5 	mov	x5, x0
    3554:	2a0103e4 	mov	w4, w1
    3558:	f9402fa3 	ldr	x3, [x29,#88]
    355c:	f94033a2 	ldr	x2, [x29,#96]
    3560:	aa0603e1 	mov	x1, x6
    3564:	aa1303e0 	mov	x0, x19
    3568:	94001c28 	bl	a608 <mpa_montgomery_mul>
/home/optee/RPi3/optee_os/lib/libutee/tee_api_arith.c:585
    356c:	f94027a0 	ldr	x0, [x29,#72]
    3570:	aa0003e1 	mov	x1, x0
    3574:	f94037a0 	ldr	x0, [x29,#104]
    3578:	94001a03 	bl	9d84 <mpa_copy>
/home/optee/RPi3/optee_os/lib/libutee/tee_api_arith.c:586
    357c:	90000080 	adrp	x0, 13000 <ta_props>
    3580:	9103a000 	add	x0, x0, #0xe8
    3584:	f9400001 	ldr	x1, [x0]
    3588:	910123a0 	add	x0, x29, #0x48
    358c:	94002594 	bl	cbdc <mpa_free_static_temp_var>
/home/optee/RPi3/optee_os/lib/libutee/tee_api_arith.c:587
    3590:	d503201f 	nop
    3594:	f9400bf3 	ldr	x19, [sp,#16]
    3598:	a8c77bfd 	ldp	x29, x30, [sp],#112
    359c:	d65f03c0 	ret

00000000000035a0 <TEE_BigIntComputeFMM>:
TEE_BigIntComputeFMM():
/home/optee/RPi3/optee_os/lib/libutee/tee_api_arith.c:597
    35a0:	a9b97bfd 	stp	x29, x30, [sp,#-112]!
    35a4:	910003fd 	mov	x29, sp
    35a8:	f9001fa0 	str	x0, [x29,#56]
    35ac:	f9001ba1 	str	x1, [x29,#48]
    35b0:	f90017a2 	str	x2, [x29,#40]
    35b4:	f90013a3 	str	x3, [x29,#32]
    35b8:	f9000fa4 	str	x4, [x29,#24]
/home/optee/RPi3/optee_os/lib/libutee/tee_api_arith.c:598
    35bc:	f9401fa0 	ldr	x0, [x29,#56]
    35c0:	f90037a0 	str	x0, [x29,#104]
/home/optee/RPi3/optee_os/lib/libutee/tee_api_arith.c:599
    35c4:	f9401ba0 	ldr	x0, [x29,#48]
    35c8:	f90033a0 	str	x0, [x29,#96]
/home/optee/RPi3/optee_os/lib/libutee/tee_api_arith.c:600
    35cc:	f94017a0 	ldr	x0, [x29,#40]
    35d0:	f9002fa0 	str	x0, [x29,#88]
/home/optee/RPi3/optee_os/lib/libutee/tee_api_arith.c:601
    35d4:	f94013a0 	ldr	x0, [x29,#32]
    35d8:	f9002ba0 	str	x0, [x29,#80]
/home/optee/RPi3/optee_os/lib/libutee/tee_api_arith.c:602
    35dc:	f9400fa0 	ldr	x0, [x29,#24]
    35e0:	f90027a0 	str	x0, [x29,#72]
/home/optee/RPi3/optee_os/lib/libutee/tee_api_arith.c:604
    35e4:	f94027a0 	ldr	x0, [x29,#72]
    35e8:	b9401001 	ldr	w1, [x0,#16]
    35ec:	90000080 	adrp	x0, 13000 <ta_props>
    35f0:	9103a000 	add	x0, x0, #0xe8
    35f4:	f9400000 	ldr	x0, [x0]
    35f8:	aa0003e5 	mov	x5, x0
    35fc:	2a0103e4 	mov	w4, w1
    3600:	f9402ba3 	ldr	x3, [x29,#80]
    3604:	f9402fa2 	ldr	x2, [x29,#88]
    3608:	f94033a1 	ldr	x1, [x29,#96]
    360c:	f94037a0 	ldr	x0, [x29,#104]
    3610:	94001bfe 	bl	a608 <mpa_montgomery_mul>
/home/optee/RPi3/optee_os/lib/libutee/tee_api_arith.c:606
    3614:	d503201f 	nop
    3618:	a8c77bfd 	ldp	x29, x30, [sp],#112
    361c:	d65f03c0 	ret

0000000000003620 <__utee_from_param>:
__utee_from_param():
/home/optee/RPi3/optee_os/lib/libutee/tee_api.c:42
    3620:	d100c3ff 	sub	sp, sp, #0x30
    3624:	f9000fe0 	str	x0, [sp,#24]
    3628:	b90017e1 	str	w1, [sp,#20]
    362c:	f90007e2 	str	x2, [sp,#8]
/home/optee/RPi3/optee_os/lib/libutee/tee_api.c:45
    3630:	b94017e1 	ldr	w1, [sp,#20]
    3634:	f9400fe0 	ldr	x0, [sp,#24]
    3638:	f9000001 	str	x1, [x0]
/home/optee/RPi3/optee_os/lib/libutee/tee_api.c:46
    363c:	f90017ff 	str	xzr, [sp,#40]
    3640:	14000054 	b	3790 <__utee_from_param+0x170>
/home/optee/RPi3/optee_os/lib/libutee/tee_api.c:47
    3644:	f94017e0 	ldr	x0, [sp,#40]
    3648:	531e7400 	lsl	w0, w0, #2
    364c:	b94017e1 	ldr	w1, [sp,#20]
    3650:	1ac02420 	lsr	w0, w1, w0
    3654:	12000c00 	and	w0, w0, #0xf
    3658:	51000400 	sub	w0, w0, #0x1
    365c:	7100181f 	cmp	w0, #0x6
    3660:	54000768 	b.hi	374c <__utee_from_param+0x12c>
    3664:	d0000061 	adrp	x1, 11000 <__func__.3864+0x18>
    3668:	91009021 	add	x1, x1, #0x24
    366c:	b8605820 	ldr	w0, [x1,w0,uxtw #2]
    3670:	10000061 	adr	x1, 367c <__utee_from_param+0x5c>
    3674:	8b20c820 	add	x0, x1, w0, sxtw #2
    3678:	d61f0000 	br	x0
/home/optee/RPi3/optee_os/lib/libutee/tee_api.c:51
    367c:	f94017e0 	ldr	x0, [sp,#40]
    3680:	d37ff800 	lsl	x0, x0, #1
    3684:	f94017e1 	ldr	x1, [sp,#40]
    3688:	d37cec21 	lsl	x1, x1, #4
    368c:	f94007e2 	ldr	x2, [sp,#8]
    3690:	8b010041 	add	x1, x2, x1
    3694:	b9400021 	ldr	w1, [x1]
    3698:	2a0103e1 	mov	w1, w1
    369c:	f9400fe2 	ldr	x2, [sp,#24]
    36a0:	d37df000 	lsl	x0, x0, #3
    36a4:	8b000040 	add	x0, x2, x0
    36a8:	f9000401 	str	x1, [x0,#8]
/home/optee/RPi3/optee_os/lib/libutee/tee_api.c:52
    36ac:	f94017e0 	ldr	x0, [sp,#40]
    36b0:	d37ff800 	lsl	x0, x0, #1
    36b4:	91000400 	add	x0, x0, #0x1
    36b8:	f94017e1 	ldr	x1, [sp,#40]
    36bc:	d37cec21 	lsl	x1, x1, #4
    36c0:	f94007e2 	ldr	x2, [sp,#8]
    36c4:	8b010041 	add	x1, x2, x1
    36c8:	b9400421 	ldr	w1, [x1,#4]
    36cc:	2a0103e1 	mov	w1, w1
    36d0:	f9400fe2 	ldr	x2, [sp,#24]
    36d4:	d37df000 	lsl	x0, x0, #3
    36d8:	8b000040 	add	x0, x2, x0
    36dc:	f9000401 	str	x1, [x0,#8]
/home/optee/RPi3/optee_os/lib/libutee/tee_api.c:53
    36e0:	14000029 	b	3784 <__utee_from_param+0x164>
/home/optee/RPi3/optee_os/lib/libutee/tee_api.c:57
    36e4:	f94017e0 	ldr	x0, [sp,#40]
    36e8:	d37ff800 	lsl	x0, x0, #1
    36ec:	f94017e1 	ldr	x1, [sp,#40]
    36f0:	d37cec21 	lsl	x1, x1, #4
    36f4:	f94007e2 	ldr	x2, [sp,#8]
    36f8:	8b010041 	add	x1, x2, x1
    36fc:	f9400021 	ldr	x1, [x1]
    3700:	aa0103e2 	mov	x2, x1
    3704:	f9400fe1 	ldr	x1, [sp,#24]
    3708:	d37df000 	lsl	x0, x0, #3
    370c:	8b000020 	add	x0, x1, x0
    3710:	f9000402 	str	x2, [x0,#8]
/home/optee/RPi3/optee_os/lib/libutee/tee_api.c:58
    3714:	f94017e0 	ldr	x0, [sp,#40]
    3718:	d37ff800 	lsl	x0, x0, #1
    371c:	91000400 	add	x0, x0, #0x1
    3720:	f94017e1 	ldr	x1, [sp,#40]
    3724:	d37cec21 	lsl	x1, x1, #4
    3728:	f94007e2 	ldr	x2, [sp,#8]
    372c:	8b010041 	add	x1, x2, x1
    3730:	b9400821 	ldr	w1, [x1,#8]
    3734:	2a0103e1 	mov	w1, w1
    3738:	f9400fe2 	ldr	x2, [sp,#24]
    373c:	d37df000 	lsl	x0, x0, #3
    3740:	8b000040 	add	x0, x2, x0
    3744:	f9000401 	str	x1, [x0,#8]
/home/optee/RPi3/optee_os/lib/libutee/tee_api.c:59
    3748:	1400000f 	b	3784 <__utee_from_param+0x164>
/home/optee/RPi3/optee_os/lib/libutee/tee_api.c:61
    374c:	f94017e0 	ldr	x0, [sp,#40]
    3750:	d37ff800 	lsl	x0, x0, #1
    3754:	f9400fe1 	ldr	x1, [sp,#24]
    3758:	d37df000 	lsl	x0, x0, #3
    375c:	8b000020 	add	x0, x1, x0
    3760:	f900041f 	str	xzr, [x0,#8]
/home/optee/RPi3/optee_os/lib/libutee/tee_api.c:62
    3764:	f94017e0 	ldr	x0, [sp,#40]
    3768:	d37ff800 	lsl	x0, x0, #1
    376c:	91000400 	add	x0, x0, #0x1
    3770:	f9400fe1 	ldr	x1, [sp,#24]
    3774:	d37df000 	lsl	x0, x0, #3
    3778:	8b000020 	add	x0, x1, x0
    377c:	f900041f 	str	xzr, [x0,#8]
/home/optee/RPi3/optee_os/lib/libutee/tee_api.c:63
    3780:	d503201f 	nop
/home/optee/RPi3/optee_os/lib/libutee/tee_api.c:46 (discriminator 2)
    3784:	f94017e0 	ldr	x0, [sp,#40]
    3788:	91000400 	add	x0, x0, #0x1
    378c:	f90017e0 	str	x0, [sp,#40]
/home/optee/RPi3/optee_os/lib/libutee/tee_api.c:46 (discriminator 1)
    3790:	f94017e0 	ldr	x0, [sp,#40]
    3794:	f1000c1f 	cmp	x0, #0x3
    3798:	54fff569 	b.ls	3644 <__utee_from_param+0x24>
/home/optee/RPi3/optee_os/lib/libutee/tee_api.c:66
    379c:	d503201f 	nop
    37a0:	9100c3ff 	add	sp, sp, #0x30
    37a4:	d65f03c0 	ret

00000000000037a8 <__utee_to_param>:
__utee_to_param():
/home/optee/RPi3/optee_os/lib/libutee/tee_api.c:70
    37a8:	d10103ff 	sub	sp, sp, #0x40
    37ac:	f9000fe0 	str	x0, [sp,#24]
    37b0:	f9000be1 	str	x1, [sp,#16]
    37b4:	f90007e2 	str	x2, [sp,#8]
/home/optee/RPi3/optee_os/lib/libutee/tee_api.c:72
    37b8:	f94007e0 	ldr	x0, [sp,#8]
    37bc:	f9400000 	ldr	x0, [x0]
    37c0:	b90037e0 	str	w0, [sp,#52]
/home/optee/RPi3/optee_os/lib/libutee/tee_api.c:74
    37c4:	f9001fff 	str	xzr, [sp,#56]
    37c8:	1400003c 	b	38b8 <__utee_to_param+0x110>
/home/optee/RPi3/optee_os/lib/libutee/tee_api.c:75
    37cc:	f9401fe0 	ldr	x0, [sp,#56]
    37d0:	d37ff800 	lsl	x0, x0, #1
    37d4:	f94007e1 	ldr	x1, [sp,#8]
    37d8:	d37df000 	lsl	x0, x0, #3
    37dc:	8b000020 	add	x0, x1, x0
    37e0:	f9400400 	ldr	x0, [x0,#8]
    37e4:	f90017e0 	str	x0, [sp,#40]
/home/optee/RPi3/optee_os/lib/libutee/tee_api.c:76
    37e8:	f9401fe0 	ldr	x0, [sp,#56]
    37ec:	d37ff800 	lsl	x0, x0, #1
    37f0:	91000400 	add	x0, x0, #0x1
    37f4:	f94007e1 	ldr	x1, [sp,#8]
    37f8:	d37df000 	lsl	x0, x0, #3
    37fc:	8b000020 	add	x0, x1, x0
    3800:	f9400400 	ldr	x0, [x0,#8]
    3804:	f90013e0 	str	x0, [sp,#32]
/home/optee/RPi3/optee_os/lib/libutee/tee_api.c:78
    3808:	f9401fe0 	ldr	x0, [sp,#56]
    380c:	531e7400 	lsl	w0, w0, #2
    3810:	b94037e1 	ldr	w1, [sp,#52]
    3814:	1ac02420 	lsr	w0, w1, w0
    3818:	12000c00 	and	w0, w0, #0xf
    381c:	51000400 	sub	w0, w0, #0x1
    3820:	7100181f 	cmp	w0, #0x6
    3824:	54000428 	b.hi	38a8 <__utee_to_param+0x100>
    3828:	d0000061 	adrp	x1, 11000 <__func__.3864+0x18>
    382c:	91010021 	add	x1, x1, #0x40
    3830:	b8605820 	ldr	w0, [x1,w0,uxtw #2]
    3834:	10000061 	adr	x1, 3840 <__utee_to_param+0x98>
    3838:	8b20c820 	add	x0, x1, w0, sxtw #2
    383c:	d61f0000 	br	x0
/home/optee/RPi3/optee_os/lib/libutee/tee_api.c:82
    3840:	f9401fe0 	ldr	x0, [sp,#56]
    3844:	d37cec00 	lsl	x0, x0, #4
    3848:	f9400fe1 	ldr	x1, [sp,#24]
    384c:	8b000020 	add	x0, x1, x0
    3850:	f94017e1 	ldr	x1, [sp,#40]
    3854:	b9000001 	str	w1, [x0]
/home/optee/RPi3/optee_os/lib/libutee/tee_api.c:83
    3858:	f9401fe0 	ldr	x0, [sp,#56]
    385c:	d37cec00 	lsl	x0, x0, #4
    3860:	f9400fe1 	ldr	x1, [sp,#24]
    3864:	8b000020 	add	x0, x1, x0
    3868:	f94013e1 	ldr	x1, [sp,#32]
    386c:	b9000401 	str	w1, [x0,#4]
/home/optee/RPi3/optee_os/lib/libutee/tee_api.c:84
    3870:	1400000f 	b	38ac <__utee_to_param+0x104>
/home/optee/RPi3/optee_os/lib/libutee/tee_api.c:88
    3874:	f9401fe0 	ldr	x0, [sp,#56]
    3878:	d37cec00 	lsl	x0, x0, #4
    387c:	f9400fe1 	ldr	x1, [sp,#24]
    3880:	8b000020 	add	x0, x1, x0
    3884:	f94017e1 	ldr	x1, [sp,#40]
    3888:	f9000001 	str	x1, [x0]
/home/optee/RPi3/optee_os/lib/libutee/tee_api.c:89
    388c:	f9401fe0 	ldr	x0, [sp,#56]
    3890:	d37cec00 	lsl	x0, x0, #4
    3894:	f9400fe1 	ldr	x1, [sp,#24]
    3898:	8b000020 	add	x0, x1, x0
    389c:	f94013e1 	ldr	x1, [sp,#32]
    38a0:	b9000801 	str	w1, [x0,#8]
/home/optee/RPi3/optee_os/lib/libutee/tee_api.c:90
    38a4:	14000002 	b	38ac <__utee_to_param+0x104>
/home/optee/RPi3/optee_os/lib/libutee/tee_api.c:92
    38a8:	d503201f 	nop
/home/optee/RPi3/optee_os/lib/libutee/tee_api.c:74 (discriminator 2)
    38ac:	f9401fe0 	ldr	x0, [sp,#56]
    38b0:	91000400 	add	x0, x0, #0x1
    38b4:	f9001fe0 	str	x0, [sp,#56]
/home/optee/RPi3/optee_os/lib/libutee/tee_api.c:74 (discriminator 1)
    38b8:	f9401fe0 	ldr	x0, [sp,#56]
    38bc:	f1000c1f 	cmp	x0, #0x3
    38c0:	54fff869 	b.ls	37cc <__utee_to_param+0x24>
/home/optee/RPi3/optee_os/lib/libutee/tee_api.c:96
    38c4:	f9400be0 	ldr	x0, [sp,#16]
    38c8:	eb1f001f 	cmp	x0, xzr
    38cc:	54000080 	b.eq	38dc <__utee_to_param+0x134>
/home/optee/RPi3/optee_os/lib/libutee/tee_api.c:97
    38d0:	f9400be0 	ldr	x0, [sp,#16]
    38d4:	b94037e1 	ldr	w1, [sp,#52]
    38d8:	b9000001 	str	w1, [x0]
/home/optee/RPi3/optee_os/lib/libutee/tee_api.c:98
    38dc:	d503201f 	nop
    38e0:	910103ff 	add	sp, sp, #0x40
    38e4:	d65f03c0 	ret

00000000000038e8 <TEE_OpenTASession>:
TEE_OpenTASession():
/home/optee/RPi3/optee_os/lib/libutee/tee_api.c:105
    38e8:	a9b67bfd 	stp	x29, x30, [sp,#-160]!
    38ec:	910003fd 	mov	x29, sp
    38f0:	f9001fa0 	str	x0, [x29,#56]
    38f4:	b90037a1 	str	w1, [x29,#52]
    38f8:	b90033a2 	str	w2, [x29,#48]
    38fc:	f90017a3 	str	x3, [x29,#40]
    3900:	f90013a4 	str	x4, [x29,#32]
    3904:	f9000fa5 	str	x5, [x29,#24]
/home/optee/RPi3/optee_os/lib/libutee/tee_api.c:110
    3908:	910143a0 	add	x0, x29, #0x50
    390c:	f94017a2 	ldr	x2, [x29,#40]
    3910:	b94033a1 	ldr	w1, [x29,#48]
    3914:	97ffff43 	bl	3620 <__utee_from_param>
/home/optee/RPi3/optee_os/lib/libutee/tee_api.c:111
    3918:	b94037a0 	ldr	w0, [x29,#52]
    391c:	910133a2 	add	x2, x29, #0x4c
    3920:	910143a1 	add	x1, x29, #0x50
    3924:	f9400fa4 	ldr	x4, [x29,#24]
    3928:	aa0203e3 	mov	x3, x2
    392c:	aa0103e2 	mov	x2, x1
    3930:	aa0003e1 	mov	x1, x0
    3934:	f9401fa0 	ldr	x0, [x29,#56]
    3938:	94003337 	bl	10614 <utee_open_ta_session>
    393c:	b9009fa0 	str	w0, [x29,#156]
/home/optee/RPi3/optee_os/lib/libutee/tee_api.c:113
    3940:	910143a0 	add	x0, x29, #0x50
    3944:	aa0003e2 	mov	x2, x0
    3948:	d2800001 	mov	x1, #0x0                   	// #0
    394c:	f94017a0 	ldr	x0, [x29,#40]
    3950:	97ffff96 	bl	37a8 <__utee_to_param>
/home/optee/RPi3/optee_os/lib/libutee/tee_api.c:119
    3954:	b9409fa0 	ldr	w0, [x29,#156]
    3958:	6b1f001f 	cmp	w0, wzr
    395c:	54000040 	b.eq	3964 <TEE_OpenTASession+0x7c>
/home/optee/RPi3/optee_os/lib/libutee/tee_api.c:120
    3960:	b9004fbf 	str	wzr, [x29,#76]
/home/optee/RPi3/optee_os/lib/libutee/tee_api.c:122
    3964:	b9404fa0 	ldr	w0, [x29,#76]
    3968:	2a0003e0 	mov	w0, w0
    396c:	aa0003e1 	mov	x1, x0
    3970:	f94013a0 	ldr	x0, [x29,#32]
    3974:	f9000001 	str	x1, [x0]
/home/optee/RPi3/optee_os/lib/libutee/tee_api.c:123
    3978:	b9409fa0 	ldr	w0, [x29,#156]
/home/optee/RPi3/optee_os/lib/libutee/tee_api.c:124
    397c:	a8ca7bfd 	ldp	x29, x30, [sp],#160
    3980:	d65f03c0 	ret

0000000000003984 <TEE_CloseTASession>:
TEE_CloseTASession():
/home/optee/RPi3/optee_os/lib/libutee/tee_api.c:127
    3984:	a9bd7bfd 	stp	x29, x30, [sp,#-48]!
    3988:	910003fd 	mov	x29, sp
    398c:	f9000fa0 	str	x0, [x29,#24]
/home/optee/RPi3/optee_os/lib/libutee/tee_api.c:128
    3990:	f9400fa0 	ldr	x0, [x29,#24]
    3994:	eb1f001f 	cmp	x0, xzr
    3998:	54000260 	b.eq	39e4 <TEE_CloseTASession+0x60>
/home/optee/RPi3/optee_os/lib/libutee/tee_api.c:129
    399c:	f9400fa0 	ldr	x0, [x29,#24]
    39a0:	94003320 	bl	10620 <utee_close_ta_session>
    39a4:	b9002fa0 	str	w0, [x29,#44]
/home/optee/RPi3/optee_os/lib/libutee/tee_api.c:131
    39a8:	b9402fa0 	ldr	w0, [x29,#44]
    39ac:	6b1f001f 	cmp	w0, wzr
    39b0:	540001a0 	b.eq	39e4 <TEE_CloseTASession+0x60>
/home/optee/RPi3/optee_os/lib/libutee/tee_api.c:132
    39b4:	d0000060 	adrp	x0, 11000 <__func__.3864+0x18>
    39b8:	91018001 	add	x1, x0, #0x60
    39bc:	d0000060 	adrp	x0, 11000 <__func__.3864+0x18>
    39c0:	9101c000 	add	x0, x0, #0x70
    39c4:	b9402fa5 	ldr	w5, [x29,#44]
    39c8:	aa0103e4 	mov	x4, x1
    39cc:	52800023 	mov	w3, #0x1                   	// #1
    39d0:	52800022 	mov	w2, #0x1                   	// #1
    39d4:	52801081 	mov	w1, #0x84                  	// #132
    39d8:	9400174d 	bl	970c <trace_printf>
    39dc:	b9402fa0 	ldr	w0, [x29,#44]
    39e0:	97fffa24 	bl	2270 <__TEE_Panic>
/home/optee/RPi3/optee_os/lib/libutee/tee_api.c:134
    39e4:	d503201f 	nop
    39e8:	a8c37bfd 	ldp	x29, x30, [sp],#48
    39ec:	d65f03c0 	ret

00000000000039f0 <TEE_InvokeTACommand>:
TEE_InvokeTACommand():
/home/optee/RPi3/optee_os/lib/libutee/tee_api.c:140
    39f0:	a9b77bfd 	stp	x29, x30, [sp,#-144]!
    39f4:	910003fd 	mov	x29, sp
    39f8:	f9001fa0 	str	x0, [x29,#56]
    39fc:	b90037a1 	str	w1, [x29,#52]
    3a00:	b90033a2 	str	w2, [x29,#48]
    3a04:	b9002fa3 	str	w3, [x29,#44]
    3a08:	f90013a4 	str	x4, [x29,#32]
    3a0c:	f9000fa5 	str	x5, [x29,#24]
/home/optee/RPi3/optee_os/lib/libutee/tee_api.c:145
    3a10:	910103a0 	add	x0, x29, #0x40
    3a14:	f94013a2 	ldr	x2, [x29,#32]
    3a18:	b9402fa1 	ldr	w1, [x29,#44]
    3a1c:	97ffff01 	bl	3620 <__utee_from_param>
/home/optee/RPi3/optee_os/lib/libutee/tee_api.c:146
    3a20:	f9401fa0 	ldr	x0, [x29,#56]
    3a24:	b94037a1 	ldr	w1, [x29,#52]
    3a28:	b94033a2 	ldr	w2, [x29,#48]
    3a2c:	910223a4 	add	x4, x29, #0x88
    3a30:	910103a3 	add	x3, x29, #0x40
    3a34:	940032fe 	bl	1062c <utee_invoke_ta_command>
    3a38:	b9008fa0 	str	w0, [x29,#140]
/home/optee/RPi3/optee_os/lib/libutee/tee_api.c:149
    3a3c:	910103a0 	add	x0, x29, #0x40
    3a40:	aa0003e2 	mov	x2, x0
    3a44:	d2800001 	mov	x1, #0x0                   	// #0
    3a48:	f94013a0 	ldr	x0, [x29,#32]
    3a4c:	97ffff57 	bl	37a8 <__utee_to_param>
/home/optee/RPi3/optee_os/lib/libutee/tee_api.c:151
    3a50:	f9400fa0 	ldr	x0, [x29,#24]
    3a54:	eb1f001f 	cmp	x0, xzr
    3a58:	54000080 	b.eq	3a68 <TEE_InvokeTACommand+0x78>
/home/optee/RPi3/optee_os/lib/libutee/tee_api.c:152
    3a5c:	b9408ba1 	ldr	w1, [x29,#136]
    3a60:	f9400fa0 	ldr	x0, [x29,#24]
    3a64:	b9000001 	str	w1, [x0]
/home/optee/RPi3/optee_os/lib/libutee/tee_api.c:154
    3a68:	b9408ba0 	ldr	w0, [x29,#136]
    3a6c:	7100101f 	cmp	w0, #0x4
    3a70:	54000061 	b.ne	3a7c <TEE_InvokeTACommand+0x8c>
/home/optee/RPi3/optee_os/lib/libutee/tee_api.c:155
    3a74:	b9408fa0 	ldr	w0, [x29,#140]
    3a78:	14000019 	b	3adc <TEE_InvokeTACommand+0xec>
/home/optee/RPi3/optee_os/lib/libutee/tee_api.c:157
    3a7c:	b9408fa0 	ldr	w0, [x29,#140]
    3a80:	6b1f001f 	cmp	w0, wzr
    3a84:	540002a0 	b.eq	3ad8 <TEE_InvokeTACommand+0xe8>
/home/optee/RPi3/optee_os/lib/libutee/tee_api.c:157 (discriminator 1)
    3a88:	b9408fa1 	ldr	w1, [x29,#140]
    3a8c:	129ffe60 	mov	w0, #0xffff000c            	// #-65524
    3a90:	6b00003f 	cmp	w1, w0
    3a94:	54000220 	b.eq	3ad8 <TEE_InvokeTACommand+0xe8>
/home/optee/RPi3/optee_os/lib/libutee/tee_api.c:158
    3a98:	b9408fa1 	ldr	w1, [x29,#140]
    3a9c:	1299fb60 	mov	w0, #0xffff3024            	// #-53212
    3aa0:	6b00003f 	cmp	w1, w0
    3aa4:	540001a0 	b.eq	3ad8 <TEE_InvokeTACommand+0xe8>
/home/optee/RPi3/optee_os/lib/libutee/tee_api.c:160
    3aa8:	d0000060 	adrp	x0, 11000 <__func__.3864+0x18>
    3aac:	91018001 	add	x1, x0, #0x60
    3ab0:	d0000060 	adrp	x0, 11000 <__func__.3864+0x18>
    3ab4:	91022000 	add	x0, x0, #0x88
    3ab8:	b9408fa5 	ldr	w5, [x29,#140]
    3abc:	aa0103e4 	mov	x4, x1
    3ac0:	52800023 	mov	w3, #0x1                   	// #1
    3ac4:	52800022 	mov	w2, #0x1                   	// #1
    3ac8:	52801401 	mov	w1, #0xa0                  	// #160
    3acc:	94001710 	bl	970c <trace_printf>
    3ad0:	b9408fa0 	ldr	w0, [x29,#140]
    3ad4:	97fff9e7 	bl	2270 <__TEE_Panic>
/home/optee/RPi3/optee_os/lib/libutee/tee_api.c:162
    3ad8:	b9408fa0 	ldr	w0, [x29,#140]
/home/optee/RPi3/optee_os/lib/libutee/tee_api.c:163 (discriminator 1)
    3adc:	a8c97bfd 	ldp	x29, x30, [sp],#144
    3ae0:	d65f03c0 	ret

0000000000003ae4 <TEE_GetCancellationFlag>:
TEE_GetCancellationFlag():
/home/optee/RPi3/optee_os/lib/libutee/tee_api.c:168
    3ae4:	a9be7bfd 	stp	x29, x30, [sp,#-32]!
    3ae8:	910003fd 	mov	x29, sp
/home/optee/RPi3/optee_os/lib/libutee/tee_api.c:170
    3aec:	910063a0 	add	x0, x29, #0x18
    3af0:	940032d2 	bl	10638 <utee_get_cancellation_flag>
    3af4:	b9001fa0 	str	w0, [x29,#28]
/home/optee/RPi3/optee_os/lib/libutee/tee_api.c:172
    3af8:	b9401fa0 	ldr	w0, [x29,#28]
    3afc:	6b1f001f 	cmp	w0, wzr
    3b00:	54000040 	b.eq	3b08 <TEE_GetCancellationFlag+0x24>
/home/optee/RPi3/optee_os/lib/libutee/tee_api.c:173
    3b04:	b9001bbf 	str	wzr, [x29,#24]
/home/optee/RPi3/optee_os/lib/libutee/tee_api.c:174
    3b08:	b9401ba0 	ldr	w0, [x29,#24]
    3b0c:	6b1f001f 	cmp	w0, wzr
    3b10:	1a9f07e0 	cset	w0, ne
    3b14:	53001c00 	uxtb	w0, w0
/home/optee/RPi3/optee_os/lib/libutee/tee_api.c:175
    3b18:	a8c27bfd 	ldp	x29, x30, [sp],#32
    3b1c:	d65f03c0 	ret

0000000000003b20 <TEE_UnmaskCancellation>:
TEE_UnmaskCancellation():
/home/optee/RPi3/optee_os/lib/libutee/tee_api.c:178
    3b20:	a9be7bfd 	stp	x29, x30, [sp,#-32]!
    3b24:	910003fd 	mov	x29, sp
/home/optee/RPi3/optee_os/lib/libutee/tee_api.c:180
    3b28:	910063a0 	add	x0, x29, #0x18
    3b2c:	940032c9 	bl	10650 <utee_unmask_cancellation>
    3b30:	b9001fa0 	str	w0, [x29,#28]
/home/optee/RPi3/optee_os/lib/libutee/tee_api.c:182
    3b34:	b9401fa0 	ldr	w0, [x29,#28]
    3b38:	6b1f001f 	cmp	w0, wzr
    3b3c:	540001a0 	b.eq	3b70 <TEE_UnmaskCancellation+0x50>
/home/optee/RPi3/optee_os/lib/libutee/tee_api.c:183
    3b40:	d0000060 	adrp	x0, 11000 <__func__.3864+0x18>
    3b44:	91018001 	add	x1, x0, #0x60
    3b48:	d0000060 	adrp	x0, 11000 <__func__.3864+0x18>
    3b4c:	91028000 	add	x0, x0, #0xa0
    3b50:	b9401fa5 	ldr	w5, [x29,#28]
    3b54:	aa0103e4 	mov	x4, x1
    3b58:	52800023 	mov	w3, #0x1                   	// #1
    3b5c:	52800022 	mov	w2, #0x1                   	// #1
    3b60:	528016e1 	mov	w1, #0xb7                  	// #183
    3b64:	940016ea 	bl	970c <trace_printf>
    3b68:	b9401fa0 	ldr	w0, [x29,#28]
    3b6c:	97fff9c1 	bl	2270 <__TEE_Panic>
/home/optee/RPi3/optee_os/lib/libutee/tee_api.c:184
    3b70:	b9401ba0 	ldr	w0, [x29,#24]
    3b74:	6b1f001f 	cmp	w0, wzr
    3b78:	1a9f07e0 	cset	w0, ne
    3b7c:	53001c00 	uxtb	w0, w0
/home/optee/RPi3/optee_os/lib/libutee/tee_api.c:185
    3b80:	a8c27bfd 	ldp	x29, x30, [sp],#32
    3b84:	d65f03c0 	ret

0000000000003b88 <TEE_MaskCancellation>:
TEE_MaskCancellation():
/home/optee/RPi3/optee_os/lib/libutee/tee_api.c:188
    3b88:	a9be7bfd 	stp	x29, x30, [sp,#-32]!
    3b8c:	910003fd 	mov	x29, sp
/home/optee/RPi3/optee_os/lib/libutee/tee_api.c:190
    3b90:	910063a0 	add	x0, x29, #0x18
    3b94:	940032b2 	bl	1065c <utee_mask_cancellation>
    3b98:	b9001fa0 	str	w0, [x29,#28]
/home/optee/RPi3/optee_os/lib/libutee/tee_api.c:192
    3b9c:	b9401fa0 	ldr	w0, [x29,#28]
    3ba0:	6b1f001f 	cmp	w0, wzr
    3ba4:	540001a0 	b.eq	3bd8 <TEE_MaskCancellation+0x50>
/home/optee/RPi3/optee_os/lib/libutee/tee_api.c:193
    3ba8:	d0000060 	adrp	x0, 11000 <__func__.3864+0x18>
    3bac:	91018001 	add	x1, x0, #0x60
    3bb0:	d0000060 	adrp	x0, 11000 <__func__.3864+0x18>
    3bb4:	9102e000 	add	x0, x0, #0xb8
    3bb8:	b9401fa5 	ldr	w5, [x29,#28]
    3bbc:	aa0103e4 	mov	x4, x1
    3bc0:	52800023 	mov	w3, #0x1                   	// #1
    3bc4:	52800022 	mov	w2, #0x1                   	// #1
    3bc8:	52801821 	mov	w1, #0xc1                  	// #193
    3bcc:	940016d0 	bl	970c <trace_printf>
    3bd0:	b9401fa0 	ldr	w0, [x29,#28]
    3bd4:	97fff9a7 	bl	2270 <__TEE_Panic>
/home/optee/RPi3/optee_os/lib/libutee/tee_api.c:194
    3bd8:	b9401ba0 	ldr	w0, [x29,#24]
    3bdc:	6b1f001f 	cmp	w0, wzr
    3be0:	1a9f07e0 	cset	w0, ne
    3be4:	53001c00 	uxtb	w0, w0
/home/optee/RPi3/optee_os/lib/libutee/tee_api.c:195
    3be8:	a8c27bfd 	ldp	x29, x30, [sp],#32
    3bec:	d65f03c0 	ret

0000000000003bf0 <TEE_CheckMemoryAccessRights>:
TEE_CheckMemoryAccessRights():
/home/optee/RPi3/optee_os/lib/libutee/tee_api.c:201
    3bf0:	a9bd7bfd 	stp	x29, x30, [sp,#-48]!
    3bf4:	910003fd 	mov	x29, sp
    3bf8:	b9001fa0 	str	w0, [x29,#28]
    3bfc:	f9000ba1 	str	x1, [x29,#16]
    3c00:	b9001ba2 	str	w2, [x29,#24]
/home/optee/RPi3/optee_os/lib/libutee/tee_api.c:204
    3c04:	b9401ba0 	ldr	w0, [x29,#24]
    3c08:	6b1f001f 	cmp	w0, wzr
    3c0c:	54000061 	b.ne	3c18 <TEE_CheckMemoryAccessRights+0x28>
/home/optee/RPi3/optee_os/lib/libutee/tee_api.c:205
    3c10:	52800000 	mov	w0, #0x0                   	// #0
    3c14:	1400000e 	b	3c4c <TEE_CheckMemoryAccessRights+0x5c>
/home/optee/RPi3/optee_os/lib/libutee/tee_api.c:208
    3c18:	b9401ba0 	ldr	w0, [x29,#24]
    3c1c:	aa0003e2 	mov	x2, x0
    3c20:	f9400ba1 	ldr	x1, [x29,#16]
    3c24:	b9401fa0 	ldr	w0, [x29,#28]
    3c28:	94003287 	bl	10644 <utee_check_access_rights>
    3c2c:	b9002fa0 	str	w0, [x29,#44]
/home/optee/RPi3/optee_os/lib/libutee/tee_api.c:209
    3c30:	b9402fa0 	ldr	w0, [x29,#44]
    3c34:	6b1f001f 	cmp	w0, wzr
    3c38:	54000061 	b.ne	3c44 <TEE_CheckMemoryAccessRights+0x54>
/home/optee/RPi3/optee_os/lib/libutee/tee_api.c:217
    3c3c:	b9002fbf 	str	wzr, [x29,#44]
    3c40:	14000002 	b	3c48 <TEE_CheckMemoryAccessRights+0x58>
/home/optee/RPi3/optee_os/lib/libutee/tee_api.c:210
    3c44:	d503201f 	nop
/home/optee/RPi3/optee_os/lib/libutee/tee_api.c:219
    3c48:	b9402fa0 	ldr	w0, [x29,#44]
/home/optee/RPi3/optee_os/lib/libutee/tee_api.c:220
    3c4c:	a8c37bfd 	ldp	x29, x30, [sp],#48
    3c50:	d65f03c0 	ret

0000000000003c54 <TEE_SetInstanceData>:
TEE_SetInstanceData():
/home/optee/RPi3/optee_os/lib/libutee/tee_api.c:223
    3c54:	d10043ff 	sub	sp, sp, #0x10
    3c58:	f90007e0 	str	x0, [sp,#8]
/home/optee/RPi3/optee_os/lib/libutee/tee_api.c:224
    3c5c:	b00000c0 	adrp	x0, 1c000 <mempool_u32+0xe80>
    3c60:	91330000 	add	x0, x0, #0xcc0
    3c64:	f94007e1 	ldr	x1, [sp,#8]
    3c68:	f9000001 	str	x1, [x0]
/home/optee/RPi3/optee_os/lib/libutee/tee_api.c:225
    3c6c:	d503201f 	nop
    3c70:	910043ff 	add	sp, sp, #0x10
    3c74:	d65f03c0 	ret

0000000000003c78 <TEE_GetInstanceData>:
TEE_GetInstanceData():
/home/optee/RPi3/optee_os/lib/libutee/tee_api.c:229
    3c78:	b00000c0 	adrp	x0, 1c000 <mempool_u32+0xe80>
    3c7c:	91330000 	add	x0, x0, #0xcc0
    3c80:	f9400000 	ldr	x0, [x0]
/home/optee/RPi3/optee_os/lib/libutee/tee_api.c:230
    3c84:	d65f03c0 	ret

0000000000003c88 <TEE_MemMove>:
TEE_MemMove():
/home/optee/RPi3/optee_os/lib/libutee/tee_api.c:233
    3c88:	a9bd7bfd 	stp	x29, x30, [sp,#-48]!
    3c8c:	910003fd 	mov	x29, sp
    3c90:	f90017a0 	str	x0, [x29,#40]
    3c94:	f90013a1 	str	x1, [x29,#32]
    3c98:	b9001fa2 	str	w2, [x29,#28]
/home/optee/RPi3/optee_os/lib/libutee/tee_api.c:234
    3c9c:	b9401fa0 	ldr	w0, [x29,#28]
    3ca0:	aa0003e2 	mov	x2, x0
    3ca4:	f94013a1 	ldr	x1, [x29,#32]
    3ca8:	f94017a0 	ldr	x0, [x29,#40]
    3cac:	94000ca1 	bl	6f30 <memmove>
/home/optee/RPi3/optee_os/lib/libutee/tee_api.c:235
    3cb0:	a8c37bfd 	ldp	x29, x30, [sp],#48
    3cb4:	d65f03c0 	ret

0000000000003cb8 <TEE_MemCompare>:
TEE_MemCompare():
/home/optee/RPi3/optee_os/lib/libutee/tee_api.c:238
    3cb8:	a9bd7bfd 	stp	x29, x30, [sp,#-48]!
    3cbc:	910003fd 	mov	x29, sp
    3cc0:	f90017a0 	str	x0, [x29,#40]
    3cc4:	f90013a1 	str	x1, [x29,#32]
    3cc8:	b9001fa2 	str	w2, [x29,#28]
/home/optee/RPi3/optee_os/lib/libutee/tee_api.c:239
    3ccc:	b9401fa0 	ldr	w0, [x29,#28]
    3cd0:	aa0003e2 	mov	x2, x0
    3cd4:	f94013a1 	ldr	x1, [x29,#32]
    3cd8:	f94017a0 	ldr	x0, [x29,#40]
    3cdc:	94000beb 	bl	6c88 <memcmp>
/home/optee/RPi3/optee_os/lib/libutee/tee_api.c:240
    3ce0:	a8c37bfd 	ldp	x29, x30, [sp],#48
    3ce4:	d65f03c0 	ret

0000000000003ce8 <TEE_MemFill>:
TEE_MemFill():
/home/optee/RPi3/optee_os/lib/libutee/tee_api.c:243
    3ce8:	a9be7bfd 	stp	x29, x30, [sp,#-32]!
    3cec:	910003fd 	mov	x29, sp
    3cf0:	f9000fa0 	str	x0, [x29,#24]
    3cf4:	b90017a1 	str	w1, [x29,#20]
    3cf8:	b90013a2 	str	w2, [x29,#16]
/home/optee/RPi3/optee_os/lib/libutee/tee_api.c:244
    3cfc:	b94017a0 	ldr	w0, [x29,#20]
    3d00:	b94013a1 	ldr	w1, [x29,#16]
    3d04:	aa0103e2 	mov	x2, x1
    3d08:	2a0003e1 	mov	w1, w0
    3d0c:	f9400fa0 	ldr	x0, [x29,#24]
    3d10:	94000d0b 	bl	713c <memset>
/home/optee/RPi3/optee_os/lib/libutee/tee_api.c:245
    3d14:	a8c27bfd 	ldp	x29, x30, [sp],#32
    3d18:	d65f03c0 	ret

0000000000003d1c <TEE_GetSystemTime>:
TEE_GetSystemTime():
/home/optee/RPi3/optee_os/lib/libutee/tee_api.c:250
    3d1c:	a9bd7bfd 	stp	x29, x30, [sp,#-48]!
    3d20:	910003fd 	mov	x29, sp
    3d24:	f9000fa0 	str	x0, [x29,#24]
/home/optee/RPi3/optee_os/lib/libutee/tee_api.c:251
    3d28:	f9400fa1 	ldr	x1, [x29,#24]
    3d2c:	d2800000 	mov	x0, #0x0                   	// #0
    3d30:	94003251 	bl	10674 <utee_get_time>
    3d34:	b9002fa0 	str	w0, [x29,#44]
/home/optee/RPi3/optee_os/lib/libutee/tee_api.c:253
    3d38:	b9402fa0 	ldr	w0, [x29,#44]
    3d3c:	6b1f001f 	cmp	w0, wzr
    3d40:	540001a0 	b.eq	3d74 <TEE_GetSystemTime+0x58>
/home/optee/RPi3/optee_os/lib/libutee/tee_api.c:254
    3d44:	d0000060 	adrp	x0, 11000 <__func__.3864+0x18>
    3d48:	91018001 	add	x1, x0, #0x60
    3d4c:	d0000060 	adrp	x0, 11000 <__func__.3864+0x18>
    3d50:	91034000 	add	x0, x0, #0xd0
    3d54:	52800005 	mov	w5, #0x0                   	// #0
    3d58:	aa0103e4 	mov	x4, x1
    3d5c:	52800023 	mov	w3, #0x1                   	// #1
    3d60:	52800022 	mov	w2, #0x1                   	// #1
    3d64:	52801fc1 	mov	w1, #0xfe                  	// #254
    3d68:	94001669 	bl	970c <trace_printf>
    3d6c:	52800000 	mov	w0, #0x0                   	// #0
    3d70:	97fff940 	bl	2270 <__TEE_Panic>
/home/optee/RPi3/optee_os/lib/libutee/tee_api.c:255
    3d74:	d503201f 	nop
    3d78:	a8c37bfd 	ldp	x29, x30, [sp],#48
    3d7c:	d65f03c0 	ret

0000000000003d80 <TEE_Wait>:
TEE_Wait():
/home/optee/RPi3/optee_os/lib/libutee/tee_api.c:258
    3d80:	a9bd7bfd 	stp	x29, x30, [sp,#-48]!
    3d84:	910003fd 	mov	x29, sp
    3d88:	b9001fa0 	str	w0, [x29,#28]
/home/optee/RPi3/optee_os/lib/libutee/tee_api.c:259
    3d8c:	b9401fa0 	ldr	w0, [x29,#28]
    3d90:	94003236 	bl	10668 <utee_wait>
    3d94:	b9002fa0 	str	w0, [x29,#44]
/home/optee/RPi3/optee_os/lib/libutee/tee_api.c:261
    3d98:	b9402fa0 	ldr	w0, [x29,#44]
    3d9c:	6b1f001f 	cmp	w0, wzr
    3da0:	54000220 	b.eq	3de4 <TEE_Wait+0x64>
/home/optee/RPi3/optee_os/lib/libutee/tee_api.c:261 (discriminator 1)
    3da4:	b9402fa1 	ldr	w1, [x29,#44]
    3da8:	129fffa0 	mov	w0, #0xffff0002            	// #-65534
    3dac:	6b00003f 	cmp	w1, w0
    3db0:	540001a0 	b.eq	3de4 <TEE_Wait+0x64>
/home/optee/RPi3/optee_os/lib/libutee/tee_api.c:262
    3db4:	d0000060 	adrp	x0, 11000 <__func__.3864+0x18>
    3db8:	91018001 	add	x1, x0, #0x60
    3dbc:	d0000060 	adrp	x0, 11000 <__func__.3864+0x18>
    3dc0:	9103a000 	add	x0, x0, #0xe8
    3dc4:	b9402fa5 	ldr	w5, [x29,#44]
    3dc8:	aa0103e4 	mov	x4, x1
    3dcc:	52800023 	mov	w3, #0x1                   	// #1
    3dd0:	52800022 	mov	w2, #0x1                   	// #1
    3dd4:	528020c1 	mov	w1, #0x106                 	// #262
    3dd8:	9400164d 	bl	970c <trace_printf>
    3ddc:	b9402fa0 	ldr	w0, [x29,#44]
    3de0:	97fff924 	bl	2270 <__TEE_Panic>
/home/optee/RPi3/optee_os/lib/libutee/tee_api.c:264
    3de4:	b9402fa0 	ldr	w0, [x29,#44]
/home/optee/RPi3/optee_os/lib/libutee/tee_api.c:265
    3de8:	a8c37bfd 	ldp	x29, x30, [sp],#48
    3dec:	d65f03c0 	ret

0000000000003df0 <TEE_GetTAPersistentTime>:
TEE_GetTAPersistentTime():
/home/optee/RPi3/optee_os/lib/libutee/tee_api.c:268
    3df0:	a9bd7bfd 	stp	x29, x30, [sp,#-48]!
    3df4:	910003fd 	mov	x29, sp
    3df8:	f9000fa0 	str	x0, [x29,#24]
/home/optee/RPi3/optee_os/lib/libutee/tee_api.c:271
    3dfc:	f9400fa1 	ldr	x1, [x29,#24]
    3e00:	d2800020 	mov	x0, #0x1                   	// #1
    3e04:	9400321c 	bl	10674 <utee_get_time>
    3e08:	b9002fa0 	str	w0, [x29,#44]
/home/optee/RPi3/optee_os/lib/libutee/tee_api.c:273
    3e0c:	b9402fa0 	ldr	w0, [x29,#44]
    3e10:	6b1f001f 	cmp	w0, wzr
    3e14:	54000120 	b.eq	3e38 <TEE_GetTAPersistentTime+0x48>
/home/optee/RPi3/optee_os/lib/libutee/tee_api.c:273 (discriminator 1)
    3e18:	b9402fa1 	ldr	w1, [x29,#44]
    3e1c:	1299fe00 	mov	w0, #0xffff300f            	// #-53233
    3e20:	6b00003f 	cmp	w1, w0
    3e24:	540000a0 	b.eq	3e38 <TEE_GetTAPersistentTime+0x48>
/home/optee/RPi3/optee_os/lib/libutee/tee_api.c:274
    3e28:	f9400fa0 	ldr	x0, [x29,#24]
    3e2c:	b900001f 	str	wzr, [x0]
/home/optee/RPi3/optee_os/lib/libutee/tee_api.c:275
    3e30:	f9400fa0 	ldr	x0, [x29,#24]
    3e34:	b900041f 	str	wzr, [x0,#4]
/home/optee/RPi3/optee_os/lib/libutee/tee_api.c:278
    3e38:	b9402fa0 	ldr	w0, [x29,#44]
    3e3c:	6b1f001f 	cmp	w0, wzr
    3e40:	54000380 	b.eq	3eb0 <TEE_GetTAPersistentTime+0xc0>
/home/optee/RPi3/optee_os/lib/libutee/tee_api.c:278 (discriminator 1)
    3e44:	b9402fa0 	ldr	w0, [x29,#44]
    3e48:	31402c1f 	cmn	w0, #0xb, lsl #12
    3e4c:	54000320 	b.eq	3eb0 <TEE_GetTAPersistentTime+0xc0>
/home/optee/RPi3/optee_os/lib/libutee/tee_api.c:279
    3e50:	b9402fa1 	ldr	w1, [x29,#44]
    3e54:	1295ffc0 	mov	w0, #0xffff5001            	// #-45055
    3e58:	6b00003f 	cmp	w1, w0
    3e5c:	540002a0 	b.eq	3eb0 <TEE_GetTAPersistentTime+0xc0>
/home/optee/RPi3/optee_os/lib/libutee/tee_api.c:280
    3e60:	b9402fa1 	ldr	w1, [x29,#44]
    3e64:	1299fe00 	mov	w0, #0xffff300f            	// #-53233
    3e68:	6b00003f 	cmp	w1, w0
    3e6c:	54000220 	b.eq	3eb0 <TEE_GetTAPersistentTime+0xc0>
/home/optee/RPi3/optee_os/lib/libutee/tee_api.c:281
    3e70:	b9402fa1 	ldr	w1, [x29,#44]
    3e74:	129ffe60 	mov	w0, #0xffff000c            	// #-65524
    3e78:	6b00003f 	cmp	w1, w0
    3e7c:	540001a0 	b.eq	3eb0 <TEE_GetTAPersistentTime+0xc0>
/home/optee/RPi3/optee_os/lib/libutee/tee_api.c:283
    3e80:	d0000060 	adrp	x0, 11000 <__func__.3864+0x18>
    3e84:	91018001 	add	x1, x0, #0x60
    3e88:	d0000060 	adrp	x0, 11000 <__func__.3864+0x18>
    3e8c:	9103e000 	add	x0, x0, #0xf8
    3e90:	b9402fa5 	ldr	w5, [x29,#44]
    3e94:	aa0103e4 	mov	x4, x1
    3e98:	52800023 	mov	w3, #0x1                   	// #1
    3e9c:	52800022 	mov	w2, #0x1                   	// #1
    3ea0:	52802361 	mov	w1, #0x11b                 	// #283
    3ea4:	9400161a 	bl	970c <trace_printf>
    3ea8:	b9402fa0 	ldr	w0, [x29,#44]
    3eac:	97fff8f1 	bl	2270 <__TEE_Panic>
/home/optee/RPi3/optee_os/lib/libutee/tee_api.c:285
    3eb0:	b9402fa0 	ldr	w0, [x29,#44]
/home/optee/RPi3/optee_os/lib/libutee/tee_api.c:286
    3eb4:	a8c37bfd 	ldp	x29, x30, [sp],#48
    3eb8:	d65f03c0 	ret

0000000000003ebc <TEE_SetTAPersistentTime>:
TEE_SetTAPersistentTime():
/home/optee/RPi3/optee_os/lib/libutee/tee_api.c:289
    3ebc:	a9bd7bfd 	stp	x29, x30, [sp,#-48]!
    3ec0:	910003fd 	mov	x29, sp
    3ec4:	f9000fa0 	str	x0, [x29,#24]
/home/optee/RPi3/optee_os/lib/libutee/tee_api.c:292
    3ec8:	f9400fa0 	ldr	x0, [x29,#24]
    3ecc:	940031ed 	bl	10680 <utee_set_ta_time>
    3ed0:	b9002fa0 	str	w0, [x29,#44]
/home/optee/RPi3/optee_os/lib/libutee/tee_api.c:294
    3ed4:	b9402fa0 	ldr	w0, [x29,#44]
    3ed8:	6b1f001f 	cmp	w0, wzr
    3edc:	540002a0 	b.eq	3f30 <TEE_SetTAPersistentTime+0x74>
/home/optee/RPi3/optee_os/lib/libutee/tee_api.c:294 (discriminator 1)
    3ee0:	b9402fa1 	ldr	w1, [x29,#44]
    3ee4:	129ffe60 	mov	w0, #0xffff000c            	// #-65524
    3ee8:	6b00003f 	cmp	w1, w0
    3eec:	54000220 	b.eq	3f30 <TEE_SetTAPersistentTime+0x74>
/home/optee/RPi3/optee_os/lib/libutee/tee_api.c:295
    3ef0:	b9402fa1 	ldr	w1, [x29,#44]
    3ef4:	1299f7c0 	mov	w0, #0xffff3041            	// #-53183
    3ef8:	6b00003f 	cmp	w1, w0
    3efc:	540001a0 	b.eq	3f30 <TEE_SetTAPersistentTime+0x74>
/home/optee/RPi3/optee_os/lib/libutee/tee_api.c:297
    3f00:	d0000060 	adrp	x0, 11000 <__func__.3864+0x18>
    3f04:	91018001 	add	x1, x0, #0x60
    3f08:	d0000060 	adrp	x0, 11000 <__func__.3864+0x18>
    3f0c:	91044000 	add	x0, x0, #0x110
    3f10:	b9402fa5 	ldr	w5, [x29,#44]
    3f14:	aa0103e4 	mov	x4, x1
    3f18:	52800023 	mov	w3, #0x1                   	// #1
    3f1c:	52800022 	mov	w2, #0x1                   	// #1
    3f20:	52802521 	mov	w1, #0x129                 	// #297
    3f24:	940015fa 	bl	970c <trace_printf>
    3f28:	b9402fa0 	ldr	w0, [x29,#44]
    3f2c:	97fff8d1 	bl	2270 <__TEE_Panic>
/home/optee/RPi3/optee_os/lib/libutee/tee_api.c:299
    3f30:	b9402fa0 	ldr	w0, [x29,#44]
/home/optee/RPi3/optee_os/lib/libutee/tee_api.c:300
    3f34:	a8c37bfd 	ldp	x29, x30, [sp],#48
    3f38:	d65f03c0 	ret

0000000000003f3c <TEE_GetREETime>:
TEE_GetREETime():
/home/optee/RPi3/optee_os/lib/libutee/tee_api.c:303
    3f3c:	a9bd7bfd 	stp	x29, x30, [sp,#-48]!
    3f40:	910003fd 	mov	x29, sp
    3f44:	f9000fa0 	str	x0, [x29,#24]
/home/optee/RPi3/optee_os/lib/libutee/tee_api.c:304
    3f48:	f9400fa1 	ldr	x1, [x29,#24]
    3f4c:	d2800040 	mov	x0, #0x2                   	// #2
    3f50:	940031c9 	bl	10674 <utee_get_time>
    3f54:	b9002fa0 	str	w0, [x29,#44]
/home/optee/RPi3/optee_os/lib/libutee/tee_api.c:306
    3f58:	b9402fa0 	ldr	w0, [x29,#44]
    3f5c:	6b1f001f 	cmp	w0, wzr
    3f60:	540001a0 	b.eq	3f94 <TEE_GetREETime+0x58>
/home/optee/RPi3/optee_os/lib/libutee/tee_api.c:307
    3f64:	d0000060 	adrp	x0, 11000 <__func__.3864+0x18>
    3f68:	91018001 	add	x1, x0, #0x60
    3f6c:	d0000060 	adrp	x0, 11000 <__func__.3864+0x18>
    3f70:	9104a000 	add	x0, x0, #0x128
    3f74:	52800005 	mov	w5, #0x0                   	// #0
    3f78:	aa0103e4 	mov	x4, x1
    3f7c:	52800023 	mov	w3, #0x1                   	// #1
    3f80:	52800022 	mov	w2, #0x1                   	// #1
    3f84:	52802661 	mov	w1, #0x133                 	// #307
    3f88:	940015e1 	bl	970c <trace_printf>
    3f8c:	52800000 	mov	w0, #0x0                   	// #0
    3f90:	97fff8b8 	bl	2270 <__TEE_Panic>
/home/optee/RPi3/optee_os/lib/libutee/tee_api.c:308
    3f94:	d503201f 	nop
    3f98:	a8c37bfd 	ldp	x29, x30, [sp],#48
    3f9c:	d65f03c0 	ret

0000000000003fa0 <TEE_Malloc>:
TEE_Malloc():
/home/optee/RPi3/optee_os/lib/libutee/tee_api.c:311
    3fa0:	a9be7bfd 	stp	x29, x30, [sp,#-32]!
    3fa4:	910003fd 	mov	x29, sp
    3fa8:	b9001fa0 	str	w0, [x29,#28]
    3fac:	b9001ba1 	str	w1, [x29,#24]
/home/optee/RPi3/optee_os/lib/libutee/tee_api.c:312
    3fb0:	b9401fa0 	ldr	w0, [x29,#28]
    3fb4:	b9401ba1 	ldr	w1, [x29,#24]
    3fb8:	9400016e 	bl	4570 <tee_user_mem_alloc>
/home/optee/RPi3/optee_os/lib/libutee/tee_api.c:313
    3fbc:	a8c27bfd 	ldp	x29, x30, [sp],#32
    3fc0:	d65f03c0 	ret

0000000000003fc4 <TEE_Realloc>:
TEE_Realloc():
/home/optee/RPi3/optee_os/lib/libutee/tee_api.c:316
    3fc4:	a9be7bfd 	stp	x29, x30, [sp,#-32]!
    3fc8:	910003fd 	mov	x29, sp
    3fcc:	f9000fa0 	str	x0, [x29,#24]
    3fd0:	b90017a1 	str	w1, [x29,#20]
/home/optee/RPi3/optee_os/lib/libutee/tee_api.c:321
    3fd4:	b94017a0 	ldr	w0, [x29,#20]
    3fd8:	aa0003e1 	mov	x1, x0
    3fdc:	f9400fa0 	ldr	x0, [x29,#24]
    3fe0:	940001d8 	bl	4740 <tee_user_mem_realloc>
/home/optee/RPi3/optee_os/lib/libutee/tee_api.c:322
    3fe4:	a8c27bfd 	ldp	x29, x30, [sp],#32
    3fe8:	d65f03c0 	ret

0000000000003fec <TEE_Free>:
TEE_Free():
/home/optee/RPi3/optee_os/lib/libutee/tee_api.c:325
    3fec:	a9be7bfd 	stp	x29, x30, [sp,#-32]!
    3ff0:	910003fd 	mov	x29, sp
    3ff4:	f9000fa0 	str	x0, [x29,#24]
/home/optee/RPi3/optee_os/lib/libutee/tee_api.c:326
    3ff8:	f9400fa0 	ldr	x0, [x29,#24]
    3ffc:	94000215 	bl	4850 <tee_user_mem_free>
/home/optee/RPi3/optee_os/lib/libutee/tee_api.c:327
    4000:	d503201f 	nop
    4004:	a8c27bfd 	ldp	x29, x30, [sp],#32
    4008:	d65f03c0 	ret

000000000000400c <TEE_CacheClean>:
TEE_CacheClean():
/home/optee/RPi3/optee_os/lib/libutee/tee_api.c:331
    400c:	a9be7bfd 	stp	x29, x30, [sp,#-32]!
    4010:	910003fd 	mov	x29, sp
    4014:	f9000fa0 	str	x0, [x29,#24]
    4018:	f9000ba1 	str	x1, [x29,#16]
/home/optee/RPi3/optee_os/lib/libutee/tee_api.c:332
    401c:	d2800002 	mov	x2, #0x0                   	// #0
    4020:	f9400ba1 	ldr	x1, [x29,#16]
    4024:	f9400fa0 	ldr	x0, [x29,#24]
    4028:	9400323e 	bl	10920 <utee_cache_operation>
/home/optee/RPi3/optee_os/lib/libutee/tee_api.c:333
    402c:	a8c27bfd 	ldp	x29, x30, [sp],#32
    4030:	d65f03c0 	ret

0000000000004034 <TEE_CacheFlush>:
TEE_CacheFlush():
/home/optee/RPi3/optee_os/lib/libutee/tee_api.c:335
    4034:	a9be7bfd 	stp	x29, x30, [sp,#-32]!
    4038:	910003fd 	mov	x29, sp
    403c:	f9000fa0 	str	x0, [x29,#24]
    4040:	f9000ba1 	str	x1, [x29,#16]
/home/optee/RPi3/optee_os/lib/libutee/tee_api.c:336
    4044:	d2800022 	mov	x2, #0x1                   	// #1
    4048:	f9400ba1 	ldr	x1, [x29,#16]
    404c:	f9400fa0 	ldr	x0, [x29,#24]
    4050:	94003234 	bl	10920 <utee_cache_operation>
/home/optee/RPi3/optee_os/lib/libutee/tee_api.c:337
    4054:	a8c27bfd 	ldp	x29, x30, [sp],#32
    4058:	d65f03c0 	ret

000000000000405c <TEE_CacheInvalidate>:
TEE_CacheInvalidate():
/home/optee/RPi3/optee_os/lib/libutee/tee_api.c:340
    405c:	a9be7bfd 	stp	x29, x30, [sp,#-32]!
    4060:	910003fd 	mov	x29, sp
    4064:	f9000fa0 	str	x0, [x29,#24]
    4068:	f9000ba1 	str	x1, [x29,#16]
/home/optee/RPi3/optee_os/lib/libutee/tee_api.c:341
    406c:	d2800042 	mov	x2, #0x2                   	// #2
    4070:	f9400ba1 	ldr	x1, [x29,#16]
    4074:	f9400fa0 	ldr	x0, [x29,#24]
    4078:	9400322a 	bl	10920 <utee_cache_operation>
/home/optee/RPi3/optee_os/lib/libutee/tee_api.c:342
    407c:	a8c27bfd 	ldp	x29, x30, [sp],#32
    4080:	d65f03c0 	ret

0000000000004084 <utee_get_ta_exec_id>:
utee_get_ta_exec_id():
/home/optee/RPi3/optee_os/lib/libutee/arch/arm/utee_misc.c:38
    4084:	52800000 	mov	w0, #0x0                   	// #0
/home/optee/RPi3/optee_os/lib/libutee/arch/arm/utee_misc.c:39
    4088:	d65f03c0 	ret

000000000000408c <utee_malloc>:
utee_malloc():
/home/optee/RPi3/optee_os/lib/libutee/arch/arm/utee_misc.c:43
    408c:	a9be7bfd 	stp	x29, x30, [sp,#-32]!
    4090:	910003fd 	mov	x29, sp
    4094:	f9000fa0 	str	x0, [x29,#24]
/home/optee/RPi3/optee_os/lib/libutee/arch/arm/utee_misc.c:44
    4098:	f9400fa0 	ldr	x0, [x29,#24]
    409c:	9400097c 	bl	668c <malloc>
/home/optee/RPi3/optee_os/lib/libutee/arch/arm/utee_misc.c:45
    40a0:	a8c27bfd 	ldp	x29, x30, [sp],#32
    40a4:	d65f03c0 	ret

00000000000040a8 <utee_realloc>:
utee_realloc():
/home/optee/RPi3/optee_os/lib/libutee/arch/arm/utee_misc.c:48
    40a8:	a9be7bfd 	stp	x29, x30, [sp,#-32]!
    40ac:	910003fd 	mov	x29, sp
    40b0:	f9000fa0 	str	x0, [x29,#24]
    40b4:	f9000ba1 	str	x1, [x29,#16]
/home/optee/RPi3/optee_os/lib/libutee/arch/arm/utee_misc.c:49
    40b8:	f9400ba1 	ldr	x1, [x29,#16]
    40bc:	f9400fa0 	ldr	x0, [x29,#24]
    40c0:	940009a4 	bl	6750 <realloc>
/home/optee/RPi3/optee_os/lib/libutee/arch/arm/utee_misc.c:50
    40c4:	a8c27bfd 	ldp	x29, x30, [sp],#32
    40c8:	d65f03c0 	ret

00000000000040cc <utee_calloc>:
utee_calloc():
/home/optee/RPi3/optee_os/lib/libutee/arch/arm/utee_misc.c:53
    40cc:	a9be7bfd 	stp	x29, x30, [sp,#-32]!
    40d0:	910003fd 	mov	x29, sp
    40d4:	f9000fa0 	str	x0, [x29,#24]
    40d8:	f9000ba1 	str	x1, [x29,#16]
/home/optee/RPi3/optee_os/lib/libutee/arch/arm/utee_misc.c:54
    40dc:	f9400fa1 	ldr	x1, [x29,#24]
    40e0:	f9400ba0 	ldr	x0, [x29,#16]
    40e4:	94000981 	bl	66e8 <calloc>
/home/optee/RPi3/optee_os/lib/libutee/arch/arm/utee_misc.c:55
    40e8:	a8c27bfd 	ldp	x29, x30, [sp],#32
    40ec:	d65f03c0 	ret

00000000000040f0 <utee_free>:
utee_free():
/home/optee/RPi3/optee_os/lib/libutee/arch/arm/utee_misc.c:58
    40f0:	a9be7bfd 	stp	x29, x30, [sp,#-32]!
    40f4:	910003fd 	mov	x29, sp
    40f8:	f9000fa0 	str	x0, [x29,#24]
/home/optee/RPi3/optee_os/lib/libutee/arch/arm/utee_misc.c:59
    40fc:	f9400fa0 	ldr	x0, [x29,#24]
    4100:	94000970 	bl	66c0 <free>
/home/optee/RPi3/optee_os/lib/libutee/arch/arm/utee_misc.c:60
    4104:	d503201f 	nop
    4108:	a8c27bfd 	ldp	x29, x30, [sp],#32
    410c:	d65f03c0 	ret

0000000000004110 <get_rng_array>:
get_rng_array():
/home/optee/RPi3/optee_os/lib/libutee/arch/arm/utee_misc.c:70
    4110:	a9be7bfd 	stp	x29, x30, [sp,#-32]!
    4114:	910003fd 	mov	x29, sp
    4118:	f9000fa0 	str	x0, [x29,#24]
    411c:	f9000ba1 	str	x1, [x29,#16]
/home/optee/RPi3/optee_os/lib/libutee/arch/arm/utee_misc.c:71
    4120:	f9400ba1 	ldr	x1, [x29,#16]
    4124:	f9400fa0 	ldr	x0, [x29,#24]
    4128:	9400318f 	bl	10764 <utee_cryp_random_number_generate>
/home/optee/RPi3/optee_os/lib/libutee/arch/arm/utee_misc.c:72
    412c:	a8c27bfd 	ldp	x29, x30, [sp],#32
    4130:	d65f03c0 	ret

0000000000004134 <buf_addr>:
buf_addr():
/home/optee/RPi3/optee_os/lib/libutee/tee_user_mem.c:129
    4134:	d10043ff 	sub	sp, sp, #0x10
    4138:	f90007e0 	str	x0, [sp,#8]
/home/optee/RPi3/optee_os/lib/libutee/tee_user_mem.c:130
    413c:	f94007e0 	ldr	x0, [sp,#8]
    4140:	91008000 	add	x0, x0, #0x20
/home/optee/RPi3/optee_os/lib/libutee/tee_user_mem.c:131
    4144:	910043ff 	add	sp, sp, #0x10
    4148:	d65f03c0 	ret

000000000000414c <buf_size>:
buf_size():
/home/optee/RPi3/optee_os/lib/libutee/tee_user_mem.c:134
    414c:	d10043ff 	sub	sp, sp, #0x10
    4150:	f90007e0 	str	x0, [sp,#8]
/home/optee/RPi3/optee_os/lib/libutee/tee_user_mem.c:135
    4154:	f94007e0 	ldr	x0, [sp,#8]
    4158:	f9400801 	ldr	x1, [x0,#16]
    415c:	d2800020 	mov	x0, #0x1                   	// #1
    4160:	cb000020 	sub	x0, x1, x0
    4164:	d1008000 	sub	x0, x0, #0x20
/home/optee/RPi3/optee_os/lib/libutee/tee_user_mem.c:136
    4168:	910043ff 	add	sp, sp, #0x10
    416c:	d65f03c0 	ret

0000000000004170 <elem_addr>:
elem_addr():
/home/optee/RPi3/optee_os/lib/libutee/tee_user_mem.c:139
    4170:	d10043ff 	sub	sp, sp, #0x10
    4174:	f90007e0 	str	x0, [sp,#8]
/home/optee/RPi3/optee_os/lib/libutee/tee_user_mem.c:140
    4178:	f94007e0 	ldr	x0, [sp,#8]
    417c:	d1008000 	sub	x0, x0, #0x20
/home/optee/RPi3/optee_os/lib/libutee/tee_user_mem.c:141
    4180:	910043ff 	add	sp, sp, #0x10
    4184:	d65f03c0 	ret

0000000000004188 <is_buffer_valid>:
is_buffer_valid():
/home/optee/RPi3/optee_os/lib/libutee/tee_user_mem.c:147
    4188:	a9bd7bfd 	stp	x29, x30, [sp,#-48]!
    418c:	910003fd 	mov	x29, sp
    4190:	f9000fa0 	str	x0, [x29,#24]
/home/optee/RPi3/optee_os/lib/libutee/tee_user_mem.c:150
    4194:	f0000060 	adrp	x0, 13000 <ta_props>
    4198:	9103e000 	add	x0, x0, #0xf8
    419c:	f9400000 	ldr	x0, [x0]
    41a0:	f90017a0 	str	x0, [x29,#40]
    41a4:	1400000c 	b	41d4 <is_buffer_valid+0x4c>
/home/optee/RPi3/optee_os/lib/libutee/tee_user_mem.c:151
    41a8:	f94017a0 	ldr	x0, [x29,#40]
    41ac:	97ffffe2 	bl	4134 <buf_addr>
    41b0:	aa0003e1 	mov	x1, x0
    41b4:	f9400fa0 	ldr	x0, [x29,#24]
    41b8:	eb00003f 	cmp	x1, x0
    41bc:	54000061 	b.ne	41c8 <is_buffer_valid+0x40>
/home/optee/RPi3/optee_os/lib/libutee/tee_user_mem.c:152
    41c0:	52800020 	mov	w0, #0x1                   	// #1
    41c4:	14000008 	b	41e4 <is_buffer_valid+0x5c>
/home/optee/RPi3/optee_os/lib/libutee/tee_user_mem.c:150 (discriminator 2)
    41c8:	f94017a0 	ldr	x0, [x29,#40]
    41cc:	f9400000 	ldr	x0, [x0]
    41d0:	f90017a0 	str	x0, [x29,#40]
/home/optee/RPi3/optee_os/lib/libutee/tee_user_mem.c:150 (discriminator 1)
    41d4:	f94017a0 	ldr	x0, [x29,#40]
    41d8:	eb1f001f 	cmp	x0, xzr
    41dc:	54fffe61 	b.ne	41a8 <is_buffer_valid+0x20>
/home/optee/RPi3/optee_os/lib/libutee/tee_user_mem.c:154
    41e0:	52800000 	mov	w0, #0x0                   	// #0
/home/optee/RPi3/optee_os/lib/libutee/tee_user_mem.c:155
    41e4:	a8c37bfd 	ldp	x29, x30, [sp],#48
    41e8:	d65f03c0 	ret

00000000000041ec <print_buf>:
print_buf():
/home/optee/RPi3/optee_os/lib/libutee/tee_user_mem.c:164
    41ec:	d10183ff 	sub	sp, sp, #0x60
    41f0:	a9027bfd 	stp	x29, x30, [sp,#32]
    41f4:	910083fd 	add	x29, sp, #0x20
    41f8:	f9001bf3 	str	x19, [sp,#48]
    41fc:	b9003fa0 	str	w0, [x29,#60]
    4200:	f9001ba1 	str	x1, [x29,#48]
    4204:	b9003ba2 	str	w2, [x29,#56]
    4208:	f90017a3 	str	x3, [x29,#40]
    420c:	f90013a4 	str	x4, [x29,#32]
/home/optee/RPi3/optee_os/lib/libutee/tee_user_mem.c:165
    4210:	f94013a0 	ldr	x0, [x29,#32]
    4214:	97ffffc8 	bl	4134 <buf_addr>
    4218:	aa0003f3 	mov	x19, x0
    421c:	f94013a0 	ldr	x0, [x29,#32]
    4220:	97ffffcb 	bl	414c <buf_size>
    4224:	aa0003e2 	mov	x2, x0
    4228:	b0000060 	adrp	x0, 11000 <__func__.3864+0x18>
    422c:	91052001 	add	x1, x0, #0x148
    4230:	f9000be2 	str	x2, [sp,#16]
    4234:	f90007f3 	str	x19, [sp,#8]
    4238:	f94013a0 	ldr	x0, [x29,#32]
    423c:	f90003e0 	str	x0, [sp]
    4240:	f94017a7 	ldr	x7, [x29,#40]
    4244:	b9403ba6 	ldr	w6, [x29,#56]
    4248:	f9401ba5 	ldr	x5, [x29,#48]
    424c:	aa0103e4 	mov	x4, x1
    4250:	52800023 	mov	w3, #0x1                   	// #1
    4254:	b9403fa2 	ldr	w2, [x29,#60]
    4258:	52800001 	mov	w1, #0x0                   	// #0
    425c:	d2800000 	mov	x0, #0x0                   	// #0
    4260:	9400152b 	bl	970c <trace_printf>
/home/optee/RPi3/optee_os/lib/libutee/tee_user_mem.c:168
    4264:	d503201f 	nop
    4268:	910003bf 	mov	sp, x29
    426c:	f9400bf3 	ldr	x19, [sp,#16]
    4270:	a8c47bfd 	ldp	x29, x30, [sp],#64
    4274:	d65f03c0 	ret

0000000000004278 <heap_inc>:
heap_inc():
/home/optee/RPi3/optee_os/lib/libutee/tee_user_mem.c:194
    4278:	d10043ff 	sub	sp, sp, #0x10
    427c:	f90007e0 	str	x0, [sp,#8]
/home/optee/RPi3/optee_os/lib/libutee/tee_user_mem.c:196
    4280:	900000c0 	adrp	x0, 1c000 <mempool_u32+0xe80>
    4284:	91332000 	add	x0, x0, #0xcc8
    4288:	f9400001 	ldr	x1, [x0]
    428c:	f94007e0 	ldr	x0, [sp,#8]
    4290:	8b000021 	add	x1, x1, x0
    4294:	900000c0 	adrp	x0, 1c000 <mempool_u32+0xe80>
    4298:	91332000 	add	x0, x0, #0xcc8
    429c:	f9000001 	str	x1, [x0]
/home/optee/RPi3/optee_os/lib/libutee/tee_user_mem.c:198
    42a0:	900000c0 	adrp	x0, 1c000 <mempool_u32+0xe80>
    42a4:	91334000 	add	x0, x0, #0xcd0
    42a8:	b9400000 	ldr	w0, [x0]
    42ac:	11000401 	add	w1, w0, #0x1
    42b0:	900000c0 	adrp	x0, 1c000 <mempool_u32+0xe80>
    42b4:	91334000 	add	x0, x0, #0xcd0
    42b8:	b9000001 	str	w1, [x0]
/home/optee/RPi3/optee_os/lib/libutee/tee_user_mem.c:199
    42bc:	900000c0 	adrp	x0, 1c000 <mempool_u32+0xe80>
    42c0:	91334000 	add	x0, x0, #0xcd0
    42c4:	f9400401 	ldr	x1, [x0,#8]
    42c8:	f94007e0 	ldr	x0, [sp,#8]
    42cc:	8b000021 	add	x1, x1, x0
    42d0:	900000c0 	adrp	x0, 1c000 <mempool_u32+0xe80>
    42d4:	91334000 	add	x0, x0, #0xcd0
    42d8:	f9000401 	str	x1, [x0,#8]
/home/optee/RPi3/optee_os/lib/libutee/tee_user_mem.c:201
    42dc:	d503201f 	nop
    42e0:	910043ff 	add	sp, sp, #0x10
    42e4:	d65f03c0 	ret

00000000000042e8 <heap_dec>:
heap_dec():
/home/optee/RPi3/optee_os/lib/libutee/tee_user_mem.c:204
    42e8:	d10043ff 	sub	sp, sp, #0x10
    42ec:	f90007e0 	str	x0, [sp,#8]
/home/optee/RPi3/optee_os/lib/libutee/tee_user_mem.c:206
    42f0:	900000c0 	adrp	x0, 1c000 <mempool_u32+0xe80>
    42f4:	91332000 	add	x0, x0, #0xcc8
    42f8:	f9400001 	ldr	x1, [x0]
    42fc:	f94007e0 	ldr	x0, [sp,#8]
    4300:	cb000021 	sub	x1, x1, x0
    4304:	900000c0 	adrp	x0, 1c000 <mempool_u32+0xe80>
    4308:	91332000 	add	x0, x0, #0xcc8
    430c:	f9000001 	str	x1, [x0]
/home/optee/RPi3/optee_os/lib/libutee/tee_user_mem.c:208
    4310:	900000c0 	adrp	x0, 1c000 <mempool_u32+0xe80>
    4314:	91334000 	add	x0, x0, #0xcd0
    4318:	b9400000 	ldr	w0, [x0]
    431c:	51000401 	sub	w1, w0, #0x1
    4320:	900000c0 	adrp	x0, 1c000 <mempool_u32+0xe80>
    4324:	91334000 	add	x0, x0, #0xcd0
    4328:	b9000001 	str	w1, [x0]
/home/optee/RPi3/optee_os/lib/libutee/tee_user_mem.c:209
    432c:	900000c0 	adrp	x0, 1c000 <mempool_u32+0xe80>
    4330:	91334000 	add	x0, x0, #0xcd0
    4334:	f9400401 	ldr	x1, [x0,#8]
    4338:	f94007e0 	ldr	x0, [sp,#8]
    433c:	cb000021 	sub	x1, x1, x0
    4340:	900000c0 	adrp	x0, 1c000 <mempool_u32+0xe80>
    4344:	91334000 	add	x0, x0, #0xcd0
    4348:	f9000401 	str	x1, [x0,#8]
/home/optee/RPi3/optee_os/lib/libutee/tee_user_mem.c:211
    434c:	d503201f 	nop
    4350:	910043ff 	add	sp, sp, #0x10
    4354:	d65f03c0 	ret

0000000000004358 <check_elem_end>:
check_elem_end():
/home/optee/RPi3/optee_os/lib/libutee/tee_user_mem.c:217
    4358:	a9bd7bfd 	stp	x29, x30, [sp,#-48]!
    435c:	910003fd 	mov	x29, sp
    4360:	f9000fa0 	str	x0, [x29,#24]
/home/optee/RPi3/optee_os/lib/libutee/tee_user_mem.c:218
    4364:	f9400fa0 	ldr	x0, [x29,#24]
    4368:	f90017a0 	str	x0, [x29,#40]
/home/optee/RPi3/optee_os/lib/libutee/tee_user_mem.c:225
    436c:	f9400fa0 	ldr	x0, [x29,#24]
    4370:	f9400801 	ldr	x1, [x0,#16]
    4374:	d2800020 	mov	x0, #0x1                   	// #1
    4378:	cb000020 	sub	x0, x1, x0
    437c:	f94017a1 	ldr	x1, [x29,#40]
    4380:	8b000020 	add	x0, x1, x0
    4384:	39400000 	ldrb	w0, [x0]
    4388:	53001c01 	uxtb	w1, w0
/home/optee/RPi3/optee_os/lib/libutee/tee_user_mem.c:226
    438c:	f94017a0 	ldr	x0, [x29,#40]
    4390:	92401c02 	and	x2, x0, #0xff
    4394:	d28018a0 	mov	x0, #0xc5                  	// #197
    4398:	ca000040 	eor	x0, x2, x0
/home/optee/RPi3/optee_os/lib/libutee/tee_user_mem.c:225
    439c:	eb00003f 	cmp	x1, x0
    43a0:	540001a0 	b.eq	43d4 <check_elem_end+0x7c>
/home/optee/RPi3/optee_os/lib/libutee/tee_user_mem.c:227
    43a4:	b0000060 	adrp	x0, 11000 <__func__.3864+0x18>
    43a8:	9105c001 	add	x1, x0, #0x170
    43ac:	b0000060 	adrp	x0, 11000 <__func__.3864+0x18>
    43b0:	9109a000 	add	x0, x0, #0x268
    43b4:	f9400fa4 	ldr	x4, [x29,#24]
    43b8:	aa0103e3 	mov	x3, x1
    43bc:	52801c62 	mov	w2, #0xe3                  	// #227
    43c0:	aa0003e1 	mov	x1, x0
    43c4:	52800020 	mov	w0, #0x1                   	// #1
    43c8:	97ffff89 	bl	41ec <print_buf>
/home/optee/RPi3/optee_os/lib/libutee/tee_user_mem.c:228
    43cc:	52800000 	mov	w0, #0x0                   	// #0
    43d0:	14000002 	b	43d8 <check_elem_end+0x80>
/home/optee/RPi3/optee_os/lib/libutee/tee_user_mem.c:231
    43d4:	52800020 	mov	w0, #0x1                   	// #1
/home/optee/RPi3/optee_os/lib/libutee/tee_user_mem.c:232
    43d8:	a8c37bfd 	ldp	x29, x30, [sp],#48
    43dc:	d65f03c0 	ret

00000000000043e0 <check_elem>:
check_elem():
/home/optee/RPi3/optee_os/lib/libutee/tee_user_mem.c:235
    43e0:	a9bd7bfd 	stp	x29, x30, [sp,#-48]!
    43e4:	910003fd 	mov	x29, sp
    43e8:	f9000fa0 	str	x0, [x29,#24]
/home/optee/RPi3/optee_os/lib/libutee/tee_user_mem.c:239
    43ec:	f9400fa0 	ldr	x0, [x29,#24]
    43f0:	eb1f001f 	cmp	x0, xzr
    43f4:	54000061 	b.ne	4400 <check_elem+0x20>
/home/optee/RPi3/optee_os/lib/libutee/tee_user_mem.c:240
    43f8:	52800000 	mov	w0, #0x0                   	// #0
    43fc:	14000040 	b	44fc <check_elem+0x11c>
/home/optee/RPi3/optee_os/lib/libutee/tee_user_mem.c:242
    4400:	f9400fa0 	ldr	x0, [x29,#24]
    4404:	92400400 	and	x0, x0, #0x3
    4408:	eb1f001f 	cmp	x0, xzr
    440c:	54000100 	b.eq	442c <check_elem+0x4c>
/home/optee/RPi3/optee_os/lib/libutee/tee_user_mem.c:242 (discriminator 1)
    4410:	b0000060 	adrp	x0, 11000 <__func__.3864+0x18>
    4414:	91060001 	add	x1, x0, #0x180
    4418:	b0000060 	adrp	x0, 11000 <__func__.3864+0x18>
    441c:	91068000 	add	x0, x0, #0x1a0
    4420:	52801e42 	mov	w2, #0xf2                  	// #242
    4424:	9400024b 	bl	4d50 <_assert_log>
    4428:	9400025e 	bl	4da0 <_assert_break>
/home/optee/RPi3/optee_os/lib/libutee/tee_user_mem.c:244
    442c:	f9400fa0 	ldr	x0, [x29,#24]
    4430:	f9400000 	ldr	x0, [x0]
    4434:	f90017a0 	str	x0, [x29,#40]
/home/optee/RPi3/optee_os/lib/libutee/tee_user_mem.c:245
    4438:	f94017a0 	ldr	x0, [x29,#40]
    443c:	eb1f001f 	cmp	x0, xzr
    4440:	54000280 	b.eq	4490 <check_elem+0xb0>
/home/optee/RPi3/optee_os/lib/libutee/tee_user_mem.c:245 (discriminator 1)
    4444:	f94017a0 	ldr	x0, [x29,#40]
    4448:	f9400400 	ldr	x0, [x0,#8]
    444c:	f9400400 	ldr	x0, [x0,#8]
    4450:	f9400001 	ldr	x1, [x0]
    4454:	f9400fa0 	ldr	x0, [x29,#24]
    4458:	eb00003f 	cmp	x1, x0
    445c:	540001a0 	b.eq	4490 <check_elem+0xb0>
/home/optee/RPi3/optee_os/lib/libutee/tee_user_mem.c:246
    4460:	b0000060 	adrp	x0, 11000 <__func__.3864+0x18>
    4464:	91070001 	add	x1, x0, #0x1c0
    4468:	b0000060 	adrp	x0, 11000 <__func__.3864+0x18>
    446c:	9109e000 	add	x0, x0, #0x278
    4470:	f94017a4 	ldr	x4, [x29,#40]
    4474:	aa0103e3 	mov	x3, x1
    4478:	52801ec2 	mov	w2, #0xf6                  	// #246
    447c:	aa0003e1 	mov	x1, x0
    4480:	52800020 	mov	w0, #0x1                   	// #1
    4484:	97ffff5a 	bl	41ec <print_buf>
/home/optee/RPi3/optee_os/lib/libutee/tee_user_mem.c:247
    4488:	52800000 	mov	w0, #0x0                   	// #0
    448c:	1400001c 	b	44fc <check_elem+0x11c>
/home/optee/RPi3/optee_os/lib/libutee/tee_user_mem.c:250
    4490:	f9400fa0 	ldr	x0, [x29,#24]
    4494:	f9400400 	ldr	x0, [x0,#8]
    4498:	f9400400 	ldr	x0, [x0,#8]
    449c:	f9400000 	ldr	x0, [x0]
    44a0:	f90017a0 	str	x0, [x29,#40]
/home/optee/RPi3/optee_os/lib/libutee/tee_user_mem.c:251
    44a4:	f94017a0 	ldr	x0, [x29,#40]
    44a8:	eb1f001f 	cmp	x0, xzr
    44ac:	54000240 	b.eq	44f4 <check_elem+0x114>
/home/optee/RPi3/optee_os/lib/libutee/tee_user_mem.c:251 (discriminator 1)
    44b0:	f94017a0 	ldr	x0, [x29,#40]
    44b4:	f9400001 	ldr	x1, [x0]
    44b8:	f9400fa0 	ldr	x0, [x29,#24]
    44bc:	eb00003f 	cmp	x1, x0
    44c0:	540001a0 	b.eq	44f4 <check_elem+0x114>
/home/optee/RPi3/optee_os/lib/libutee/tee_user_mem.c:252
    44c4:	b0000060 	adrp	x0, 11000 <__func__.3864+0x18>
    44c8:	91070001 	add	x1, x0, #0x1c0
    44cc:	b0000060 	adrp	x0, 11000 <__func__.3864+0x18>
    44d0:	9109e000 	add	x0, x0, #0x278
    44d4:	f94017a4 	ldr	x4, [x29,#40]
    44d8:	aa0103e3 	mov	x3, x1
    44dc:	52801f82 	mov	w2, #0xfc                  	// #252
    44e0:	aa0003e1 	mov	x1, x0
    44e4:	52800020 	mov	w0, #0x1                   	// #1
    44e8:	97ffff41 	bl	41ec <print_buf>
/home/optee/RPi3/optee_os/lib/libutee/tee_user_mem.c:253
    44ec:	52800000 	mov	w0, #0x0                   	// #0
    44f0:	14000003 	b	44fc <check_elem+0x11c>
/home/optee/RPi3/optee_os/lib/libutee/tee_user_mem.c:256
    44f4:	f9400fa0 	ldr	x0, [x29,#24]
    44f8:	97ffff98 	bl	4358 <check_elem_end>
/home/optee/RPi3/optee_os/lib/libutee/tee_user_mem.c:257
    44fc:	a8c37bfd 	ldp	x29, x30, [sp],#48
    4500:	d65f03c0 	ret

0000000000004504 <is_mem_coherent>:
is_mem_coherent():
/home/optee/RPi3/optee_os/lib/libutee/tee_user_mem.c:261
    4504:	a9be7bfd 	stp	x29, x30, [sp,#-32]!
    4508:	910003fd 	mov	x29, sp
/home/optee/RPi3/optee_os/lib/libutee/tee_user_mem.c:264
    450c:	f0000060 	adrp	x0, 13000 <ta_props>
    4510:	9103e000 	add	x0, x0, #0xf8
    4514:	f9400000 	ldr	x0, [x0]
    4518:	f9000fa0 	str	x0, [x29,#24]
    451c:	1400000f 	b	4558 <is_mem_coherent+0x54>
/home/optee/RPi3/optee_os/lib/libutee/tee_user_mem.c:265
    4520:	f9400fa0 	ldr	x0, [x29,#24]
    4524:	97ffffaf 	bl	43e0 <check_elem>
    4528:	6b1f001f 	cmp	w0, wzr
    452c:	54000101 	b.ne	454c <is_mem_coherent+0x48>
/home/optee/RPi3/optee_os/lib/libutee/tee_user_mem.c:266 (discriminator 1)
    4530:	b0000060 	adrp	x0, 11000 <__func__.3864+0x18>
    4534:	91060001 	add	x1, x0, #0x180
    4538:	b0000060 	adrp	x0, 11000 <__func__.3864+0x18>
    453c:	91074000 	add	x0, x0, #0x1d0
    4540:	52802142 	mov	w2, #0x10a                 	// #266
    4544:	94000203 	bl	4d50 <_assert_log>
    4548:	94000216 	bl	4da0 <_assert_break>
/home/optee/RPi3/optee_os/lib/libutee/tee_user_mem.c:264 (discriminator 2)
    454c:	f9400fa0 	ldr	x0, [x29,#24]
    4550:	f9400000 	ldr	x0, [x0]
    4554:	f9000fa0 	str	x0, [x29,#24]
/home/optee/RPi3/optee_os/lib/libutee/tee_user_mem.c:264 (discriminator 1)
    4558:	f9400fa0 	ldr	x0, [x29,#24]
    455c:	eb1f001f 	cmp	x0, xzr
    4560:	54fffe01 	b.ne	4520 <is_mem_coherent+0x1c>
/home/optee/RPi3/optee_os/lib/libutee/tee_user_mem.c:270
    4564:	52800020 	mov	w0, #0x1                   	// #1
/home/optee/RPi3/optee_os/lib/libutee/tee_user_mem.c:271
    4568:	a8c27bfd 	ldp	x29, x30, [sp],#32
    456c:	d65f03c0 	ret

0000000000004570 <tee_user_mem_alloc>:
tee_user_mem_alloc():
/home/optee/RPi3/optee_os/lib/libutee/tee_user_mem.c:293
    4570:	a9bc7bfd 	stp	x29, x30, [sp,#-64]!
    4574:	910003fd 	mov	x29, sp
    4578:	f9000fa0 	str	x0, [x29,#24]
    457c:	b90017a1 	str	w1, [x29,#20]
/home/optee/RPi3/optee_os/lib/libutee/tee_user_mem.c:295
    4580:	f9001fbf 	str	xzr, [x29,#56]
/home/optee/RPi3/optee_os/lib/libutee/tee_user_mem.c:297
    4584:	d2800021 	mov	x1, #0x1                   	// #1
    4588:	f9400fa0 	ldr	x0, [x29,#24]
    458c:	8b000020 	add	x0, x1, x0
/home/optee/RPi3/optee_os/lib/libutee/tee_user_mem.c:296
    4590:	91008000 	add	x0, x0, #0x20
    4594:	f9001ba0 	str	x0, [x29,#48]
/home/optee/RPi3/optee_os/lib/libutee/tee_user_mem.c:302
    4598:	f9400fa0 	ldr	x0, [x29,#24]
    459c:	6b1f001f 	cmp	w0, wzr
    45a0:	5400006a 	b.ge	45ac <tee_user_mem_alloc+0x3c>
/home/optee/RPi3/optee_os/lib/libutee/tee_user_mem.c:304
    45a4:	d2800000 	mov	x0, #0x0                   	// #0
    45a8:	14000064 	b	4738 <tee_user_mem_alloc+0x1c8>
/home/optee/RPi3/optee_os/lib/libutee/tee_user_mem.c:307
    45ac:	f9400fa0 	ldr	x0, [x29,#24]
    45b0:	eb1f001f 	cmp	x0, xzr
    45b4:	540000a1 	b.ne	45c8 <tee_user_mem_alloc+0x58>
/home/optee/RPi3/optee_os/lib/libutee/tee_user_mem.c:309
    45b8:	f0000060 	adrp	x0, 13000 <ta_props>
    45bc:	9103c000 	add	x0, x0, #0xf0
    45c0:	f9400000 	ldr	x0, [x0]
    45c4:	1400005d 	b	4738 <tee_user_mem_alloc+0x1c8>
/home/optee/RPi3/optee_os/lib/libutee/tee_user_mem.c:313
    45c8:	b94017a0 	ldr	w0, [x29,#20]
    45cc:	6b1f001f 	cmp	w0, wzr
    45d0:	54000200 	b.eq	4610 <tee_user_mem_alloc+0xa0>
    45d4:	52b00001 	mov	w1, #0x80000000            	// #-2147483648
    45d8:	6b01001f 	cmp	w0, w1
    45dc:	540001a0 	b.eq	4610 <tee_user_mem_alloc+0xa0>
/home/optee/RPi3/optee_os/lib/libutee/tee_user_mem.c:318
    45e0:	b0000060 	adrp	x0, 11000 <__func__.3864+0x18>
    45e4:	91076001 	add	x1, x0, #0x1d8
    45e8:	b0000060 	adrp	x0, 11000 <__func__.3864+0x18>
    45ec:	910a2000 	add	x0, x0, #0x288
    45f0:	b94017a5 	ldr	w5, [x29,#20]
    45f4:	aa0103e4 	mov	x4, x1
    45f8:	52800023 	mov	w3, #0x1                   	// #1
    45fc:	52800022 	mov	w2, #0x1                   	// #1
    4600:	528027c1 	mov	w1, #0x13e                 	// #318
    4604:	94001442 	bl	970c <trace_printf>
/home/optee/RPi3/optee_os/lib/libutee/tee_user_mem.c:320
    4608:	d2800000 	mov	x0, #0x0                   	// #0
    460c:	1400004b 	b	4738 <tee_user_mem_alloc+0x1c8>
/home/optee/RPi3/optee_os/lib/libutee/tee_user_mem.c:316
    4610:	d503201f 	nop
/home/optee/RPi3/optee_os/lib/libutee/tee_user_mem.c:323
    4614:	f9401ba0 	ldr	x0, [x29,#48]
    4618:	97fffe9d 	bl	408c <utee_malloc>
    461c:	f90017a0 	str	x0, [x29,#40]
/home/optee/RPi3/optee_os/lib/libutee/tee_user_mem.c:324
    4620:	f94017a0 	ldr	x0, [x29,#40]
    4624:	eb1f001f 	cmp	x0, xzr
    4628:	54000860 	b.eq	4734 <tee_user_mem_alloc+0x1c4>
/home/optee/RPi3/optee_os/lib/libutee/tee_user_mem.c:325
    462c:	f94017a0 	ldr	x0, [x29,#40]
    4630:	f90013a0 	str	x0, [x29,#32]
/home/optee/RPi3/optee_os/lib/libutee/tee_user_mem.c:326
    4634:	f94013a0 	ldr	x0, [x29,#32]
    4638:	f9401ba1 	ldr	x1, [x29,#48]
    463c:	f9000801 	str	x1, [x0,#16]
/home/optee/RPi3/optee_os/lib/libutee/tee_user_mem.c:327
    4640:	f94013a0 	ldr	x0, [x29,#32]
    4644:	b94017a1 	ldr	w1, [x29,#20]
    4648:	b9001801 	str	w1, [x0,#24]
/home/optee/RPi3/optee_os/lib/libutee/tee_user_mem.c:328
    464c:	f9401ba0 	ldr	x0, [x29,#48]
    4650:	97ffff0a 	bl	4278 <heap_inc>
/home/optee/RPi3/optee_os/lib/libutee/tee_user_mem.c:331
    4654:	f94013a0 	ldr	x0, [x29,#32]
    4658:	f900001f 	str	xzr, [x0]
    465c:	f0000060 	adrp	x0, 13000 <ta_props>
    4660:	9103e000 	add	x0, x0, #0xf8
    4664:	f9400401 	ldr	x1, [x0,#8]
    4668:	f94013a0 	ldr	x0, [x29,#32]
    466c:	f9000401 	str	x1, [x0,#8]
    4670:	f0000060 	adrp	x0, 13000 <ta_props>
    4674:	9103e000 	add	x0, x0, #0xf8
    4678:	f9400400 	ldr	x0, [x0,#8]
    467c:	f94013a1 	ldr	x1, [x29,#32]
    4680:	f9000001 	str	x1, [x0]
    4684:	f94013a1 	ldr	x1, [x29,#32]
    4688:	f0000060 	adrp	x0, 13000 <ta_props>
    468c:	9103e000 	add	x0, x0, #0xf8
    4690:	f9000401 	str	x1, [x0,#8]
/home/optee/RPi3/optee_os/lib/libutee/tee_user_mem.c:335
    4694:	d2800020 	mov	x0, #0x1                   	// #1
    4698:	f9401ba1 	ldr	x1, [x29,#48]
    469c:	cb000020 	sub	x0, x1, x0
    46a0:	f94017a1 	ldr	x1, [x29,#40]
    46a4:	8b000020 	add	x0, x1, x0
    46a8:	f94017a1 	ldr	x1, [x29,#40]
    46ac:	53001c22 	uxtb	w2, w1
    46b0:	12800741 	mov	w1, #0xffffffc5            	// #-59
    46b4:	4a010041 	eor	w1, w2, w1
    46b8:	53001c21 	uxtb	w1, w1
    46bc:	39000001 	strb	w1, [x0]
/home/optee/RPi3/optee_os/lib/libutee/tee_user_mem.c:339
    46c0:	b0000060 	adrp	x0, 11000 <__func__.3864+0x18>
    46c4:	9107e001 	add	x1, x0, #0x1f8
    46c8:	b0000060 	adrp	x0, 11000 <__func__.3864+0x18>
    46cc:	910a2000 	add	x0, x0, #0x288
    46d0:	f94013a4 	ldr	x4, [x29,#32]
    46d4:	aa0103e3 	mov	x3, x1
    46d8:	52802a62 	mov	w2, #0x153                 	// #339
    46dc:	aa0003e1 	mov	x1, x0
    46e0:	52800060 	mov	w0, #0x3                   	// #3
    46e4:	97fffec2 	bl	41ec <print_buf>
/home/optee/RPi3/optee_os/lib/libutee/tee_user_mem.c:341
    46e8:	f94013a0 	ldr	x0, [x29,#32]
    46ec:	97fffe92 	bl	4134 <buf_addr>
    46f0:	f9001fa0 	str	x0, [x29,#56]
/home/optee/RPi3/optee_os/lib/libutee/tee_user_mem.c:343
    46f4:	b94017a0 	ldr	w0, [x29,#20]
    46f8:	6b1f001f 	cmp	w0, wzr
    46fc:	540000c1 	b.ne	4714 <tee_user_mem_alloc+0x1a4>
/home/optee/RPi3/optee_os/lib/libutee/tee_user_mem.c:344
    4700:	f9400fa2 	ldr	x2, [x29,#24]
    4704:	52800001 	mov	w1, #0x0                   	// #0
    4708:	f9401fa0 	ldr	x0, [x29,#56]
    470c:	94000a8c 	bl	713c <memset>
    4710:	14000009 	b	4734 <tee_user_mem_alloc+0x1c4>
/home/optee/RPi3/optee_os/lib/libutee/tee_user_mem.c:346
    4714:	b94017a1 	ldr	w1, [x29,#20]
    4718:	52b00000 	mov	w0, #0x80000000            	// #-2147483648
    471c:	6b00003f 	cmp	w1, w0
    4720:	540000a1 	b.ne	4734 <tee_user_mem_alloc+0x1c4>
/home/optee/RPi3/optee_os/lib/libutee/tee_user_mem.c:348
    4724:	f9400fa2 	ldr	x2, [x29,#24]
    4728:	52801761 	mov	w1, #0xbb                  	// #187
    472c:	f9401fa0 	ldr	x0, [x29,#56]
    4730:	94000a83 	bl	713c <memset>
/home/optee/RPi3/optee_os/lib/libutee/tee_user_mem.c:353
    4734:	f9401fa0 	ldr	x0, [x29,#56]
/home/optee/RPi3/optee_os/lib/libutee/tee_user_mem.c:354
    4738:	a8c47bfd 	ldp	x29, x30, [sp],#64
    473c:	d65f03c0 	ret

0000000000004740 <tee_user_mem_realloc>:
tee_user_mem_realloc():
/home/optee/RPi3/optee_os/lib/libutee/tee_user_mem.c:363
    4740:	a9bb7bfd 	stp	x29, x30, [sp,#-80]!
    4744:	910003fd 	mov	x29, sp
    4748:	f9000fa0 	str	x0, [x29,#24]
    474c:	f9000ba1 	str	x1, [x29,#16]
/home/optee/RPi3/optee_os/lib/libutee/tee_user_mem.c:370
    4750:	f9400ba0 	ldr	x0, [x29,#16]
    4754:	6b1f001f 	cmp	w0, wzr
    4758:	5400006a 	b.ge	4764 <tee_user_mem_realloc+0x24>
/home/optee/RPi3/optee_os/lib/libutee/tee_user_mem.c:372
    475c:	d2800000 	mov	x0, #0x0                   	// #0
    4760:	1400003a 	b	4848 <tee_user_mem_realloc+0x108>
/home/optee/RPi3/optee_os/lib/libutee/tee_user_mem.c:380
    4764:	f9400fa0 	ldr	x0, [x29,#24]
    4768:	eb1f001f 	cmp	x0, xzr
    476c:	54000160 	b.eq	4798 <tee_user_mem_realloc+0x58>
/home/optee/RPi3/optee_os/lib/libutee/tee_user_mem.c:380 (discriminator 1)
    4770:	f0000060 	adrp	x0, 13000 <ta_props>
    4774:	9103c000 	add	x0, x0, #0xf0
    4778:	f9400000 	ldr	x0, [x0]
    477c:	f9400fa1 	ldr	x1, [x29,#24]
    4780:	eb00003f 	cmp	x1, x0
    4784:	540000a0 	b.eq	4798 <tee_user_mem_realloc+0x58>
/home/optee/RPi3/optee_os/lib/libutee/tee_user_mem.c:380 (discriminator 2)
    4788:	f9400fa0 	ldr	x0, [x29,#24]
    478c:	97fffe7f 	bl	4188 <is_buffer_valid>
    4790:	6b1f001f 	cmp	w0, wzr
    4794:	54000101 	b.ne	47b4 <tee_user_mem_realloc+0x74>
/home/optee/RPi3/optee_os/lib/libutee/tee_user_mem.c:381
    4798:	52800000 	mov	w0, #0x0                   	// #0
    479c:	2a0003e1 	mov	w1, w0
    47a0:	f9400ba0 	ldr	x0, [x29,#16]
    47a4:	97ffff73 	bl	4570 <tee_user_mem_alloc>
    47a8:	f9001fa0 	str	x0, [x29,#56]
/home/optee/RPi3/optee_os/lib/libutee/tee_user_mem.c:383
    47ac:	f9401fa0 	ldr	x0, [x29,#56]
    47b0:	14000026 	b	4848 <tee_user_mem_realloc+0x108>
/home/optee/RPi3/optee_os/lib/libutee/tee_user_mem.c:390
    47b4:	f9400fa0 	ldr	x0, [x29,#24]
    47b8:	97fffe6e 	bl	4170 <elem_addr>
    47bc:	f90027a0 	str	x0, [x29,#72]
/home/optee/RPi3/optee_os/lib/libutee/tee_user_mem.c:391
    47c0:	f94027a0 	ldr	x0, [x29,#72]
    47c4:	97fffe62 	bl	414c <buf_size>
    47c8:	f90023a0 	str	x0, [x29,#64]
/home/optee/RPi3/optee_os/lib/libutee/tee_user_mem.c:392
    47cc:	f9400ba1 	ldr	x1, [x29,#16]
    47d0:	f94023a0 	ldr	x0, [x29,#64]
    47d4:	eb00003f 	cmp	x1, x0
    47d8:	54000061 	b.ne	47e4 <tee_user_mem_realloc+0xa4>
/home/optee/RPi3/optee_os/lib/libutee/tee_user_mem.c:394
    47dc:	f9400fa0 	ldr	x0, [x29,#24]
    47e0:	1400001a 	b	4848 <tee_user_mem_realloc+0x108>
/home/optee/RPi3/optee_os/lib/libutee/tee_user_mem.c:402
    47e4:	f94027a0 	ldr	x0, [x29,#72]
    47e8:	b9401800 	ldr	w0, [x0,#24]
    47ec:	2a0003e1 	mov	w1, w0
    47f0:	f9400ba0 	ldr	x0, [x29,#16]
    47f4:	97ffff5f 	bl	4570 <tee_user_mem_alloc>
    47f8:	f9001fa0 	str	x0, [x29,#56]
/home/optee/RPi3/optee_os/lib/libutee/tee_user_mem.c:403
    47fc:	f9401fa0 	ldr	x0, [x29,#56]
    4800:	eb1f001f 	cmp	x0, xzr
    4804:	54000200 	b.eq	4844 <tee_user_mem_realloc+0x104>
/home/optee/RPi3/optee_os/lib/libutee/tee_user_mem.c:404
    4808:	f9400ba0 	ldr	x0, [x29,#16]
    480c:	f9001ba0 	str	x0, [x29,#48]
    4810:	f94023a0 	ldr	x0, [x29,#64]
    4814:	f90017a0 	str	x0, [x29,#40]
    4818:	f9401ba0 	ldr	x0, [x29,#48]
    481c:	f94017a2 	ldr	x2, [x29,#40]
    4820:	f94017a1 	ldr	x1, [x29,#40]
    4824:	eb00005f 	cmp	x2, x0
    4828:	9a809020 	csel	x0, x1, x0, ls
    482c:	aa0003e2 	mov	x2, x0
    4830:	f9400fa1 	ldr	x1, [x29,#24]
    4834:	f9401fa0 	ldr	x0, [x29,#56]
    4838:	9400095e 	bl	6db0 <memcpy>
/home/optee/RPi3/optee_os/lib/libutee/tee_user_mem.c:407
    483c:	f9400fa0 	ldr	x0, [x29,#24]
    4840:	94000004 	bl	4850 <tee_user_mem_free>
/home/optee/RPi3/optee_os/lib/libutee/tee_user_mem.c:411
    4844:	f9401fa0 	ldr	x0, [x29,#56]
/home/optee/RPi3/optee_os/lib/libutee/tee_user_mem.c:412
    4848:	a8c57bfd 	ldp	x29, x30, [sp],#80
    484c:	d65f03c0 	ret

0000000000004850 <tee_user_mem_free>:
tee_user_mem_free():
/home/optee/RPi3/optee_os/lib/libutee/tee_user_mem.c:419
    4850:	a9bd7bfd 	stp	x29, x30, [sp,#-48]!
    4854:	910003fd 	mov	x29, sp
    4858:	f9000fa0 	str	x0, [x29,#24]
/home/optee/RPi3/optee_os/lib/libutee/tee_user_mem.c:426
    485c:	f9400fa0 	ldr	x0, [x29,#24]
    4860:	eb1f001f 	cmp	x0, xzr
    4864:	54000a00 	b.eq	49a4 <tee_user_mem_free+0x154>
/home/optee/RPi3/optee_os/lib/libutee/tee_user_mem.c:426 (discriminator 1)
    4868:	f0000060 	adrp	x0, 13000 <ta_props>
    486c:	9103c000 	add	x0, x0, #0xf0
    4870:	f9400000 	ldr	x0, [x0]
    4874:	f9400fa1 	ldr	x1, [x29,#24]
    4878:	eb00003f 	cmp	x1, x0
    487c:	54000940 	b.eq	49a4 <tee_user_mem_free+0x154>
/home/optee/RPi3/optee_os/lib/libutee/tee_user_mem.c:430
    4880:	f9400fa0 	ldr	x0, [x29,#24]
    4884:	97fffe41 	bl	4188 <is_buffer_valid>
    4888:	6b1f001f 	cmp	w0, wzr
    488c:	54000181 	b.ne	48bc <tee_user_mem_free+0x6c>
/home/optee/RPi3/optee_os/lib/libutee/tee_user_mem.c:431
    4890:	b0000060 	adrp	x0, 11000 <__func__.3864+0x18>
    4894:	91082001 	add	x1, x0, #0x208
    4898:	b0000060 	adrp	x0, 11000 <__func__.3864+0x18>
    489c:	910a8000 	add	x0, x0, #0x2a0
    48a0:	f9400fa5 	ldr	x5, [x29,#24]
    48a4:	aa0103e4 	mov	x4, x1
    48a8:	52800023 	mov	w3, #0x1                   	// #1
    48ac:	52800022 	mov	w2, #0x1                   	// #1
    48b0:	528035e1 	mov	w1, #0x1af                 	// #431
    48b4:	94001396 	bl	970c <trace_printf>
/home/optee/RPi3/optee_os/lib/libutee/tee_user_mem.c:432
    48b8:	1400003c 	b	49a8 <tee_user_mem_free+0x158>
/home/optee/RPi3/optee_os/lib/libutee/tee_user_mem.c:435
    48bc:	f9400fa0 	ldr	x0, [x29,#24]
    48c0:	97fffe2c 	bl	4170 <elem_addr>
    48c4:	f90017a0 	str	x0, [x29,#40]
/home/optee/RPi3/optee_os/lib/libutee/tee_user_mem.c:436
    48c8:	f94017a0 	ldr	x0, [x29,#40]
    48cc:	f90013a0 	str	x0, [x29,#32]
/home/optee/RPi3/optee_os/lib/libutee/tee_user_mem.c:438
    48d0:	b0000060 	adrp	x0, 11000 <__func__.3864+0x18>
    48d4:	9108a001 	add	x1, x0, #0x228
    48d8:	b0000060 	adrp	x0, 11000 <__func__.3864+0x18>
    48dc:	910a8000 	add	x0, x0, #0x2a0
    48e0:	f94013a4 	ldr	x4, [x29,#32]
    48e4:	aa0103e3 	mov	x3, x1
    48e8:	528036c2 	mov	w2, #0x1b6                 	// #438
    48ec:	aa0003e1 	mov	x1, x0
    48f0:	52800060 	mov	w0, #0x3                   	// #3
    48f4:	97fffe3e 	bl	41ec <print_buf>
/home/optee/RPi3/optee_os/lib/libutee/tee_user_mem.c:441
    48f8:	f94013a0 	ldr	x0, [x29,#32]
    48fc:	97fffeb9 	bl	43e0 <check_elem>
    4900:	6b1f001f 	cmp	w0, wzr
    4904:	54000101 	b.ne	4924 <tee_user_mem_free+0xd4>
/home/optee/RPi3/optee_os/lib/libutee/tee_user_mem.c:441 (discriminator 1)
    4908:	b0000060 	adrp	x0, 11000 <__func__.3864+0x18>
    490c:	91060001 	add	x1, x0, #0x180
    4910:	b0000060 	adrp	x0, 11000 <__func__.3864+0x18>
    4914:	9108c000 	add	x0, x0, #0x230
    4918:	52803722 	mov	w2, #0x1b9                 	// #441
    491c:	9400010d 	bl	4d50 <_assert_log>
    4920:	94000120 	bl	4da0 <_assert_break>
/home/optee/RPi3/optee_os/lib/libutee/tee_user_mem.c:444
    4924:	f94013a0 	ldr	x0, [x29,#32]
    4928:	f9400000 	ldr	x0, [x0]
    492c:	eb1f001f 	cmp	x0, xzr
    4930:	540000e0 	b.eq	494c <tee_user_mem_free+0xfc>
/home/optee/RPi3/optee_os/lib/libutee/tee_user_mem.c:444 (discriminator 1)
    4934:	f94013a0 	ldr	x0, [x29,#32]
    4938:	f9400000 	ldr	x0, [x0]
    493c:	f94013a1 	ldr	x1, [x29,#32]
    4940:	f9400421 	ldr	x1, [x1,#8]
    4944:	f9000401 	str	x1, [x0,#8]
    4948:	14000006 	b	4960 <tee_user_mem_free+0x110>
/home/optee/RPi3/optee_os/lib/libutee/tee_user_mem.c:444 (discriminator 2)
    494c:	f94013a0 	ldr	x0, [x29,#32]
    4950:	f9400401 	ldr	x1, [x0,#8]
    4954:	f0000060 	adrp	x0, 13000 <ta_props>
    4958:	9103e000 	add	x0, x0, #0xf8
    495c:	f9000401 	str	x1, [x0,#8]
/home/optee/RPi3/optee_os/lib/libutee/tee_user_mem.c:444 (discriminator 4)
    4960:	f94013a0 	ldr	x0, [x29,#32]
    4964:	f9400400 	ldr	x0, [x0,#8]
    4968:	f94013a1 	ldr	x1, [x29,#32]
    496c:	f9400021 	ldr	x1, [x1]
    4970:	f9000001 	str	x1, [x0]
/home/optee/RPi3/optee_os/lib/libutee/tee_user_mem.c:446 (discriminator 4)
    4974:	f94013a0 	ldr	x0, [x29,#32]
    4978:	f9400800 	ldr	x0, [x0,#16]
    497c:	97fffe5b 	bl	42e8 <heap_dec>
/home/optee/RPi3/optee_os/lib/libutee/tee_user_mem.c:455 (discriminator 4)
    4980:	f94013a0 	ldr	x0, [x29,#32]
    4984:	f9400800 	ldr	x0, [x0,#16]
    4988:	aa0003e2 	mov	x2, x0
    498c:	52801541 	mov	w1, #0xaa                  	// #170
    4990:	f94017a0 	ldr	x0, [x29,#40]
    4994:	940009ea 	bl	713c <memset>
/home/optee/RPi3/optee_os/lib/libutee/tee_user_mem.c:458 (discriminator 4)
    4998:	f94017a0 	ldr	x0, [x29,#40]
    499c:	97fffdd5 	bl	40f0 <utee_free>
    49a0:	14000002 	b	49a8 <tee_user_mem_free+0x158>
/home/optee/RPi3/optee_os/lib/libutee/tee_user_mem.c:427
    49a4:	d503201f 	nop
/home/optee/RPi3/optee_os/lib/libutee/tee_user_mem.c:461
    49a8:	a8c37bfd 	ldp	x29, x30, [sp],#48
    49ac:	d65f03c0 	ret

00000000000049b0 <tee_user_mem_mark_heap>:
tee_user_mem_mark_heap():
/home/optee/RPi3/optee_os/lib/libutee/tee_user_mem.c:471
    49b0:	900000c0 	adrp	x0, 1c000 <mempool_u32+0xe80>
    49b4:	91332000 	add	x0, x0, #0xcc8
    49b8:	f900001f 	str	xzr, [x0]
/home/optee/RPi3/optee_os/lib/libutee/tee_user_mem.c:473
    49bc:	d503201f 	nop
    49c0:	d65f03c0 	ret

00000000000049c4 <tee_user_mem_check_heap>:
tee_user_mem_check_heap():
/home/optee/RPi3/optee_os/lib/libutee/tee_user_mem.c:481
    49c4:	a9be7bfd 	stp	x29, x30, [sp,#-32]!
    49c8:	910003fd 	mov	x29, sp
/home/optee/RPi3/optee_os/lib/libutee/tee_user_mem.c:482
    49cc:	b9001fbf 	str	wzr, [x29,#28]
/home/optee/RPi3/optee_os/lib/libutee/tee_user_mem.c:485
    49d0:	900000c0 	adrp	x0, 1c000 <mempool_u32+0xe80>
    49d4:	91332000 	add	x0, x0, #0xcc8
    49d8:	f9400000 	ldr	x0, [x0]
    49dc:	eb1f001f 	cmp	x0, xzr
    49e0:	54000240 	b.eq	4a28 <tee_user_mem_check_heap+0x64>
/home/optee/RPi3/optee_os/lib/libutee/tee_user_mem.c:486
    49e4:	900000c0 	adrp	x0, 1c000 <mempool_u32+0xe80>
    49e8:	91332000 	add	x0, x0, #0xcc8
    49ec:	f9400002 	ldr	x2, [x0]
    49f0:	b0000060 	adrp	x0, 11000 <__func__.3864+0x18>
    49f4:	91090001 	add	x1, x0, #0x240
    49f8:	b0000060 	adrp	x0, 11000 <__func__.3864+0x18>
    49fc:	910ae000 	add	x0, x0, #0x2b8
    4a00:	aa0203e5 	mov	x5, x2
    4a04:	aa0103e4 	mov	x4, x1
    4a08:	52800023 	mov	w3, #0x1                   	// #1
    4a0c:	52800022 	mov	w2, #0x1                   	// #1
    4a10:	52803cc1 	mov	w1, #0x1e6                 	// #486
    4a14:	9400133e 	bl	970c <trace_printf>
/home/optee/RPi3/optee_os/lib/libutee/tee_user_mem.c:488
    4a18:	900000c0 	adrp	x0, 1c000 <mempool_u32+0xe80>
    4a1c:	91332000 	add	x0, x0, #0xcc8
    4a20:	f9400000 	ldr	x0, [x0]
    4a24:	14000007 	b	4a40 <tee_user_mem_check_heap+0x7c>
/home/optee/RPi3/optee_os/lib/libutee/tee_user_mem.c:491
    4a28:	97fffeb7 	bl	4504 <is_mem_coherent>
    4a2c:	6b1f001f 	cmp	w0, wzr
    4a30:	1a9f17e0 	cset	w0, eq
    4a34:	53001c00 	uxtb	w0, w0
    4a38:	b9001fa0 	str	w0, [x29,#28]
/home/optee/RPi3/optee_os/lib/libutee/tee_user_mem.c:494
    4a3c:	b9801fa0 	ldrsw	x0, [x29,#28]
/home/optee/RPi3/optee_os/lib/libutee/tee_user_mem.c:495
    4a40:	a8c27bfd 	ldp	x29, x30, [sp],#32
    4a44:	d65f03c0 	ret

0000000000004a48 <tee_user_mem_status>:
tee_user_mem_status():
/home/optee/RPi3/optee_os/lib/libutee/tee_user_mem.c:501
    4a48:	a9bd7bfd 	stp	x29, x30, [sp,#-48]!
    4a4c:	910003fd 	mov	x29, sp
    4a50:	f9000fa0 	str	x0, [x29,#24]
/home/optee/RPi3/optee_os/lib/libutee/tee_user_mem.c:503
    4a54:	f9400fa0 	ldr	x0, [x29,#24]
    4a58:	eb1f001f 	cmp	x0, xzr
    4a5c:	540000e0 	b.eq	4a78 <tee_user_mem_status+0x30>
/home/optee/RPi3/optee_os/lib/libutee/tee_user_mem.c:504
    4a60:	900000c0 	adrp	x0, 1c000 <mempool_u32+0xe80>
    4a64:	91334000 	add	x0, x0, #0xcd0
    4a68:	d2800202 	mov	x2, #0x10                  	// #16
    4a6c:	aa0003e1 	mov	x1, x0
    4a70:	f9400fa0 	ldr	x0, [x29,#24]
    4a74:	940008cf 	bl	6db0 <memcpy>
/home/optee/RPi3/optee_os/lib/libutee/tee_user_mem.c:511
    4a78:	f0000060 	adrp	x0, 13000 <ta_props>
    4a7c:	9103e000 	add	x0, x0, #0xf8
    4a80:	f9400000 	ldr	x0, [x0]
    4a84:	f90017a0 	str	x0, [x29,#40]
    4a88:	1400000e 	b	4ac0 <tee_user_mem_status+0x78>
/home/optee/RPi3/optee_os/lib/libutee/tee_user_mem.c:512 (discriminator 3)
    4a8c:	b0000060 	adrp	x0, 11000 <__func__.3864+0x18>
    4a90:	91098001 	add	x1, x0, #0x260
    4a94:	b0000060 	adrp	x0, 11000 <__func__.3864+0x18>
    4a98:	910b4000 	add	x0, x0, #0x2d0
    4a9c:	f94017a4 	ldr	x4, [x29,#40]
    4aa0:	aa0103e3 	mov	x3, x1
    4aa4:	52804002 	mov	w2, #0x200                 	// #512
    4aa8:	aa0003e1 	mov	x1, x0
    4aac:	52800020 	mov	w0, #0x1                   	// #1
    4ab0:	97fffdcf 	bl	41ec <print_buf>
/home/optee/RPi3/optee_os/lib/libutee/tee_user_mem.c:511 (discriminator 3)
    4ab4:	f94017a0 	ldr	x0, [x29,#40]
    4ab8:	f9400000 	ldr	x0, [x0]
    4abc:	f90017a0 	str	x0, [x29,#40]
/home/optee/RPi3/optee_os/lib/libutee/tee_user_mem.c:511 (discriminator 1)
    4ac0:	f94017a0 	ldr	x0, [x29,#40]
    4ac4:	eb1f001f 	cmp	x0, xzr
    4ac8:	54fffe21 	b.ne	4a8c <tee_user_mem_status+0x44>
/home/optee/RPi3/optee_os/lib/libutee/tee_user_mem.c:514
    4acc:	d503201f 	nop
    4ad0:	a8c37bfd 	ldp	x29, x30, [sp],#48
    4ad4:	d65f03c0 	ret

0000000000004ad8 <tee_user_mem_garbage>:
tee_user_mem_garbage():
/home/optee/RPi3/optee_os/lib/libutee/tee_user_mem.c:530
    4ad8:	a9bf7bfd 	stp	x29, x30, [sp,#-16]!
    4adc:	910003fd 	mov	x29, sp
/home/optee/RPi3/optee_os/lib/libutee/tee_user_mem.c:532
    4ae0:	d2800000 	mov	x0, #0x0                   	// #0
    4ae4:	97ffffd9 	bl	4a48 <tee_user_mem_status>
/home/optee/RPi3/optee_os/lib/libutee/tee_user_mem.c:535
    4ae8:	14000006 	b	4b00 <tee_user_mem_garbage+0x28>
/home/optee/RPi3/optee_os/lib/libutee/tee_user_mem.c:536
    4aec:	f0000060 	adrp	x0, 13000 <ta_props>
    4af0:	9103e000 	add	x0, x0, #0xf8
    4af4:	f9400000 	ldr	x0, [x0]
    4af8:	97fffd8f 	bl	4134 <buf_addr>
    4afc:	97ffff55 	bl	4850 <tee_user_mem_free>
/home/optee/RPi3/optee_os/lib/libutee/tee_user_mem.c:535
    4b00:	f0000060 	adrp	x0, 13000 <ta_props>
    4b04:	9103e000 	add	x0, x0, #0xf8
    4b08:	f9400000 	ldr	x0, [x0]
    4b0c:	eb1f001f 	cmp	x0, xzr
    4b10:	54fffee1 	b.ne	4aec <tee_user_mem_garbage+0x14>
/home/optee/RPi3/optee_os/lib/libutee/tee_user_mem.c:537
    4b14:	d503201f 	nop
    4b18:	a8c17bfd 	ldp	x29, x30, [sp],#16
    4b1c:	d65f03c0 	ret

0000000000004b20 <trace_ext_puts>:
trace_ext_puts():
/home/optee/RPi3/optee_os/lib/libutee/trace_ext.c:39
    4b20:	a9be7bfd 	stp	x29, x30, [sp,#-32]!
    4b24:	910003fd 	mov	x29, sp
    4b28:	f9000fa0 	str	x0, [x29,#24]
/home/optee/RPi3/optee_os/lib/libutee/trace_ext.c:40
    4b2c:	f9400fa0 	ldr	x0, [x29,#24]
    4b30:	940009f6 	bl	7308 <strlen>
    4b34:	aa0003e1 	mov	x1, x0
    4b38:	f9400fa0 	ldr	x0, [x29,#24]
    4b3c:	94002eaa 	bl	105e4 <utee_log>
/home/optee/RPi3/optee_os/lib/libutee/trace_ext.c:41
    4b40:	d503201f 	nop
    4b44:	a8c27bfd 	ldp	x29, x30, [sp],#32
    4b48:	d65f03c0 	ret

0000000000004b4c <trace_ext_get_thread_id>:
trace_ext_get_thread_id():
/home/optee/RPi3/optee_os/lib/libutee/trace_ext.c:45
    4b4c:	12800000 	mov	w0, #0xffffffff            	// #-1
/home/optee/RPi3/optee_os/lib/libutee/trace_ext.c:46
    4b50:	d65f03c0 	ret

0000000000004b54 <printf>:
printf():
/home/optee/RPi3/optee_os/lib/libutee/trace_ext.c:56
    4b54:	d10883ff 	sub	sp, sp, #0x220
    4b58:	a9be7bfd 	stp	x29, x30, [sp,#-32]!
    4b5c:	910003fd 	mov	x29, sp
    4b60:	f9000bf3 	str	x19, [sp,#16]
    4b64:	f90027a0 	str	x0, [x29,#72]
    4b68:	f90107a1 	str	x1, [x29,#520]
    4b6c:	f9010ba2 	str	x2, [x29,#528]
    4b70:	f9010fa3 	str	x3, [x29,#536]
    4b74:	f90113a4 	str	x4, [x29,#544]
    4b78:	f90117a5 	str	x5, [x29,#552]
    4b7c:	f9011ba6 	str	x6, [x29,#560]
    4b80:	f9011fa7 	str	x7, [x29,#568]
    4b84:	910603a0 	add	x0, x29, #0x180
    4b88:	3d800000 	str	q0, [x0]
    4b8c:	910643a0 	add	x0, x29, #0x190
    4b90:	3d800001 	str	q1, [x0]
    4b94:	910683a0 	add	x0, x29, #0x1a0
    4b98:	3d800002 	str	q2, [x0]
    4b9c:	9106c3a0 	add	x0, x29, #0x1b0
    4ba0:	3d800003 	str	q3, [x0]
    4ba4:	910703a0 	add	x0, x29, #0x1c0
    4ba8:	3d800004 	str	q4, [x0]
    4bac:	910743a0 	add	x0, x29, #0x1d0
    4bb0:	3d800005 	str	q5, [x0]
    4bb4:	910783a0 	add	x0, x29, #0x1e0
    4bb8:	3d800006 	str	q6, [x0]
    4bbc:	9107c3a0 	add	x0, x29, #0x1f0
    4bc0:	3d800007 	str	q7, [x0]
/home/optee/RPi3/optee_os/lib/libutee/trace_ext.c:64
    4bc4:	940012b1 	bl	9688 <trace_get_level>
    4bc8:	6b1f001f 	cmp	w0, wzr
    4bcc:	5400006c 	b.gt	4bd8 <printf+0x84>
/home/optee/RPi3/optee_os/lib/libutee/trace_ext.c:65
    4bd0:	52800000 	mov	w0, #0x0                   	// #0
    4bd4:	14000050 	b	4d14 <printf+0x1c0>
/home/optee/RPi3/optee_os/lib/libutee/trace_ext.c:67
    4bd8:	b0000060 	adrp	x0, 11000 <__func__.3864+0x18>
    4bdc:	910ba001 	add	x1, x0, #0x2e8
    4be0:	9101e3a0 	add	x0, x29, #0x78
    4be4:	d2802002 	mov	x2, #0x100                 	// #256
    4be8:	94001266 	bl	9580 <strlcpy>
    4bec:	b9017fa0 	str	w0, [x29,#380]
/home/optee/RPi3/optee_os/lib/libutee/trace_ext.c:68
    4bf0:	b9417fa0 	ldr	w0, [x29,#380]
    4bf4:	7103fc1f 	cmp	w0, #0xff
    4bf8:	540000c9 	b.ls	4c10 <printf+0xbc>
/home/optee/RPi3/optee_os/lib/libutee/trace_ext.c:69
    4bfc:	b0000060 	adrp	x0, 11000 <__func__.3864+0x18>
    4c00:	910be000 	add	x0, x0, #0x2f8
    4c04:	94000048 	bl	4d24 <puts>
/home/optee/RPi3/optee_os/lib/libutee/trace_ext.c:70
    4c08:	52800000 	mov	w0, #0x0                   	// #0
    4c0c:	14000042 	b	4d14 <printf+0x1c0>
/home/optee/RPi3/optee_os/lib/libutee/trace_ext.c:73
    4c10:	910903a0 	add	x0, x29, #0x240
    4c14:	f9002fa0 	str	x0, [x29,#88]
    4c18:	910903a0 	add	x0, x29, #0x240
    4c1c:	f90033a0 	str	x0, [x29,#96]
    4c20:	910803a0 	add	x0, x29, #0x200
    4c24:	f90037a0 	str	x0, [x29,#104]
    4c28:	128006e0 	mov	w0, #0xffffffc8            	// #-56
    4c2c:	b90073a0 	str	w0, [x29,#112]
    4c30:	12800fe0 	mov	w0, #0xffffff80            	// #-128
    4c34:	b90077a0 	str	w0, [x29,#116]
/home/optee/RPi3/optee_os/lib/libutee/trace_ext.c:74
    4c38:	b9817fa0 	ldrsw	x0, [x29,#380]
    4c3c:	9101e3a1 	add	x1, x29, #0x78
    4c40:	8b000024 	add	x4, x1, x0
    4c44:	b9817fa0 	ldrsw	x0, [x29,#380]
    4c48:	d2802001 	mov	x1, #0x100                 	// #256
    4c4c:	cb000021 	sub	x1, x1, x0
    4c50:	f9402fa0 	ldr	x0, [x29,#88]
    4c54:	f90013a0 	str	x0, [x29,#32]
    4c58:	f94033a0 	ldr	x0, [x29,#96]
    4c5c:	f90017a0 	str	x0, [x29,#40]
    4c60:	f94037a0 	ldr	x0, [x29,#104]
    4c64:	f9001ba0 	str	x0, [x29,#48]
    4c68:	f9403ba0 	ldr	x0, [x29,#112]
    4c6c:	f9001fa0 	str	x0, [x29,#56]
    4c70:	910083a0 	add	x0, x29, #0x20
    4c74:	aa0003e3 	mov	x3, x0
    4c78:	f94027a2 	ldr	x2, [x29,#72]
    4c7c:	aa0403e0 	mov	x0, x4
    4c80:	940007e9 	bl	6c24 <vsnprintf>
    4c84:	b9017fa0 	str	w0, [x29,#380]
/home/optee/RPi3/optee_os/lib/libutee/trace_ext.c:77
    4c88:	b9417fa0 	ldr	w0, [x29,#380]
    4c8c:	6b1f001f 	cmp	w0, wzr
    4c90:	540000ca 	b.ge	4ca8 <printf+0x154>
/home/optee/RPi3/optee_os/lib/libutee/trace_ext.c:78
    4c94:	b0000060 	adrp	x0, 11000 <__func__.3864+0x18>
    4c98:	910be000 	add	x0, x0, #0x2f8
    4c9c:	94000022 	bl	4d24 <puts>
/home/optee/RPi3/optee_os/lib/libutee/trace_ext.c:79
    4ca0:	b9417fa0 	ldr	w0, [x29,#380]
    4ca4:	1400001c 	b	4d14 <printf+0x1c0>
/home/optee/RPi3/optee_os/lib/libutee/trace_ext.c:81
    4ca8:	b9417fa0 	ldr	w0, [x29,#380]
    4cac:	2a0003f3 	mov	w19, w0
    4cb0:	b0000060 	adrp	x0, 11000 <__func__.3864+0x18>
    4cb4:	910ba000 	add	x0, x0, #0x2e8
    4cb8:	94000994 	bl	7308 <strlen>
    4cbc:	aa0003e1 	mov	x1, x0
    4cc0:	d2802000 	mov	x0, #0x100                 	// #256
    4cc4:	cb010000 	sub	x0, x0, x1
    4cc8:	eb00027f 	cmp	x19, x0
    4ccc:	540001e3 	b.cc	4d08 <printf+0x1b4>
/home/optee/RPi3/optee_os/lib/libutee/trace_ext.c:82
    4cd0:	b0000060 	adrp	x0, 11000 <__func__.3864+0x18>
    4cd4:	910c4000 	add	x0, x0, #0x310
    4cd8:	39400001 	ldrb	w1, [x0]
    4cdc:	3905cfa1 	strb	w1, [x29,#371]
    4ce0:	39400401 	ldrb	w1, [x0,#1]
    4ce4:	3905d3a1 	strb	w1, [x29,#372]
    4ce8:	39400801 	ldrb	w1, [x0,#2]
    4cec:	3905d7a1 	strb	w1, [x29,#373]
    4cf0:	39400c01 	ldrb	w1, [x0,#3]
    4cf4:	3905dba1 	strb	w1, [x29,#374]
    4cf8:	39401000 	ldrb	w0, [x0,#4]
    4cfc:	3905dfa0 	strb	w0, [x29,#375]
/home/optee/RPi3/optee_os/lib/libutee/trace_ext.c:84
    4d00:	52801e20 	mov	w0, #0xf1                  	// #241
    4d04:	b9017fa0 	str	w0, [x29,#380]
/home/optee/RPi3/optee_os/lib/libutee/trace_ext.c:87
    4d08:	9101e3a0 	add	x0, x29, #0x78
    4d0c:	94000006 	bl	4d24 <puts>
/home/optee/RPi3/optee_os/lib/libutee/trace_ext.c:89
    4d10:	b9417fa0 	ldr	w0, [x29,#380]
/home/optee/RPi3/optee_os/lib/libutee/trace_ext.c:90 (discriminator 1)
    4d14:	f9400bf3 	ldr	x19, [sp,#16]
    4d18:	a8c27bfd 	ldp	x29, x30, [sp],#32
    4d1c:	910883ff 	add	sp, sp, #0x220
    4d20:	d65f03c0 	ret

0000000000004d24 <puts>:
puts():
/home/optee/RPi3/optee_os/lib/libutee/trace_ext.c:93
    4d24:	a9be7bfd 	stp	x29, x30, [sp,#-32]!
    4d28:	910003fd 	mov	x29, sp
    4d2c:	f9000fa0 	str	x0, [x29,#24]
/home/optee/RPi3/optee_os/lib/libutee/trace_ext.c:94
    4d30:	94001256 	bl	9688 <trace_get_level>
    4d34:	6b1f001f 	cmp	w0, wzr
    4d38:	5400006d 	b.le	4d44 <puts+0x20>
/home/optee/RPi3/optee_os/lib/libutee/trace_ext.c:95
    4d3c:	f9400fa0 	ldr	x0, [x29,#24]
    4d40:	97ffff78 	bl	4b20 <trace_ext_puts>
/home/optee/RPi3/optee_os/lib/libutee/trace_ext.c:96
    4d44:	52800020 	mov	w0, #0x1                   	// #1
/home/optee/RPi3/optee_os/lib/libutee/trace_ext.c:97
    4d48:	a8c27bfd 	ldp	x29, x30, [sp],#32
    4d4c:	d65f03c0 	ret

0000000000004d50 <_assert_log>:
_assert_log():
/home/optee/RPi3/optee_os/lib/libutee/assert.c:35
    4d50:	a9bd7bfd 	stp	x29, x30, [sp,#-48]!
    4d54:	910003fd 	mov	x29, sp
    4d58:	f90017a0 	str	x0, [x29,#40]
    4d5c:	f90013a1 	str	x1, [x29,#32]
    4d60:	b9001fa2 	str	w2, [x29,#28]
/home/optee/RPi3/optee_os/lib/libutee/assert.c:36
    4d64:	b0000060 	adrp	x0, 11000 <__func__.3864+0x18>
    4d68:	910c6001 	add	x1, x0, #0x318
    4d6c:	b0000060 	adrp	x0, 11000 <__func__.3864+0x18>
    4d70:	910ce000 	add	x0, x0, #0x338
    4d74:	b9401fa7 	ldr	w7, [x29,#28]
    4d78:	f94013a6 	ldr	x6, [x29,#32]
    4d7c:	f94017a5 	ldr	x5, [x29,#40]
    4d80:	aa0103e4 	mov	x4, x1
    4d84:	52800023 	mov	w3, #0x1                   	// #1
    4d88:	52800022 	mov	w2, #0x1                   	// #1
    4d8c:	52800481 	mov	w1, #0x24                  	// #36
    4d90:	9400125f 	bl	970c <trace_printf>
/home/optee/RPi3/optee_os/lib/libutee/assert.c:37
    4d94:	d503201f 	nop
    4d98:	a8c37bfd 	ldp	x29, x30, [sp],#48
    4d9c:	d65f03c0 	ret

0000000000004da0 <_assert_break>:
_assert_break():
/home/optee/RPi3/optee_os/lib/libutee/assert.c:40
    4da0:	a9bf7bfd 	stp	x29, x30, [sp,#-16]!
    4da4:	910003fd 	mov	x29, sp
/home/optee/RPi3/optee_os/lib/libutee/assert.c:41
    4da8:	d2bfffe0 	mov	x0, #0xffff0000            	// #4294901760
    4dac:	94002e11 	bl	105f0 <utee_panic>

0000000000004db0 <bget>:
bget():
/home/optee/RPi3/optee_os/lib/libutils/isoc/bget.c:575
    4db0:	a9bb7bfd 	stp	x29, x30, [sp,#-80]!
    4db4:	910003fd 	mov	x29, sp
    4db8:	f9000fa0 	str	x0, [x29,#24]
/home/optee/RPi3/optee_os/lib/libutils/isoc/bget.c:576
    4dbc:	f9400fa0 	ldr	x0, [x29,#24]
    4dc0:	f90027a0 	str	x0, [x29,#72]
/home/optee/RPi3/optee_os/lib/libutils/isoc/bget.c:586
    4dc4:	f94027a0 	ldr	x0, [x29,#72]
    4dc8:	eb1f001f 	cmp	x0, xzr
    4dcc:	5400010c 	b.gt	4dec <bget+0x3c>
/home/optee/RPi3/optee_os/lib/libutils/isoc/bget.c:586 (discriminator 1)
    4dd0:	b0000060 	adrp	x0, 11000 <__func__.3864+0x18>
    4dd4:	910d2001 	add	x1, x0, #0x348
    4dd8:	b0000060 	adrp	x0, 11000 <__func__.3864+0x18>
    4ddc:	910da000 	add	x0, x0, #0x368
    4de0:	52804942 	mov	w2, #0x24a                 	// #586
    4de4:	97ffffdb 	bl	4d50 <_assert_log>
    4de8:	97ffffee 	bl	4da0 <_assert_break>
/home/optee/RPi3/optee_os/lib/libutils/isoc/bget.c:588
    4dec:	f94027a0 	ldr	x0, [x29,#72]
    4df0:	f1003c1f 	cmp	x0, #0xf
    4df4:	54000068 	b.hi	4e00 <bget+0x50>
/home/optee/RPi3/optee_os/lib/libutils/isoc/bget.c:589
    4df8:	d2800200 	mov	x0, #0x10                  	// #16
    4dfc:	f90027a0 	str	x0, [x29,#72]
/home/optee/RPi3/optee_os/lib/libutils/isoc/bget.c:593
    4e00:	f94027a0 	ldr	x0, [x29,#72]
    4e04:	91003c00 	add	x0, x0, #0xf
    4e08:	927cec00 	and	x0, x0, #0xfffffffffffffff0
    4e0c:	f90027a0 	str	x0, [x29,#72]
/home/optee/RPi3/optee_os/lib/libutils/isoc/bget.c:597
    4e10:	f94027a0 	ldr	x0, [x29,#72]
    4e14:	91004000 	add	x0, x0, #0x10
    4e18:	f90027a0 	str	x0, [x29,#72]
/home/optee/RPi3/optee_os/lib/libutils/isoc/bget.c:607
    4e1c:	f0000060 	adrp	x0, 13000 <ta_props>
    4e20:	91042000 	add	x0, x0, #0x108
    4e24:	f9400800 	ldr	x0, [x0,#16]
    4e28:	f90023a0 	str	x0, [x29,#64]
/home/optee/RPi3/optee_os/lib/libutils/isoc/bget.c:628
    4e2c:	1400009f 	b	50a8 <bget+0x2f8>
/home/optee/RPi3/optee_os/lib/libutils/isoc/bget.c:629
    4e30:	f94023a0 	ldr	x0, [x29,#64]
    4e34:	f9400401 	ldr	x1, [x0,#8]
    4e38:	f94027a0 	ldr	x0, [x29,#72]
    4e3c:	eb00003f 	cmp	x1, x0
    4e40:	540012eb 	b.lt	509c <bget+0x2ec>
/home/optee/RPi3/optee_os/lib/libutils/isoc/bget.c:640
    4e44:	f94023a0 	ldr	x0, [x29,#64]
    4e48:	f9400401 	ldr	x1, [x0,#8]
    4e4c:	f94027a0 	ldr	x0, [x29,#72]
    4e50:	cb000020 	sub	x0, x1, x0
    4e54:	f100801f 	cmp	x0, #0x20
    4e58:	540007c9 	b.ls	4f50 <bget+0x1a0>
/home/optee/RPi3/optee_os/lib/libutils/isoc/bget.c:643
    4e5c:	f94023a0 	ldr	x0, [x29,#64]
    4e60:	f9400401 	ldr	x1, [x0,#8]
    4e64:	f94027a0 	ldr	x0, [x29,#72]
    4e68:	cb000020 	sub	x0, x1, x0
    4e6c:	aa0003e1 	mov	x1, x0
    4e70:	f94023a0 	ldr	x0, [x29,#64]
    4e74:	8b010000 	add	x0, x0, x1
    4e78:	f9001fa0 	str	x0, [x29,#56]
/home/optee/RPi3/optee_os/lib/libutils/isoc/bget.c:644
    4e7c:	f94027a0 	ldr	x0, [x29,#72]
    4e80:	f9401fa1 	ldr	x1, [x29,#56]
    4e84:	8b000020 	add	x0, x1, x0
    4e88:	f9001ba0 	str	x0, [x29,#48]
/home/optee/RPi3/optee_os/lib/libutils/isoc/bget.c:645
    4e8c:	f9401ba0 	ldr	x0, [x29,#48]
    4e90:	f9400001 	ldr	x1, [x0]
    4e94:	f94023a0 	ldr	x0, [x29,#64]
    4e98:	f9400400 	ldr	x0, [x0,#8]
    4e9c:	eb00003f 	cmp	x1, x0
    4ea0:	54000100 	b.eq	4ec0 <bget+0x110>
/home/optee/RPi3/optee_os/lib/libutils/isoc/bget.c:645 (discriminator 1)
    4ea4:	b0000060 	adrp	x0, 11000 <__func__.3864+0x18>
    4ea8:	910d2001 	add	x1, x0, #0x348
    4eac:	b0000060 	adrp	x0, 11000 <__func__.3864+0x18>
    4eb0:	910de000 	add	x0, x0, #0x378
    4eb4:	528050a2 	mov	w2, #0x285                 	// #645
    4eb8:	97ffffa6 	bl	4d50 <_assert_log>
    4ebc:	97ffffb9 	bl	4da0 <_assert_break>
/home/optee/RPi3/optee_os/lib/libutils/isoc/bget.c:647
    4ec0:	f94023a0 	ldr	x0, [x29,#64]
    4ec4:	f9400401 	ldr	x1, [x0,#8]
    4ec8:	f94027a0 	ldr	x0, [x29,#72]
    4ecc:	cb000021 	sub	x1, x1, x0
    4ed0:	f94023a0 	ldr	x0, [x29,#64]
    4ed4:	f9000401 	str	x1, [x0,#8]
/home/optee/RPi3/optee_os/lib/libutils/isoc/bget.c:649
    4ed8:	f94023a0 	ldr	x0, [x29,#64]
    4edc:	f9400401 	ldr	x1, [x0,#8]
    4ee0:	f9401fa0 	ldr	x0, [x29,#56]
    4ee4:	f9000001 	str	x1, [x0]
/home/optee/RPi3/optee_os/lib/libutils/isoc/bget.c:651
    4ee8:	f94027a0 	ldr	x0, [x29,#72]
    4eec:	cb0003e1 	neg	x1, x0
    4ef0:	f9401fa0 	ldr	x0, [x29,#56]
    4ef4:	f9000401 	str	x1, [x0,#8]
/home/optee/RPi3/optee_os/lib/libutils/isoc/bget.c:653
    4ef8:	f9401ba0 	ldr	x0, [x29,#48]
    4efc:	f900001f 	str	xzr, [x0]
/home/optee/RPi3/optee_os/lib/libutils/isoc/bget.c:656
    4f00:	900000c0 	adrp	x0, 1c000 <mempool_u32+0xe80>
    4f04:	91338000 	add	x0, x0, #0xce0
    4f08:	f9400001 	ldr	x1, [x0]
    4f0c:	f94027a0 	ldr	x0, [x29,#72]
    4f10:	8b000021 	add	x1, x1, x0
    4f14:	900000c0 	adrp	x0, 1c000 <mempool_u32+0xe80>
    4f18:	91338000 	add	x0, x0, #0xce0
    4f1c:	f9000001 	str	x1, [x0]
/home/optee/RPi3/optee_os/lib/libutils/isoc/bget.c:657
    4f20:	900000c0 	adrp	x0, 1c000 <mempool_u32+0xe80>
    4f24:	9133a000 	add	x0, x0, #0xce8
    4f28:	f9400000 	ldr	x0, [x0]
    4f2c:	91000401 	add	x1, x0, #0x1
    4f30:	900000c0 	adrp	x0, 1c000 <mempool_u32+0xe80>
    4f34:	9133a000 	add	x0, x0, #0xce8
    4f38:	f9000001 	str	x1, [x0]
/home/optee/RPi3/optee_os/lib/libutils/isoc/bget.c:659
    4f3c:	f9401fa0 	ldr	x0, [x29,#56]
    4f40:	91004000 	add	x0, x0, #0x10
    4f44:	f90017a0 	str	x0, [x29,#40]
/home/optee/RPi3/optee_os/lib/libutils/isoc/bget.c:660
    4f48:	f94017a0 	ldr	x0, [x29,#40]
    4f4c:	1400005d 	b	50c0 <bget+0x310>
/home/optee/RPi3/optee_os/lib/libutils/isoc/bget.c:664
    4f50:	f94023a0 	ldr	x0, [x29,#64]
    4f54:	f9400400 	ldr	x0, [x0,#8]
    4f58:	aa0003e1 	mov	x1, x0
    4f5c:	f94023a0 	ldr	x0, [x29,#64]
    4f60:	8b010000 	add	x0, x0, x1
    4f64:	f90013a0 	str	x0, [x29,#32]
/home/optee/RPi3/optee_os/lib/libutils/isoc/bget.c:665
    4f68:	f94013a0 	ldr	x0, [x29,#32]
    4f6c:	f9400001 	ldr	x1, [x0]
    4f70:	f94023a0 	ldr	x0, [x29,#64]
    4f74:	f9400400 	ldr	x0, [x0,#8]
    4f78:	eb00003f 	cmp	x1, x0
    4f7c:	54000100 	b.eq	4f9c <bget+0x1ec>
/home/optee/RPi3/optee_os/lib/libutils/isoc/bget.c:665 (discriminator 1)
    4f80:	b0000060 	adrp	x0, 11000 <__func__.3864+0x18>
    4f84:	910d2001 	add	x1, x0, #0x348
    4f88:	b0000060 	adrp	x0, 11000 <__func__.3864+0x18>
    4f8c:	910e6000 	add	x0, x0, #0x398
    4f90:	52805322 	mov	w2, #0x299                 	// #665
    4f94:	97ffff6f 	bl	4d50 <_assert_log>
    4f98:	97ffff82 	bl	4da0 <_assert_break>
/home/optee/RPi3/optee_os/lib/libutils/isoc/bget.c:670
    4f9c:	f94023a0 	ldr	x0, [x29,#64]
    4fa0:	f9400c00 	ldr	x0, [x0,#24]
    4fa4:	f9400801 	ldr	x1, [x0,#16]
    4fa8:	f94023a0 	ldr	x0, [x29,#64]
    4fac:	eb00003f 	cmp	x1, x0
    4fb0:	54000100 	b.eq	4fd0 <bget+0x220>
/home/optee/RPi3/optee_os/lib/libutils/isoc/bget.c:670 (discriminator 1)
    4fb4:	b0000060 	adrp	x0, 11000 <__func__.3864+0x18>
    4fb8:	910d2001 	add	x1, x0, #0x348
    4fbc:	b0000060 	adrp	x0, 11000 <__func__.3864+0x18>
    4fc0:	910ee000 	add	x0, x0, #0x3b8
    4fc4:	528053c2 	mov	w2, #0x29e                 	// #670
    4fc8:	97ffff62 	bl	4d50 <_assert_log>
    4fcc:	97ffff75 	bl	4da0 <_assert_break>
/home/optee/RPi3/optee_os/lib/libutils/isoc/bget.c:671
    4fd0:	f94023a0 	ldr	x0, [x29,#64]
    4fd4:	f9400800 	ldr	x0, [x0,#16]
    4fd8:	f9400c01 	ldr	x1, [x0,#24]
    4fdc:	f94023a0 	ldr	x0, [x29,#64]
    4fe0:	eb00003f 	cmp	x1, x0
    4fe4:	54000100 	b.eq	5004 <bget+0x254>
/home/optee/RPi3/optee_os/lib/libutils/isoc/bget.c:671 (discriminator 1)
    4fe8:	b0000060 	adrp	x0, 11000 <__func__.3864+0x18>
    4fec:	910d2001 	add	x1, x0, #0x348
    4ff0:	b0000060 	adrp	x0, 11000 <__func__.3864+0x18>
    4ff4:	910f6000 	add	x0, x0, #0x3d8
    4ff8:	528053e2 	mov	w2, #0x29f                 	// #671
    4ffc:	97ffff55 	bl	4d50 <_assert_log>
    5000:	97ffff68 	bl	4da0 <_assert_break>
/home/optee/RPi3/optee_os/lib/libutils/isoc/bget.c:672
    5004:	f94023a0 	ldr	x0, [x29,#64]
    5008:	f9400c00 	ldr	x0, [x0,#24]
    500c:	f94023a1 	ldr	x1, [x29,#64]
    5010:	f9400821 	ldr	x1, [x1,#16]
    5014:	f9000801 	str	x1, [x0,#16]
/home/optee/RPi3/optee_os/lib/libutils/isoc/bget.c:673
    5018:	f94023a0 	ldr	x0, [x29,#64]
    501c:	f9400800 	ldr	x0, [x0,#16]
    5020:	f94023a1 	ldr	x1, [x29,#64]
    5024:	f9400c21 	ldr	x1, [x1,#24]
    5028:	f9000c01 	str	x1, [x0,#24]
/home/optee/RPi3/optee_os/lib/libutils/isoc/bget.c:676
    502c:	f94023a0 	ldr	x0, [x29,#64]
    5030:	f9400401 	ldr	x1, [x0,#8]
    5034:	f00000a0 	adrp	x0, 1c000 <mempool_u32+0xe80>
    5038:	91338000 	add	x0, x0, #0xce0
    503c:	f9400000 	ldr	x0, [x0]
    5040:	8b000021 	add	x1, x1, x0
    5044:	f00000a0 	adrp	x0, 1c000 <mempool_u32+0xe80>
    5048:	91338000 	add	x0, x0, #0xce0
    504c:	f9000001 	str	x1, [x0]
/home/optee/RPi3/optee_os/lib/libutils/isoc/bget.c:677
    5050:	f00000a0 	adrp	x0, 1c000 <mempool_u32+0xe80>
    5054:	9133a000 	add	x0, x0, #0xce8
    5058:	f9400000 	ldr	x0, [x0]
    505c:	91000401 	add	x1, x0, #0x1
    5060:	f00000a0 	adrp	x0, 1c000 <mempool_u32+0xe80>
    5064:	9133a000 	add	x0, x0, #0xce8
    5068:	f9000001 	str	x1, [x0]
/home/optee/RPi3/optee_os/lib/libutils/isoc/bget.c:680
    506c:	f94023a0 	ldr	x0, [x29,#64]
    5070:	f9400400 	ldr	x0, [x0,#8]
    5074:	cb0003e1 	neg	x1, x0
    5078:	f94023a0 	ldr	x0, [x29,#64]
    507c:	f9000401 	str	x1, [x0,#8]
/home/optee/RPi3/optee_os/lib/libutils/isoc/bget.c:684
    5080:	f94013a0 	ldr	x0, [x29,#32]
    5084:	f900001f 	str	xzr, [x0]
/home/optee/RPi3/optee_os/lib/libutils/isoc/bget.c:687
    5088:	f94023a0 	ldr	x0, [x29,#64]
    508c:	91004000 	add	x0, x0, #0x10
    5090:	f90017a0 	str	x0, [x29,#40]
/home/optee/RPi3/optee_os/lib/libutils/isoc/bget.c:688
    5094:	f94017a0 	ldr	x0, [x29,#40]
    5098:	1400000a 	b	50c0 <bget+0x310>
/home/optee/RPi3/optee_os/lib/libutils/isoc/bget.c:691
    509c:	f94023a0 	ldr	x0, [x29,#64]
    50a0:	f9400800 	ldr	x0, [x0,#16]
    50a4:	f90023a0 	str	x0, [x29,#64]
/home/optee/RPi3/optee_os/lib/libutils/isoc/bget.c:628
    50a8:	f94023a1 	ldr	x1, [x29,#64]
    50ac:	d0000060 	adrp	x0, 13000 <ta_props>
    50b0:	91042000 	add	x0, x0, #0x108
    50b4:	eb00003f 	cmp	x1, x0
    50b8:	54ffebc1 	b.ne	4e30 <bget+0x80>
/home/optee/RPi3/optee_os/lib/libutils/isoc/bget.c:752
    50bc:	d2800000 	mov	x0, #0x0                   	// #0
/home/optee/RPi3/optee_os/lib/libutils/isoc/bget.c:753
    50c0:	a8c57bfd 	ldp	x29, x30, [sp],#80
    50c4:	d65f03c0 	ret

00000000000050c8 <bgetz>:
bgetz():
/home/optee/RPi3/optee_os/lib/libutils/isoc/bget.c:761
    50c8:	a9bc7bfd 	stp	x29, x30, [sp,#-64]!
    50cc:	910003fd 	mov	x29, sp
    50d0:	f9000fa0 	str	x0, [x29,#24]
/home/optee/RPi3/optee_os/lib/libutils/isoc/bget.c:762
    50d4:	f9400fa0 	ldr	x0, [x29,#24]
    50d8:	97ffff36 	bl	4db0 <bget>
    50dc:	f9001ba0 	str	x0, [x29,#48]
/home/optee/RPi3/optee_os/lib/libutils/isoc/bget.c:764
    50e0:	f9401ba0 	ldr	x0, [x29,#48]
    50e4:	eb1f001f 	cmp	x0, xzr
    50e8:	540004e0 	b.eq	5184 <bgetz+0xbc>
/home/optee/RPi3/optee_os/lib/libutils/isoc/bget.c:768
    50ec:	f9401ba0 	ldr	x0, [x29,#48]
    50f0:	d1004000 	sub	x0, x0, #0x10
    50f4:	f90017a0 	str	x0, [x29,#40]
/home/optee/RPi3/optee_os/lib/libutils/isoc/bget.c:769
    50f8:	f94017a0 	ldr	x0, [x29,#40]
    50fc:	f9400400 	ldr	x0, [x0,#8]
    5100:	cb0003e0 	neg	x0, x0
    5104:	f9001fa0 	str	x0, [x29,#56]
/home/optee/RPi3/optee_os/lib/libutils/isoc/bget.c:770
    5108:	f9401fa0 	ldr	x0, [x29,#56]
    510c:	eb1f001f 	cmp	x0, xzr
    5110:	54000121 	b.ne	5134 <bgetz+0x6c>
/home/optee/RPi3/optee_os/lib/libutils/isoc/bget.c:773
    5114:	f9401ba0 	ldr	x0, [x29,#48]
    5118:	d1006000 	sub	x0, x0, #0x18
    511c:	f90013a0 	str	x0, [x29,#32]
/home/optee/RPi3/optee_os/lib/libutils/isoc/bget.c:774
    5120:	f94013a0 	ldr	x0, [x29,#32]
    5124:	f9400000 	ldr	x0, [x0]
    5128:	d1006000 	sub	x0, x0, #0x18
    512c:	f9001fa0 	str	x0, [x29,#56]
    5130:	14000004 	b	5140 <bgetz+0x78>
/home/optee/RPi3/optee_os/lib/libutils/isoc/bget.c:776
    5134:	f9401fa0 	ldr	x0, [x29,#56]
    5138:	d1004000 	sub	x0, x0, #0x10
    513c:	f9001fa0 	str	x0, [x29,#56]
/home/optee/RPi3/optee_os/lib/libutils/isoc/bget.c:778
    5140:	f9401fa1 	ldr	x1, [x29,#56]
    5144:	f9400fa0 	ldr	x0, [x29,#24]
    5148:	eb00003f 	cmp	x1, x0
    514c:	5400010a 	b.ge	516c <bgetz+0xa4>
/home/optee/RPi3/optee_os/lib/libutils/isoc/bget.c:778 (discriminator 1)
    5150:	90000060 	adrp	x0, 11000 <__func__.3864+0x18>
    5154:	910d2001 	add	x1, x0, #0x348
    5158:	90000060 	adrp	x0, 11000 <__func__.3864+0x18>
    515c:	910fe000 	add	x0, x0, #0x3f8
    5160:	52806142 	mov	w2, #0x30a                 	// #778
    5164:	97fffefb 	bl	4d50 <_assert_log>
    5168:	97ffff0e 	bl	4da0 <_assert_break>
/home/optee/RPi3/optee_os/lib/libutils/isoc/bget.c:779
    516c:	f9401fa0 	ldr	x0, [x29,#56]
    5170:	93407c00 	sxtw	x0, w0
    5174:	aa0003e2 	mov	x2, x0
    5178:	52800001 	mov	w1, #0x0                   	// #0
    517c:	f9401ba0 	ldr	x0, [x29,#48]
    5180:	940007ef 	bl	713c <memset>
/home/optee/RPi3/optee_os/lib/libutils/isoc/bget.c:781
    5184:	f9401ba0 	ldr	x0, [x29,#48]
/home/optee/RPi3/optee_os/lib/libutils/isoc/bget.c:782
    5188:	a8c47bfd 	ldp	x29, x30, [sp],#64
    518c:	d65f03c0 	ret

0000000000005190 <bgetr>:
bgetr():
/home/optee/RPi3/optee_os/lib/libutils/isoc/bget.c:792
    5190:	a9bc7bfd 	stp	x29, x30, [sp,#-64]!
    5194:	910003fd 	mov	x29, sp
    5198:	f9000fa0 	str	x0, [x29,#24]
    519c:	f9000ba1 	str	x1, [x29,#16]
/home/optee/RPi3/optee_os/lib/libutils/isoc/bget.c:797
    51a0:	f9400ba0 	ldr	x0, [x29,#16]
    51a4:	97ffff03 	bl	4db0 <bget>
    51a8:	f9001fa0 	str	x0, [x29,#56]
    51ac:	f9401fa0 	ldr	x0, [x29,#56]
    51b0:	eb1f001f 	cmp	x0, xzr
    51b4:	54000061 	b.ne	51c0 <bgetr+0x30>
/home/optee/RPi3/optee_os/lib/libutils/isoc/bget.c:798
    51b8:	d2800000 	mov	x0, #0x0                   	// #0
    51bc:	1400002a 	b	5264 <bgetr+0xd4>
/home/optee/RPi3/optee_os/lib/libutils/isoc/bget.c:800
    51c0:	f9400fa0 	ldr	x0, [x29,#24]
    51c4:	eb1f001f 	cmp	x0, xzr
    51c8:	54000061 	b.ne	51d4 <bgetr+0x44>
/home/optee/RPi3/optee_os/lib/libutils/isoc/bget.c:801
    51cc:	f9401fa0 	ldr	x0, [x29,#56]
    51d0:	14000025 	b	5264 <bgetr+0xd4>
/home/optee/RPi3/optee_os/lib/libutils/isoc/bget.c:803
    51d4:	f9400fa0 	ldr	x0, [x29,#24]
    51d8:	d1004000 	sub	x0, x0, #0x10
    51dc:	f9001ba0 	str	x0, [x29,#48]
/home/optee/RPi3/optee_os/lib/libutils/isoc/bget.c:804
    51e0:	f9401ba0 	ldr	x0, [x29,#48]
    51e4:	f9400400 	ldr	x0, [x0,#8]
    51e8:	cb0003e0 	neg	x0, x0
    51ec:	f90017a0 	str	x0, [x29,#40]
/home/optee/RPi3/optee_os/lib/libutils/isoc/bget.c:814
    51f0:	f94017a0 	ldr	x0, [x29,#40]
    51f4:	d1004000 	sub	x0, x0, #0x10
    51f8:	f90017a0 	str	x0, [x29,#40]
/home/optee/RPi3/optee_os/lib/libutils/isoc/bget.c:815
    51fc:	f94017a0 	ldr	x0, [x29,#40]
    5200:	eb1f001f 	cmp	x0, xzr
    5204:	5400010c 	b.gt	5224 <bgetr+0x94>
/home/optee/RPi3/optee_os/lib/libutils/isoc/bget.c:815 (discriminator 1)
    5208:	90000060 	adrp	x0, 11000 <__func__.3864+0x18>
    520c:	910d2001 	add	x1, x0, #0x348
    5210:	90000060 	adrp	x0, 11000 <__func__.3864+0x18>
    5214:	91102000 	add	x0, x0, #0x408
    5218:	528065e2 	mov	w2, #0x32f                 	// #815
    521c:	97fffecd 	bl	4d50 <_assert_log>
    5220:	97fffee0 	bl	4da0 <_assert_break>
/home/optee/RPi3/optee_os/lib/libutils/isoc/bget.c:816
    5224:	f9400ba1 	ldr	x1, [x29,#16]
    5228:	f94017a0 	ldr	x0, [x29,#40]
    522c:	eb00003f 	cmp	x1, x0
    5230:	5400008a 	b.ge	5240 <bgetr+0xb0>
/home/optee/RPi3/optee_os/lib/libutils/isoc/bget.c:816 (discriminator 1)
    5234:	f9400ba0 	ldr	x0, [x29,#16]
    5238:	93407c00 	sxtw	x0, w0
    523c:	14000003 	b	5248 <bgetr+0xb8>
/home/optee/RPi3/optee_os/lib/libutils/isoc/bget.c:816 (discriminator 2)
    5240:	f94017a0 	ldr	x0, [x29,#40]
    5244:	93407c00 	sxtw	x0, w0
/home/optee/RPi3/optee_os/lib/libutils/isoc/bget.c:816 (discriminator 4)
    5248:	aa0003e2 	mov	x2, x0
    524c:	f9400fa1 	ldr	x1, [x29,#24]
    5250:	f9401fa0 	ldr	x0, [x29,#56]
    5254:	940006d7 	bl	6db0 <memcpy>
/home/optee/RPi3/optee_os/lib/libutils/isoc/bget.c:818 (discriminator 4)
    5258:	f9400fa0 	ldr	x0, [x29,#24]
    525c:	94000004 	bl	526c <brel>
/home/optee/RPi3/optee_os/lib/libutils/isoc/bget.c:819 (discriminator 4)
    5260:	f9401fa0 	ldr	x0, [x29,#56]
/home/optee/RPi3/optee_os/lib/libutils/isoc/bget.c:820
    5264:	a8c47bfd 	ldp	x29, x30, [sp],#64
    5268:	d65f03c0 	ret

000000000000526c <brel>:
brel():
/home/optee/RPi3/optee_os/lib/libutils/isoc/bget.c:826
    526c:	a9bc7bfd 	stp	x29, x30, [sp,#-64]!
    5270:	910003fd 	mov	x29, sp
    5274:	f9000bf3 	str	x19, [sp,#16]
    5278:	f90017a0 	str	x0, [x29,#40]
/home/optee/RPi3/optee_os/lib/libutils/isoc/bget.c:829
    527c:	f94017a0 	ldr	x0, [x29,#40]
    5280:	d1004000 	sub	x0, x0, #0x10
    5284:	f9001fa0 	str	x0, [x29,#56]
/home/optee/RPi3/optee_os/lib/libutils/isoc/bget.c:831
    5288:	f00000a0 	adrp	x0, 1c000 <mempool_u32+0xe80>
    528c:	9133c000 	add	x0, x0, #0xcf0
    5290:	f9400000 	ldr	x0, [x0]
    5294:	91000401 	add	x1, x0, #0x1
    5298:	f00000a0 	adrp	x0, 1c000 <mempool_u32+0xe80>
    529c:	9133c000 	add	x0, x0, #0xcf0
    52a0:	f9000001 	str	x1, [x0]
/home/optee/RPi3/optee_os/lib/libutils/isoc/bget.c:833
    52a4:	f94017a0 	ldr	x0, [x29,#40]
    52a8:	eb1f001f 	cmp	x0, xzr
    52ac:	54000101 	b.ne	52cc <brel+0x60>
/home/optee/RPi3/optee_os/lib/libutils/isoc/bget.c:833 (discriminator 1)
    52b0:	90000060 	adrp	x0, 11000 <__func__.3864+0x18>
    52b4:	910d2001 	add	x1, x0, #0x348
    52b8:	90000060 	adrp	x0, 11000 <__func__.3864+0x18>
    52bc:	91106000 	add	x0, x0, #0x418
    52c0:	52806822 	mov	w2, #0x341                 	// #833
    52c4:	97fffea3 	bl	4d50 <_assert_log>
    52c8:	97fffeb6 	bl	4da0 <_assert_break>
/home/optee/RPi3/optee_os/lib/libutils/isoc/bget.c:859
    52cc:	f9401fa0 	ldr	x0, [x29,#56]
    52d0:	f9400400 	ldr	x0, [x0,#8]
    52d4:	eb1f001f 	cmp	x0, xzr
    52d8:	5400004b 	b.lt	52e0 <brel+0x74>
/home/optee/RPi3/optee_os/lib/libutils/isoc/bget.c:860
    52dc:	f9001bbf 	str	xzr, [x29,#48]
/home/optee/RPi3/optee_os/lib/libutils/isoc/bget.c:862
    52e0:	f9401fa0 	ldr	x0, [x29,#56]
    52e4:	f9400400 	ldr	x0, [x0,#8]
    52e8:	eb1f001f 	cmp	x0, xzr
    52ec:	5400010b 	b.lt	530c <brel+0xa0>
/home/optee/RPi3/optee_os/lib/libutils/isoc/bget.c:862 (discriminator 1)
    52f0:	90000060 	adrp	x0, 11000 <__func__.3864+0x18>
    52f4:	910d2001 	add	x1, x0, #0x348
    52f8:	90000060 	adrp	x0, 11000 <__func__.3864+0x18>
    52fc:	9110a000 	add	x0, x0, #0x428
    5300:	52806bc2 	mov	w2, #0x35e                 	// #862
    5304:	97fffe93 	bl	4d50 <_assert_log>
    5308:	97fffea6 	bl	4da0 <_assert_break>
/home/optee/RPi3/optee_os/lib/libutils/isoc/bget.c:867
    530c:	f9401fa0 	ldr	x0, [x29,#56]
    5310:	f9400400 	ldr	x0, [x0,#8]
    5314:	cb0003e0 	neg	x0, x0
    5318:	f9401fa1 	ldr	x1, [x29,#56]
    531c:	8b000020 	add	x0, x1, x0
    5320:	f9400000 	ldr	x0, [x0]
    5324:	eb1f001f 	cmp	x0, xzr
    5328:	54000100 	b.eq	5348 <brel+0xdc>
/home/optee/RPi3/optee_os/lib/libutils/isoc/bget.c:867 (discriminator 1)
    532c:	90000060 	adrp	x0, 11000 <__func__.3864+0x18>
    5330:	910d2001 	add	x1, x0, #0x348
    5334:	90000060 	adrp	x0, 11000 <__func__.3864+0x18>
    5338:	9110e000 	add	x0, x0, #0x438
    533c:	52806c62 	mov	w2, #0x363                 	// #867
    5340:	97fffe84 	bl	4d50 <_assert_log>
    5344:	97fffe97 	bl	4da0 <_assert_break>
/home/optee/RPi3/optee_os/lib/libutils/isoc/bget.c:870
    5348:	f9401fa0 	ldr	x0, [x29,#56]
    534c:	f9400401 	ldr	x1, [x0,#8]
    5350:	f00000a0 	adrp	x0, 1c000 <mempool_u32+0xe80>
    5354:	91338000 	add	x0, x0, #0xce0
    5358:	f9400000 	ldr	x0, [x0]
    535c:	8b000021 	add	x1, x1, x0
    5360:	f00000a0 	adrp	x0, 1c000 <mempool_u32+0xe80>
    5364:	91338000 	add	x0, x0, #0xce0
    5368:	f9000001 	str	x1, [x0]
/home/optee/RPi3/optee_os/lib/libutils/isoc/bget.c:871
    536c:	f00000a0 	adrp	x0, 1c000 <mempool_u32+0xe80>
    5370:	91338000 	add	x0, x0, #0xce0
    5374:	f9400000 	ldr	x0, [x0]
    5378:	eb1f001f 	cmp	x0, xzr
    537c:	5400010a 	b.ge	539c <brel+0x130>
/home/optee/RPi3/optee_os/lib/libutils/isoc/bget.c:871 (discriminator 1)
    5380:	90000060 	adrp	x0, 11000 <__func__.3864+0x18>
    5384:	910d2001 	add	x1, x0, #0x348
    5388:	90000060 	adrp	x0, 11000 <__func__.3864+0x18>
    538c:	9111a000 	add	x0, x0, #0x468
    5390:	52806ce2 	mov	w2, #0x367                 	// #871
    5394:	97fffe6f 	bl	4d50 <_assert_log>
    5398:	97fffe82 	bl	4da0 <_assert_break>
/home/optee/RPi3/optee_os/lib/libutils/isoc/bget.c:876
    539c:	f9401fa0 	ldr	x0, [x29,#56]
    53a0:	f9400000 	ldr	x0, [x0]
    53a4:	eb1f001f 	cmp	x0, xzr
    53a8:	54000400 	b.eq	5428 <brel+0x1bc>
/home/optee/RPi3/optee_os/lib/libutils/isoc/bget.c:884
    53ac:	f9401fa0 	ldr	x0, [x29,#56]
    53b0:	f9400413 	ldr	x19, [x0,#8]
/home/optee/RPi3/optee_os/lib/libutils/isoc/bget.c:887
    53b4:	f9401fa0 	ldr	x0, [x29,#56]
    53b8:	f9400000 	ldr	x0, [x0]
    53bc:	cb0003e0 	neg	x0, x0
    53c0:	f9401fa1 	ldr	x1, [x29,#56]
    53c4:	8b000020 	add	x0, x1, x0
    53c8:	f9400401 	ldr	x1, [x0,#8]
    53cc:	f9401fa0 	ldr	x0, [x29,#56]
    53d0:	f9400000 	ldr	x0, [x0]
    53d4:	eb00003f 	cmp	x1, x0
    53d8:	54000100 	b.eq	53f8 <brel+0x18c>
/home/optee/RPi3/optee_os/lib/libutils/isoc/bget.c:887 (discriminator 1)
    53dc:	90000060 	adrp	x0, 11000 <__func__.3864+0x18>
    53e0:	910d2001 	add	x1, x0, #0x348
    53e4:	90000060 	adrp	x0, 11000 <__func__.3864+0x18>
    53e8:	9111e000 	add	x0, x0, #0x478
    53ec:	52806ee2 	mov	w2, #0x377                 	// #887
    53f0:	97fffe58 	bl	4d50 <_assert_log>
    53f4:	97fffe6b 	bl	4da0 <_assert_break>
/home/optee/RPi3/optee_os/lib/libutils/isoc/bget.c:888
    53f8:	f9401fa0 	ldr	x0, [x29,#56]
    53fc:	f9400000 	ldr	x0, [x0]
    5400:	cb0003e0 	neg	x0, x0
    5404:	f9401fa1 	ldr	x1, [x29,#56]
    5408:	8b000020 	add	x0, x1, x0
    540c:	f9001fa0 	str	x0, [x29,#56]
/home/optee/RPi3/optee_os/lib/libutils/isoc/bget.c:889
    5410:	f9401fa0 	ldr	x0, [x29,#56]
    5414:	f9400400 	ldr	x0, [x0,#8]
    5418:	cb130001 	sub	x1, x0, x19
    541c:	f9401fa0 	ldr	x0, [x29,#56]
    5420:	f9000401 	str	x1, [x0,#8]
    5424:	14000035 	b	54f8 <brel+0x28c>
/home/optee/RPi3/optee_os/lib/libutils/isoc/bget.c:895
    5428:	d0000060 	adrp	x0, 13000 <ta_props>
    542c:	91042000 	add	x0, x0, #0x108
    5430:	f9400c00 	ldr	x0, [x0,#24]
    5434:	f9400801 	ldr	x1, [x0,#16]
    5438:	d0000060 	adrp	x0, 13000 <ta_props>
    543c:	91042000 	add	x0, x0, #0x108
    5440:	eb00003f 	cmp	x1, x0
    5444:	54000100 	b.eq	5464 <brel+0x1f8>
/home/optee/RPi3/optee_os/lib/libutils/isoc/bget.c:895 (discriminator 1)
    5448:	90000060 	adrp	x0, 11000 <__func__.3864+0x18>
    544c:	910d2001 	add	x1, x0, #0x348
    5450:	90000060 	adrp	x0, 11000 <__func__.3864+0x18>
    5454:	9112e000 	add	x0, x0, #0x4b8
    5458:	52806fe2 	mov	w2, #0x37f                 	// #895
    545c:	97fffe3d 	bl	4d50 <_assert_log>
    5460:	97fffe50 	bl	4da0 <_assert_break>
/home/optee/RPi3/optee_os/lib/libutils/isoc/bget.c:896
    5464:	d0000060 	adrp	x0, 13000 <ta_props>
    5468:	91042000 	add	x0, x0, #0x108
    546c:	f9400800 	ldr	x0, [x0,#16]
    5470:	f9400c01 	ldr	x1, [x0,#24]
    5474:	d0000060 	adrp	x0, 13000 <ta_props>
    5478:	91042000 	add	x0, x0, #0x108
    547c:	eb00003f 	cmp	x1, x0
    5480:	54000100 	b.eq	54a0 <brel+0x234>
/home/optee/RPi3/optee_os/lib/libutils/isoc/bget.c:896 (discriminator 1)
    5484:	90000060 	adrp	x0, 11000 <__func__.3864+0x18>
    5488:	910d2001 	add	x1, x0, #0x348
    548c:	90000060 	adrp	x0, 11000 <__func__.3864+0x18>
    5490:	9113a000 	add	x0, x0, #0x4e8
    5494:	52807002 	mov	w2, #0x380                 	// #896
    5498:	97fffe2e 	bl	4d50 <_assert_log>
    549c:	97fffe41 	bl	4da0 <_assert_break>
/home/optee/RPi3/optee_os/lib/libutils/isoc/bget.c:897
    54a0:	f9401fa0 	ldr	x0, [x29,#56]
    54a4:	d0000061 	adrp	x1, 13000 <ta_props>
    54a8:	91042021 	add	x1, x1, #0x108
    54ac:	f9000801 	str	x1, [x0,#16]
/home/optee/RPi3/optee_os/lib/libutils/isoc/bget.c:898
    54b0:	d0000060 	adrp	x0, 13000 <ta_props>
    54b4:	91042000 	add	x0, x0, #0x108
    54b8:	f9400c01 	ldr	x1, [x0,#24]
    54bc:	f9401fa0 	ldr	x0, [x29,#56]
    54c0:	f9000c01 	str	x1, [x0,#24]
/home/optee/RPi3/optee_os/lib/libutils/isoc/bget.c:899
    54c4:	d0000060 	adrp	x0, 13000 <ta_props>
    54c8:	91042000 	add	x0, x0, #0x108
    54cc:	f9401fa1 	ldr	x1, [x29,#56]
    54d0:	f9000c01 	str	x1, [x0,#24]
/home/optee/RPi3/optee_os/lib/libutils/isoc/bget.c:900
    54d4:	f9401fa0 	ldr	x0, [x29,#56]
    54d8:	f9400c00 	ldr	x0, [x0,#24]
    54dc:	f9401fa1 	ldr	x1, [x29,#56]
    54e0:	f9000801 	str	x1, [x0,#16]
/home/optee/RPi3/optee_os/lib/libutils/isoc/bget.c:901
    54e4:	f9401fa0 	ldr	x0, [x29,#56]
    54e8:	f9400400 	ldr	x0, [x0,#8]
    54ec:	cb0003e1 	neg	x1, x0
    54f0:	f9401fa0 	ldr	x0, [x29,#56]
    54f4:	f9000401 	str	x1, [x0,#8]
/home/optee/RPi3/optee_os/lib/libutils/isoc/bget.c:909
    54f8:	f9401fa0 	ldr	x0, [x29,#56]
    54fc:	f9400400 	ldr	x0, [x0,#8]
    5500:	aa0003e1 	mov	x1, x0
    5504:	f9401fa0 	ldr	x0, [x29,#56]
    5508:	8b010000 	add	x0, x0, x1
    550c:	f9001ba0 	str	x0, [x29,#48]
/home/optee/RPi3/optee_os/lib/libutils/isoc/bget.c:910
    5510:	f9401ba0 	ldr	x0, [x29,#48]
    5514:	f9400400 	ldr	x0, [x0,#8]
    5518:	eb1f001f 	cmp	x0, xzr
    551c:	5400086d 	b.le	5628 <brel+0x3bc>
/home/optee/RPi3/optee_os/lib/libutils/isoc/bget.c:915
    5520:	f9401ba0 	ldr	x0, [x29,#48]
    5524:	f9400400 	ldr	x0, [x0,#8]
    5528:	aa0003e1 	mov	x1, x0
    552c:	f9401ba0 	ldr	x0, [x29,#48]
    5530:	8b010000 	add	x0, x0, x1
    5534:	f9400001 	ldr	x1, [x0]
    5538:	f9401ba0 	ldr	x0, [x29,#48]
    553c:	f9400400 	ldr	x0, [x0,#8]
    5540:	eb00003f 	cmp	x1, x0
    5544:	54000100 	b.eq	5564 <brel+0x2f8>
/home/optee/RPi3/optee_os/lib/libutils/isoc/bget.c:915 (discriminator 1)
    5548:	90000060 	adrp	x0, 11000 <__func__.3864+0x18>
    554c:	910d2001 	add	x1, x0, #0x348
    5550:	90000060 	adrp	x0, 11000 <__func__.3864+0x18>
    5554:	91146000 	add	x0, x0, #0x518
    5558:	52807262 	mov	w2, #0x393                 	// #915
    555c:	97fffdfd 	bl	4d50 <_assert_log>
    5560:	97fffe10 	bl	4da0 <_assert_break>
/home/optee/RPi3/optee_os/lib/libutils/isoc/bget.c:916
    5564:	f9401ba0 	ldr	x0, [x29,#48]
    5568:	f9400c00 	ldr	x0, [x0,#24]
    556c:	f9400801 	ldr	x1, [x0,#16]
    5570:	f9401ba0 	ldr	x0, [x29,#48]
    5574:	eb00003f 	cmp	x1, x0
    5578:	54000100 	b.eq	5598 <brel+0x32c>
/home/optee/RPi3/optee_os/lib/libutils/isoc/bget.c:916 (discriminator 1)
    557c:	90000060 	adrp	x0, 11000 <__func__.3864+0x18>
    5580:	910d2001 	add	x1, x0, #0x348
    5584:	90000060 	adrp	x0, 11000 <__func__.3864+0x18>
    5588:	91156000 	add	x0, x0, #0x558
    558c:	52807282 	mov	w2, #0x394                 	// #916
    5590:	97fffdf0 	bl	4d50 <_assert_log>
    5594:	97fffe03 	bl	4da0 <_assert_break>
/home/optee/RPi3/optee_os/lib/libutils/isoc/bget.c:917
    5598:	f9401ba0 	ldr	x0, [x29,#48]
    559c:	f9400800 	ldr	x0, [x0,#16]
    55a0:	f9400c01 	ldr	x1, [x0,#24]
    55a4:	f9401ba0 	ldr	x0, [x29,#48]
    55a8:	eb00003f 	cmp	x1, x0
    55ac:	54000100 	b.eq	55cc <brel+0x360>
/home/optee/RPi3/optee_os/lib/libutils/isoc/bget.c:917 (discriminator 1)
    55b0:	90000060 	adrp	x0, 11000 <__func__.3864+0x18>
    55b4:	910d2001 	add	x1, x0, #0x348
    55b8:	90000060 	adrp	x0, 11000 <__func__.3864+0x18>
    55bc:	9115e000 	add	x0, x0, #0x578
    55c0:	528072a2 	mov	w2, #0x395                 	// #917
    55c4:	97fffde3 	bl	4d50 <_assert_log>
    55c8:	97fffdf6 	bl	4da0 <_assert_break>
/home/optee/RPi3/optee_os/lib/libutils/isoc/bget.c:918
    55cc:	f9401ba0 	ldr	x0, [x29,#48]
    55d0:	f9400c00 	ldr	x0, [x0,#24]
    55d4:	f9401ba1 	ldr	x1, [x29,#48]
    55d8:	f9400821 	ldr	x1, [x1,#16]
    55dc:	f9000801 	str	x1, [x0,#16]
/home/optee/RPi3/optee_os/lib/libutils/isoc/bget.c:919
    55e0:	f9401ba0 	ldr	x0, [x29,#48]
    55e4:	f9400800 	ldr	x0, [x0,#16]
    55e8:	f9401ba1 	ldr	x1, [x29,#48]
    55ec:	f9400c21 	ldr	x1, [x1,#24]
    55f0:	f9000c01 	str	x1, [x0,#24]
/home/optee/RPi3/optee_os/lib/libutils/isoc/bget.c:920
    55f4:	f9401fa0 	ldr	x0, [x29,#56]
    55f8:	f9400401 	ldr	x1, [x0,#8]
    55fc:	f9401ba0 	ldr	x0, [x29,#48]
    5600:	f9400400 	ldr	x0, [x0,#8]
    5604:	8b000021 	add	x1, x1, x0
    5608:	f9401fa0 	ldr	x0, [x29,#56]
    560c:	f9000401 	str	x1, [x0,#8]
/home/optee/RPi3/optee_os/lib/libutils/isoc/bget.c:929
    5610:	f9401fa0 	ldr	x0, [x29,#56]
    5614:	f9400400 	ldr	x0, [x0,#8]
    5618:	aa0003e1 	mov	x1, x0
    561c:	f9401fa0 	ldr	x0, [x29,#56]
    5620:	8b010000 	add	x0, x0, x1
    5624:	f9001ba0 	str	x0, [x29,#48]
/home/optee/RPi3/optee_os/lib/libutils/isoc/bget.c:935
    5628:	f9401ba0 	ldr	x0, [x29,#48]
    562c:	f9400400 	ldr	x0, [x0,#8]
    5630:	eb1f001f 	cmp	x0, xzr
    5634:	5400010b 	b.lt	5654 <brel+0x3e8>
/home/optee/RPi3/optee_os/lib/libutils/isoc/bget.c:935 (discriminator 1)
    5638:	90000060 	adrp	x0, 11000 <__func__.3864+0x18>
    563c:	910d2001 	add	x1, x0, #0x348
    5640:	90000060 	adrp	x0, 11000 <__func__.3864+0x18>
    5644:	91166000 	add	x0, x0, #0x598
    5648:	528074e2 	mov	w2, #0x3a7                 	// #935
    564c:	97fffdc1 	bl	4d50 <_assert_log>
    5650:	97fffdd4 	bl	4da0 <_assert_break>
/home/optee/RPi3/optee_os/lib/libutils/isoc/bget.c:940
    5654:	f9401fa0 	ldr	x0, [x29,#56]
    5658:	f9400401 	ldr	x1, [x0,#8]
    565c:	f9401ba0 	ldr	x0, [x29,#48]
    5660:	f9000001 	str	x1, [x0]
/home/optee/RPi3/optee_os/lib/libutils/isoc/bget.c:967
    5664:	d503201f 	nop
    5668:	f9400bf3 	ldr	x19, [sp,#16]
    566c:	a8c47bfd 	ldp	x29, x30, [sp],#64
    5670:	d65f03c0 	ret

0000000000005674 <bpool>:
bpool():
/home/optee/RPi3/optee_os/lib/libutils/isoc/bget.c:991
    5674:	a9bd7bfd 	stp	x29, x30, [sp,#-48]!
    5678:	910003fd 	mov	x29, sp
    567c:	f9000fa0 	str	x0, [x29,#24]
    5680:	f9000ba1 	str	x1, [x29,#16]
/home/optee/RPi3/optee_os/lib/libutils/isoc/bget.c:992
    5684:	f9400fa0 	ldr	x0, [x29,#24]
    5688:	f90017a0 	str	x0, [x29,#40]
/home/optee/RPi3/optee_os/lib/libutils/isoc/bget.c:996
    568c:	f9400ba0 	ldr	x0, [x29,#16]
    5690:	927cec00 	and	x0, x0, #0xfffffffffffffff0
    5694:	f9000ba0 	str	x0, [x29,#16]
/home/optee/RPi3/optee_os/lib/libutils/isoc/bget.c:1015
    5698:	f9400ba0 	ldr	x0, [x29,#16]
    569c:	d1004000 	sub	x0, x0, #0x10
    56a0:	eb1f001f 	cmp	x0, xzr
    56a4:	5400010a 	b.ge	56c4 <bpool+0x50>
/home/optee/RPi3/optee_os/lib/libutils/isoc/bget.c:1015 (discriminator 1)
    56a8:	90000060 	adrp	x0, 11000 <__func__.3864+0x18>
    56ac:	910d2001 	add	x1, x0, #0x348
    56b0:	90000060 	adrp	x0, 11000 <__func__.3864+0x18>
    56b4:	9116c000 	add	x0, x0, #0x5b0
    56b8:	52807ee2 	mov	w2, #0x3f7                 	// #1015
    56bc:	97fffda5 	bl	4d50 <_assert_log>
    56c0:	97fffdb8 	bl	4da0 <_assert_break>
/home/optee/RPi3/optee_os/lib/libutils/isoc/bget.c:1021
    56c4:	f94017a0 	ldr	x0, [x29,#40]
    56c8:	f900001f 	str	xzr, [x0]
/home/optee/RPi3/optee_os/lib/libutils/isoc/bget.c:1025
    56cc:	d0000060 	adrp	x0, 13000 <ta_props>
    56d0:	91042000 	add	x0, x0, #0x108
    56d4:	f9400c00 	ldr	x0, [x0,#24]
    56d8:	f9400801 	ldr	x1, [x0,#16]
    56dc:	d0000060 	adrp	x0, 13000 <ta_props>
    56e0:	91042000 	add	x0, x0, #0x108
    56e4:	eb00003f 	cmp	x1, x0
    56e8:	54000100 	b.eq	5708 <bpool+0x94>
/home/optee/RPi3/optee_os/lib/libutils/isoc/bget.c:1025 (discriminator 1)
    56ec:	90000060 	adrp	x0, 11000 <__func__.3864+0x18>
    56f0:	910d2001 	add	x1, x0, #0x348
    56f4:	90000060 	adrp	x0, 11000 <__func__.3864+0x18>
    56f8:	9112e000 	add	x0, x0, #0x4b8
    56fc:	52808022 	mov	w2, #0x401                 	// #1025
    5700:	97fffd94 	bl	4d50 <_assert_log>
    5704:	97fffda7 	bl	4da0 <_assert_break>
/home/optee/RPi3/optee_os/lib/libutils/isoc/bget.c:1026
    5708:	d0000060 	adrp	x0, 13000 <ta_props>
    570c:	91042000 	add	x0, x0, #0x108
    5710:	f9400800 	ldr	x0, [x0,#16]
    5714:	f9400c01 	ldr	x1, [x0,#24]
    5718:	d0000060 	adrp	x0, 13000 <ta_props>
    571c:	91042000 	add	x0, x0, #0x108
    5720:	eb00003f 	cmp	x1, x0
    5724:	54000100 	b.eq	5744 <bpool+0xd0>
/home/optee/RPi3/optee_os/lib/libutils/isoc/bget.c:1026 (discriminator 1)
    5728:	90000060 	adrp	x0, 11000 <__func__.3864+0x18>
    572c:	910d2001 	add	x1, x0, #0x348
    5730:	90000060 	adrp	x0, 11000 <__func__.3864+0x18>
    5734:	9113a000 	add	x0, x0, #0x4e8
    5738:	52808042 	mov	w2, #0x402                 	// #1026
    573c:	97fffd85 	bl	4d50 <_assert_log>
    5740:	97fffd98 	bl	4da0 <_assert_break>
/home/optee/RPi3/optee_os/lib/libutils/isoc/bget.c:1027
    5744:	f94017a0 	ldr	x0, [x29,#40]
    5748:	d0000061 	adrp	x1, 13000 <ta_props>
    574c:	91042021 	add	x1, x1, #0x108
    5750:	f9000801 	str	x1, [x0,#16]
/home/optee/RPi3/optee_os/lib/libutils/isoc/bget.c:1028
    5754:	d0000060 	adrp	x0, 13000 <ta_props>
    5758:	91042000 	add	x0, x0, #0x108
    575c:	f9400c01 	ldr	x1, [x0,#24]
    5760:	f94017a0 	ldr	x0, [x29,#40]
    5764:	f9000c01 	str	x1, [x0,#24]
/home/optee/RPi3/optee_os/lib/libutils/isoc/bget.c:1029
    5768:	d0000060 	adrp	x0, 13000 <ta_props>
    576c:	91042000 	add	x0, x0, #0x108
    5770:	f94017a1 	ldr	x1, [x29,#40]
    5774:	f9000c01 	str	x1, [x0,#24]
/home/optee/RPi3/optee_os/lib/libutils/isoc/bget.c:1030
    5778:	f94017a0 	ldr	x0, [x29,#40]
    577c:	f9400c00 	ldr	x0, [x0,#24]
    5780:	f94017a1 	ldr	x1, [x29,#40]
    5784:	f9000801 	str	x1, [x0,#16]
/home/optee/RPi3/optee_os/lib/libutils/isoc/bget.c:1040
    5788:	f9400ba0 	ldr	x0, [x29,#16]
    578c:	d1004000 	sub	x0, x0, #0x10
    5790:	f9000ba0 	str	x0, [x29,#16]
/home/optee/RPi3/optee_os/lib/libutils/isoc/bget.c:1041
    5794:	f94017a0 	ldr	x0, [x29,#40]
    5798:	f9400ba1 	ldr	x1, [x29,#16]
    579c:	f9000401 	str	x1, [x0,#8]
/home/optee/RPi3/optee_os/lib/libutils/isoc/bget.c:1046
    57a0:	f9400ba0 	ldr	x0, [x29,#16]
    57a4:	f94017a1 	ldr	x1, [x29,#40]
    57a8:	8b000020 	add	x0, x1, x0
    57ac:	f90013a0 	str	x0, [x29,#32]
/home/optee/RPi3/optee_os/lib/libutils/isoc/bget.c:1047
    57b0:	f94013a0 	ldr	x0, [x29,#32]
    57b4:	f9400ba1 	ldr	x1, [x29,#16]
    57b8:	f9000001 	str	x1, [x0]
/home/optee/RPi3/optee_os/lib/libutils/isoc/bget.c:1050
    57bc:	f94013a0 	ldr	x0, [x29,#32]
    57c0:	d2f00001 	mov	x1, #0x8000000000000000    	// #-9223372036854775808
    57c4:	f9000401 	str	x1, [x0,#8]
/home/optee/RPi3/optee_os/lib/libutils/isoc/bget.c:1051
    57c8:	d503201f 	nop
    57cc:	a8c37bfd 	ldp	x29, x30, [sp],#48
    57d0:	d65f03c0 	ret

00000000000057d4 <bstats>:
bstats():
/home/optee/RPi3/optee_os/lib/libutils/isoc/bget.c:1060
    57d4:	a9bb7bfd 	stp	x29, x30, [sp,#-80]!
    57d8:	910003fd 	mov	x29, sp
    57dc:	f9001fa0 	str	x0, [x29,#56]
    57e0:	f9001ba1 	str	x1, [x29,#48]
    57e4:	f90017a2 	str	x2, [x29,#40]
    57e8:	f90013a3 	str	x3, [x29,#32]
    57ec:	f9000fa4 	str	x4, [x29,#24]
/home/optee/RPi3/optee_os/lib/libutils/isoc/bget.c:1061
    57f0:	d0000060 	adrp	x0, 13000 <ta_props>
    57f4:	91042000 	add	x0, x0, #0x108
    57f8:	f9400800 	ldr	x0, [x0,#16]
    57fc:	f90027a0 	str	x0, [x29,#72]
/home/optee/RPi3/optee_os/lib/libutils/isoc/bget.c:1063
    5800:	f00000a0 	adrp	x0, 1c000 <mempool_u32+0xe80>
    5804:	9133a000 	add	x0, x0, #0xce8
    5808:	f9400001 	ldr	x1, [x0]
    580c:	f94013a0 	ldr	x0, [x29,#32]
    5810:	f9000001 	str	x1, [x0]
/home/optee/RPi3/optee_os/lib/libutils/isoc/bget.c:1064
    5814:	f00000a0 	adrp	x0, 1c000 <mempool_u32+0xe80>
    5818:	9133c000 	add	x0, x0, #0xcf0
    581c:	f9400001 	ldr	x1, [x0]
    5820:	f9400fa0 	ldr	x0, [x29,#24]
    5824:	f9000001 	str	x1, [x0]
/home/optee/RPi3/optee_os/lib/libutils/isoc/bget.c:1065
    5828:	f00000a0 	adrp	x0, 1c000 <mempool_u32+0xe80>
    582c:	91338000 	add	x0, x0, #0xce0
    5830:	f9400001 	ldr	x1, [x0]
    5834:	f9401fa0 	ldr	x0, [x29,#56]
    5838:	f9000001 	str	x1, [x0]
/home/optee/RPi3/optee_os/lib/libutils/isoc/bget.c:1066
    583c:	f9401ba0 	ldr	x0, [x29,#48]
    5840:	f900001f 	str	xzr, [x0]
/home/optee/RPi3/optee_os/lib/libutils/isoc/bget.c:1067
    5844:	f94017a0 	ldr	x0, [x29,#40]
    5848:	92800001 	mov	x1, #0xffffffffffffffff    	// #-1
    584c:	f9000001 	str	x1, [x0]
/home/optee/RPi3/optee_os/lib/libutils/isoc/bget.c:1068
    5850:	14000020 	b	58d0 <bstats+0xfc>
/home/optee/RPi3/optee_os/lib/libutils/isoc/bget.c:1069
    5854:	f94027a0 	ldr	x0, [x29,#72]
    5858:	f9400400 	ldr	x0, [x0,#8]
    585c:	eb1f001f 	cmp	x0, xzr
    5860:	5400010c 	b.gt	5880 <bstats+0xac>
/home/optee/RPi3/optee_os/lib/libutils/isoc/bget.c:1069 (discriminator 1)
    5864:	90000060 	adrp	x0, 11000 <__func__.3864+0x18>
    5868:	910d2001 	add	x1, x0, #0x348
    586c:	90000060 	adrp	x0, 11000 <__func__.3864+0x18>
    5870:	9117a000 	add	x0, x0, #0x5e8
    5874:	528085a2 	mov	w2, #0x42d                 	// #1069
    5878:	97fffd36 	bl	4d50 <_assert_log>
    587c:	97fffd49 	bl	4da0 <_assert_break>
/home/optee/RPi3/optee_os/lib/libutils/isoc/bget.c:1070
    5880:	f9401ba0 	ldr	x0, [x29,#48]
    5884:	f9400001 	ldr	x1, [x0]
    5888:	f94027a0 	ldr	x0, [x29,#72]
    588c:	f9400400 	ldr	x0, [x0,#8]
    5890:	8b000021 	add	x1, x1, x0
    5894:	f9401ba0 	ldr	x0, [x29,#48]
    5898:	f9000001 	str	x1, [x0]
/home/optee/RPi3/optee_os/lib/libutils/isoc/bget.c:1071
    589c:	f94027a0 	ldr	x0, [x29,#72]
    58a0:	f9400401 	ldr	x1, [x0,#8]
    58a4:	f94017a0 	ldr	x0, [x29,#40]
    58a8:	f9400000 	ldr	x0, [x0]
    58ac:	eb00003f 	cmp	x1, x0
    58b0:	540000ad 	b.le	58c4 <bstats+0xf0>
/home/optee/RPi3/optee_os/lib/libutils/isoc/bget.c:1072
    58b4:	f94027a0 	ldr	x0, [x29,#72]
    58b8:	f9400401 	ldr	x1, [x0,#8]
    58bc:	f94017a0 	ldr	x0, [x29,#40]
    58c0:	f9000001 	str	x1, [x0]
/home/optee/RPi3/optee_os/lib/libutils/isoc/bget.c:1074
    58c4:	f94027a0 	ldr	x0, [x29,#72]
    58c8:	f9400800 	ldr	x0, [x0,#16]
    58cc:	f90027a0 	str	x0, [x29,#72]
/home/optee/RPi3/optee_os/lib/libutils/isoc/bget.c:1068
    58d0:	f94027a1 	ldr	x1, [x29,#72]
    58d4:	d0000060 	adrp	x0, 13000 <ta_props>
    58d8:	91042000 	add	x0, x0, #0x108
    58dc:	eb00003f 	cmp	x1, x0
    58e0:	54fffba1 	b.ne	5854 <bstats+0x80>
/home/optee/RPi3/optee_os/lib/libutils/isoc/bget.c:1076
    58e4:	d503201f 	nop
    58e8:	a8c57bfd 	ldp	x29, x30, [sp],#80
    58ec:	d65f03c0 	ret

00000000000058f0 <malloc_lock>:
malloc_lock():
/home/optee/RPi3/optee_os/lib/libutils/isoc/bget_malloc.c:130
    58f0:	d503201f 	nop
    58f4:	d65f03c0 	ret

00000000000058f8 <malloc_unlock>:
malloc_unlock():
/home/optee/RPi3/optee_os/lib/libutils/isoc/bget_malloc.c:134
    58f8:	d503201f 	nop
    58fc:	d65f03c0 	ret

0000000000005900 <raw_malloc_save_max_alloced_size>:
raw_malloc_save_max_alloced_size():
/home/optee/RPi3/optee_os/lib/libutils/isoc/bget_malloc.c:154
    5900:	f00000a0 	adrp	x0, 1c000 <mempool_u32+0xe80>
    5904:	91338000 	add	x0, x0, #0xce0
    5908:	f9400000 	ldr	x0, [x0]
    590c:	aa0003e1 	mov	x1, x0
    5910:	f00000a0 	adrp	x0, 1c000 <mempool_u32+0xe80>
    5914:	91342000 	add	x0, x0, #0xd08
    5918:	f9400000 	ldr	x0, [x0]
    591c:	eb00003f 	cmp	x1, x0
    5920:	54000109 	b.ls	5940 <raw_malloc_save_max_alloced_size+0x40>
/home/optee/RPi3/optee_os/lib/libutils/isoc/bget_malloc.c:155
    5924:	f00000a0 	adrp	x0, 1c000 <mempool_u32+0xe80>
    5928:	91338000 	add	x0, x0, #0xce0
    592c:	f9400000 	ldr	x0, [x0]
    5930:	aa0003e1 	mov	x1, x0
    5934:	f00000a0 	adrp	x0, 1c000 <mempool_u32+0xe80>
    5938:	91342000 	add	x0, x0, #0xd08
    593c:	f9000001 	str	x1, [x0]
/home/optee/RPi3/optee_os/lib/libutils/isoc/bget_malloc.c:156
    5940:	d503201f 	nop
    5944:	d65f03c0 	ret

0000000000005948 <malloc_reset_max_allocated>:
malloc_reset_max_allocated():
/home/optee/RPi3/optee_os/lib/libutils/isoc/bget_malloc.c:159
    5948:	a9bf7bfd 	stp	x29, x30, [sp,#-16]!
    594c:	910003fd 	mov	x29, sp
/home/optee/RPi3/optee_os/lib/libutils/isoc/bget_malloc.c:160
    5950:	97ffffe8 	bl	58f0 <malloc_lock>
/home/optee/RPi3/optee_os/lib/libutils/isoc/bget_malloc.c:161
    5954:	f00000a0 	adrp	x0, 1c000 <mempool_u32+0xe80>
    5958:	91342000 	add	x0, x0, #0xd08
    595c:	f900001f 	str	xzr, [x0]
/home/optee/RPi3/optee_os/lib/libutils/isoc/bget_malloc.c:162
    5960:	97ffffe6 	bl	58f8 <malloc_unlock>
/home/optee/RPi3/optee_os/lib/libutils/isoc/bget_malloc.c:163
    5964:	d503201f 	nop
    5968:	a8c17bfd 	ldp	x29, x30, [sp],#16
    596c:	d65f03c0 	ret

0000000000005970 <malloc_get_max_allocated>:
malloc_get_max_allocated():
/home/optee/RPi3/optee_os/lib/libutils/isoc/bget_malloc.c:166
    5970:	a9be7bfd 	stp	x29, x30, [sp,#-32]!
    5974:	910003fd 	mov	x29, sp
/home/optee/RPi3/optee_os/lib/libutils/isoc/bget_malloc.c:169
    5978:	97ffffde 	bl	58f0 <malloc_lock>
/home/optee/RPi3/optee_os/lib/libutils/isoc/bget_malloc.c:170
    597c:	f00000a0 	adrp	x0, 1c000 <mempool_u32+0xe80>
    5980:	91342000 	add	x0, x0, #0xd08
    5984:	f9400000 	ldr	x0, [x0]
    5988:	f9000fa0 	str	x0, [x29,#24]
/home/optee/RPi3/optee_os/lib/libutils/isoc/bget_malloc.c:171
    598c:	97ffffdb 	bl	58f8 <malloc_unlock>
/home/optee/RPi3/optee_os/lib/libutils/isoc/bget_malloc.c:172
    5990:	f9400fa0 	ldr	x0, [x29,#24]
/home/optee/RPi3/optee_os/lib/libutils/isoc/bget_malloc.c:173
    5994:	a8c27bfd 	ldp	x29, x30, [sp],#32
    5998:	d65f03c0 	ret

000000000000599c <malloc_get_allocated>:
malloc_get_allocated():
/home/optee/RPi3/optee_os/lib/libutils/isoc/bget_malloc.c:176
    599c:	a9be7bfd 	stp	x29, x30, [sp,#-32]!
    59a0:	910003fd 	mov	x29, sp
/home/optee/RPi3/optee_os/lib/libutils/isoc/bget_malloc.c:179
    59a4:	97ffffd3 	bl	58f0 <malloc_lock>
/home/optee/RPi3/optee_os/lib/libutils/isoc/bget_malloc.c:180
    59a8:	f00000a0 	adrp	x0, 1c000 <mempool_u32+0xe80>
    59ac:	91338000 	add	x0, x0, #0xce0
    59b0:	f9400000 	ldr	x0, [x0]
    59b4:	f9000fa0 	str	x0, [x29,#24]
/home/optee/RPi3/optee_os/lib/libutils/isoc/bget_malloc.c:181
    59b8:	97ffffd0 	bl	58f8 <malloc_unlock>
/home/optee/RPi3/optee_os/lib/libutils/isoc/bget_malloc.c:182
    59bc:	f9400fa0 	ldr	x0, [x29,#24]
/home/optee/RPi3/optee_os/lib/libutils/isoc/bget_malloc.c:183
    59c0:	a8c27bfd 	ldp	x29, x30, [sp],#32
    59c4:	d65f03c0 	ret

00000000000059c8 <malloc_get_heap_size>:
malloc_get_heap_size():
/home/optee/RPi3/optee_os/lib/libutils/isoc/bget_malloc.c:207
    59c8:	a9be7bfd 	stp	x29, x30, [sp,#-32]!
    59cc:	910003fd 	mov	x29, sp
/home/optee/RPi3/optee_os/lib/libutils/isoc/bget_malloc.c:209
    59d0:	f9000bbf 	str	xzr, [x29,#16]
/home/optee/RPi3/optee_os/lib/libutils/isoc/bget_malloc.c:211
    59d4:	97ffffc7 	bl	58f0 <malloc_lock>
/home/optee/RPi3/optee_os/lib/libutils/isoc/bget_malloc.c:213
    59d8:	f9000fbf 	str	xzr, [x29,#24]
    59dc:	1400000e 	b	5a14 <malloc_get_heap_size+0x4c>
/home/optee/RPi3/optee_os/lib/libutils/isoc/bget_malloc.c:214 (discriminator 3)
    59e0:	f00000a0 	adrp	x0, 1c000 <mempool_u32+0xe80>
    59e4:	9133e000 	add	x0, x0, #0xcf8
    59e8:	f9400001 	ldr	x1, [x0]
    59ec:	f9400fa0 	ldr	x0, [x29,#24]
    59f0:	d37cec00 	lsl	x0, x0, #4
    59f4:	8b000020 	add	x0, x1, x0
    59f8:	f9400400 	ldr	x0, [x0,#8]
    59fc:	f9400ba1 	ldr	x1, [x29,#16]
    5a00:	8b000020 	add	x0, x1, x0
    5a04:	f9000ba0 	str	x0, [x29,#16]
/home/optee/RPi3/optee_os/lib/libutils/isoc/bget_malloc.c:213 (discriminator 3)
    5a08:	f9400fa0 	ldr	x0, [x29,#24]
    5a0c:	91000400 	add	x0, x0, #0x1
    5a10:	f9000fa0 	str	x0, [x29,#24]
/home/optee/RPi3/optee_os/lib/libutils/isoc/bget_malloc.c:213 (discriminator 1)
    5a14:	f00000a0 	adrp	x0, 1c000 <mempool_u32+0xe80>
    5a18:	91340000 	add	x0, x0, #0xd00
    5a1c:	f9400000 	ldr	x0, [x0]
    5a20:	f9400fa1 	ldr	x1, [x29,#24]
    5a24:	eb00003f 	cmp	x1, x0
    5a28:	54fffdc3 	b.cc	59e0 <malloc_get_heap_size+0x18>
/home/optee/RPi3/optee_os/lib/libutils/isoc/bget_malloc.c:216
    5a2c:	97ffffb3 	bl	58f8 <malloc_unlock>
/home/optee/RPi3/optee_os/lib/libutils/isoc/bget_malloc.c:218
    5a30:	f9400ba0 	ldr	x0, [x29,#16]
/home/optee/RPi3/optee_os/lib/libutils/isoc/bget_malloc.c:219
    5a34:	a8c27bfd 	ldp	x29, x30, [sp],#32
    5a38:	d65f03c0 	ret

0000000000005a3c <raw_malloc_validate_pools>:
raw_malloc_validate_pools():
/home/optee/RPi3/optee_os/lib/libutils/isoc/bget_malloc.c:232
    5a3c:	d503201f 	nop
    5a40:	d65f03c0 	ret

0000000000005a44 <bpool_foreach_iterator_init>:
bpool_foreach_iterator_init():
/home/optee/RPi3/optee_os/lib/libutils/isoc/bget_malloc.c:241
    5a44:	d10043ff 	sub	sp, sp, #0x10
    5a48:	f90007e0 	str	x0, [sp,#8]
/home/optee/RPi3/optee_os/lib/libutils/isoc/bget_malloc.c:242
    5a4c:	f94007e0 	ldr	x0, [sp,#8]
    5a50:	f900041f 	str	xzr, [x0,#8]
/home/optee/RPi3/optee_os/lib/libutils/isoc/bget_malloc.c:243
    5a54:	f00000a0 	adrp	x0, 1c000 <mempool_u32+0xe80>
    5a58:	9133e000 	add	x0, x0, #0xcf8
    5a5c:	f9400000 	ldr	x0, [x0]
    5a60:	f9400001 	ldr	x1, [x0]
    5a64:	f94007e0 	ldr	x0, [sp,#8]
    5a68:	f9000001 	str	x1, [x0]
/home/optee/RPi3/optee_os/lib/libutils/isoc/bget_malloc.c:244
    5a6c:	d503201f 	nop
    5a70:	910043ff 	add	sp, sp, #0x10
    5a74:	d65f03c0 	ret

0000000000005a78 <bpool_foreach_pool>:
bpool_foreach_pool():
/home/optee/RPi3/optee_os/lib/libutils/isoc/bget_malloc.c:248
    5a78:	a9bc7bfd 	stp	x29, x30, [sp,#-64]!
    5a7c:	910003fd 	mov	x29, sp
    5a80:	f90017a0 	str	x0, [x29,#40]
    5a84:	f90013a1 	str	x1, [x29,#32]
    5a88:	f9000fa2 	str	x2, [x29,#24]
    5a8c:	f9000ba3 	str	x3, [x29,#16]
/home/optee/RPi3/optee_os/lib/libutils/isoc/bget_malloc.c:249
    5a90:	f94017a0 	ldr	x0, [x29,#40]
    5a94:	f9400000 	ldr	x0, [x0]
    5a98:	f9001ba0 	str	x0, [x29,#48]
/home/optee/RPi3/optee_os/lib/libutils/isoc/bget_malloc.c:250
    5a9c:	f9401ba0 	ldr	x0, [x29,#48]
    5aa0:	f9400400 	ldr	x0, [x0,#8]
    5aa4:	f9001fa0 	str	x0, [x29,#56]
/home/optee/RPi3/optee_os/lib/libutils/isoc/bget_malloc.c:252
    5aa8:	f9401fa1 	ldr	x1, [x29,#56]
    5aac:	d2f00000 	mov	x0, #0x8000000000000000    	// #-9223372036854775808
    5ab0:	eb00003f 	cmp	x1, x0
    5ab4:	54000061 	b.ne	5ac0 <bpool_foreach_pool+0x48>
/home/optee/RPi3/optee_os/lib/libutils/isoc/bget_malloc.c:253
    5ab8:	52800000 	mov	w0, #0x0                   	// #0
    5abc:	14000035 	b	5b90 <bpool_foreach_pool+0x118>
/home/optee/RPi3/optee_os/lib/libutils/isoc/bget_malloc.c:255
    5ac0:	f9401fa0 	ldr	x0, [x29,#56]
    5ac4:	eb1f001f 	cmp	x0, xzr
    5ac8:	540000ea 	b.ge	5ae4 <bpool_foreach_pool+0x6c>
/home/optee/RPi3/optee_os/lib/libutils/isoc/bget_malloc.c:257
    5acc:	f9401fa0 	ldr	x0, [x29,#56]
    5ad0:	cb0003e0 	neg	x0, x0
    5ad4:	f9001fa0 	str	x0, [x29,#56]
/home/optee/RPi3/optee_os/lib/libutils/isoc/bget_malloc.c:259
    5ad8:	f9400ba0 	ldr	x0, [x29,#16]
    5adc:	3900001f 	strb	wzr, [x0]
    5ae0:	1400001e 	b	5b58 <bpool_foreach_pool+0xe0>
/home/optee/RPi3/optee_os/lib/libutils/isoc/bget_malloc.c:262
    5ae4:	f9400ba0 	ldr	x0, [x29,#16]
    5ae8:	52800021 	mov	w1, #0x1                   	// #1
    5aec:	39000001 	strb	w1, [x0]
/home/optee/RPi3/optee_os/lib/libutils/isoc/bget_malloc.c:265
    5af0:	f9401ba0 	ldr	x0, [x29,#48]
    5af4:	f9400c00 	ldr	x0, [x0,#24]
    5af8:	f9400801 	ldr	x1, [x0,#16]
    5afc:	f9401ba0 	ldr	x0, [x29,#48]
    5b00:	eb00003f 	cmp	x1, x0
    5b04:	54000100 	b.eq	5b24 <bpool_foreach_pool+0xac>
/home/optee/RPi3/optee_os/lib/libutils/isoc/bget_malloc.c:265 (discriminator 1)
    5b08:	90000060 	adrp	x0, 11000 <__func__.3864+0x18>
    5b0c:	9117e001 	add	x1, x0, #0x5f8
    5b10:	90000060 	adrp	x0, 11000 <__func__.3864+0x18>
    5b14:	910ee000 	add	x0, x0, #0x3b8
    5b18:	52802122 	mov	w2, #0x109                 	// #265
    5b1c:	97fffc8d 	bl	4d50 <_assert_log>
    5b20:	97fffca0 	bl	4da0 <_assert_break>
/home/optee/RPi3/optee_os/lib/libutils/isoc/bget_malloc.c:266
    5b24:	f9401ba0 	ldr	x0, [x29,#48]
    5b28:	f9400800 	ldr	x0, [x0,#16]
    5b2c:	f9400c01 	ldr	x1, [x0,#24]
    5b30:	f9401ba0 	ldr	x0, [x29,#48]
    5b34:	eb00003f 	cmp	x1, x0
    5b38:	54000100 	b.eq	5b58 <bpool_foreach_pool+0xe0>
/home/optee/RPi3/optee_os/lib/libutils/isoc/bget_malloc.c:266 (discriminator 1)
    5b3c:	90000060 	adrp	x0, 11000 <__func__.3864+0x18>
    5b40:	9117e001 	add	x1, x0, #0x5f8
    5b44:	90000060 	adrp	x0, 11000 <__func__.3864+0x18>
    5b48:	910f6000 	add	x0, x0, #0x3d8
    5b4c:	52802142 	mov	w2, #0x10a                 	// #266
    5b50:	97fffc80 	bl	4d50 <_assert_log>
    5b54:	97fffc93 	bl	4da0 <_assert_break>
/home/optee/RPi3/optee_os/lib/libutils/isoc/bget_malloc.c:269
    5b58:	f9401ba0 	ldr	x0, [x29,#48]
    5b5c:	91004001 	add	x1, x0, #0x10
    5b60:	f94013a0 	ldr	x0, [x29,#32]
    5b64:	f9000001 	str	x1, [x0]
/home/optee/RPi3/optee_os/lib/libutils/isoc/bget_malloc.c:270
    5b68:	f9401fa0 	ldr	x0, [x29,#56]
    5b6c:	d1004001 	sub	x1, x0, #0x10
    5b70:	f9400fa0 	ldr	x0, [x29,#24]
    5b74:	f9000001 	str	x1, [x0]
/home/optee/RPi3/optee_os/lib/libutils/isoc/bget_malloc.c:272
    5b78:	f9401fa0 	ldr	x0, [x29,#56]
    5b7c:	f9401ba1 	ldr	x1, [x29,#48]
    5b80:	8b000021 	add	x1, x1, x0
    5b84:	f94017a0 	ldr	x0, [x29,#40]
    5b88:	f9000001 	str	x1, [x0]
/home/optee/RPi3/optee_os/lib/libutils/isoc/bget_malloc.c:273
    5b8c:	52800020 	mov	w0, #0x1                   	// #1
/home/optee/RPi3/optee_os/lib/libutils/isoc/bget_malloc.c:274
    5b90:	a8c47bfd 	ldp	x29, x30, [sp],#64
    5b94:	d65f03c0 	ret

0000000000005b98 <bpool_foreach>:
bpool_foreach():
/home/optee/RPi3/optee_os/lib/libutils/isoc/bget_malloc.c:277
    5b98:	a9bd7bfd 	stp	x29, x30, [sp,#-48]!
    5b9c:	910003fd 	mov	x29, sp
    5ba0:	f9000fa0 	str	x0, [x29,#24]
    5ba4:	f9000ba1 	str	x1, [x29,#16]
/home/optee/RPi3/optee_os/lib/libutils/isoc/bget_malloc.c:282
    5ba8:	91009fa1 	add	x1, x29, #0x27
    5bac:	9100a3a0 	add	x0, x29, #0x28
    5bb0:	aa0103e3 	mov	x3, x1
    5bb4:	aa0003e2 	mov	x2, x0
    5bb8:	f9400ba1 	ldr	x1, [x29,#16]
    5bbc:	f9400fa0 	ldr	x0, [x29,#24]
    5bc0:	97ffffae 	bl	5a78 <bpool_foreach_pool>
    5bc4:	53001c00 	uxtb	w0, w0
    5bc8:	6b1f001f 	cmp	w0, wzr
    5bcc:	540000c0 	b.eq	5be4 <bpool_foreach+0x4c>
/home/optee/RPi3/optee_os/lib/libutils/isoc/bget_malloc.c:283
    5bd0:	39409fa0 	ldrb	w0, [x29,#39]
    5bd4:	6b1f001f 	cmp	w0, wzr
    5bd8:	540003a1 	b.ne	5c4c <bpool_foreach+0xb4>
/home/optee/RPi3/optee_os/lib/libutils/isoc/bget_malloc.c:285
    5bdc:	52800020 	mov	w0, #0x1                   	// #1
    5be0:	1400001d 	b	5c54 <bpool_foreach+0xbc>
/home/optee/RPi3/optee_os/lib/libutils/isoc/bget_malloc.c:288
    5be4:	f9400fa0 	ldr	x0, [x29,#24]
    5be8:	f9400400 	ldr	x0, [x0,#8]
    5bec:	91000401 	add	x1, x0, #0x1
    5bf0:	f00000a0 	adrp	x0, 1c000 <mempool_u32+0xe80>
    5bf4:	91340000 	add	x0, x0, #0xd00
    5bf8:	f9400000 	ldr	x0, [x0]
    5bfc:	eb00003f 	cmp	x1, x0
    5c00:	54000063 	b.cc	5c0c <bpool_foreach+0x74>
/home/optee/RPi3/optee_os/lib/libutils/isoc/bget_malloc.c:289
    5c04:	52800000 	mov	w0, #0x0                   	// #0
    5c08:	14000013 	b	5c54 <bpool_foreach+0xbc>
/home/optee/RPi3/optee_os/lib/libutils/isoc/bget_malloc.c:291
    5c0c:	f9400fa0 	ldr	x0, [x29,#24]
    5c10:	f9400400 	ldr	x0, [x0,#8]
    5c14:	91000401 	add	x1, x0, #0x1
    5c18:	f9400fa0 	ldr	x0, [x29,#24]
    5c1c:	f9000401 	str	x1, [x0,#8]
/home/optee/RPi3/optee_os/lib/libutils/isoc/bget_malloc.c:292
    5c20:	f00000a0 	adrp	x0, 1c000 <mempool_u32+0xe80>
    5c24:	9133e000 	add	x0, x0, #0xcf8
    5c28:	f9400001 	ldr	x1, [x0]
    5c2c:	f9400fa0 	ldr	x0, [x29,#24]
    5c30:	f9400400 	ldr	x0, [x0,#8]
    5c34:	d37cec00 	lsl	x0, x0, #4
    5c38:	8b000020 	add	x0, x1, x0
    5c3c:	f9400001 	ldr	x1, [x0]
    5c40:	f9400fa0 	ldr	x0, [x29,#24]
    5c44:	f9000001 	str	x1, [x0]
    5c48:	17ffffd8 	b	5ba8 <bpool_foreach+0x10>
/home/optee/RPi3/optee_os/lib/libutils/isoc/bget_malloc.c:284
    5c4c:	d503201f 	nop
/home/optee/RPi3/optee_os/lib/libutils/isoc/bget_malloc.c:293
    5c50:	17ffffd6 	b	5ba8 <bpool_foreach+0x10>
/home/optee/RPi3/optee_os/lib/libutils/isoc/bget_malloc.c:294
    5c54:	a8c37bfd 	ldp	x29, x30, [sp],#48
    5c58:	d65f03c0 	ret

0000000000005c5c <raw_malloc>:
raw_malloc():
/home/optee/RPi3/optee_os/lib/libutils/isoc/bget_malloc.c:302
    5c5c:	a9bc7bfd 	stp	x29, x30, [sp,#-64]!
    5c60:	910003fd 	mov	x29, sp
    5c64:	f90017a0 	str	x0, [x29,#40]
    5c68:	f90013a1 	str	x1, [x29,#32]
    5c6c:	f9000fa2 	str	x2, [x29,#24]
/home/optee/RPi3/optee_os/lib/libutils/isoc/bget_malloc.c:304
    5c70:	f94017a1 	ldr	x1, [x29,#40]
    5c74:	f94013a0 	ldr	x0, [x29,#32]
    5c78:	8b000021 	add	x1, x1, x0
    5c7c:	f9400fa0 	ldr	x0, [x29,#24]
    5c80:	8b000020 	add	x0, x1, x0
    5c84:	f9001fa0 	str	x0, [x29,#56]
/home/optee/RPi3/optee_os/lib/libutils/isoc/bget_malloc.c:311
    5c88:	d503201f 	nop
/home/optee/RPi3/optee_os/lib/libutils/isoc/bget_malloc.c:313
    5c8c:	97ffff6c 	bl	5a3c <raw_malloc_validate_pools>
/home/optee/RPi3/optee_os/lib/libutils/isoc/bget_malloc.c:316
    5c90:	f9401fa1 	ldr	x1, [x29,#56]
    5c94:	f9400fa0 	ldr	x0, [x29,#24]
    5c98:	eb00003f 	cmp	x1, x0
    5c9c:	54000062 	b.cs	5ca8 <raw_malloc+0x4c>
/home/optee/RPi3/optee_os/lib/libutils/isoc/bget_malloc.c:317
    5ca0:	d2800000 	mov	x0, #0x0                   	// #0
    5ca4:	1400000c 	b	5cd4 <raw_malloc+0x78>
/home/optee/RPi3/optee_os/lib/libutils/isoc/bget_malloc.c:320
    5ca8:	f9401fa0 	ldr	x0, [x29,#56]
    5cac:	eb1f001f 	cmp	x0, xzr
    5cb0:	54000081 	b.ne	5cc0 <raw_malloc+0x64>
/home/optee/RPi3/optee_os/lib/libutils/isoc/bget_malloc.c:321
    5cb4:	f9401fa0 	ldr	x0, [x29,#56]
    5cb8:	91000400 	add	x0, x0, #0x1
    5cbc:	f9001fa0 	str	x0, [x29,#56]
/home/optee/RPi3/optee_os/lib/libutils/isoc/bget_malloc.c:323
    5cc0:	f9401fa0 	ldr	x0, [x29,#56]
    5cc4:	97fffc3b 	bl	4db0 <bget>
    5cc8:	f9001ba0 	str	x0, [x29,#48]
/home/optee/RPi3/optee_os/lib/libutils/isoc/bget_malloc.c:324
    5ccc:	97ffff0d 	bl	5900 <raw_malloc_save_max_alloced_size>
/home/optee/RPi3/optee_os/lib/libutils/isoc/bget_malloc.c:326
    5cd0:	f9401ba0 	ldr	x0, [x29,#48]
/home/optee/RPi3/optee_os/lib/libutils/isoc/bget_malloc.c:327
    5cd4:	a8c47bfd 	ldp	x29, x30, [sp],#64
    5cd8:	d65f03c0 	ret

0000000000005cdc <raw_free>:
raw_free():
/home/optee/RPi3/optee_os/lib/libutils/isoc/bget_malloc.c:330
    5cdc:	a9be7bfd 	stp	x29, x30, [sp,#-32]!
    5ce0:	910003fd 	mov	x29, sp
    5ce4:	f9000fa0 	str	x0, [x29,#24]
/home/optee/RPi3/optee_os/lib/libutils/isoc/bget_malloc.c:331
    5ce8:	97ffff55 	bl	5a3c <raw_malloc_validate_pools>
/home/optee/RPi3/optee_os/lib/libutils/isoc/bget_malloc.c:333
    5cec:	f9400fa0 	ldr	x0, [x29,#24]
    5cf0:	eb1f001f 	cmp	x0, xzr
    5cf4:	54000060 	b.eq	5d00 <raw_free+0x24>
/home/optee/RPi3/optee_os/lib/libutils/isoc/bget_malloc.c:334
    5cf8:	f9400fa0 	ldr	x0, [x29,#24]
    5cfc:	97fffd5c 	bl	526c <brel>
/home/optee/RPi3/optee_os/lib/libutils/isoc/bget_malloc.c:335
    5d00:	d503201f 	nop
    5d04:	a8c27bfd 	ldp	x29, x30, [sp],#32
    5d08:	d65f03c0 	ret

0000000000005d0c <raw_calloc>:
raw_calloc():
/home/optee/RPi3/optee_os/lib/libutils/isoc/bget_malloc.c:339
    5d0c:	a9bc7bfd 	stp	x29, x30, [sp,#-64]!
    5d10:	910003fd 	mov	x29, sp
    5d14:	f90017a0 	str	x0, [x29,#40]
    5d18:	f90013a1 	str	x1, [x29,#32]
    5d1c:	f9000fa2 	str	x2, [x29,#24]
    5d20:	f9000ba3 	str	x3, [x29,#16]
/home/optee/RPi3/optee_os/lib/libutils/isoc/bget_malloc.c:340
    5d24:	f94017a1 	ldr	x1, [x29,#40]
    5d28:	f94013a0 	ldr	x0, [x29,#32]
    5d2c:	8b000021 	add	x1, x1, x0
    5d30:	f9400fa2 	ldr	x2, [x29,#24]
    5d34:	f9400ba0 	ldr	x0, [x29,#16]
    5d38:	9b007c40 	mul	x0, x2, x0
    5d3c:	8b000020 	add	x0, x1, x0
    5d40:	f9001fa0 	str	x0, [x29,#56]
/home/optee/RPi3/optee_os/lib/libutils/isoc/bget_malloc.c:343
    5d44:	97ffff3e 	bl	5a3c <raw_malloc_validate_pools>
/home/optee/RPi3/optee_os/lib/libutils/isoc/bget_malloc.c:346
    5d48:	f9401fa1 	ldr	x1, [x29,#56]
    5d4c:	f9400fa0 	ldr	x0, [x29,#24]
    5d50:	eb00003f 	cmp	x1, x0
    5d54:	540000a3 	b.cc	5d68 <raw_calloc+0x5c>
/home/optee/RPi3/optee_os/lib/libutils/isoc/bget_malloc.c:346 (discriminator 1)
    5d58:	f9401fa1 	ldr	x1, [x29,#56]
    5d5c:	f9400ba0 	ldr	x0, [x29,#16]
    5d60:	eb00003f 	cmp	x1, x0
    5d64:	54000062 	b.cs	5d70 <raw_calloc+0x64>
/home/optee/RPi3/optee_os/lib/libutils/isoc/bget_malloc.c:347
    5d68:	d2800000 	mov	x0, #0x0                   	// #0
    5d6c:	1400000c 	b	5d9c <raw_calloc+0x90>
/home/optee/RPi3/optee_os/lib/libutils/isoc/bget_malloc.c:350
    5d70:	f9401fa0 	ldr	x0, [x29,#56]
    5d74:	eb1f001f 	cmp	x0, xzr
    5d78:	54000081 	b.ne	5d88 <raw_calloc+0x7c>
/home/optee/RPi3/optee_os/lib/libutils/isoc/bget_malloc.c:351
    5d7c:	f9401fa0 	ldr	x0, [x29,#56]
    5d80:	91000400 	add	x0, x0, #0x1
    5d84:	f9001fa0 	str	x0, [x29,#56]
/home/optee/RPi3/optee_os/lib/libutils/isoc/bget_malloc.c:353
    5d88:	f9401fa0 	ldr	x0, [x29,#56]
    5d8c:	97fffccf 	bl	50c8 <bgetz>
    5d90:	f9001ba0 	str	x0, [x29,#48]
/home/optee/RPi3/optee_os/lib/libutils/isoc/bget_malloc.c:354
    5d94:	97fffedb 	bl	5900 <raw_malloc_save_max_alloced_size>
/home/optee/RPi3/optee_os/lib/libutils/isoc/bget_malloc.c:356
    5d98:	f9401ba0 	ldr	x0, [x29,#48]
/home/optee/RPi3/optee_os/lib/libutils/isoc/bget_malloc.c:357
    5d9c:	a8c47bfd 	ldp	x29, x30, [sp],#64
    5da0:	d65f03c0 	ret

0000000000005da4 <raw_realloc>:
raw_realloc():
/home/optee/RPi3/optee_os/lib/libutils/isoc/bget_malloc.c:361
    5da4:	a9bc7bfd 	stp	x29, x30, [sp,#-64]!
    5da8:	910003fd 	mov	x29, sp
    5dac:	f90017a0 	str	x0, [x29,#40]
    5db0:	f90013a1 	str	x1, [x29,#32]
    5db4:	f9000fa2 	str	x2, [x29,#24]
    5db8:	f9000ba3 	str	x3, [x29,#16]
/home/optee/RPi3/optee_os/lib/libutils/isoc/bget_malloc.c:362
    5dbc:	f94013a1 	ldr	x1, [x29,#32]
    5dc0:	f9400fa0 	ldr	x0, [x29,#24]
    5dc4:	8b000021 	add	x1, x1, x0
    5dc8:	f9400ba0 	ldr	x0, [x29,#16]
    5dcc:	8b000020 	add	x0, x1, x0
    5dd0:	f9001fa0 	str	x0, [x29,#56]
/home/optee/RPi3/optee_os/lib/libutils/isoc/bget_malloc.c:366
    5dd4:	f9401fa1 	ldr	x1, [x29,#56]
    5dd8:	f9400ba0 	ldr	x0, [x29,#16]
    5ddc:	eb00003f 	cmp	x1, x0
    5de0:	54000062 	b.cs	5dec <raw_realloc+0x48>
/home/optee/RPi3/optee_os/lib/libutils/isoc/bget_malloc.c:367
    5de4:	d2800000 	mov	x0, #0x0                   	// #0
    5de8:	1400000f 	b	5e24 <raw_realloc+0x80>
/home/optee/RPi3/optee_os/lib/libutils/isoc/bget_malloc.c:369
    5dec:	97ffff14 	bl	5a3c <raw_malloc_validate_pools>
/home/optee/RPi3/optee_os/lib/libutils/isoc/bget_malloc.c:372
    5df0:	f9401fa0 	ldr	x0, [x29,#56]
    5df4:	eb1f001f 	cmp	x0, xzr
    5df8:	54000081 	b.ne	5e08 <raw_realloc+0x64>
/home/optee/RPi3/optee_os/lib/libutils/isoc/bget_malloc.c:373
    5dfc:	f9401fa0 	ldr	x0, [x29,#56]
    5e00:	91000400 	add	x0, x0, #0x1
    5e04:	f9001fa0 	str	x0, [x29,#56]
/home/optee/RPi3/optee_os/lib/libutils/isoc/bget_malloc.c:375
    5e08:	f9401fa0 	ldr	x0, [x29,#56]
    5e0c:	aa0003e1 	mov	x1, x0
    5e10:	f94017a0 	ldr	x0, [x29,#40]
    5e14:	97fffcdf 	bl	5190 <bgetr>
    5e18:	f9001ba0 	str	x0, [x29,#48]
/home/optee/RPi3/optee_os/lib/libutils/isoc/bget_malloc.c:376
    5e1c:	97fffeb9 	bl	5900 <raw_malloc_save_max_alloced_size>
/home/optee/RPi3/optee_os/lib/libutils/isoc/bget_malloc.c:378
    5e20:	f9401ba0 	ldr	x0, [x29,#48]
/home/optee/RPi3/optee_os/lib/libutils/isoc/bget_malloc.c:379
    5e24:	a8c47bfd 	ldp	x29, x30, [sp],#64
    5e28:	d65f03c0 	ret

0000000000005e2c <create_free_block>:
create_free_block():
/home/optee/RPi3/optee_os/lib/libutils/isoc/bget_malloc.c:382
    5e2c:	a9bd7bfd 	stp	x29, x30, [sp,#-48]!
    5e30:	910003fd 	mov	x29, sp
    5e34:	f90017a0 	str	x0, [x29,#40]
    5e38:	f90013a1 	str	x1, [x29,#32]
    5e3c:	f9000fa2 	str	x2, [x29,#24]
/home/optee/RPi3/optee_os/lib/libutils/isoc/bget_malloc.c:383
    5e40:	f94013a0 	ldr	x0, [x29,#32]
    5e44:	f94017a1 	ldr	x1, [x29,#40]
    5e48:	8b000021 	add	x1, x1, x0
    5e4c:	f9400fa0 	ldr	x0, [x29,#24]
    5e50:	eb00003f 	cmp	x1, x0
    5e54:	54000100 	b.eq	5e74 <create_free_block+0x48>
/home/optee/RPi3/optee_os/lib/libutils/isoc/bget_malloc.c:383 (discriminator 1)
    5e58:	90000060 	adrp	x0, 11000 <__func__.3864+0x18>
    5e5c:	9117e001 	add	x1, x0, #0x5f8
    5e60:	90000060 	adrp	x0, 11000 <__func__.3864+0x18>
    5e64:	91186000 	add	x0, x0, #0x618
    5e68:	52802fe2 	mov	w2, #0x17f                 	// #383
    5e6c:	97fffbb9 	bl	4d50 <_assert_log>
    5e70:	97fffbcc 	bl	4da0 <_assert_break>
/home/optee/RPi3/optee_os/lib/libutils/isoc/bget_malloc.c:384
    5e74:	f9400fa0 	ldr	x0, [x29,#24]
    5e78:	f9400400 	ldr	x0, [x0,#8]
    5e7c:	eb1f001f 	cmp	x0, xzr
    5e80:	5400010b 	b.lt	5ea0 <create_free_block+0x74>
/home/optee/RPi3/optee_os/lib/libutils/isoc/bget_malloc.c:384 (discriminator 1)
    5e84:	90000060 	adrp	x0, 11000 <__func__.3864+0x18>
    5e88:	9117e001 	add	x1, x0, #0x5f8
    5e8c:	90000060 	adrp	x0, 11000 <__func__.3864+0x18>
    5e90:	9118e000 	add	x0, x0, #0x638
    5e94:	52803002 	mov	w2, #0x180                 	// #384
    5e98:	97fffbae 	bl	4d50 <_assert_log>
    5e9c:	97fffbc1 	bl	4da0 <_assert_break>
/home/optee/RPi3/optee_os/lib/libutils/isoc/bget_malloc.c:386
    5ea0:	f9400fa0 	ldr	x0, [x29,#24]
    5ea4:	f9400000 	ldr	x0, [x0]
    5ea8:	eb1f001f 	cmp	x0, xzr
    5eac:	54000100 	b.eq	5ecc <create_free_block+0xa0>
/home/optee/RPi3/optee_os/lib/libutils/isoc/bget_malloc.c:386 (discriminator 1)
    5eb0:	90000060 	adrp	x0, 11000 <__func__.3864+0x18>
    5eb4:	9117e001 	add	x1, x0, #0x5f8
    5eb8:	90000060 	adrp	x0, 11000 <__func__.3864+0x18>
    5ebc:	91192000 	add	x0, x0, #0x648
    5ec0:	52803042 	mov	w2, #0x182                 	// #386
    5ec4:	97fffba3 	bl	4d50 <_assert_log>
    5ec8:	97fffbb6 	bl	4da0 <_assert_break>
/home/optee/RPi3/optee_os/lib/libutils/isoc/bget_malloc.c:389
    5ecc:	f94017a0 	ldr	x0, [x29,#40]
    5ed0:	f94013a1 	ldr	x1, [x29,#32]
    5ed4:	f9000401 	str	x1, [x0,#8]
/home/optee/RPi3/optee_os/lib/libutils/isoc/bget_malloc.c:390
    5ed8:	f94017a0 	ldr	x0, [x29,#40]
    5edc:	f900001f 	str	xzr, [x0]
/home/optee/RPi3/optee_os/lib/libutils/isoc/bget_malloc.c:393
    5ee0:	f9400fa0 	ldr	x0, [x29,#24]
    5ee4:	f94013a1 	ldr	x1, [x29,#32]
    5ee8:	f9000001 	str	x1, [x0]
/home/optee/RPi3/optee_os/lib/libutils/isoc/bget_malloc.c:396
    5eec:	d0000060 	adrp	x0, 13000 <ta_props>
    5ef0:	91042000 	add	x0, x0, #0x108
    5ef4:	f9400c00 	ldr	x0, [x0,#24]
    5ef8:	f9400801 	ldr	x1, [x0,#16]
    5efc:	d0000060 	adrp	x0, 13000 <ta_props>
    5f00:	91042000 	add	x0, x0, #0x108
    5f04:	eb00003f 	cmp	x1, x0
    5f08:	54000100 	b.eq	5f28 <create_free_block+0xfc>
/home/optee/RPi3/optee_os/lib/libutils/isoc/bget_malloc.c:396 (discriminator 1)
    5f0c:	90000060 	adrp	x0, 11000 <__func__.3864+0x18>
    5f10:	9117e001 	add	x1, x0, #0x5f8
    5f14:	90000060 	adrp	x0, 11000 <__func__.3864+0x18>
    5f18:	9112e000 	add	x0, x0, #0x4b8
    5f1c:	52803182 	mov	w2, #0x18c                 	// #396
    5f20:	97fffb8c 	bl	4d50 <_assert_log>
    5f24:	97fffb9f 	bl	4da0 <_assert_break>
/home/optee/RPi3/optee_os/lib/libutils/isoc/bget_malloc.c:397
    5f28:	d0000060 	adrp	x0, 13000 <ta_props>
    5f2c:	91042000 	add	x0, x0, #0x108
    5f30:	f9400800 	ldr	x0, [x0,#16]
    5f34:	f9400c01 	ldr	x1, [x0,#24]
    5f38:	d0000060 	adrp	x0, 13000 <ta_props>
    5f3c:	91042000 	add	x0, x0, #0x108
    5f40:	eb00003f 	cmp	x1, x0
    5f44:	54000100 	b.eq	5f64 <create_free_block+0x138>
/home/optee/RPi3/optee_os/lib/libutils/isoc/bget_malloc.c:397 (discriminator 1)
    5f48:	90000060 	adrp	x0, 11000 <__func__.3864+0x18>
    5f4c:	9117e001 	add	x1, x0, #0x5f8
    5f50:	90000060 	adrp	x0, 11000 <__func__.3864+0x18>
    5f54:	9113a000 	add	x0, x0, #0x4e8
    5f58:	528031a2 	mov	w2, #0x18d                 	// #397
    5f5c:	97fffb7d 	bl	4d50 <_assert_log>
    5f60:	97fffb90 	bl	4da0 <_assert_break>
/home/optee/RPi3/optee_os/lib/libutils/isoc/bget_malloc.c:398
    5f64:	f94017a0 	ldr	x0, [x29,#40]
    5f68:	d0000061 	adrp	x1, 13000 <ta_props>
    5f6c:	91042021 	add	x1, x1, #0x108
    5f70:	f9000801 	str	x1, [x0,#16]
/home/optee/RPi3/optee_os/lib/libutils/isoc/bget_malloc.c:399
    5f74:	d0000060 	adrp	x0, 13000 <ta_props>
    5f78:	91042000 	add	x0, x0, #0x108
    5f7c:	f9400c01 	ldr	x1, [x0,#24]
    5f80:	f94017a0 	ldr	x0, [x29,#40]
    5f84:	f9000c01 	str	x1, [x0,#24]
/home/optee/RPi3/optee_os/lib/libutils/isoc/bget_malloc.c:400
    5f88:	d0000060 	adrp	x0, 13000 <ta_props>
    5f8c:	91042000 	add	x0, x0, #0x108
    5f90:	f94017a1 	ldr	x1, [x29,#40]
    5f94:	f9000c01 	str	x1, [x0,#24]
/home/optee/RPi3/optee_os/lib/libutils/isoc/bget_malloc.c:401
    5f98:	f94017a0 	ldr	x0, [x29,#40]
    5f9c:	f9400c00 	ldr	x0, [x0,#24]
    5fa0:	f94017a1 	ldr	x1, [x29,#40]
    5fa4:	f9000801 	str	x1, [x0,#16]
/home/optee/RPi3/optee_os/lib/libutils/isoc/bget_malloc.c:402
    5fa8:	d503201f 	nop
    5fac:	a8c37bfd 	ldp	x29, x30, [sp],#48
    5fb0:	d65f03c0 	ret

0000000000005fb4 <brel_before>:
brel_before():
/home/optee/RPi3/optee_os/lib/libutils/isoc/bget_malloc.c:405
    5fb4:	a9bb7bfd 	stp	x29, x30, [sp,#-80]!
    5fb8:	910003fd 	mov	x29, sp
    5fbc:	f9000fa0 	str	x0, [x29,#24]
    5fc0:	f9000ba1 	str	x1, [x29,#16]
/home/optee/RPi3/optee_os/lib/libutils/isoc/bget_malloc.c:411
    5fc4:	f9400fa1 	ldr	x1, [x29,#24]
    5fc8:	f9400ba0 	ldr	x0, [x29,#16]
    5fcc:	eb00003f 	cmp	x1, x0
    5fd0:	54000103 	b.cc	5ff0 <brel_before+0x3c>
/home/optee/RPi3/optee_os/lib/libutils/isoc/bget_malloc.c:411 (discriminator 1)
    5fd4:	90000060 	adrp	x0, 11000 <__func__.3864+0x18>
    5fd8:	9117e001 	add	x1, x0, #0x5f8
    5fdc:	90000060 	adrp	x0, 11000 <__func__.3864+0x18>
    5fe0:	91198000 	add	x0, x0, #0x660
    5fe4:	52803362 	mov	w2, #0x19b                 	// #411
    5fe8:	97fffb5a 	bl	4d50 <_assert_log>
    5fec:	97fffb6d 	bl	4da0 <_assert_break>
/home/optee/RPi3/optee_os/lib/libutils/isoc/bget_malloc.c:413
    5ff0:	f9400ba1 	ldr	x1, [x29,#16]
    5ff4:	f9400fa0 	ldr	x0, [x29,#24]
    5ff8:	cb000020 	sub	x0, x1, x0
    5ffc:	f90027a0 	str	x0, [x29,#72]
/home/optee/RPi3/optee_os/lib/libutils/isoc/bget_malloc.c:414
    6000:	f94027a0 	ldr	x0, [x29,#72]
    6004:	f1007c1f 	cmp	x0, #0x1f
    6008:	54000108 	b.hi	6028 <brel_before+0x74>
/home/optee/RPi3/optee_os/lib/libutils/isoc/bget_malloc.c:414 (discriminator 1)
    600c:	f0000040 	adrp	x0, 11000 <__func__.3864+0x18>
    6010:	9117e001 	add	x1, x0, #0x5f8
    6014:	f0000040 	adrp	x0, 11000 <__func__.3864+0x18>
    6018:	9119e000 	add	x0, x0, #0x678
    601c:	528033c2 	mov	w2, #0x19e                 	// #414
    6020:	97fffb4c 	bl	4d50 <_assert_log>
    6024:	97fffb5f 	bl	4da0 <_assert_break>
/home/optee/RPi3/optee_os/lib/libutils/isoc/bget_malloc.c:417
    6028:	f9400fa0 	ldr	x0, [x29,#24]
    602c:	d1004000 	sub	x0, x0, #0x10
    6030:	f90023a0 	str	x0, [x29,#64]
/home/optee/RPi3/optee_os/lib/libutils/isoc/bget_malloc.c:418
    6034:	f94023a0 	ldr	x0, [x29,#64]
    6038:	f9400400 	ldr	x0, [x0,#8]
    603c:	cb0003e0 	neg	x0, x0
    6040:	f9001fa0 	str	x0, [x29,#56]
/home/optee/RPi3/optee_os/lib/libutils/isoc/bget_malloc.c:421
    6044:	f9400ba0 	ldr	x0, [x29,#16]
    6048:	d1004000 	sub	x0, x0, #0x10
    604c:	f9001ba0 	str	x0, [x29,#48]
/home/optee/RPi3/optee_os/lib/libutils/isoc/bget_malloc.c:423
    6050:	f94023a0 	ldr	x0, [x29,#64]
    6054:	f9400000 	ldr	x0, [x0]
    6058:	eb1f001f 	cmp	x0, xzr
    605c:	54000480 	b.eq	60ec <brel_before+0x138>
/home/optee/RPi3/optee_os/lib/libutils/isoc/bget_malloc.c:428
    6060:	f94023a0 	ldr	x0, [x29,#64]
    6064:	f9400000 	ldr	x0, [x0]
    6068:	cb0003e0 	neg	x0, x0
    606c:	f94023a1 	ldr	x1, [x29,#64]
    6070:	8b000020 	add	x0, x1, x0
    6074:	f90017a0 	str	x0, [x29,#40]
/home/optee/RPi3/optee_os/lib/libutils/isoc/bget_malloc.c:429
    6078:	f94017a0 	ldr	x0, [x29,#40]
    607c:	f9400401 	ldr	x1, [x0,#8]
    6080:	f94023a0 	ldr	x0, [x29,#64]
    6084:	f9400000 	ldr	x0, [x0]
    6088:	eb00003f 	cmp	x1, x0
    608c:	54000100 	b.eq	60ac <brel_before+0xf8>
/home/optee/RPi3/optee_os/lib/libutils/isoc/bget_malloc.c:429 (discriminator 1)
    6090:	f0000040 	adrp	x0, 11000 <__func__.3864+0x18>
    6094:	9117e001 	add	x1, x0, #0x5f8
    6098:	f0000040 	adrp	x0, 11000 <__func__.3864+0x18>
    609c:	911a8000 	add	x0, x0, #0x6a0
    60a0:	528035a2 	mov	w2, #0x1ad                 	// #429
    60a4:	97fffb2b 	bl	4d50 <_assert_log>
    60a8:	97fffb3e 	bl	4da0 <_assert_break>
/home/optee/RPi3/optee_os/lib/libutils/isoc/bget_malloc.c:430
    60ac:	f94017a0 	ldr	x0, [x29,#40]
    60b0:	f9400401 	ldr	x1, [x0,#8]
    60b4:	f94027a0 	ldr	x0, [x29,#72]
    60b8:	8b000021 	add	x1, x1, x0
    60bc:	f94017a0 	ldr	x0, [x29,#40]
    60c0:	f9000401 	str	x1, [x0,#8]
/home/optee/RPi3/optee_os/lib/libutils/isoc/bget_malloc.c:433
    60c4:	f94017a0 	ldr	x0, [x29,#40]
    60c8:	f9400401 	ldr	x1, [x0,#8]
    60cc:	f9401ba0 	ldr	x0, [x29,#48]
    60d0:	f9000001 	str	x1, [x0]
/home/optee/RPi3/optee_os/lib/libutils/isoc/bget_malloc.c:435
    60d4:	f94027a1 	ldr	x1, [x29,#72]
    60d8:	f9401fa0 	ldr	x0, [x29,#56]
    60dc:	cb000021 	sub	x1, x1, x0
    60e0:	f9401ba0 	ldr	x0, [x29,#48]
    60e4:	f9000401 	str	x1, [x0,#8]
    60e8:	1400000a 	b	6110 <brel_before+0x15c>
/home/optee/RPi3/optee_os/lib/libutils/isoc/bget_malloc.c:443
    60ec:	f94027a1 	ldr	x1, [x29,#72]
    60f0:	f9401fa0 	ldr	x0, [x29,#56]
    60f4:	cb000021 	sub	x1, x1, x0
    60f8:	f9401ba0 	ldr	x0, [x29,#48]
    60fc:	f9000401 	str	x1, [x0,#8]
/home/optee/RPi3/optee_os/lib/libutils/isoc/bget_malloc.c:445
    6100:	f9401ba2 	ldr	x2, [x29,#48]
    6104:	f94027a1 	ldr	x1, [x29,#72]
    6108:	f94023a0 	ldr	x0, [x29,#64]
    610c:	97ffff48 	bl	5e2c <create_free_block>
/home/optee/RPi3/optee_os/lib/libutils/isoc/bget_malloc.c:449
    6110:	d00000a0 	adrp	x0, 1c000 <mempool_u32+0xe80>
    6114:	91338000 	add	x0, x0, #0xce0
    6118:	f9400001 	ldr	x1, [x0]
    611c:	f94027a0 	ldr	x0, [x29,#72]
    6120:	cb000021 	sub	x1, x1, x0
    6124:	d00000a0 	adrp	x0, 1c000 <mempool_u32+0xe80>
    6128:	91338000 	add	x0, x0, #0xce0
    612c:	f9000001 	str	x1, [x0]
/home/optee/RPi3/optee_os/lib/libutils/isoc/bget_malloc.c:450
    6130:	d00000a0 	adrp	x0, 1c000 <mempool_u32+0xe80>
    6134:	91338000 	add	x0, x0, #0xce0
    6138:	f9400000 	ldr	x0, [x0]
    613c:	eb1f001f 	cmp	x0, xzr
    6140:	5400010a 	b.ge	6160 <brel_before+0x1ac>
/home/optee/RPi3/optee_os/lib/libutils/isoc/bget_malloc.c:450 (discriminator 1)
    6144:	f0000040 	adrp	x0, 11000 <__func__.3864+0x18>
    6148:	9117e001 	add	x1, x0, #0x5f8
    614c:	f0000040 	adrp	x0, 11000 <__func__.3864+0x18>
    6150:	9111a000 	add	x0, x0, #0x468
    6154:	52803842 	mov	w2, #0x1c2                 	// #450
    6158:	97fffafe 	bl	4d50 <_assert_log>
    615c:	97fffb11 	bl	4da0 <_assert_break>
/home/optee/RPi3/optee_os/lib/libutils/isoc/bget_malloc.c:452
    6160:	d503201f 	nop
    6164:	a8c57bfd 	ldp	x29, x30, [sp],#80
    6168:	d65f03c0 	ret

000000000000616c <brel_after>:
brel_after():
/home/optee/RPi3/optee_os/lib/libutils/isoc/bget_malloc.c:455
    616c:	a9ba7bfd 	stp	x29, x30, [sp,#-96]!
    6170:	910003fd 	mov	x29, sp
    6174:	f9000fa0 	str	x0, [x29,#24]
    6178:	f9000ba1 	str	x1, [x29,#16]
/home/optee/RPi3/optee_os/lib/libutils/isoc/bget_malloc.c:456
    617c:	f9400fa0 	ldr	x0, [x29,#24]
    6180:	d1004000 	sub	x0, x0, #0x10
    6184:	f9002ba0 	str	x0, [x29,#80]
/home/optee/RPi3/optee_os/lib/libutils/isoc/bget_malloc.c:458
    6188:	f9400ba0 	ldr	x0, [x29,#16]
    618c:	f9002fa0 	str	x0, [x29,#88]
/home/optee/RPi3/optee_os/lib/libutils/isoc/bget_malloc.c:462
    6190:	f9402fa0 	ldr	x0, [x29,#88]
    6194:	f1003c1f 	cmp	x0, #0xf
    6198:	54000068 	b.hi	61a4 <brel_after+0x38>
/home/optee/RPi3/optee_os/lib/libutils/isoc/bget_malloc.c:463
    619c:	d2800200 	mov	x0, #0x10                  	// #16
    61a0:	f9002fa0 	str	x0, [x29,#88]
/home/optee/RPi3/optee_os/lib/libutils/isoc/bget_malloc.c:466
    61a4:	f9402fa0 	ldr	x0, [x29,#88]
    61a8:	91003c00 	add	x0, x0, #0xf
    61ac:	927cec00 	and	x0, x0, #0xfffffffffffffff0
    61b0:	f9002fa0 	str	x0, [x29,#88]
/home/optee/RPi3/optee_os/lib/libutils/isoc/bget_malloc.c:469
    61b4:	f9402fa0 	ldr	x0, [x29,#88]
    61b8:	91004000 	add	x0, x0, #0x10
    61bc:	f9002fa0 	str	x0, [x29,#88]
/home/optee/RPi3/optee_os/lib/libutils/isoc/bget_malloc.c:470
    61c0:	f9402ba0 	ldr	x0, [x29,#80]
    61c4:	f9400400 	ldr	x0, [x0,#8]
    61c8:	cb0003e1 	neg	x1, x0
    61cc:	f9402fa0 	ldr	x0, [x29,#88]
    61d0:	eb00003f 	cmp	x1, x0
    61d4:	5400010a 	b.ge	61f4 <brel_after+0x88>
/home/optee/RPi3/optee_os/lib/libutils/isoc/bget_malloc.c:470 (discriminator 1)
    61d8:	f0000040 	adrp	x0, 11000 <__func__.3864+0x18>
    61dc:	9117e001 	add	x1, x0, #0x5f8
    61e0:	f0000040 	adrp	x0, 11000 <__func__.3864+0x18>
    61e4:	911b2000 	add	x0, x0, #0x6c8
    61e8:	52803ac2 	mov	w2, #0x1d6                 	// #470
    61ec:	97fffad9 	bl	4d50 <_assert_log>
    61f0:	97fffaec 	bl	4da0 <_assert_break>
/home/optee/RPi3/optee_os/lib/libutils/isoc/bget_malloc.c:476
    61f4:	f9402ba0 	ldr	x0, [x29,#80]
    61f8:	f9400400 	ldr	x0, [x0,#8]
    61fc:	cb0003e1 	neg	x1, x0
    6200:	f9402fa0 	ldr	x0, [x29,#88]
    6204:	cb000020 	sub	x0, x1, x0
    6208:	f90027a0 	str	x0, [x29,#72]
/home/optee/RPi3/optee_os/lib/libutils/isoc/bget_malloc.c:477
    620c:	f94027a0 	ldr	x0, [x29,#72]
    6210:	f1007c1f 	cmp	x0, #0x1f
    6214:	540010c9 	b.ls	642c <brel_after+0x2c0>
/home/optee/RPi3/optee_os/lib/libutils/isoc/bget_malloc.c:480
    6218:	f9402ba0 	ldr	x0, [x29,#80]
    621c:	f9400400 	ldr	x0, [x0,#8]
    6220:	cb0003e0 	neg	x0, x0
    6224:	f9402ba1 	ldr	x1, [x29,#80]
    6228:	8b000020 	add	x0, x1, x0
    622c:	f90023a0 	str	x0, [x29,#64]
/home/optee/RPi3/optee_os/lib/libutils/isoc/bget_malloc.c:484
    6230:	f9402fa0 	ldr	x0, [x29,#88]
    6234:	cb0003e1 	neg	x1, x0
    6238:	f9402ba0 	ldr	x0, [x29,#80]
    623c:	f9000401 	str	x1, [x0,#8]
/home/optee/RPi3/optee_os/lib/libutils/isoc/bget_malloc.c:485
    6240:	f94023a0 	ldr	x0, [x29,#64]
    6244:	f9400400 	ldr	x0, [x0,#8]
    6248:	eb1f001f 	cmp	x0, xzr
    624c:	54000bcd 	b.le	63c4 <brel_after+0x258>
/home/optee/RPi3/optee_os/lib/libutils/isoc/bget_malloc.c:487
    6250:	f94023a0 	ldr	x0, [x29,#64]
    6254:	f9001fa0 	str	x0, [x29,#56]
/home/optee/RPi3/optee_os/lib/libutils/isoc/bget_malloc.c:488
    6258:	f9402fa0 	ldr	x0, [x29,#88]
    625c:	f9402ba1 	ldr	x1, [x29,#80]
    6260:	8b000020 	add	x0, x1, x0
    6264:	f9001ba0 	str	x0, [x29,#48]
/home/optee/RPi3/optee_os/lib/libutils/isoc/bget_malloc.c:489
    6268:	f94023a0 	ldr	x0, [x29,#64]
    626c:	f9400400 	ldr	x0, [x0,#8]
    6270:	aa0003e1 	mov	x1, x0
    6274:	f94023a0 	ldr	x0, [x29,#64]
    6278:	8b010000 	add	x0, x0, x1
    627c:	f90017a0 	str	x0, [x29,#40]
/home/optee/RPi3/optee_os/lib/libutils/isoc/bget_malloc.c:491
    6280:	f9401fa0 	ldr	x0, [x29,#56]
    6284:	f9400000 	ldr	x0, [x0]
    6288:	eb1f001f 	cmp	x0, xzr
    628c:	54000100 	b.eq	62ac <brel_after+0x140>
/home/optee/RPi3/optee_os/lib/libutils/isoc/bget_malloc.c:491 (discriminator 1)
    6290:	f0000040 	adrp	x0, 11000 <__func__.3864+0x18>
    6294:	9117e001 	add	x1, x0, #0x5f8
    6298:	f0000040 	adrp	x0, 11000 <__func__.3864+0x18>
    629c:	911b8000 	add	x0, x0, #0x6e0
    62a0:	52803d62 	mov	w2, #0x1eb                 	// #491
    62a4:	97fffaab 	bl	4d50 <_assert_log>
    62a8:	97fffabe 	bl	4da0 <_assert_break>
/home/optee/RPi3/optee_os/lib/libutils/isoc/bget_malloc.c:492
    62ac:	f94017a0 	ldr	x0, [x29,#40]
    62b0:	f9400001 	ldr	x1, [x0]
    62b4:	f9401fa0 	ldr	x0, [x29,#56]
    62b8:	f9400400 	ldr	x0, [x0,#8]
    62bc:	eb00003f 	cmp	x1, x0
    62c0:	54000100 	b.eq	62e0 <brel_after+0x174>
/home/optee/RPi3/optee_os/lib/libutils/isoc/bget_malloc.c:492 (discriminator 1)
    62c4:	f0000040 	adrp	x0, 11000 <__func__.3864+0x18>
    62c8:	9117e001 	add	x1, x0, #0x5f8
    62cc:	f0000040 	adrp	x0, 11000 <__func__.3864+0x18>
    62d0:	911be000 	add	x0, x0, #0x6f8
    62d4:	52803d82 	mov	w2, #0x1ec                 	// #492
    62d8:	97fffa9e 	bl	4d50 <_assert_log>
    62dc:	97fffab1 	bl	4da0 <_assert_break>
/home/optee/RPi3/optee_os/lib/libutils/isoc/bget_malloc.c:495
    62e0:	f9401ba0 	ldr	x0, [x29,#48]
    62e4:	f900001f 	str	xzr, [x0]
/home/optee/RPi3/optee_os/lib/libutils/isoc/bget_malloc.c:496
    62e8:	f9401fa0 	ldr	x0, [x29,#56]
    62ec:	f9400401 	ldr	x1, [x0,#8]
    62f0:	f94027a0 	ldr	x0, [x29,#72]
    62f4:	8b000021 	add	x1, x1, x0
    62f8:	f9401ba0 	ldr	x0, [x29,#48]
    62fc:	f9000401 	str	x1, [x0,#8]
/home/optee/RPi3/optee_os/lib/libutils/isoc/bget_malloc.c:499
    6300:	f94017a0 	ldr	x0, [x29,#40]
    6304:	f9400001 	ldr	x1, [x0]
    6308:	f94027a0 	ldr	x0, [x29,#72]
    630c:	8b000021 	add	x1, x1, x0
    6310:	f94017a0 	ldr	x0, [x29,#40]
    6314:	f9000001 	str	x1, [x0]
/home/optee/RPi3/optee_os/lib/libutils/isoc/bget_malloc.c:505
    6318:	f9401fa0 	ldr	x0, [x29,#56]
    631c:	f9400c00 	ldr	x0, [x0,#24]
    6320:	f9400801 	ldr	x1, [x0,#16]
    6324:	f9401fa0 	ldr	x0, [x29,#56]
    6328:	eb00003f 	cmp	x1, x0
    632c:	54000100 	b.eq	634c <brel_after+0x1e0>
/home/optee/RPi3/optee_os/lib/libutils/isoc/bget_malloc.c:505 (discriminator 1)
    6330:	f0000040 	adrp	x0, 11000 <__func__.3864+0x18>
    6334:	9117e001 	add	x1, x0, #0x5f8
    6338:	f0000040 	adrp	x0, 11000 <__func__.3864+0x18>
    633c:	911c6000 	add	x0, x0, #0x718
    6340:	52803f22 	mov	w2, #0x1f9                 	// #505
    6344:	97fffa83 	bl	4d50 <_assert_log>
    6348:	97fffa96 	bl	4da0 <_assert_break>
/home/optee/RPi3/optee_os/lib/libutils/isoc/bget_malloc.c:506
    634c:	f9401fa0 	ldr	x0, [x29,#56]
    6350:	f9400800 	ldr	x0, [x0,#16]
    6354:	f9400c01 	ldr	x1, [x0,#24]
    6358:	f9401fa0 	ldr	x0, [x29,#56]
    635c:	eb00003f 	cmp	x1, x0
    6360:	54000100 	b.eq	6380 <brel_after+0x214>
/home/optee/RPi3/optee_os/lib/libutils/isoc/bget_malloc.c:506 (discriminator 1)
    6364:	f0000040 	adrp	x0, 11000 <__func__.3864+0x18>
    6368:	9117e001 	add	x1, x0, #0x5f8
    636c:	f0000040 	adrp	x0, 11000 <__func__.3864+0x18>
    6370:	911ce000 	add	x0, x0, #0x738
    6374:	52803f42 	mov	w2, #0x1fa                 	// #506
    6378:	97fffa76 	bl	4d50 <_assert_log>
    637c:	97fffa89 	bl	4da0 <_assert_break>
/home/optee/RPi3/optee_os/lib/libutils/isoc/bget_malloc.c:509
    6380:	f9401fa0 	ldr	x0, [x29,#56]
    6384:	f9400c01 	ldr	x1, [x0,#24]
    6388:	f9401ba0 	ldr	x0, [x29,#48]
    638c:	f9000c01 	str	x1, [x0,#24]
/home/optee/RPi3/optee_os/lib/libutils/isoc/bget_malloc.c:510
    6390:	f9401fa0 	ldr	x0, [x29,#56]
    6394:	f9400801 	ldr	x1, [x0,#16]
    6398:	f9401ba0 	ldr	x0, [x29,#48]
    639c:	f9000801 	str	x1, [x0,#16]
/home/optee/RPi3/optee_os/lib/libutils/isoc/bget_malloc.c:513
    63a0:	f9401ba0 	ldr	x0, [x29,#48]
    63a4:	f9400c00 	ldr	x0, [x0,#24]
    63a8:	f9401ba1 	ldr	x1, [x29,#48]
    63ac:	f9000801 	str	x1, [x0,#16]
/home/optee/RPi3/optee_os/lib/libutils/isoc/bget_malloc.c:514
    63b0:	f9401ba0 	ldr	x0, [x29,#48]
    63b4:	f9400800 	ldr	x0, [x0,#16]
    63b8:	f9401ba1 	ldr	x1, [x29,#48]
    63bc:	f9000c01 	str	x1, [x0,#24]
    63c0:	14000007 	b	63dc <brel_after+0x270>
/home/optee/RPi3/optee_os/lib/libutils/isoc/bget_malloc.c:517
    63c4:	f9402fa0 	ldr	x0, [x29,#88]
    63c8:	f9402ba1 	ldr	x1, [x29,#80]
    63cc:	8b000020 	add	x0, x1, x0
    63d0:	f94023a2 	ldr	x2, [x29,#64]
    63d4:	f94027a1 	ldr	x1, [x29,#72]
    63d8:	97fffe95 	bl	5e2c <create_free_block>
/home/optee/RPi3/optee_os/lib/libutils/isoc/bget_malloc.c:521
    63dc:	d00000a0 	adrp	x0, 1c000 <mempool_u32+0xe80>
    63e0:	91338000 	add	x0, x0, #0xce0
    63e4:	f9400001 	ldr	x1, [x0]
    63e8:	f94027a0 	ldr	x0, [x29,#72]
    63ec:	cb000021 	sub	x1, x1, x0
    63f0:	d00000a0 	adrp	x0, 1c000 <mempool_u32+0xe80>
    63f4:	91338000 	add	x0, x0, #0xce0
    63f8:	f9000001 	str	x1, [x0]
/home/optee/RPi3/optee_os/lib/libutils/isoc/bget_malloc.c:522
    63fc:	d00000a0 	adrp	x0, 1c000 <mempool_u32+0xe80>
    6400:	91338000 	add	x0, x0, #0xce0
    6404:	f9400000 	ldr	x0, [x0]
    6408:	eb1f001f 	cmp	x0, xzr
    640c:	5400012a 	b.ge	6430 <brel_after+0x2c4>
/home/optee/RPi3/optee_os/lib/libutils/isoc/bget_malloc.c:522 (discriminator 1)
    6410:	f0000040 	adrp	x0, 11000 <__func__.3864+0x18>
    6414:	9117e001 	add	x1, x0, #0x5f8
    6418:	f0000040 	adrp	x0, 11000 <__func__.3864+0x18>
    641c:	9111a000 	add	x0, x0, #0x468
    6420:	52804142 	mov	w2, #0x20a                 	// #522
    6424:	97fffa4b 	bl	4d50 <_assert_log>
    6428:	97fffa5e 	bl	4da0 <_assert_break>
/home/optee/RPi3/optee_os/lib/libutils/isoc/bget_malloc.c:478
    642c:	d503201f 	nop
/home/optee/RPi3/optee_os/lib/libutils/isoc/bget_malloc.c:525
    6430:	a8c67bfd 	ldp	x29, x30, [sp],#96
    6434:	d65f03c0 	ret

0000000000006438 <raw_memalign>:
raw_memalign():
/home/optee/RPi3/optee_os/lib/libutils/isoc/bget_malloc.c:529
    6438:	a9bb7bfd 	stp	x29, x30, [sp,#-80]!
    643c:	910003fd 	mov	x29, sp
    6440:	f90017a0 	str	x0, [x29,#40]
    6444:	f90013a1 	str	x1, [x29,#32]
    6448:	f9000fa2 	str	x2, [x29,#24]
    644c:	f9000ba3 	str	x3, [x29,#16]
/home/optee/RPi3/optee_os/lib/libutils/isoc/bget_malloc.c:533
    6450:	97fffd7b 	bl	5a3c <raw_malloc_validate_pools>
/home/optee/RPi3/optee_os/lib/libutils/isoc/bget_malloc.c:535
    6454:	f9400fa0 	ldr	x0, [x29,#24]
    6458:	eb1f001f 	cmp	x0, xzr
    645c:	54000100 	b.eq	647c <raw_memalign+0x44>
/home/optee/RPi3/optee_os/lib/libutils/isoc/bget_malloc.c:535 (discriminator 1)
    6460:	f9400fa0 	ldr	x0, [x29,#24]
    6464:	cb0003e1 	neg	x1, x0
    6468:	f9400fa0 	ldr	x0, [x29,#24]
    646c:	8a000021 	and	x1, x1, x0
    6470:	f9400fa0 	ldr	x0, [x29,#24]
    6474:	eb00003f 	cmp	x1, x0
    6478:	54000060 	b.eq	6484 <raw_memalign+0x4c>
/home/optee/RPi3/optee_os/lib/libutils/isoc/bget_malloc.c:536
    647c:	d2800000 	mov	x0, #0x0                   	// #0
    6480:	14000067 	b	661c <raw_memalign+0x1e4>
/home/optee/RPi3/optee_os/lib/libutils/isoc/bget_malloc.c:542
    6484:	f9400fa0 	ldr	x0, [x29,#24]
    6488:	f100401f 	cmp	x0, #0x10
    648c:	540000c8 	b.hi	64a4 <raw_memalign+0x6c>
/home/optee/RPi3/optee_os/lib/libutils/isoc/bget_malloc.c:543
    6490:	f9400ba2 	ldr	x2, [x29,#16]
    6494:	f94013a1 	ldr	x1, [x29,#32]
    6498:	f94017a0 	ldr	x0, [x29,#40]
    649c:	97fffdf0 	bl	5c5c <raw_malloc>
    64a0:	1400005f 	b	661c <raw_memalign+0x1e4>
/home/optee/RPi3/optee_os/lib/libutils/isoc/bget_malloc.c:545
    64a4:	f94017a1 	ldr	x1, [x29,#40]
    64a8:	f94013a0 	ldr	x0, [x29,#32]
    64ac:	8b000021 	add	x1, x1, x0
    64b0:	f9400fa0 	ldr	x0, [x29,#24]
    64b4:	8b000021 	add	x1, x1, x0
    64b8:	f9400ba0 	ldr	x0, [x29,#16]
    64bc:	8b000020 	add	x0, x1, x0
    64c0:	91008000 	add	x0, x0, #0x20
    64c4:	f9001fa0 	str	x0, [x29,#56]
/home/optee/RPi3/optee_os/lib/libutils/isoc/bget_malloc.c:549
    64c8:	f9401fa1 	ldr	x1, [x29,#56]
    64cc:	f9400fa0 	ldr	x0, [x29,#24]
    64d0:	eb00003f 	cmp	x1, x0
    64d4:	540000a3 	b.cc	64e8 <raw_memalign+0xb0>
/home/optee/RPi3/optee_os/lib/libutils/isoc/bget_malloc.c:549 (discriminator 1)
    64d8:	f9401fa1 	ldr	x1, [x29,#56]
    64dc:	f9400ba0 	ldr	x0, [x29,#16]
    64e0:	eb00003f 	cmp	x1, x0
    64e4:	54000062 	b.cs	64f0 <raw_memalign+0xb8>
/home/optee/RPi3/optee_os/lib/libutils/isoc/bget_malloc.c:550
    64e8:	d2800000 	mov	x0, #0x0                   	// #0
    64ec:	1400004c 	b	661c <raw_memalign+0x1e4>
/home/optee/RPi3/optee_os/lib/libutils/isoc/bget_malloc.c:552
    64f0:	f9401fa0 	ldr	x0, [x29,#56]
    64f4:	97fffa2f 	bl	4db0 <bget>
    64f8:	f90027a0 	str	x0, [x29,#72]
/home/optee/RPi3/optee_os/lib/libutils/isoc/bget_malloc.c:553
    64fc:	f94027a0 	ldr	x0, [x29,#72]
    6500:	eb1f001f 	cmp	x0, xzr
    6504:	54000061 	b.ne	6510 <raw_memalign+0xd8>
/home/optee/RPi3/optee_os/lib/libutils/isoc/bget_malloc.c:554
    6508:	d2800000 	mov	x0, #0x0                   	// #0
    650c:	14000044 	b	661c <raw_memalign+0x1e4>
/home/optee/RPi3/optee_os/lib/libutils/isoc/bget_malloc.c:556
    6510:	f94027a1 	ldr	x1, [x29,#72]
    6514:	f94017a0 	ldr	x0, [x29,#40]
    6518:	8b000021 	add	x1, x1, x0
    651c:	f9400fa0 	ldr	x0, [x29,#24]
    6520:	d1000400 	sub	x0, x0, #0x1
    6524:	8a000020 	and	x0, x1, x0
    6528:	eb1f001f 	cmp	x0, xzr
    652c:	54000620 	b.eq	65f0 <raw_memalign+0x1b8>
/home/optee/RPi3/optee_os/lib/libutils/isoc/bget_malloc.c:569
    6530:	f94027a1 	ldr	x1, [x29,#72]
    6534:	f94017a0 	ldr	x0, [x29,#40]
    6538:	8b000021 	add	x1, x1, x0
    653c:	f9400fa0 	ldr	x0, [x29,#24]
    6540:	8b000020 	add	x0, x1, x0
    6544:	f90023a0 	str	x0, [x29,#64]
/home/optee/RPi3/optee_os/lib/libutils/isoc/bget_malloc.c:570
    6548:	f9400fa0 	ldr	x0, [x29,#24]
    654c:	cb0003e0 	neg	x0, x0
    6550:	f94023a1 	ldr	x1, [x29,#64]
    6554:	8a000020 	and	x0, x1, x0
    6558:	f90023a0 	str	x0, [x29,#64]
/home/optee/RPi3/optee_os/lib/libutils/isoc/bget_malloc.c:571
    655c:	f94023a1 	ldr	x1, [x29,#64]
    6560:	f94017a0 	ldr	x0, [x29,#40]
    6564:	cb000020 	sub	x0, x1, x0
    6568:	f90023a0 	str	x0, [x29,#64]
/home/optee/RPi3/optee_os/lib/libutils/isoc/bget_malloc.c:572
    656c:	f94023a1 	ldr	x1, [x29,#64]
    6570:	f94027a0 	ldr	x0, [x29,#72]
    6574:	cb000020 	sub	x0, x1, x0
    6578:	f1007c1f 	cmp	x0, #0x1f
    657c:	540000a8 	b.hi	6590 <raw_memalign+0x158>
/home/optee/RPi3/optee_os/lib/libutils/isoc/bget_malloc.c:573
    6580:	f94023a1 	ldr	x1, [x29,#64]
    6584:	f9400fa0 	ldr	x0, [x29,#24]
    6588:	8b000020 	add	x0, x1, x0
    658c:	f90023a0 	str	x0, [x29,#64]
/home/optee/RPi3/optee_os/lib/libutils/isoc/bget_malloc.c:574
    6590:	f94023a1 	ldr	x1, [x29,#64]
    6594:	f94017a0 	ldr	x0, [x29,#40]
    6598:	8b000021 	add	x1, x1, x0
    659c:	f94013a0 	ldr	x0, [x29,#32]
    65a0:	8b000021 	add	x1, x1, x0
    65a4:	f9400ba0 	ldr	x0, [x29,#16]
    65a8:	8b000021 	add	x1, x1, x0
    65ac:	f94027a2 	ldr	x2, [x29,#72]
    65b0:	f9401fa0 	ldr	x0, [x29,#56]
    65b4:	8b000040 	add	x0, x2, x0
    65b8:	eb00003f 	cmp	x1, x0
    65bc:	54000109 	b.ls	65dc <raw_memalign+0x1a4>
/home/optee/RPi3/optee_os/lib/libutils/isoc/bget_malloc.c:574 (discriminator 1)
    65c0:	f0000040 	adrp	x0, 11000 <__func__.3864+0x18>
    65c4:	9117e001 	add	x1, x0, #0x5f8
    65c8:	f0000040 	adrp	x0, 11000 <__func__.3864+0x18>
    65cc:	911d6000 	add	x0, x0, #0x758
    65d0:	528047c2 	mov	w2, #0x23e                 	// #574
    65d4:	97fff9df 	bl	4d50 <_assert_log>
    65d8:	97fff9f2 	bl	4da0 <_assert_break>
/home/optee/RPi3/optee_os/lib/libutils/isoc/bget_malloc.c:577
    65dc:	f94027a0 	ldr	x0, [x29,#72]
    65e0:	f94023a1 	ldr	x1, [x29,#64]
    65e4:	97fffe74 	bl	5fb4 <brel_before>
/home/optee/RPi3/optee_os/lib/libutils/isoc/bget_malloc.c:580
    65e8:	f94023a0 	ldr	x0, [x29,#64]
    65ec:	f90027a0 	str	x0, [x29,#72]
/home/optee/RPi3/optee_os/lib/libutils/isoc/bget_malloc.c:587
    65f0:	f94027a2 	ldr	x2, [x29,#72]
    65f4:	f94017a1 	ldr	x1, [x29,#40]
    65f8:	f94013a0 	ldr	x0, [x29,#32]
    65fc:	8b000021 	add	x1, x1, x0
    6600:	f9400ba0 	ldr	x0, [x29,#16]
    6604:	8b000020 	add	x0, x1, x0
    6608:	aa0003e1 	mov	x1, x0
    660c:	aa0203e0 	mov	x0, x2
    6610:	97fffed7 	bl	616c <brel_after>
/home/optee/RPi3/optee_os/lib/libutils/isoc/bget_malloc.c:589
    6614:	97fffcbb 	bl	5900 <raw_malloc_save_max_alloced_size>
/home/optee/RPi3/optee_os/lib/libutils/isoc/bget_malloc.c:591
    6618:	f94027a0 	ldr	x0, [x29,#72]
/home/optee/RPi3/optee_os/lib/libutils/isoc/bget_malloc.c:592
    661c:	a8c57bfd 	ldp	x29, x30, [sp],#80
    6620:	d65f03c0 	ret

0000000000006624 <bget_buf_size>:
bget_buf_size():
/home/optee/RPi3/optee_os/lib/libutils/isoc/bget_malloc.c:596
    6624:	a9bd7bfd 	stp	x29, x30, [sp,#-48]!
    6628:	910003fd 	mov	x29, sp
    662c:	f9000fa0 	str	x0, [x29,#24]
/home/optee/RPi3/optee_os/lib/libutils/isoc/bget_malloc.c:600
    6630:	f9400fa0 	ldr	x0, [x29,#24]
    6634:	d1004000 	sub	x0, x0, #0x10
    6638:	f90017a0 	str	x0, [x29,#40]
/home/optee/RPi3/optee_os/lib/libutils/isoc/bget_malloc.c:601
    663c:	f94017a0 	ldr	x0, [x29,#40]
    6640:	f9400400 	ldr	x0, [x0,#8]
    6644:	cb0003e0 	neg	x0, x0
    6648:	f90013a0 	str	x0, [x29,#32]
/home/optee/RPi3/optee_os/lib/libutils/isoc/bget_malloc.c:611
    664c:	f94013a0 	ldr	x0, [x29,#32]
    6650:	d1004000 	sub	x0, x0, #0x10
    6654:	f90013a0 	str	x0, [x29,#32]
/home/optee/RPi3/optee_os/lib/libutils/isoc/bget_malloc.c:612
    6658:	f94013a0 	ldr	x0, [x29,#32]
    665c:	eb1f001f 	cmp	x0, xzr
    6660:	5400010c 	b.gt	6680 <bget_buf_size+0x5c>
/home/optee/RPi3/optee_os/lib/libutils/isoc/bget_malloc.c:612 (discriminator 1)
    6664:	f0000040 	adrp	x0, 11000 <__func__.3864+0x18>
    6668:	9117e001 	add	x1, x0, #0x5f8
    666c:	f0000040 	adrp	x0, 11000 <__func__.3864+0x18>
    6670:	91102000 	add	x0, x0, #0x408
    6674:	52804c82 	mov	w2, #0x264                 	// #612
    6678:	97fff9b6 	bl	4d50 <_assert_log>
    667c:	97fff9c9 	bl	4da0 <_assert_break>
/home/optee/RPi3/optee_os/lib/libutils/isoc/bget_malloc.c:613
    6680:	f94013a0 	ldr	x0, [x29,#32]
/home/optee/RPi3/optee_os/lib/libutils/isoc/bget_malloc.c:614
    6684:	a8c37bfd 	ldp	x29, x30, [sp],#48
    6688:	d65f03c0 	ret

000000000000668c <malloc>:
malloc():
/home/optee/RPi3/optee_os/lib/libutils/isoc/bget_malloc.c:816
    668c:	a9bd7bfd 	stp	x29, x30, [sp,#-48]!
    6690:	910003fd 	mov	x29, sp
    6694:	f9000fa0 	str	x0, [x29,#24]
/home/optee/RPi3/optee_os/lib/libutils/isoc/bget_malloc.c:819
    6698:	97fffc96 	bl	58f0 <malloc_lock>
/home/optee/RPi3/optee_os/lib/libutils/isoc/bget_malloc.c:820
    669c:	f9400fa2 	ldr	x2, [x29,#24]
    66a0:	d2800001 	mov	x1, #0x0                   	// #0
    66a4:	d2800000 	mov	x0, #0x0                   	// #0
    66a8:	97fffd6d 	bl	5c5c <raw_malloc>
    66ac:	f90017a0 	str	x0, [x29,#40]
/home/optee/RPi3/optee_os/lib/libutils/isoc/bget_malloc.c:821
    66b0:	97fffc92 	bl	58f8 <malloc_unlock>
/home/optee/RPi3/optee_os/lib/libutils/isoc/bget_malloc.c:822
    66b4:	f94017a0 	ldr	x0, [x29,#40]
/home/optee/RPi3/optee_os/lib/libutils/isoc/bget_malloc.c:823
    66b8:	a8c37bfd 	ldp	x29, x30, [sp],#48
    66bc:	d65f03c0 	ret

00000000000066c0 <free>:
free():
/home/optee/RPi3/optee_os/lib/libutils/isoc/bget_malloc.c:826
    66c0:	a9be7bfd 	stp	x29, x30, [sp,#-32]!
    66c4:	910003fd 	mov	x29, sp
    66c8:	f9000fa0 	str	x0, [x29,#24]
/home/optee/RPi3/optee_os/lib/libutils/isoc/bget_malloc.c:827
    66cc:	97fffc89 	bl	58f0 <malloc_lock>
/home/optee/RPi3/optee_os/lib/libutils/isoc/bget_malloc.c:828
    66d0:	f9400fa0 	ldr	x0, [x29,#24]
    66d4:	97fffd82 	bl	5cdc <raw_free>
/home/optee/RPi3/optee_os/lib/libutils/isoc/bget_malloc.c:829
    66d8:	97fffc88 	bl	58f8 <malloc_unlock>
/home/optee/RPi3/optee_os/lib/libutils/isoc/bget_malloc.c:830
    66dc:	d503201f 	nop
    66e0:	a8c27bfd 	ldp	x29, x30, [sp],#32
    66e4:	d65f03c0 	ret

00000000000066e8 <calloc>:
calloc():
/home/optee/RPi3/optee_os/lib/libutils/isoc/bget_malloc.c:833
    66e8:	a9bd7bfd 	stp	x29, x30, [sp,#-48]!
    66ec:	910003fd 	mov	x29, sp
    66f0:	f9000fa0 	str	x0, [x29,#24]
    66f4:	f9000ba1 	str	x1, [x29,#16]
/home/optee/RPi3/optee_os/lib/libutils/isoc/bget_malloc.c:836
    66f8:	97fffc7e 	bl	58f0 <malloc_lock>
/home/optee/RPi3/optee_os/lib/libutils/isoc/bget_malloc.c:837
    66fc:	f9400ba3 	ldr	x3, [x29,#16]
    6700:	f9400fa2 	ldr	x2, [x29,#24]
    6704:	d2800001 	mov	x1, #0x0                   	// #0
    6708:	d2800000 	mov	x0, #0x0                   	// #0
    670c:	97fffd80 	bl	5d0c <raw_calloc>
    6710:	f90017a0 	str	x0, [x29,#40]
/home/optee/RPi3/optee_os/lib/libutils/isoc/bget_malloc.c:838
    6714:	97fffc79 	bl	58f8 <malloc_unlock>
/home/optee/RPi3/optee_os/lib/libutils/isoc/bget_malloc.c:839
    6718:	f94017a0 	ldr	x0, [x29,#40]
/home/optee/RPi3/optee_os/lib/libutils/isoc/bget_malloc.c:840
    671c:	a8c37bfd 	ldp	x29, x30, [sp],#48
    6720:	d65f03c0 	ret

0000000000006724 <realloc_unlocked>:
realloc_unlocked():
/home/optee/RPi3/optee_os/lib/libutils/isoc/bget_malloc.c:843
    6724:	a9be7bfd 	stp	x29, x30, [sp,#-32]!
    6728:	910003fd 	mov	x29, sp
    672c:	f9000fa0 	str	x0, [x29,#24]
    6730:	f9000ba1 	str	x1, [x29,#16]
/home/optee/RPi3/optee_os/lib/libutils/isoc/bget_malloc.c:844
    6734:	f9400ba3 	ldr	x3, [x29,#16]
    6738:	d2800002 	mov	x2, #0x0                   	// #0
    673c:	d2800001 	mov	x1, #0x0                   	// #0
    6740:	f9400fa0 	ldr	x0, [x29,#24]
    6744:	97fffd98 	bl	5da4 <raw_realloc>
/home/optee/RPi3/optee_os/lib/libutils/isoc/bget_malloc.c:845
    6748:	a8c27bfd 	ldp	x29, x30, [sp],#32
    674c:	d65f03c0 	ret

0000000000006750 <realloc>:
realloc():
/home/optee/RPi3/optee_os/lib/libutils/isoc/bget_malloc.c:848
    6750:	a9bd7bfd 	stp	x29, x30, [sp,#-48]!
    6754:	910003fd 	mov	x29, sp
    6758:	f9000fa0 	str	x0, [x29,#24]
    675c:	f9000ba1 	str	x1, [x29,#16]
/home/optee/RPi3/optee_os/lib/libutils/isoc/bget_malloc.c:851
    6760:	97fffc64 	bl	58f0 <malloc_lock>
/home/optee/RPi3/optee_os/lib/libutils/isoc/bget_malloc.c:852
    6764:	f9400ba1 	ldr	x1, [x29,#16]
    6768:	f9400fa0 	ldr	x0, [x29,#24]
    676c:	97ffffee 	bl	6724 <realloc_unlocked>
    6770:	f90017a0 	str	x0, [x29,#40]
/home/optee/RPi3/optee_os/lib/libutils/isoc/bget_malloc.c:853
    6774:	97fffc61 	bl	58f8 <malloc_unlock>
/home/optee/RPi3/optee_os/lib/libutils/isoc/bget_malloc.c:854
    6778:	f94017a0 	ldr	x0, [x29,#40]
/home/optee/RPi3/optee_os/lib/libutils/isoc/bget_malloc.c:855
    677c:	a8c37bfd 	ldp	x29, x30, [sp],#48
    6780:	d65f03c0 	ret

0000000000006784 <memalign>:
memalign():
/home/optee/RPi3/optee_os/lib/libutils/isoc/bget_malloc.c:858
    6784:	a9bd7bfd 	stp	x29, x30, [sp,#-48]!
    6788:	910003fd 	mov	x29, sp
    678c:	f9000fa0 	str	x0, [x29,#24]
    6790:	f9000ba1 	str	x1, [x29,#16]
/home/optee/RPi3/optee_os/lib/libutils/isoc/bget_malloc.c:861
    6794:	97fffc57 	bl	58f0 <malloc_lock>
/home/optee/RPi3/optee_os/lib/libutils/isoc/bget_malloc.c:862
    6798:	f9400ba3 	ldr	x3, [x29,#16]
    679c:	f9400fa2 	ldr	x2, [x29,#24]
    67a0:	d2800001 	mov	x1, #0x0                   	// #0
    67a4:	d2800000 	mov	x0, #0x0                   	// #0
    67a8:	97ffff24 	bl	6438 <raw_memalign>
    67ac:	f90017a0 	str	x0, [x29,#40]
/home/optee/RPi3/optee_os/lib/libutils/isoc/bget_malloc.c:863
    67b0:	97fffc52 	bl	58f8 <malloc_unlock>
/home/optee/RPi3/optee_os/lib/libutils/isoc/bget_malloc.c:864
    67b4:	f94017a0 	ldr	x0, [x29,#40]
/home/optee/RPi3/optee_os/lib/libutils/isoc/bget_malloc.c:865
    67b8:	a8c37bfd 	ldp	x29, x30, [sp],#48
    67bc:	d65f03c0 	ret

00000000000067c0 <get_payload_start_size>:
get_payload_start_size():
/home/optee/RPi3/optee_os/lib/libutils/isoc/bget_malloc.c:868
    67c0:	a9be7bfd 	stp	x29, x30, [sp,#-32]!
    67c4:	910003fd 	mov	x29, sp
    67c8:	f9000fa0 	str	x0, [x29,#24]
    67cc:	f9000ba1 	str	x1, [x29,#16]
/home/optee/RPi3/optee_os/lib/libutils/isoc/bget_malloc.c:869
    67d0:	f9400fa0 	ldr	x0, [x29,#24]
    67d4:	97ffff94 	bl	6624 <bget_buf_size>
    67d8:	aa0003e1 	mov	x1, x0
    67dc:	f9400ba0 	ldr	x0, [x29,#16]
    67e0:	f9000001 	str	x1, [x0]
/home/optee/RPi3/optee_os/lib/libutils/isoc/bget_malloc.c:870
    67e4:	f9400fa0 	ldr	x0, [x29,#24]
/home/optee/RPi3/optee_os/lib/libutils/isoc/bget_malloc.c:871
    67e8:	a8c27bfd 	ldp	x29, x30, [sp],#32
    67ec:	d65f03c0 	ret

00000000000067f0 <malloc_add_pool>:
malloc_add_pool():
/home/optee/RPi3/optee_os/lib/libutils/isoc/bget_malloc.c:876
    67f0:	a9bb7bfd 	stp	x29, x30, [sp,#-80]!
    67f4:	910003fd 	mov	x29, sp
    67f8:	f9000fa0 	str	x0, [x29,#24]
    67fc:	f9000ba1 	str	x1, [x29,#16]
/home/optee/RPi3/optee_os/lib/libutils/isoc/bget_malloc.c:879
    6800:	f9400fa0 	ldr	x0, [x29,#24]
    6804:	f90027a0 	str	x0, [x29,#72]
/home/optee/RPi3/optee_os/lib/libutils/isoc/bget_malloc.c:880
    6808:	f94027a1 	ldr	x1, [x29,#72]
    680c:	f9400ba0 	ldr	x0, [x29,#16]
    6810:	8b000020 	add	x0, x1, x0
    6814:	f90023a0 	str	x0, [x29,#64]
/home/optee/RPi3/optee_os/lib/libutils/isoc/bget_malloc.c:881
    6818:	d2800600 	mov	x0, #0x30                  	// #48
    681c:	f9001fa0 	str	x0, [x29,#56]
/home/optee/RPi3/optee_os/lib/libutils/isoc/bget_malloc.c:886
    6820:	f94027a0 	ldr	x0, [x29,#72]
    6824:	91003c00 	add	x0, x0, #0xf
    6828:	927cec00 	and	x0, x0, #0xfffffffffffffff0
    682c:	f90027a0 	str	x0, [x29,#72]
/home/optee/RPi3/optee_os/lib/libutils/isoc/bget_malloc.c:887
    6830:	f94023a0 	ldr	x0, [x29,#64]
    6834:	927cec00 	and	x0, x0, #0xfffffffffffffff0
    6838:	f90023a0 	str	x0, [x29,#64]
/home/optee/RPi3/optee_os/lib/libutils/isoc/bget_malloc.c:888
    683c:	f94027a1 	ldr	x1, [x29,#72]
    6840:	f94023a0 	ldr	x0, [x29,#64]
    6844:	eb00003f 	cmp	x1, x0
    6848:	54000103 	b.cc	6868 <malloc_add_pool+0x78>
/home/optee/RPi3/optee_os/lib/libutils/isoc/bget_malloc.c:888 (discriminator 1)
    684c:	f0000040 	adrp	x0, 11000 <__func__.3864+0x18>
    6850:	9117e001 	add	x1, x0, #0x5f8
    6854:	f0000040 	adrp	x0, 11000 <__func__.3864+0x18>
    6858:	911e2000 	add	x0, x0, #0x788
    685c:	52806f02 	mov	w2, #0x378                 	// #888
    6860:	97fff93c 	bl	4d50 <_assert_log>
    6864:	97fff94f 	bl	4da0 <_assert_break>
/home/optee/RPi3/optee_os/lib/libutils/isoc/bget_malloc.c:890
    6868:	f94023a1 	ldr	x1, [x29,#64]
    686c:	f94027a0 	ldr	x0, [x29,#72]
    6870:	cb000021 	sub	x1, x1, x0
    6874:	f9401fa0 	ldr	x0, [x29,#56]
    6878:	eb00003f 	cmp	x1, x0
    687c:	54000823 	b.cc	6980 <malloc_add_pool+0x190>
/home/optee/RPi3/optee_os/lib/libutils/isoc/bget_malloc.c:895
    6880:	97fffc1c 	bl	58f0 <malloc_lock>
/home/optee/RPi3/optee_os/lib/libutils/isoc/bget_malloc.c:896
    6884:	f94027a2 	ldr	x2, [x29,#72]
    6888:	f94023a1 	ldr	x1, [x29,#64]
    688c:	f94027a0 	ldr	x0, [x29,#72]
    6890:	cb000020 	sub	x0, x1, x0
    6894:	aa0003e1 	mov	x1, x0
    6898:	aa0203e0 	mov	x0, x2
    689c:	97fffb76 	bl	5674 <bpool>
/home/optee/RPi3/optee_os/lib/libutils/isoc/bget_malloc.c:897
    68a0:	d00000a0 	adrp	x0, 1c000 <mempool_u32+0xe80>
    68a4:	91340000 	add	x0, x0, #0xd00
    68a8:	f9400000 	ldr	x0, [x0]
    68ac:	91000400 	add	x0, x0, #0x1
    68b0:	f9001ba0 	str	x0, [x29,#48]
/home/optee/RPi3/optee_os/lib/libutils/isoc/bget_malloc.c:898
    68b4:	d00000a0 	adrp	x0, 1c000 <mempool_u32+0xe80>
    68b8:	9133e000 	add	x0, x0, #0xcf8
    68bc:	f9400002 	ldr	x2, [x0]
    68c0:	f9401ba0 	ldr	x0, [x29,#48]
    68c4:	d37cec00 	lsl	x0, x0, #4
    68c8:	aa0003e1 	mov	x1, x0
    68cc:	aa0203e0 	mov	x0, x2
    68d0:	97ffff95 	bl	6724 <realloc_unlocked>
    68d4:	f90017a0 	str	x0, [x29,#40]
/home/optee/RPi3/optee_os/lib/libutils/isoc/bget_malloc.c:899
    68d8:	f94017a0 	ldr	x0, [x29,#40]
    68dc:	eb1f001f 	cmp	x0, xzr
    68e0:	54000101 	b.ne	6900 <malloc_add_pool+0x110>
/home/optee/RPi3/optee_os/lib/libutils/isoc/bget_malloc.c:899 (discriminator 1)
    68e4:	f0000040 	adrp	x0, 11000 <__func__.3864+0x18>
    68e8:	9117e001 	add	x1, x0, #0x5f8
    68ec:	f0000040 	adrp	x0, 11000 <__func__.3864+0x18>
    68f0:	911e6000 	add	x0, x0, #0x798
    68f4:	52807062 	mov	w2, #0x383                 	// #899
    68f8:	97fff916 	bl	4d50 <_assert_log>
    68fc:	97fff929 	bl	4da0 <_assert_break>
/home/optee/RPi3/optee_os/lib/libutils/isoc/bget_malloc.c:900
    6900:	d00000a0 	adrp	x0, 1c000 <mempool_u32+0xe80>
    6904:	9133e000 	add	x0, x0, #0xcf8
    6908:	f94017a1 	ldr	x1, [x29,#40]
    690c:	f9000001 	str	x1, [x0]
/home/optee/RPi3/optee_os/lib/libutils/isoc/bget_malloc.c:901
    6910:	d00000a0 	adrp	x0, 1c000 <mempool_u32+0xe80>
    6914:	9133e000 	add	x0, x0, #0xcf8
    6918:	f9400001 	ldr	x1, [x0]
    691c:	d00000a0 	adrp	x0, 1c000 <mempool_u32+0xe80>
    6920:	91340000 	add	x0, x0, #0xd00
    6924:	f9400000 	ldr	x0, [x0]
    6928:	d37cec00 	lsl	x0, x0, #4
    692c:	8b000020 	add	x0, x1, x0
    6930:	f94027a1 	ldr	x1, [x29,#72]
    6934:	f9000001 	str	x1, [x0]
/home/optee/RPi3/optee_os/lib/libutils/isoc/bget_malloc.c:902
    6938:	d00000a0 	adrp	x0, 1c000 <mempool_u32+0xe80>
    693c:	9133e000 	add	x0, x0, #0xcf8
    6940:	f9400001 	ldr	x1, [x0]
    6944:	d00000a0 	adrp	x0, 1c000 <mempool_u32+0xe80>
    6948:	91340000 	add	x0, x0, #0xd00
    694c:	f9400000 	ldr	x0, [x0]
    6950:	d37cec00 	lsl	x0, x0, #4
    6954:	8b000020 	add	x0, x1, x0
    6958:	f94023a2 	ldr	x2, [x29,#64]
    695c:	f94027a1 	ldr	x1, [x29,#72]
    6960:	cb010041 	sub	x1, x2, x1
    6964:	f9000401 	str	x1, [x0,#8]
/home/optee/RPi3/optee_os/lib/libutils/isoc/bget_malloc.c:903
    6968:	d00000a0 	adrp	x0, 1c000 <mempool_u32+0xe80>
    696c:	91340000 	add	x0, x0, #0xd00
    6970:	f9401ba1 	ldr	x1, [x29,#48]
    6974:	f9000001 	str	x1, [x0]
/home/optee/RPi3/optee_os/lib/libutils/isoc/bget_malloc.c:904
    6978:	97fffbe0 	bl	58f8 <malloc_unlock>
    697c:	14000002 	b	6984 <malloc_add_pool+0x194>
/home/optee/RPi3/optee_os/lib/libutils/isoc/bget_malloc.c:892
    6980:	d503201f 	nop
/home/optee/RPi3/optee_os/lib/libutils/isoc/bget_malloc.c:905
    6984:	a8c57bfd 	ldp	x29, x30, [sp],#80
    6988:	d65f03c0 	ret

000000000000698c <malloc_buffer_is_within_alloced>:
malloc_buffer_is_within_alloced():
/home/optee/RPi3/optee_os/lib/libutils/isoc/bget_malloc.c:908
    698c:	a9b97bfd 	stp	x29, x30, [sp,#-112]!
    6990:	910003fd 	mov	x29, sp
    6994:	f9000fa0 	str	x0, [x29,#24]
    6998:	f9000ba1 	str	x1, [x29,#16]
/home/optee/RPi3/optee_os/lib/libutils/isoc/bget_malloc.c:911
    699c:	f9400fa0 	ldr	x0, [x29,#24]
    69a0:	f90033a0 	str	x0, [x29,#96]
/home/optee/RPi3/optee_os/lib/libutils/isoc/bget_malloc.c:912
    69a4:	f94033a1 	ldr	x1, [x29,#96]
    69a8:	f9400ba0 	ldr	x0, [x29,#16]
    69ac:	8b000020 	add	x0, x1, x0
    69b0:	f9002fa0 	str	x0, [x29,#88]
/home/optee/RPi3/optee_os/lib/libutils/isoc/bget_malloc.c:913
    69b4:	3901bfbf 	strb	wzr, [x29,#111]
/home/optee/RPi3/optee_os/lib/libutils/isoc/bget_malloc.c:915
    69b8:	97fffbce 	bl	58f0 <malloc_lock>
/home/optee/RPi3/optee_os/lib/libutils/isoc/bget_malloc.c:917
    69bc:	97fffc20 	bl	5a3c <raw_malloc_validate_pools>
/home/optee/RPi3/optee_os/lib/libutils/isoc/bget_malloc.c:920
    69c0:	f94033a1 	ldr	x1, [x29,#96]
    69c4:	f9402fa0 	ldr	x0, [x29,#88]
    69c8:	eb00003f 	cmp	x1, x0
    69cc:	540003c8 	b.hi	6a44 <malloc_buffer_is_within_alloced+0xb8>
/home/optee/RPi3/optee_os/lib/libutils/isoc/bget_malloc.c:923
    69d0:	9100e3a0 	add	x0, x29, #0x38
    69d4:	97fffc1c 	bl	5a44 <bpool_foreach_iterator_init>
    69d8:	14000014 	b	6a28 <malloc_buffer_is_within_alloced+0x9c>
/home/optee/RPi3/optee_os/lib/libutils/isoc/bget_malloc.c:928
    69dc:	f9401ba0 	ldr	x0, [x29,#48]
    69e0:	9100a3a1 	add	x1, x29, #0x28
    69e4:	97ffff77 	bl	67c0 <get_payload_start_size>
    69e8:	f9002ba0 	str	x0, [x29,#80]
/home/optee/RPi3/optee_os/lib/libutils/isoc/bget_malloc.c:929
    69ec:	f94017a0 	ldr	x0, [x29,#40]
    69f0:	f9402ba1 	ldr	x1, [x29,#80]
    69f4:	8b000020 	add	x0, x1, x0
    69f8:	f90027a0 	str	x0, [x29,#72]
/home/optee/RPi3/optee_os/lib/libutils/isoc/bget_malloc.c:931
    69fc:	f94033a1 	ldr	x1, [x29,#96]
    6a00:	f9402ba0 	ldr	x0, [x29,#80]
    6a04:	eb00003f 	cmp	x1, x0
    6a08:	54000103 	b.cc	6a28 <malloc_buffer_is_within_alloced+0x9c>
/home/optee/RPi3/optee_os/lib/libutils/isoc/bget_malloc.c:931 (discriminator 1)
    6a0c:	f9402fa1 	ldr	x1, [x29,#88]
    6a10:	f94027a0 	ldr	x0, [x29,#72]
    6a14:	eb00003f 	cmp	x1, x0
    6a18:	54000088 	b.hi	6a28 <malloc_buffer_is_within_alloced+0x9c>
/home/optee/RPi3/optee_os/lib/libutils/isoc/bget_malloc.c:932
    6a1c:	52800020 	mov	w0, #0x1                   	// #1
    6a20:	3901bfa0 	strb	w0, [x29,#111]
    6a24:	14000009 	b	6a48 <malloc_buffer_is_within_alloced+0xbc>
/home/optee/RPi3/optee_os/lib/libutils/isoc/bget_malloc.c:923 (discriminator 1)
    6a28:	9100c3a1 	add	x1, x29, #0x30
    6a2c:	9100e3a0 	add	x0, x29, #0x38
    6a30:	97fffc5a 	bl	5b98 <bpool_foreach>
    6a34:	53001c00 	uxtb	w0, w0
    6a38:	6b1f001f 	cmp	w0, wzr
    6a3c:	54fffd01 	b.ne	69dc <malloc_buffer_is_within_alloced+0x50>
    6a40:	14000002 	b	6a48 <malloc_buffer_is_within_alloced+0xbc>
/home/optee/RPi3/optee_os/lib/libutils/isoc/bget_malloc.c:921
    6a44:	d503201f 	nop
/home/optee/RPi3/optee_os/lib/libutils/isoc/bget_malloc.c:938
    6a48:	97fffbac 	bl	58f8 <malloc_unlock>
/home/optee/RPi3/optee_os/lib/libutils/isoc/bget_malloc.c:940
    6a4c:	3941bfa0 	ldrb	w0, [x29,#111]
/home/optee/RPi3/optee_os/lib/libutils/isoc/bget_malloc.c:941
    6a50:	a8c77bfd 	ldp	x29, x30, [sp],#112
    6a54:	d65f03c0 	ret

0000000000006a58 <malloc_buffer_overlaps_heap>:
malloc_buffer_overlaps_heap():
/home/optee/RPi3/optee_os/lib/libutils/isoc/bget_malloc.c:944
    6a58:	a9bb7bfd 	stp	x29, x30, [sp,#-80]!
    6a5c:	910003fd 	mov	x29, sp
    6a60:	f9000fa0 	str	x0, [x29,#24]
    6a64:	f9000ba1 	str	x1, [x29,#16]
/home/optee/RPi3/optee_os/lib/libutils/isoc/bget_malloc.c:945
    6a68:	f9400fa0 	ldr	x0, [x29,#24]
    6a6c:	f9001fa0 	str	x0, [x29,#56]
/home/optee/RPi3/optee_os/lib/libutils/isoc/bget_malloc.c:946
    6a70:	f9401fa1 	ldr	x1, [x29,#56]
    6a74:	f9400ba0 	ldr	x0, [x29,#16]
    6a78:	8b000020 	add	x0, x1, x0
    6a7c:	f9001ba0 	str	x0, [x29,#48]
/home/optee/RPi3/optee_os/lib/libutils/isoc/bget_malloc.c:948
    6a80:	39011fbf 	strb	wzr, [x29,#71]
/home/optee/RPi3/optee_os/lib/libutils/isoc/bget_malloc.c:950
    6a84:	97fffb9b 	bl	58f0 <malloc_lock>
/home/optee/RPi3/optee_os/lib/libutils/isoc/bget_malloc.c:952
    6a88:	97fffbed 	bl	5a3c <raw_malloc_validate_pools>
/home/optee/RPi3/optee_os/lib/libutils/isoc/bget_malloc.c:954
    6a8c:	f90027bf 	str	xzr, [x29,#72]
    6a90:	1400002c 	b	6b40 <malloc_buffer_overlaps_heap+0xe8>
/home/optee/RPi3/optee_os/lib/libutils/isoc/bget_malloc.c:955
    6a94:	d00000a0 	adrp	x0, 1c000 <mempool_u32+0xe80>
    6a98:	9133e000 	add	x0, x0, #0xcf8
    6a9c:	f9400001 	ldr	x1, [x0]
    6aa0:	f94027a0 	ldr	x0, [x29,#72]
    6aa4:	d37cec00 	lsl	x0, x0, #4
    6aa8:	8b000020 	add	x0, x1, x0
    6aac:	f9400000 	ldr	x0, [x0]
    6ab0:	f90017a0 	str	x0, [x29,#40]
/home/optee/RPi3/optee_os/lib/libutils/isoc/bget_malloc.c:956
    6ab4:	d00000a0 	adrp	x0, 1c000 <mempool_u32+0xe80>
    6ab8:	9133e000 	add	x0, x0, #0xcf8
    6abc:	f9400001 	ldr	x1, [x0]
    6ac0:	f94027a0 	ldr	x0, [x29,#72]
    6ac4:	d37cec00 	lsl	x0, x0, #4
    6ac8:	8b000020 	add	x0, x1, x0
    6acc:	f9400401 	ldr	x1, [x0,#8]
    6ad0:	f94017a0 	ldr	x0, [x29,#40]
    6ad4:	8b000020 	add	x0, x1, x0
    6ad8:	f90013a0 	str	x0, [x29,#32]
/home/optee/RPi3/optee_os/lib/libutils/isoc/bget_malloc.c:958
    6adc:	f9401fa1 	ldr	x1, [x29,#56]
    6ae0:	f9401ba0 	ldr	x0, [x29,#48]
    6ae4:	eb00003f 	cmp	x1, x0
    6ae8:	540000a8 	b.hi	6afc <malloc_buffer_overlaps_heap+0xa4>
/home/optee/RPi3/optee_os/lib/libutils/isoc/bget_malloc.c:958 (discriminator 1)
    6aec:	f94017a1 	ldr	x1, [x29,#40]
    6af0:	f94013a0 	ldr	x0, [x29,#32]
    6af4:	eb00003f 	cmp	x1, x0
    6af8:	54000089 	b.ls	6b08 <malloc_buffer_overlaps_heap+0xb0>
/home/optee/RPi3/optee_os/lib/libutils/isoc/bget_malloc.c:959
    6afc:	52800020 	mov	w0, #0x1                   	// #1
    6b00:	39011fa0 	strb	w0, [x29,#71]
/home/optee/RPi3/optee_os/lib/libutils/isoc/bget_malloc.c:960
    6b04:	14000015 	b	6b58 <malloc_buffer_overlaps_heap+0x100>
/home/optee/RPi3/optee_os/lib/libutils/isoc/bget_malloc.c:963
    6b08:	f9401ba1 	ldr	x1, [x29,#48]
    6b0c:	f94017a0 	ldr	x0, [x29,#40]
    6b10:	eb00003f 	cmp	x1, x0
    6b14:	540000a8 	b.hi	6b28 <malloc_buffer_overlaps_heap+0xd0>
/home/optee/RPi3/optee_os/lib/libutils/isoc/bget_malloc.c:963 (discriminator 1)
    6b18:	f9401fa1 	ldr	x1, [x29,#56]
    6b1c:	f94013a0 	ldr	x0, [x29,#32]
    6b20:	eb00003f 	cmp	x1, x0
    6b24:	54000082 	b.cs	6b34 <malloc_buffer_overlaps_heap+0xdc>
/home/optee/RPi3/optee_os/lib/libutils/isoc/bget_malloc.c:964
    6b28:	52800020 	mov	w0, #0x1                   	// #1
    6b2c:	39011fa0 	strb	w0, [x29,#71]
/home/optee/RPi3/optee_os/lib/libutils/isoc/bget_malloc.c:965
    6b30:	1400000a 	b	6b58 <malloc_buffer_overlaps_heap+0x100>
/home/optee/RPi3/optee_os/lib/libutils/isoc/bget_malloc.c:954 (discriminator 2)
    6b34:	f94027a0 	ldr	x0, [x29,#72]
    6b38:	91000400 	add	x0, x0, #0x1
    6b3c:	f90027a0 	str	x0, [x29,#72]
/home/optee/RPi3/optee_os/lib/libutils/isoc/bget_malloc.c:954 (discriminator 1)
    6b40:	d00000a0 	adrp	x0, 1c000 <mempool_u32+0xe80>
    6b44:	91340000 	add	x0, x0, #0xd00
    6b48:	f9400000 	ldr	x0, [x0]
    6b4c:	f94027a1 	ldr	x1, [x29,#72]
    6b50:	eb00003f 	cmp	x1, x0
    6b54:	54fffa03 	b.cc	6a94 <malloc_buffer_overlaps_heap+0x3c>
/home/optee/RPi3/optee_os/lib/libutils/isoc/bget_malloc.c:970
    6b58:	97fffb68 	bl	58f8 <malloc_unlock>
/home/optee/RPi3/optee_os/lib/libutils/isoc/bget_malloc.c:971
    6b5c:	39411fa0 	ldrb	w0, [x29,#71]
/home/optee/RPi3/optee_os/lib/libutils/isoc/bget_malloc.c:972
    6b60:	a8c57bfd 	ldp	x29, x30, [sp],#80
    6b64:	d65f03c0 	ret

0000000000006b68 <snprintf>:
snprintf():
/home/optee/RPi3/optee_os/lib/libutils/isoc/snprintf.c:32
    6b68:	a9ad7bfd 	stp	x29, x30, [sp,#-304]!
    6b6c:	910003fd 	mov	x29, sp
    6b70:	f90027a0 	str	x0, [x29,#72]
    6b74:	f90023a1 	str	x1, [x29,#64]
    6b78:	f9001fa2 	str	x2, [x29,#56]
    6b7c:	f90087a3 	str	x3, [x29,#264]
    6b80:	f9008ba4 	str	x4, [x29,#272]
    6b84:	f9008fa5 	str	x5, [x29,#280]
    6b88:	f90093a6 	str	x6, [x29,#288]
    6b8c:	f90097a7 	str	x7, [x29,#296]
    6b90:	3d8023a0 	str	q0, [x29,#128]
    6b94:	3d8027a1 	str	q1, [x29,#144]
    6b98:	3d802ba2 	str	q2, [x29,#160]
    6b9c:	3d802fa3 	str	q3, [x29,#176]
    6ba0:	3d8033a4 	str	q4, [x29,#192]
    6ba4:	3d8037a5 	str	q5, [x29,#208]
    6ba8:	3d803ba6 	str	q6, [x29,#224]
    6bac:	3d803fa7 	str	q7, [x29,#240]
/home/optee/RPi3/optee_os/lib/libutils/isoc/snprintf.c:36
    6bb0:	9104c3a0 	add	x0, x29, #0x130
    6bb4:	f9002fa0 	str	x0, [x29,#88]
    6bb8:	9104c3a0 	add	x0, x29, #0x130
    6bbc:	f90033a0 	str	x0, [x29,#96]
    6bc0:	910403a0 	add	x0, x29, #0x100
    6bc4:	f90037a0 	str	x0, [x29,#104]
    6bc8:	128004e0 	mov	w0, #0xffffffd8            	// #-40
    6bcc:	b90073a0 	str	w0, [x29,#112]
    6bd0:	12800fe0 	mov	w0, #0xffffff80            	// #-128
    6bd4:	b90077a0 	str	w0, [x29,#116]
/home/optee/RPi3/optee_os/lib/libutils/isoc/snprintf.c:37
    6bd8:	f9402fa0 	ldr	x0, [x29,#88]
    6bdc:	f9000ba0 	str	x0, [x29,#16]
    6be0:	f94033a0 	ldr	x0, [x29,#96]
    6be4:	f9000fa0 	str	x0, [x29,#24]
    6be8:	f94037a0 	ldr	x0, [x29,#104]
    6bec:	f90013a0 	str	x0, [x29,#32]
    6bf0:	f9403ba0 	ldr	x0, [x29,#112]
    6bf4:	f90017a0 	str	x0, [x29,#40]
    6bf8:	910043a0 	add	x0, x29, #0x10
    6bfc:	52800004 	mov	w4, #0x0                   	// #0
    6c00:	aa0003e3 	mov	x3, x0
    6c04:	f9401fa2 	ldr	x2, [x29,#56]
    6c08:	f94023a1 	ldr	x1, [x29,#64]
    6c0c:	f94027a0 	ldr	x0, [x29,#72]
    6c10:	9400023e 	bl	7508 <__vsnprintf>
    6c14:	b9007fa0 	str	w0, [x29,#124]
/home/optee/RPi3/optee_os/lib/libutils/isoc/snprintf.c:40
    6c18:	b9407fa0 	ldr	w0, [x29,#124]
/home/optee/RPi3/optee_os/lib/libutils/isoc/snprintf.c:41
    6c1c:	a8d37bfd 	ldp	x29, x30, [sp],#304
    6c20:	d65f03c0 	ret

0000000000006c24 <vsnprintf>:
vsnprintf():
/home/optee/RPi3/optee_os/lib/libutils/isoc/snprintf.c:44
    6c24:	a9ba7bfd 	stp	x29, x30, [sp,#-96]!
    6c28:	910003fd 	mov	x29, sp
    6c2c:	f9000bf3 	str	x19, [sp,#16]
    6c30:	f9002fa0 	str	x0, [x29,#88]
    6c34:	f9002ba1 	str	x1, [x29,#80]
    6c38:	f90027a2 	str	x2, [x29,#72]
    6c3c:	aa0303f3 	mov	x19, x3
/home/optee/RPi3/optee_os/lib/libutils/isoc/snprintf.c:45
    6c40:	f9400260 	ldr	x0, [x19]
    6c44:	f90013a0 	str	x0, [x29,#32]
    6c48:	f9400660 	ldr	x0, [x19,#8]
    6c4c:	f90017a0 	str	x0, [x29,#40]
    6c50:	f9400a60 	ldr	x0, [x19,#16]
    6c54:	f9001ba0 	str	x0, [x29,#48]
    6c58:	f9400e60 	ldr	x0, [x19,#24]
    6c5c:	f9001fa0 	str	x0, [x29,#56]
    6c60:	910083a0 	add	x0, x29, #0x20
    6c64:	52800004 	mov	w4, #0x0                   	// #0
    6c68:	aa0003e3 	mov	x3, x0
    6c6c:	f94027a2 	ldr	x2, [x29,#72]
    6c70:	f9402ba1 	ldr	x1, [x29,#80]
    6c74:	f9402fa0 	ldr	x0, [x29,#88]
    6c78:	94000224 	bl	7508 <__vsnprintf>
/home/optee/RPi3/optee_os/lib/libutils/isoc/snprintf.c:46
    6c7c:	f9400bf3 	ldr	x19, [sp,#16]
    6c80:	a8c67bfd 	ldp	x29, x30, [sp],#96
    6c84:	d65f03c0 	ret

0000000000006c88 <memcmp>:
memcmp():
/home/optee/RPi3/optee_os/lib/libutils/isoc/newlib/memcmp.c:84
    6c88:	d10103ff 	sub	sp, sp, #0x40
    6c8c:	f9000fe0 	str	x0, [sp,#24]
    6c90:	f9000be1 	str	x1, [sp,#16]
    6c94:	f90007e2 	str	x2, [sp,#8]
/home/optee/RPi3/optee_os/lib/libutils/isoc/newlib/memcmp.c:97
    6c98:	f9400fe0 	ldr	x0, [sp,#24]
    6c9c:	f9001fe0 	str	x0, [sp,#56]
/home/optee/RPi3/optee_os/lib/libutils/isoc/newlib/memcmp.c:98
    6ca0:	f9400be0 	ldr	x0, [sp,#16]
    6ca4:	f9001be0 	str	x0, [sp,#48]
/home/optee/RPi3/optee_os/lib/libutils/isoc/newlib/memcmp.c:105
    6ca8:	f94007e0 	ldr	x0, [sp,#8]
    6cac:	f1001c1f 	cmp	x0, #0x7
    6cb0:	54000709 	b.ls	6d90 <memcmp+0x108>
/home/optee/RPi3/optee_os/lib/libutils/isoc/newlib/memcmp.c:105 (discriminator 1)
    6cb4:	f9401fe1 	ldr	x1, [sp,#56]
    6cb8:	f9401be0 	ldr	x0, [sp,#48]
    6cbc:	aa000020 	orr	x0, x1, x0
    6cc0:	92400800 	and	x0, x0, #0x7
    6cc4:	eb1f001f 	cmp	x0, xzr
    6cc8:	54000641 	b.ne	6d90 <memcmp+0x108>
/home/optee/RPi3/optee_os/lib/libutils/isoc/newlib/memcmp.c:110
    6ccc:	f9401fe0 	ldr	x0, [sp,#56]
    6cd0:	f90017e0 	str	x0, [sp,#40]
/home/optee/RPi3/optee_os/lib/libutils/isoc/newlib/memcmp.c:111
    6cd4:	f9401be0 	ldr	x0, [sp,#48]
    6cd8:	f90013e0 	str	x0, [sp,#32]
/home/optee/RPi3/optee_os/lib/libutils/isoc/newlib/memcmp.c:112
    6cdc:	14000010 	b	6d1c <memcmp+0x94>
/home/optee/RPi3/optee_os/lib/libutils/isoc/newlib/memcmp.c:113
    6ce0:	f94017e0 	ldr	x0, [sp,#40]
    6ce4:	f9400001 	ldr	x1, [x0]
    6ce8:	f94013e0 	ldr	x0, [sp,#32]
    6cec:	f9400000 	ldr	x0, [x0]
    6cf0:	eb00003f 	cmp	x1, x0
    6cf4:	540001c1 	b.ne	6d2c <memcmp+0xa4>
/home/optee/RPi3/optee_os/lib/libutils/isoc/newlib/memcmp.c:115
    6cf8:	f94017e0 	ldr	x0, [sp,#40]
    6cfc:	91002000 	add	x0, x0, #0x8
    6d00:	f90017e0 	str	x0, [sp,#40]
/home/optee/RPi3/optee_os/lib/libutils/isoc/newlib/memcmp.c:116
    6d04:	f94013e0 	ldr	x0, [sp,#32]
    6d08:	91002000 	add	x0, x0, #0x8
    6d0c:	f90013e0 	str	x0, [sp,#32]
/home/optee/RPi3/optee_os/lib/libutils/isoc/newlib/memcmp.c:117
    6d10:	f94007e0 	ldr	x0, [sp,#8]
    6d14:	d1002000 	sub	x0, x0, #0x8
    6d18:	f90007e0 	str	x0, [sp,#8]
/home/optee/RPi3/optee_os/lib/libutils/isoc/newlib/memcmp.c:112
    6d1c:	f94007e0 	ldr	x0, [sp,#8]
    6d20:	f1001c1f 	cmp	x0, #0x7
    6d24:	54fffde8 	b.hi	6ce0 <memcmp+0x58>
    6d28:	14000002 	b	6d30 <memcmp+0xa8>
/home/optee/RPi3/optee_os/lib/libutils/isoc/newlib/memcmp.c:114
    6d2c:	d503201f 	nop
/home/optee/RPi3/optee_os/lib/libutils/isoc/newlib/memcmp.c:122
    6d30:	f94017e0 	ldr	x0, [sp,#40]
    6d34:	f9001fe0 	str	x0, [sp,#56]
/home/optee/RPi3/optee_os/lib/libutils/isoc/newlib/memcmp.c:123
    6d38:	f94013e0 	ldr	x0, [sp,#32]
    6d3c:	f9001be0 	str	x0, [sp,#48]
/home/optee/RPi3/optee_os/lib/libutils/isoc/newlib/memcmp.c:126
    6d40:	14000014 	b	6d90 <memcmp+0x108>
/home/optee/RPi3/optee_os/lib/libutils/isoc/newlib/memcmp.c:127
    6d44:	f9401fe0 	ldr	x0, [sp,#56]
    6d48:	39400001 	ldrb	w1, [x0]
    6d4c:	f9401be0 	ldr	x0, [sp,#48]
    6d50:	39400000 	ldrb	w0, [x0]
    6d54:	6b00003f 	cmp	w1, w0
    6d58:	54000100 	b.eq	6d78 <memcmp+0xf0>
/home/optee/RPi3/optee_os/lib/libutils/isoc/newlib/memcmp.c:128
    6d5c:	f9401fe0 	ldr	x0, [sp,#56]
    6d60:	39400000 	ldrb	w0, [x0]
    6d64:	2a0003e1 	mov	w1, w0
    6d68:	f9401be0 	ldr	x0, [sp,#48]
    6d6c:	39400000 	ldrb	w0, [x0]
    6d70:	4b000020 	sub	w0, w1, w0
    6d74:	1400000d 	b	6da8 <memcmp+0x120>
/home/optee/RPi3/optee_os/lib/libutils/isoc/newlib/memcmp.c:129
    6d78:	f9401fe0 	ldr	x0, [sp,#56]
    6d7c:	91000400 	add	x0, x0, #0x1
    6d80:	f9001fe0 	str	x0, [sp,#56]
/home/optee/RPi3/optee_os/lib/libutils/isoc/newlib/memcmp.c:130
    6d84:	f9401be0 	ldr	x0, [sp,#48]
    6d88:	91000400 	add	x0, x0, #0x1
    6d8c:	f9001be0 	str	x0, [sp,#48]
/home/optee/RPi3/optee_os/lib/libutils/isoc/newlib/memcmp.c:126
    6d90:	f94007e0 	ldr	x0, [sp,#8]
    6d94:	d1000401 	sub	x1, x0, #0x1
    6d98:	f90007e1 	str	x1, [sp,#8]
    6d9c:	eb1f001f 	cmp	x0, xzr
    6da0:	54fffd21 	b.ne	6d44 <memcmp+0xbc>
/home/optee/RPi3/optee_os/lib/libutils/isoc/newlib/memcmp.c:133
    6da4:	52800000 	mov	w0, #0x0                   	// #0
/home/optee/RPi3/optee_os/lib/libutils/isoc/newlib/memcmp.c:135
    6da8:	910103ff 	add	sp, sp, #0x40
    6dac:	d65f03c0 	ret

0000000000006db0 <memcpy>:
memcpy():
/home/optee/RPi3/optee_os/lib/libutils/isoc/newlib/memcpy.c:86
    6db0:	d10103ff 	sub	sp, sp, #0x40
    6db4:	f9000fe0 	str	x0, [sp,#24]
    6db8:	f9000be1 	str	x1, [sp,#16]
    6dbc:	f90007e2 	str	x2, [sp,#8]
/home/optee/RPi3/optee_os/lib/libutils/isoc/newlib/memcpy.c:98
    6dc0:	f9400fe0 	ldr	x0, [sp,#24]
    6dc4:	f9001fe0 	str	x0, [sp,#56]
/home/optee/RPi3/optee_os/lib/libutils/isoc/newlib/memcpy.c:99
    6dc8:	f9400be0 	ldr	x0, [sp,#16]
    6dcc:	f9001be0 	str	x0, [sp,#48]
/home/optee/RPi3/optee_os/lib/libutils/isoc/newlib/memcpy.c:105
    6dd0:	f94007e0 	ldr	x0, [sp,#8]
    6dd4:	f1007c1f 	cmp	x0, #0x1f
    6dd8:	540009c9 	b.ls	6f10 <memcpy+0x160>
/home/optee/RPi3/optee_os/lib/libutils/isoc/newlib/memcpy.c:105 (discriminator 1)
    6ddc:	f9401be1 	ldr	x1, [sp,#48]
    6de0:	f9401fe0 	ldr	x0, [sp,#56]
    6de4:	aa000020 	orr	x0, x1, x0
    6de8:	92400800 	and	x0, x0, #0x7
    6dec:	eb1f001f 	cmp	x0, xzr
    6df0:	54000901 	b.ne	6f10 <memcpy+0x160>
/home/optee/RPi3/optee_os/lib/libutils/isoc/newlib/memcpy.c:106
    6df4:	f9401fe0 	ldr	x0, [sp,#56]
    6df8:	f90017e0 	str	x0, [sp,#40]
/home/optee/RPi3/optee_os/lib/libutils/isoc/newlib/memcpy.c:107
    6dfc:	f9401be0 	ldr	x0, [sp,#48]
    6e00:	f90013e0 	str	x0, [sp,#32]
/home/optee/RPi3/optee_os/lib/libutils/isoc/newlib/memcpy.c:110
    6e04:	14000024 	b	6e94 <memcpy+0xe4>
/home/optee/RPi3/optee_os/lib/libutils/isoc/newlib/memcpy.c:111
    6e08:	f94017e0 	ldr	x0, [sp,#40]
    6e0c:	91002001 	add	x1, x0, #0x8
    6e10:	f90017e1 	str	x1, [sp,#40]
    6e14:	f94013e1 	ldr	x1, [sp,#32]
    6e18:	91002022 	add	x2, x1, #0x8
    6e1c:	f90013e2 	str	x2, [sp,#32]
    6e20:	f9400021 	ldr	x1, [x1]
    6e24:	f9000001 	str	x1, [x0]
/home/optee/RPi3/optee_os/lib/libutils/isoc/newlib/memcpy.c:112
    6e28:	f94017e0 	ldr	x0, [sp,#40]
    6e2c:	91002001 	add	x1, x0, #0x8
    6e30:	f90017e1 	str	x1, [sp,#40]
    6e34:	f94013e1 	ldr	x1, [sp,#32]
    6e38:	91002022 	add	x2, x1, #0x8
    6e3c:	f90013e2 	str	x2, [sp,#32]
    6e40:	f9400021 	ldr	x1, [x1]
    6e44:	f9000001 	str	x1, [x0]
/home/optee/RPi3/optee_os/lib/libutils/isoc/newlib/memcpy.c:113
    6e48:	f94017e0 	ldr	x0, [sp,#40]
    6e4c:	91002001 	add	x1, x0, #0x8
    6e50:	f90017e1 	str	x1, [sp,#40]
    6e54:	f94013e1 	ldr	x1, [sp,#32]
    6e58:	91002022 	add	x2, x1, #0x8
    6e5c:	f90013e2 	str	x2, [sp,#32]
    6e60:	f9400021 	ldr	x1, [x1]
    6e64:	f9000001 	str	x1, [x0]
/home/optee/RPi3/optee_os/lib/libutils/isoc/newlib/memcpy.c:114
    6e68:	f94017e0 	ldr	x0, [sp,#40]
    6e6c:	91002001 	add	x1, x0, #0x8
    6e70:	f90017e1 	str	x1, [sp,#40]
    6e74:	f94013e1 	ldr	x1, [sp,#32]
    6e78:	91002022 	add	x2, x1, #0x8
    6e7c:	f90013e2 	str	x2, [sp,#32]
    6e80:	f9400021 	ldr	x1, [x1]
    6e84:	f9000001 	str	x1, [x0]
/home/optee/RPi3/optee_os/lib/libutils/isoc/newlib/memcpy.c:115
    6e88:	f94007e0 	ldr	x0, [sp,#8]
    6e8c:	d1008000 	sub	x0, x0, #0x20
    6e90:	f90007e0 	str	x0, [sp,#8]
/home/optee/RPi3/optee_os/lib/libutils/isoc/newlib/memcpy.c:110
    6e94:	f94007e0 	ldr	x0, [sp,#8]
    6e98:	f1007c1f 	cmp	x0, #0x1f
    6e9c:	54fffb68 	b.hi	6e08 <memcpy+0x58>
/home/optee/RPi3/optee_os/lib/libutils/isoc/newlib/memcpy.c:119
    6ea0:	1400000c 	b	6ed0 <memcpy+0x120>
/home/optee/RPi3/optee_os/lib/libutils/isoc/newlib/memcpy.c:120
    6ea4:	f94017e0 	ldr	x0, [sp,#40]
    6ea8:	91002001 	add	x1, x0, #0x8
    6eac:	f90017e1 	str	x1, [sp,#40]
    6eb0:	f94013e1 	ldr	x1, [sp,#32]
    6eb4:	91002022 	add	x2, x1, #0x8
    6eb8:	f90013e2 	str	x2, [sp,#32]
    6ebc:	f9400021 	ldr	x1, [x1]
    6ec0:	f9000001 	str	x1, [x0]
/home/optee/RPi3/optee_os/lib/libutils/isoc/newlib/memcpy.c:121
    6ec4:	f94007e0 	ldr	x0, [sp,#8]
    6ec8:	d1002000 	sub	x0, x0, #0x8
    6ecc:	f90007e0 	str	x0, [sp,#8]
/home/optee/RPi3/optee_os/lib/libutils/isoc/newlib/memcpy.c:119
    6ed0:	f94007e0 	ldr	x0, [sp,#8]
    6ed4:	f1001c1f 	cmp	x0, #0x7
    6ed8:	54fffe68 	b.hi	6ea4 <memcpy+0xf4>
/home/optee/RPi3/optee_os/lib/libutils/isoc/newlib/memcpy.c:125
    6edc:	f94017e0 	ldr	x0, [sp,#40]
    6ee0:	f9001fe0 	str	x0, [sp,#56]
/home/optee/RPi3/optee_os/lib/libutils/isoc/newlib/memcpy.c:126
    6ee4:	f94013e0 	ldr	x0, [sp,#32]
    6ee8:	f9001be0 	str	x0, [sp,#48]
/home/optee/RPi3/optee_os/lib/libutils/isoc/newlib/memcpy.c:129
    6eec:	14000009 	b	6f10 <memcpy+0x160>
/home/optee/RPi3/optee_os/lib/libutils/isoc/newlib/memcpy.c:130
    6ef0:	f9401fe0 	ldr	x0, [sp,#56]
    6ef4:	91000401 	add	x1, x0, #0x1
    6ef8:	f9001fe1 	str	x1, [sp,#56]
    6efc:	f9401be1 	ldr	x1, [sp,#48]
    6f00:	91000422 	add	x2, x1, #0x1
    6f04:	f9001be2 	str	x2, [sp,#48]
    6f08:	39400021 	ldrb	w1, [x1]
    6f0c:	39000001 	strb	w1, [x0]
/home/optee/RPi3/optee_os/lib/libutils/isoc/newlib/memcpy.c:129
    6f10:	f94007e0 	ldr	x0, [sp,#8]
    6f14:	d1000401 	sub	x1, x0, #0x1
    6f18:	f90007e1 	str	x1, [sp,#8]
    6f1c:	eb1f001f 	cmp	x0, xzr
    6f20:	54fffe81 	b.ne	6ef0 <memcpy+0x140>
/home/optee/RPi3/optee_os/lib/libutils/isoc/newlib/memcpy.c:132
    6f24:	f9400fe0 	ldr	x0, [sp,#24]
/home/optee/RPi3/optee_os/lib/libutils/isoc/newlib/memcpy.c:134
    6f28:	910103ff 	add	sp, sp, #0x40
    6f2c:	d65f03c0 	ret

0000000000006f30 <memmove>:
memmove():
/home/optee/RPi3/optee_os/lib/libutils/isoc/newlib/memmove.c:90
    6f30:	d10103ff 	sub	sp, sp, #0x40
    6f34:	f9000fe0 	str	x0, [sp,#24]
    6f38:	f9000be1 	str	x1, [sp,#16]
    6f3c:	f90007e2 	str	x2, [sp,#8]
/home/optee/RPi3/optee_os/lib/libutils/isoc/newlib/memmove.c:108
    6f40:	f9400fe0 	ldr	x0, [sp,#24]
    6f44:	f9001fe0 	str	x0, [sp,#56]
/home/optee/RPi3/optee_os/lib/libutils/isoc/newlib/memmove.c:109
    6f48:	f9400be0 	ldr	x0, [sp,#16]
    6f4c:	f9001be0 	str	x0, [sp,#48]
/home/optee/RPi3/optee_os/lib/libutils/isoc/newlib/memmove.c:113
    6f50:	f9401be1 	ldr	x1, [sp,#48]
    6f54:	f9401fe0 	ldr	x0, [sp,#56]
    6f58:	eb00003f 	cmp	x1, x0
    6f5c:	54000402 	b.cs	6fdc <memmove+0xac>
/home/optee/RPi3/optee_os/lib/libutils/isoc/newlib/memmove.c:113 (discriminator 1)
    6f60:	f9401be1 	ldr	x1, [sp,#48]
    6f64:	f94007e0 	ldr	x0, [sp,#8]
    6f68:	8b000021 	add	x1, x1, x0
    6f6c:	f9401fe0 	ldr	x0, [sp,#56]
    6f70:	eb00003f 	cmp	x1, x0
    6f74:	54000349 	b.ls	6fdc <memmove+0xac>
/home/optee/RPi3/optee_os/lib/libutils/isoc/newlib/memmove.c:115
    6f78:	f9401be1 	ldr	x1, [sp,#48]
    6f7c:	f94007e0 	ldr	x0, [sp,#8]
    6f80:	8b000020 	add	x0, x1, x0
    6f84:	f9001be0 	str	x0, [sp,#48]
/home/optee/RPi3/optee_os/lib/libutils/isoc/newlib/memmove.c:116
    6f88:	f9401fe1 	ldr	x1, [sp,#56]
    6f8c:	f94007e0 	ldr	x0, [sp,#8]
    6f90:	8b000020 	add	x0, x1, x0
    6f94:	f9001fe0 	str	x0, [sp,#56]
/home/optee/RPi3/optee_os/lib/libutils/isoc/newlib/memmove.c:117
    6f98:	1400000b 	b	6fc4 <memmove+0x94>
/home/optee/RPi3/optee_os/lib/libutils/isoc/newlib/memmove.c:118
    6f9c:	f9401fe0 	ldr	x0, [sp,#56]
    6fa0:	d1000400 	sub	x0, x0, #0x1
    6fa4:	f9001fe0 	str	x0, [sp,#56]
    6fa8:	f9401be0 	ldr	x0, [sp,#48]
    6fac:	d1000400 	sub	x0, x0, #0x1
    6fb0:	f9001be0 	str	x0, [sp,#48]
    6fb4:	f9401be0 	ldr	x0, [sp,#48]
    6fb8:	39400001 	ldrb	w1, [x0]
    6fbc:	f9401fe0 	ldr	x0, [sp,#56]
    6fc0:	39000001 	strb	w1, [x0]
/home/optee/RPi3/optee_os/lib/libutils/isoc/newlib/memmove.c:117
    6fc4:	f94007e0 	ldr	x0, [sp,#8]
    6fc8:	d1000401 	sub	x1, x0, #0x1
    6fcc:	f90007e1 	str	x1, [sp,#8]
    6fd0:	eb1f001f 	cmp	x0, xzr
    6fd4:	54fffe41 	b.ne	6f9c <memmove+0x6c>
/home/optee/RPi3/optee_os/lib/libutils/isoc/newlib/memmove.c:113
    6fd8:	14000056 	b	7130 <memmove+0x200>
/home/optee/RPi3/optee_os/lib/libutils/isoc/newlib/memmove.c:126
    6fdc:	f94007e0 	ldr	x0, [sp,#8]
    6fe0:	f1007c1f 	cmp	x0, #0x1f
    6fe4:	540009c9 	b.ls	711c <memmove+0x1ec>
/home/optee/RPi3/optee_os/lib/libutils/isoc/newlib/memmove.c:126 (discriminator 1)
    6fe8:	f9401be1 	ldr	x1, [sp,#48]
    6fec:	f9401fe0 	ldr	x0, [sp,#56]
    6ff0:	aa000020 	orr	x0, x1, x0
    6ff4:	92400800 	and	x0, x0, #0x7
    6ff8:	eb1f001f 	cmp	x0, xzr
    6ffc:	54000901 	b.ne	711c <memmove+0x1ec>
/home/optee/RPi3/optee_os/lib/libutils/isoc/newlib/memmove.c:127
    7000:	f9401fe0 	ldr	x0, [sp,#56]
    7004:	f90017e0 	str	x0, [sp,#40]
/home/optee/RPi3/optee_os/lib/libutils/isoc/newlib/memmove.c:128
    7008:	f9401be0 	ldr	x0, [sp,#48]
    700c:	f90013e0 	str	x0, [sp,#32]
/home/optee/RPi3/optee_os/lib/libutils/isoc/newlib/memmove.c:131
    7010:	14000024 	b	70a0 <memmove+0x170>
/home/optee/RPi3/optee_os/lib/libutils/isoc/newlib/memmove.c:132
    7014:	f94017e0 	ldr	x0, [sp,#40]
    7018:	91002001 	add	x1, x0, #0x8
    701c:	f90017e1 	str	x1, [sp,#40]
    7020:	f94013e1 	ldr	x1, [sp,#32]
    7024:	91002022 	add	x2, x1, #0x8
    7028:	f90013e2 	str	x2, [sp,#32]
    702c:	f9400021 	ldr	x1, [x1]
    7030:	f9000001 	str	x1, [x0]
/home/optee/RPi3/optee_os/lib/libutils/isoc/newlib/memmove.c:133
    7034:	f94017e0 	ldr	x0, [sp,#40]
    7038:	91002001 	add	x1, x0, #0x8
    703c:	f90017e1 	str	x1, [sp,#40]
    7040:	f94013e1 	ldr	x1, [sp,#32]
    7044:	91002022 	add	x2, x1, #0x8
    7048:	f90013e2 	str	x2, [sp,#32]
    704c:	f9400021 	ldr	x1, [x1]
    7050:	f9000001 	str	x1, [x0]
/home/optee/RPi3/optee_os/lib/libutils/isoc/newlib/memmove.c:134
    7054:	f94017e0 	ldr	x0, [sp,#40]
    7058:	91002001 	add	x1, x0, #0x8
    705c:	f90017e1 	str	x1, [sp,#40]
    7060:	f94013e1 	ldr	x1, [sp,#32]
    7064:	91002022 	add	x2, x1, #0x8
    7068:	f90013e2 	str	x2, [sp,#32]
    706c:	f9400021 	ldr	x1, [x1]
    7070:	f9000001 	str	x1, [x0]
/home/optee/RPi3/optee_os/lib/libutils/isoc/newlib/memmove.c:135
    7074:	f94017e0 	ldr	x0, [sp,#40]
    7078:	91002001 	add	x1, x0, #0x8
    707c:	f90017e1 	str	x1, [sp,#40]
    7080:	f94013e1 	ldr	x1, [sp,#32]
    7084:	91002022 	add	x2, x1, #0x8
    7088:	f90013e2 	str	x2, [sp,#32]
    708c:	f9400021 	ldr	x1, [x1]
    7090:	f9000001 	str	x1, [x0]
/home/optee/RPi3/optee_os/lib/libutils/isoc/newlib/memmove.c:136
    7094:	f94007e0 	ldr	x0, [sp,#8]
    7098:	d1008000 	sub	x0, x0, #0x20
    709c:	f90007e0 	str	x0, [sp,#8]
/home/optee/RPi3/optee_os/lib/libutils/isoc/newlib/memmove.c:131
    70a0:	f94007e0 	ldr	x0, [sp,#8]
    70a4:	f1007c1f 	cmp	x0, #0x1f
    70a8:	54fffb68 	b.hi	7014 <memmove+0xe4>
/home/optee/RPi3/optee_os/lib/libutils/isoc/newlib/memmove.c:140
    70ac:	1400000c 	b	70dc <memmove+0x1ac>
/home/optee/RPi3/optee_os/lib/libutils/isoc/newlib/memmove.c:141
    70b0:	f94017e0 	ldr	x0, [sp,#40]
    70b4:	91002001 	add	x1, x0, #0x8
    70b8:	f90017e1 	str	x1, [sp,#40]
    70bc:	f94013e1 	ldr	x1, [sp,#32]
    70c0:	91002022 	add	x2, x1, #0x8
    70c4:	f90013e2 	str	x2, [sp,#32]
    70c8:	f9400021 	ldr	x1, [x1]
    70cc:	f9000001 	str	x1, [x0]
/home/optee/RPi3/optee_os/lib/libutils/isoc/newlib/memmove.c:142
    70d0:	f94007e0 	ldr	x0, [sp,#8]
    70d4:	d1002000 	sub	x0, x0, #0x8
    70d8:	f90007e0 	str	x0, [sp,#8]
/home/optee/RPi3/optee_os/lib/libutils/isoc/newlib/memmove.c:140
    70dc:	f94007e0 	ldr	x0, [sp,#8]
    70e0:	f1001c1f 	cmp	x0, #0x7
    70e4:	54fffe68 	b.hi	70b0 <memmove+0x180>
/home/optee/RPi3/optee_os/lib/libutils/isoc/newlib/memmove.c:146
    70e8:	f94017e0 	ldr	x0, [sp,#40]
    70ec:	f9001fe0 	str	x0, [sp,#56]
/home/optee/RPi3/optee_os/lib/libutils/isoc/newlib/memmove.c:147
    70f0:	f94013e0 	ldr	x0, [sp,#32]
    70f4:	f9001be0 	str	x0, [sp,#48]
/home/optee/RPi3/optee_os/lib/libutils/isoc/newlib/memmove.c:150
    70f8:	14000009 	b	711c <memmove+0x1ec>
/home/optee/RPi3/optee_os/lib/libutils/isoc/newlib/memmove.c:151
    70fc:	f9401fe0 	ldr	x0, [sp,#56]
    7100:	91000401 	add	x1, x0, #0x1
    7104:	f9001fe1 	str	x1, [sp,#56]
    7108:	f9401be1 	ldr	x1, [sp,#48]
    710c:	91000422 	add	x2, x1, #0x1
    7110:	f9001be2 	str	x2, [sp,#48]
    7114:	39400021 	ldrb	w1, [x1]
    7118:	39000001 	strb	w1, [x0]
/home/optee/RPi3/optee_os/lib/libutils/isoc/newlib/memmove.c:150
    711c:	f94007e0 	ldr	x0, [sp,#8]
    7120:	d1000401 	sub	x1, x0, #0x1
    7124:	f90007e1 	str	x1, [sp,#8]
    7128:	eb1f001f 	cmp	x0, xzr
    712c:	54fffe81 	b.ne	70fc <memmove+0x1cc>
/home/optee/RPi3/optee_os/lib/libutils/isoc/newlib/memmove.c:154
    7130:	f9400fe0 	ldr	x0, [sp,#24]
/home/optee/RPi3/optee_os/lib/libutils/isoc/newlib/memmove.c:156
    7134:	910103ff 	add	sp, sp, #0x40
    7138:	d65f03c0 	ret

000000000000713c <memset>:
memset():
/home/optee/RPi3/optee_os/lib/libutils/isoc/newlib/memset.c:75
    713c:	d10143ff 	sub	sp, sp, #0x50
    7140:	f9000fe0 	str	x0, [sp,#24]
    7144:	b90017e1 	str	w1, [sp,#20]
    7148:	f90007e2 	str	x2, [sp,#8]
/home/optee/RPi3/optee_os/lib/libutils/isoc/newlib/memset.c:76
    714c:	f9400fe0 	ldr	x0, [sp,#24]
    7150:	f90027e0 	str	x0, [sp,#72]
/home/optee/RPi3/optee_os/lib/libutils/isoc/newlib/memset.c:82
    7154:	b94017e0 	ldr	w0, [sp,#20]
    7158:	12001c00 	and	w0, w0, #0xff
    715c:	b9002fe0 	str	w0, [sp,#44]
/home/optee/RPi3/optee_os/lib/libutils/isoc/newlib/memset.c:85
    7160:	1400000f 	b	719c <memset+0x60>
/home/optee/RPi3/optee_os/lib/libutils/isoc/newlib/memset.c:86
    7164:	f94007e0 	ldr	x0, [sp,#8]
    7168:	d1000401 	sub	x1, x0, #0x1
    716c:	f90007e1 	str	x1, [sp,#8]
    7170:	eb1f001f 	cmp	x0, xzr
    7174:	54000100 	b.eq	7194 <memset+0x58>
/home/optee/RPi3/optee_os/lib/libutils/isoc/newlib/memset.c:87
    7178:	f94027e0 	ldr	x0, [sp,#72]
    717c:	91000401 	add	x1, x0, #0x1
    7180:	f90027e1 	str	x1, [sp,#72]
    7184:	b94017e1 	ldr	w1, [sp,#20]
    7188:	53001c21 	uxtb	w1, w1
    718c:	39000001 	strb	w1, [x0]
    7190:	14000003 	b	719c <memset+0x60>
/home/optee/RPi3/optee_os/lib/libutils/isoc/newlib/memset.c:89
    7194:	f9400fe0 	ldr	x0, [sp,#24]
    7198:	1400005a 	b	7300 <memset+0x1c4>
/home/optee/RPi3/optee_os/lib/libutils/isoc/newlib/memset.c:85
    719c:	f94027e0 	ldr	x0, [sp,#72]
    71a0:	92400800 	and	x0, x0, #0x7
    71a4:	eb1f001f 	cmp	x0, xzr
    71a8:	54fffde1 	b.ne	7164 <memset+0x28>
/home/optee/RPi3/optee_os/lib/libutils/isoc/newlib/memset.c:92
    71ac:	f94007e0 	ldr	x0, [sp,#8]
    71b0:	f1001c1f 	cmp	x0, #0x7
    71b4:	540009a9 	b.ls	72e8 <memset+0x1ac>
/home/optee/RPi3/optee_os/lib/libutils/isoc/newlib/memset.c:97
    71b8:	f94027e0 	ldr	x0, [sp,#72]
    71bc:	f9001be0 	str	x0, [sp,#48]
/home/optee/RPi3/optee_os/lib/libutils/isoc/newlib/memset.c:101
    71c0:	b9402fe0 	ldr	w0, [sp,#44]
    71c4:	53185c01 	lsl	w1, w0, #8
    71c8:	b9402fe0 	ldr	w0, [sp,#44]
    71cc:	2a000020 	orr	w0, w1, w0
    71d0:	2a0003e0 	mov	w0, w0
    71d4:	f9001fe0 	str	x0, [sp,#56]
/home/optee/RPi3/optee_os/lib/libutils/isoc/newlib/memset.c:102
    71d8:	f9401fe0 	ldr	x0, [sp,#56]
    71dc:	d370bc00 	lsl	x0, x0, #16
    71e0:	f9401fe1 	ldr	x1, [sp,#56]
    71e4:	aa000020 	orr	x0, x1, x0
    71e8:	f9001fe0 	str	x0, [sp,#56]
/home/optee/RPi3/optee_os/lib/libutils/isoc/newlib/memset.c:103
    71ec:	52800400 	mov	w0, #0x20                  	// #32
    71f0:	b90047e0 	str	w0, [sp,#68]
    71f4:	1400000a 	b	721c <memset+0xe0>
/home/optee/RPi3/optee_os/lib/libutils/isoc/newlib/memset.c:104 (discriminator 3)
    71f8:	b94047e0 	ldr	w0, [sp,#68]
    71fc:	f9401fe1 	ldr	x1, [sp,#56]
    7200:	9ac02020 	lsl	x0, x1, x0
    7204:	f9401fe1 	ldr	x1, [sp,#56]
    7208:	aa000020 	orr	x0, x1, x0
    720c:	f9001fe0 	str	x0, [sp,#56]
/home/optee/RPi3/optee_os/lib/libutils/isoc/newlib/memset.c:103 (discriminator 3)
    7210:	b94047e0 	ldr	w0, [sp,#68]
    7214:	531f7800 	lsl	w0, w0, #1
    7218:	b90047e0 	str	w0, [sp,#68]
/home/optee/RPi3/optee_os/lib/libutils/isoc/newlib/memset.c:103 (discriminator 1)
    721c:	b94047e0 	ldr	w0, [sp,#68]
    7220:	7100fc1f 	cmp	w0, #0x3f
    7224:	54fffea9 	b.ls	71f8 <memset+0xbc>
/home/optee/RPi3/optee_os/lib/libutils/isoc/newlib/memset.c:107
    7228:	14000018 	b	7288 <memset+0x14c>
/home/optee/RPi3/optee_os/lib/libutils/isoc/newlib/memset.c:108
    722c:	f9401be0 	ldr	x0, [sp,#48]
    7230:	91002001 	add	x1, x0, #0x8
    7234:	f9001be1 	str	x1, [sp,#48]
    7238:	f9401fe1 	ldr	x1, [sp,#56]
    723c:	f9000001 	str	x1, [x0]
/home/optee/RPi3/optee_os/lib/libutils/isoc/newlib/memset.c:109
    7240:	f9401be0 	ldr	x0, [sp,#48]
    7244:	91002001 	add	x1, x0, #0x8
    7248:	f9001be1 	str	x1, [sp,#48]
    724c:	f9401fe1 	ldr	x1, [sp,#56]
    7250:	f9000001 	str	x1, [x0]
/home/optee/RPi3/optee_os/lib/libutils/isoc/newlib/memset.c:110
    7254:	f9401be0 	ldr	x0, [sp,#48]
    7258:	91002001 	add	x1, x0, #0x8
    725c:	f9001be1 	str	x1, [sp,#48]
    7260:	f9401fe1 	ldr	x1, [sp,#56]
    7264:	f9000001 	str	x1, [x0]
/home/optee/RPi3/optee_os/lib/libutils/isoc/newlib/memset.c:111
    7268:	f9401be0 	ldr	x0, [sp,#48]
    726c:	91002001 	add	x1, x0, #0x8
    7270:	f9001be1 	str	x1, [sp,#48]
    7274:	f9401fe1 	ldr	x1, [sp,#56]
    7278:	f9000001 	str	x1, [x0]
/home/optee/RPi3/optee_os/lib/libutils/isoc/newlib/memset.c:112
    727c:	f94007e0 	ldr	x0, [sp,#8]
    7280:	d1008000 	sub	x0, x0, #0x20
    7284:	f90007e0 	str	x0, [sp,#8]
/home/optee/RPi3/optee_os/lib/libutils/isoc/newlib/memset.c:107
    7288:	f94007e0 	ldr	x0, [sp,#8]
    728c:	f1007c1f 	cmp	x0, #0x1f
    7290:	54fffce8 	b.hi	722c <memset+0xf0>
/home/optee/RPi3/optee_os/lib/libutils/isoc/newlib/memset.c:115
    7294:	14000009 	b	72b8 <memset+0x17c>
/home/optee/RPi3/optee_os/lib/libutils/isoc/newlib/memset.c:116
    7298:	f9401be0 	ldr	x0, [sp,#48]
    729c:	91002001 	add	x1, x0, #0x8
    72a0:	f9001be1 	str	x1, [sp,#48]
    72a4:	f9401fe1 	ldr	x1, [sp,#56]
    72a8:	f9000001 	str	x1, [x0]
/home/optee/RPi3/optee_os/lib/libutils/isoc/newlib/memset.c:117
    72ac:	f94007e0 	ldr	x0, [sp,#8]
    72b0:	d1002000 	sub	x0, x0, #0x8
    72b4:	f90007e0 	str	x0, [sp,#8]
/home/optee/RPi3/optee_os/lib/libutils/isoc/newlib/memset.c:115
    72b8:	f94007e0 	ldr	x0, [sp,#8]
    72bc:	f1001c1f 	cmp	x0, #0x7
    72c0:	54fffec8 	b.hi	7298 <memset+0x15c>
/home/optee/RPi3/optee_os/lib/libutils/isoc/newlib/memset.c:120
    72c4:	f9401be0 	ldr	x0, [sp,#48]
    72c8:	f90027e0 	str	x0, [sp,#72]
/home/optee/RPi3/optee_os/lib/libutils/isoc/newlib/memset.c:124
    72cc:	14000007 	b	72e8 <memset+0x1ac>
/home/optee/RPi3/optee_os/lib/libutils/isoc/newlib/memset.c:125
    72d0:	f94027e0 	ldr	x0, [sp,#72]
    72d4:	91000401 	add	x1, x0, #0x1
    72d8:	f90027e1 	str	x1, [sp,#72]
    72dc:	b94017e1 	ldr	w1, [sp,#20]
    72e0:	53001c21 	uxtb	w1, w1
    72e4:	39000001 	strb	w1, [x0]
/home/optee/RPi3/optee_os/lib/libutils/isoc/newlib/memset.c:124
    72e8:	f94007e0 	ldr	x0, [sp,#8]
    72ec:	d1000401 	sub	x1, x0, #0x1
    72f0:	f90007e1 	str	x1, [sp,#8]
    72f4:	eb1f001f 	cmp	x0, xzr
    72f8:	54fffec1 	b.ne	72d0 <memset+0x194>
/home/optee/RPi3/optee_os/lib/libutils/isoc/newlib/memset.c:127
    72fc:	f9400fe0 	ldr	x0, [sp,#24]
/home/optee/RPi3/optee_os/lib/libutils/isoc/newlib/memset.c:128
    7300:	910143ff 	add	sp, sp, #0x50
    7304:	d65f03c0 	ret

0000000000007308 <strlen>:
strlen():
/home/optee/RPi3/optee_os/lib/libutils/isoc/newlib/strlen.c:90
    7308:	d10083ff 	sub	sp, sp, #0x20
    730c:	f90007e0 	str	x0, [sp,#8]
/home/optee/RPi3/optee_os/lib/libutils/isoc/newlib/strlen.c:91
    7310:	f94007e0 	ldr	x0, [sp,#8]
    7314:	f9000be0 	str	x0, [sp,#16]
/home/optee/RPi3/optee_os/lib/libutils/isoc/newlib/strlen.c:97
    7318:	1400000c 	b	7348 <strlen+0x40>
/home/optee/RPi3/optee_os/lib/libutils/isoc/newlib/strlen.c:98
    731c:	f94007e0 	ldr	x0, [sp,#8]
    7320:	39400000 	ldrb	w0, [x0]
    7324:	6b1f001f 	cmp	w0, wzr
    7328:	540000a1 	b.ne	733c <strlen+0x34>
/home/optee/RPi3/optee_os/lib/libutils/isoc/newlib/strlen.c:99
    732c:	f94007e1 	ldr	x1, [sp,#8]
    7330:	f9400be0 	ldr	x0, [sp,#16]
    7334:	cb000020 	sub	x0, x1, x0
    7338:	1400002b 	b	73e4 <strlen+0xdc>
/home/optee/RPi3/optee_os/lib/libutils/isoc/newlib/strlen.c:100
    733c:	f94007e0 	ldr	x0, [sp,#8]
    7340:	91000400 	add	x0, x0, #0x1
    7344:	f90007e0 	str	x0, [sp,#8]
/home/optee/RPi3/optee_os/lib/libutils/isoc/newlib/strlen.c:97
    7348:	f94007e0 	ldr	x0, [sp,#8]
    734c:	92400800 	and	x0, x0, #0x7
    7350:	eb1f001f 	cmp	x0, xzr
    7354:	54fffe41 	b.ne	731c <strlen+0x14>
/home/optee/RPi3/optee_os/lib/libutils/isoc/newlib/strlen.c:105
    7358:	f94007e0 	ldr	x0, [sp,#8]
    735c:	f9000fe0 	str	x0, [sp,#24]
/home/optee/RPi3/optee_os/lib/libutils/isoc/newlib/strlen.c:106
    7360:	14000004 	b	7370 <strlen+0x68>
/home/optee/RPi3/optee_os/lib/libutils/isoc/newlib/strlen.c:107
    7364:	f9400fe0 	ldr	x0, [sp,#24]
    7368:	91002000 	add	x0, x0, #0x8
    736c:	f9000fe0 	str	x0, [sp,#24]
/home/optee/RPi3/optee_os/lib/libutils/isoc/newlib/strlen.c:106
    7370:	f9400fe0 	ldr	x0, [sp,#24]
    7374:	f9400001 	ldr	x1, [x0]
    7378:	b207dbe0 	mov	x0, #0xfefefefefefefefe    	// #-72340172838076674
    737c:	f29fdfe0 	movk	x0, #0xfeff
    7380:	d29fdfe0 	mov	x0, #0xfeff                	// #65279
    7384:	f2bfdfc0 	movk	x0, #0xfefe, lsl #16
    7388:	f2dfdfc0 	movk	x0, #0xfefe, lsl #32
    738c:	f2ffdfc0 	movk	x0, #0xfefe, lsl #48
    7390:	8b000021 	add	x1, x1, x0
    7394:	f9400fe0 	ldr	x0, [sp,#24]
    7398:	f9400000 	ldr	x0, [x0]
    739c:	aa2003e0 	mvn	x0, x0
    73a0:	8a000020 	and	x0, x1, x0
    73a4:	9201c000 	and	x0, x0, #0x8080808080808080
    73a8:	eb1f001f 	cmp	x0, xzr
    73ac:	54fffdc0 	b.eq	7364 <strlen+0x5c>
/home/optee/RPi3/optee_os/lib/libutils/isoc/newlib/strlen.c:111
    73b0:	f9400fe0 	ldr	x0, [sp,#24]
    73b4:	f90007e0 	str	x0, [sp,#8]
/home/optee/RPi3/optee_os/lib/libutils/isoc/newlib/strlen.c:115
    73b8:	14000004 	b	73c8 <strlen+0xc0>
/home/optee/RPi3/optee_os/lib/libutils/isoc/newlib/strlen.c:116
    73bc:	f94007e0 	ldr	x0, [sp,#8]
    73c0:	91000400 	add	x0, x0, #0x1
    73c4:	f90007e0 	str	x0, [sp,#8]
/home/optee/RPi3/optee_os/lib/libutils/isoc/newlib/strlen.c:115
    73c8:	f94007e0 	ldr	x0, [sp,#8]
    73cc:	39400000 	ldrb	w0, [x0]
    73d0:	6b1f001f 	cmp	w0, wzr
    73d4:	54ffff41 	b.ne	73bc <strlen+0xb4>
/home/optee/RPi3/optee_os/lib/libutils/isoc/newlib/strlen.c:117
    73d8:	f94007e1 	ldr	x1, [sp,#8]
    73dc:	f9400be0 	ldr	x0, [sp,#16]
    73e0:	cb000020 	sub	x0, x1, x0
/home/optee/RPi3/optee_os/lib/libutils/isoc/newlib/strlen.c:118
    73e4:	910083ff 	add	sp, sp, #0x20
    73e8:	d65f03c0 	ret

00000000000073ec <snprintk>:
snprintk():
/home/optee/RPi3/optee_os/lib/libutils/ext/snprintk.c:111
    73ec:	a9ad7bfd 	stp	x29, x30, [sp,#-304]!
    73f0:	910003fd 	mov	x29, sp
    73f4:	f90027a0 	str	x0, [x29,#72]
    73f8:	f90023a1 	str	x1, [x29,#64]
    73fc:	f9001fa2 	str	x2, [x29,#56]
    7400:	f90087a3 	str	x3, [x29,#264]
    7404:	f9008ba4 	str	x4, [x29,#272]
    7408:	f9008fa5 	str	x5, [x29,#280]
    740c:	f90093a6 	str	x6, [x29,#288]
    7410:	f90097a7 	str	x7, [x29,#296]
    7414:	3d8023a0 	str	q0, [x29,#128]
    7418:	3d8027a1 	str	q1, [x29,#144]
    741c:	3d802ba2 	str	q2, [x29,#160]
    7420:	3d802fa3 	str	q3, [x29,#176]
    7424:	3d8033a4 	str	q4, [x29,#192]
    7428:	3d8037a5 	str	q5, [x29,#208]
    742c:	3d803ba6 	str	q6, [x29,#224]
    7430:	3d803fa7 	str	q7, [x29,#240]
/home/optee/RPi3/optee_os/lib/libutils/ext/snprintk.c:115
    7434:	9104c3a0 	add	x0, x29, #0x130
    7438:	f9002fa0 	str	x0, [x29,#88]
    743c:	9104c3a0 	add	x0, x29, #0x130
    7440:	f90033a0 	str	x0, [x29,#96]
    7444:	910403a0 	add	x0, x29, #0x100
    7448:	f90037a0 	str	x0, [x29,#104]
    744c:	128004e0 	mov	w0, #0xffffffd8            	// #-40
    7450:	b90073a0 	str	w0, [x29,#112]
    7454:	12800fe0 	mov	w0, #0xffffff80            	// #-128
    7458:	b90077a0 	str	w0, [x29,#116]
/home/optee/RPi3/optee_os/lib/libutils/ext/snprintk.c:116
    745c:	f9402fa0 	ldr	x0, [x29,#88]
    7460:	f9000ba0 	str	x0, [x29,#16]
    7464:	f94033a0 	ldr	x0, [x29,#96]
    7468:	f9000fa0 	str	x0, [x29,#24]
    746c:	f94037a0 	ldr	x0, [x29,#104]
    7470:	f90013a0 	str	x0, [x29,#32]
    7474:	f9403ba0 	ldr	x0, [x29,#112]
    7478:	f90017a0 	str	x0, [x29,#40]
    747c:	910043a0 	add	x0, x29, #0x10
    7480:	aa0003e3 	mov	x3, x0
    7484:	f9401fa2 	ldr	x2, [x29,#56]
    7488:	f94023a1 	ldr	x1, [x29,#64]
    748c:	f94027a0 	ldr	x0, [x29,#72]
    7490:	94000005 	bl	74a4 <vsnprintk>
    7494:	b9007fa0 	str	w0, [x29,#124]
/home/optee/RPi3/optee_os/lib/libutils/ext/snprintk.c:119
    7498:	b9407fa0 	ldr	w0, [x29,#124]
/home/optee/RPi3/optee_os/lib/libutils/ext/snprintk.c:120
    749c:	a8d37bfd 	ldp	x29, x30, [sp],#304
    74a0:	d65f03c0 	ret

00000000000074a4 <vsnprintk>:
vsnprintk():
/home/optee/RPi3/optee_os/lib/libutils/ext/snprintk.c:128
    74a4:	a9ba7bfd 	stp	x29, x30, [sp,#-96]!
    74a8:	910003fd 	mov	x29, sp
    74ac:	f9000bf3 	str	x19, [sp,#16]
    74b0:	f9002fa0 	str	x0, [x29,#88]
    74b4:	f9002ba1 	str	x1, [x29,#80]
    74b8:	f90027a2 	str	x2, [x29,#72]
    74bc:	aa0303f3 	mov	x19, x3
/home/optee/RPi3/optee_os/lib/libutils/ext/snprintk.c:129
    74c0:	f9400260 	ldr	x0, [x19]
    74c4:	f90013a0 	str	x0, [x29,#32]
    74c8:	f9400660 	ldr	x0, [x19,#8]
    74cc:	f90017a0 	str	x0, [x29,#40]
    74d0:	f9400a60 	ldr	x0, [x19,#16]
    74d4:	f9001ba0 	str	x0, [x29,#48]
    74d8:	f9400e60 	ldr	x0, [x19,#24]
    74dc:	f9001fa0 	str	x0, [x29,#56]
    74e0:	910083a0 	add	x0, x29, #0x20
    74e4:	52800024 	mov	w4, #0x1                   	// #1
    74e8:	aa0003e3 	mov	x3, x0
    74ec:	f94027a2 	ldr	x2, [x29,#72]
    74f0:	f9402ba1 	ldr	x1, [x29,#80]
    74f4:	f9402fa0 	ldr	x0, [x29,#88]
    74f8:	94000004 	bl	7508 <__vsnprintf>
/home/optee/RPi3/optee_os/lib/libutils/ext/snprintk.c:130
    74fc:	f9400bf3 	ldr	x19, [sp,#16]
    7500:	a8c67bfd 	ldp	x29, x30, [sp],#96
    7504:	d65f03c0 	ret

0000000000007508 <__vsnprintf>:
__vsnprintf():
/home/optee/RPi3/optee_os/lib/libutils/ext/snprintk.c:136
    7508:	a9b97bfd 	stp	x29, x30, [sp,#-112]!
    750c:	910003fd 	mov	x29, sp
    7510:	f9000bf3 	str	x19, [sp,#16]
    7514:	f9002fa0 	str	x0, [x29,#88]
    7518:	f9002ba1 	str	x1, [x29,#80]
    751c:	f90027a2 	str	x2, [x29,#72]
    7520:	aa0303f3 	mov	x19, x3
    7524:	39011fa4 	strb	w4, [x29,#71]
/home/optee/RPi3/optee_os/lib/libutils/ext/snprintk.c:140
    7528:	f9402fa1 	ldr	x1, [x29,#88]
    752c:	f9402ba0 	ldr	x0, [x29,#80]
    7530:	8b000020 	add	x0, x1, x0
    7534:	f90033a0 	str	x0, [x29,#96]
/home/optee/RPi3/optee_os/lib/libutils/ext/snprintk.c:141
    7538:	f9400260 	ldr	x0, [x19]
    753c:	f90013a0 	str	x0, [x29,#32]
    7540:	f9400660 	ldr	x0, [x19,#8]
    7544:	f90017a0 	str	x0, [x29,#40]
    7548:	f9400a60 	ldr	x0, [x19,#16]
    754c:	f9001ba0 	str	x0, [x29,#48]
    7550:	f9400e60 	ldr	x0, [x19,#24]
    7554:	f9001fa0 	str	x0, [x29,#56]
    7558:	910083a1 	add	x1, x29, #0x20
    755c:	910183a0 	add	x0, x29, #0x60
    7560:	39411fa5 	ldrb	w5, [x29,#71]
    7564:	aa0103e4 	mov	x4, x1
    7568:	f9402fa3 	ldr	x3, [x29,#88]
    756c:	aa0003e2 	mov	x2, x0
    7570:	52800101 	mov	w1, #0x8                   	// #8
    7574:	f94027a0 	ldr	x0, [x29,#72]
    7578:	94000056 	bl	76d0 <kprintf>
    757c:	b9006fa0 	str	w0, [x29,#108]
/home/optee/RPi3/optee_os/lib/libutils/ext/snprintk.c:142
    7580:	f9402fa0 	ldr	x0, [x29,#88]
    7584:	eb1f001f 	cmp	x0, xzr
    7588:	54000240 	b.eq	75d0 <__vsnprintf+0xc8>
/home/optee/RPi3/optee_os/lib/libutils/ext/snprintk.c:142 (discriminator 1)
    758c:	f9402ba0 	ldr	x0, [x29,#80]
    7590:	eb1f001f 	cmp	x0, xzr
    7594:	540001e0 	b.eq	75d0 <__vsnprintf+0xc8>
/home/optee/RPi3/optee_os/lib/libutils/ext/snprintk.c:144
    7598:	b9806fa1 	ldrsw	x1, [x29,#108]
    759c:	f9402ba0 	ldr	x0, [x29,#80]
    75a0:	eb00003f 	cmp	x1, x0
    75a4:	540000e3 	b.cc	75c0 <__vsnprintf+0xb8>
/home/optee/RPi3/optee_os/lib/libutils/ext/snprintk.c:145
    75a8:	f9402ba0 	ldr	x0, [x29,#80]
    75ac:	d1000400 	sub	x0, x0, #0x1
    75b0:	f9402fa1 	ldr	x1, [x29,#88]
    75b4:	8b000020 	add	x0, x1, x0
    75b8:	3900001f 	strb	wzr, [x0]
    75bc:	14000005 	b	75d0 <__vsnprintf+0xc8>
/home/optee/RPi3/optee_os/lib/libutils/ext/snprintk.c:147
    75c0:	b9806fa0 	ldrsw	x0, [x29,#108]
    75c4:	f9402fa1 	ldr	x1, [x29,#88]
    75c8:	8b000020 	add	x0, x1, x0
    75cc:	3900001f 	strb	wzr, [x0]
/home/optee/RPi3/optee_os/lib/libutils/ext/snprintk.c:149
    75d0:	b9406fa0 	ldr	w0, [x29,#108]
/home/optee/RPi3/optee_os/lib/libutils/ext/snprintk.c:150
    75d4:	f9400bf3 	ldr	x19, [sp,#16]
    75d8:	a8c77bfd 	ldp	x29, x30, [sp],#112
    75dc:	d65f03c0 	ret

00000000000075e0 <uuid2str>:
uuid2str():
/home/optee/RPi3/optee_os/lib/libutils/ext/snprintk.c:214
    75e0:	d101c3ff 	sub	sp, sp, #0x70
    75e4:	a9037bfd 	stp	x29, x30, [sp,#48]
    75e8:	9100c3fd 	add	x29, sp, #0x30
    75ec:	f90017a0 	str	x0, [x29,#40]
    75f0:	f90013a1 	str	x1, [x29,#32]
    75f4:	f9000fa2 	str	x2, [x29,#24]
/home/optee/RPi3/optee_os/lib/libutils/ext/snprintk.c:220
    75f8:	f9400fa0 	ldr	x0, [x29,#24]
    75fc:	f9001fa0 	str	x0, [x29,#56]
/home/optee/RPi3/optee_os/lib/libutils/ext/snprintk.c:222
    7600:	f9401fa0 	ldr	x0, [x29,#56]
    7604:	b9400001 	ldr	w1, [x0]
/home/optee/RPi3/optee_os/lib/libutils/ext/snprintk.c:224
    7608:	f9401fa0 	ldr	x0, [x29,#56]
    760c:	79400800 	ldrh	w0, [x0,#4]
/home/optee/RPi3/optee_os/lib/libutils/ext/snprintk.c:222
    7610:	2a0003e8 	mov	w8, w0
/home/optee/RPi3/optee_os/lib/libutils/ext/snprintk.c:224
    7614:	f9401fa0 	ldr	x0, [x29,#56]
    7618:	79400c00 	ldrh	w0, [x0,#6]
/home/optee/RPi3/optee_os/lib/libutils/ext/snprintk.c:222
    761c:	2a0003e9 	mov	w9, w0
/home/optee/RPi3/optee_os/lib/libutils/ext/snprintk.c:225
    7620:	f9401fa0 	ldr	x0, [x29,#56]
    7624:	39402000 	ldrb	w0, [x0,#8]
/home/optee/RPi3/optee_os/lib/libutils/ext/snprintk.c:222
    7628:	2a0003ea 	mov	w10, w0
/home/optee/RPi3/optee_os/lib/libutils/ext/snprintk.c:225
    762c:	f9401fa0 	ldr	x0, [x29,#56]
    7630:	39402400 	ldrb	w0, [x0,#9]
/home/optee/RPi3/optee_os/lib/libutils/ext/snprintk.c:222
    7634:	2a0003eb 	mov	w11, w0
/home/optee/RPi3/optee_os/lib/libutils/ext/snprintk.c:226
    7638:	f9401fa0 	ldr	x0, [x29,#56]
    763c:	39402800 	ldrb	w0, [x0,#10]
/home/optee/RPi3/optee_os/lib/libutils/ext/snprintk.c:222
    7640:	2a0003e2 	mov	w2, w0
/home/optee/RPi3/optee_os/lib/libutils/ext/snprintk.c:226
    7644:	f9401fa0 	ldr	x0, [x29,#56]
    7648:	39402c00 	ldrb	w0, [x0,#11]
/home/optee/RPi3/optee_os/lib/libutils/ext/snprintk.c:222
    764c:	2a0003e3 	mov	w3, w0
/home/optee/RPi3/optee_os/lib/libutils/ext/snprintk.c:227
    7650:	f9401fa0 	ldr	x0, [x29,#56]
    7654:	39403000 	ldrb	w0, [x0,#12]
/home/optee/RPi3/optee_os/lib/libutils/ext/snprintk.c:222
    7658:	2a0003e4 	mov	w4, w0
/home/optee/RPi3/optee_os/lib/libutils/ext/snprintk.c:227
    765c:	f9401fa0 	ldr	x0, [x29,#56]
    7660:	39403400 	ldrb	w0, [x0,#13]
/home/optee/RPi3/optee_os/lib/libutils/ext/snprintk.c:222
    7664:	2a0003e5 	mov	w5, w0
/home/optee/RPi3/optee_os/lib/libutils/ext/snprintk.c:228
    7668:	f9401fa0 	ldr	x0, [x29,#56]
    766c:	39403800 	ldrb	w0, [x0,#14]
/home/optee/RPi3/optee_os/lib/libutils/ext/snprintk.c:222
    7670:	2a0003e6 	mov	w6, w0
/home/optee/RPi3/optee_os/lib/libutils/ext/snprintk.c:228
    7674:	f9401fa0 	ldr	x0, [x29,#56]
    7678:	39403c00 	ldrb	w0, [x0,#15]
/home/optee/RPi3/optee_os/lib/libutils/ext/snprintk.c:222
    767c:	2a0003e7 	mov	w7, w0
    7680:	d0000040 	adrp	x0, 11000 <__func__.3864+0x18>
    7684:	911f4000 	add	x0, x0, #0x7d0
    7688:	b9002be7 	str	w7, [sp,#40]
    768c:	b90023e6 	str	w6, [sp,#32]
    7690:	b9001be5 	str	w5, [sp,#24]
    7694:	b90013e4 	str	w4, [sp,#16]
    7698:	b9000be3 	str	w3, [sp,#8]
    769c:	b90003e2 	str	w2, [sp]
    76a0:	2a0b03e7 	mov	w7, w11
    76a4:	2a0a03e6 	mov	w6, w10
    76a8:	2a0903e5 	mov	w5, w9
    76ac:	2a0803e4 	mov	w4, w8
    76b0:	2a0103e3 	mov	w3, w1
    76b4:	aa0003e2 	mov	x2, x0
    76b8:	f94013a1 	ldr	x1, [x29,#32]
    76bc:	f94017a0 	ldr	x0, [x29,#40]
    76c0:	97ffff4b 	bl	73ec <snprintk>
/home/optee/RPi3/optee_os/lib/libutils/ext/snprintk.c:229
    76c4:	910003bf 	mov	sp, x29
    76c8:	a8c47bfd 	ldp	x29, x30, [sp],#64
    76cc:	d65f03c0 	ret

00000000000076d0 <kprintf>:
kprintf():
/home/optee/RPi3/optee_os/lib/libutils/ext/snprintk.c:237
    76d0:	a9b37bfd 	stp	x29, x30, [sp,#-208]!
    76d4:	910003fd 	mov	x29, sp
    76d8:	f9000bf3 	str	x19, [sp,#16]
    76dc:	f9001fa0 	str	x0, [x29,#56]
    76e0:	b90037a1 	str	w1, [x29,#52]
    76e4:	f90017a2 	str	x2, [x29,#40]
    76e8:	f90013a3 	str	x3, [x29,#32]
    76ec:	aa0403f3 	mov	x19, x4
    76f0:	3900cfa5 	strb	w5, [x29,#51]
/home/optee/RPi3/optee_os/lib/libutils/ext/snprintk.c:257
    76f4:	b94037a0 	ldr	w0, [x29,#52]
    76f8:	7100201f 	cmp	w0, #0x8
    76fc:	54000101 	b.ne	771c <kprintf+0x4c>
/home/optee/RPi3/optee_os/lib/libutils/ext/snprintk.c:257 (discriminator 1)
    7700:	f94017a0 	ldr	x0, [x29,#40]
    7704:	eb1f001f 	cmp	x0, xzr
    7708:	540000a0 	b.eq	771c <kprintf+0x4c>
/home/optee/RPi3/optee_os/lib/libutils/ext/snprintk.c:258
    770c:	f94017a0 	ldr	x0, [x29,#40]
    7710:	f9400000 	ldr	x0, [x0]
    7714:	f9003fa0 	str	x0, [x29,#120]
    7718:	14000002 	b	7720 <kprintf+0x50>
/home/optee/RPi3/optee_os/lib/libutils/ext/snprintk.c:260
    771c:	f9003fbf 	str	xzr, [x29,#120]
/home/optee/RPi3/optee_os/lib/libutils/ext/snprintk.c:262
    7720:	f9005fbf 	str	xzr, [x29,#184]
/home/optee/RPi3/optee_os/lib/libutils/ext/snprintk.c:263
    7724:	b9008bbf 	str	wzr, [x29,#136]
/home/optee/RPi3/optee_os/lib/libutils/ext/snprintk.c:265
    7728:	f9401fa0 	ldr	x0, [x29,#56]
    772c:	f90067a0 	str	x0, [x29,#200]
/home/optee/RPi3/optee_os/lib/libutils/ext/snprintk.c:266
    7730:	b900b3bf 	str	wzr, [x29,#176]
/home/optee/RPi3/optee_os/lib/libutils/ext/snprintk.c:268
    7734:	f90043bf 	str	xzr, [x29,#128]
/home/optee/RPi3/optee_os/lib/libutils/ext/snprintk.c:274 (discriminator 3)
    7738:	1400001a 	b	77a0 <kprintf+0xd0>
/home/optee/RPi3/optee_os/lib/libutils/ext/snprintk.c:275
    773c:	b940b3a0 	ldr	w0, [x29,#176]
    7740:	11000400 	add	w0, w0, #0x1
    7744:	b900b3a0 	str	w0, [x29,#176]
/home/optee/RPi3/optee_os/lib/libutils/ext/snprintk.c:276
    7748:	b94037a0 	ldr	w0, [x29,#52]
    774c:	7100201f 	cmp	w0, #0x8
    7750:	54000221 	b.ne	7794 <kprintf+0xc4>
/home/optee/RPi3/optee_os/lib/libutils/ext/snprintk.c:276 (discriminator 1)
    7754:	f94013a0 	ldr	x0, [x29,#32]
    7758:	eb1f001f 	cmp	x0, xzr
    775c:	540001c0 	b.eq	7794 <kprintf+0xc4>
/home/optee/RPi3/optee_os/lib/libutils/ext/snprintk.c:276 (discriminator 2)
    7760:	f94017a0 	ldr	x0, [x29,#40]
    7764:	eb1f001f 	cmp	x0, xzr
    7768:	540000a0 	b.eq	777c <kprintf+0xac>
/home/optee/RPi3/optee_os/lib/libutils/ext/snprintk.c:276 (discriminator 4)
    776c:	f94013a1 	ldr	x1, [x29,#32]
    7770:	f9403fa0 	ldr	x0, [x29,#120]
    7774:	eb00003f 	cmp	x1, x0
    7778:	540000e2 	b.cs	7794 <kprintf+0xc4>
/home/optee/RPi3/optee_os/lib/libutils/ext/snprintk.c:276 (discriminator 5)
    777c:	f94013a0 	ldr	x0, [x29,#32]
    7780:	91000401 	add	x1, x0, #0x1
    7784:	f90013a1 	str	x1, [x29,#32]
    7788:	f94067a1 	ldr	x1, [x29,#200]
    778c:	39400021 	ldrb	w1, [x1]
    7790:	39000001 	strb	w1, [x0]
/home/optee/RPi3/optee_os/lib/libutils/ext/snprintk.c:274
    7794:	f94067a0 	ldr	x0, [x29,#200]
    7798:	91000400 	add	x0, x0, #0x1
    779c:	f90067a0 	str	x0, [x29,#200]
/home/optee/RPi3/optee_os/lib/libutils/ext/snprintk.c:274 (discriminator 1)
    77a0:	f94067a0 	ldr	x0, [x29,#200]
    77a4:	39400000 	ldrb	w0, [x0]
    77a8:	7100941f 	cmp	w0, #0x25
    77ac:	540000a0 	b.eq	77c0 <kprintf+0xf0>
/home/optee/RPi3/optee_os/lib/libutils/ext/snprintk.c:274 (discriminator 2)
    77b0:	f94067a0 	ldr	x0, [x29,#200]
    77b4:	39400000 	ldrb	w0, [x0]
    77b8:	6b1f001f 	cmp	w0, wzr
    77bc:	54fffc01 	b.ne	773c <kprintf+0x6c>
/home/optee/RPi3/optee_os/lib/libutils/ext/snprintk.c:278
    77c0:	f94067a0 	ldr	x0, [x29,#200]
    77c4:	39400000 	ldrb	w0, [x0]
    77c8:	6b1f001f 	cmp	w0, wzr
    77cc:	5400eba0 	b.eq	9540 <kprintf+0x1e70>
/home/optee/RPi3/optee_os/lib/libutils/ext/snprintk.c:281
    77d0:	f94067a0 	ldr	x0, [x29,#200]
    77d4:	91000400 	add	x0, x0, #0x1
    77d8:	f90067a0 	str	x0, [x29,#200]
/home/optee/RPi3/optee_os/lib/libutils/ext/snprintk.c:283
    77dc:	b900b7bf 	str	wzr, [x29,#180]
/home/optee/RPi3/optee_os/lib/libutils/ext/snprintk.c:284
    77e0:	b90093bf 	str	wzr, [x29,#144]
/home/optee/RPi3/optee_os/lib/libutils/ext/snprintk.c:285
    77e4:	b900afbf 	str	wzr, [x29,#172]
/home/optee/RPi3/optee_os/lib/libutils/ext/snprintk.c:286
    77e8:	12800000 	mov	w0, #0xffffffff            	// #-1
    77ec:	b900aba0 	str	w0, [x29,#168]
/home/optee/RPi3/optee_os/lib/libutils/ext/snprintk.c:287
    77f0:	39029fbf 	strb	wzr, [x29,#167]
/home/optee/RPi3/optee_os/lib/libutils/ext/snprintk.c:289
    77f4:	f94067a0 	ldr	x0, [x29,#200]
    77f8:	91000401 	add	x1, x0, #0x1
    77fc:	f90067a1 	str	x1, [x29,#200]
    7800:	39400000 	ldrb	w0, [x0]
    7804:	b900c7a0 	str	w0, [x29,#196]
/home/optee/RPi3/optee_os/lib/libutils/ext/snprintk.c:290
    7808:	b940c7a0 	ldr	w0, [x29,#196]
    780c:	51008000 	sub	w0, w0, #0x20
    7810:	7101681f 	cmp	w0, #0x5a
    7814:	5400c908 	b.hi	9134 <kprintf+0x1a64>
    7818:	d0000041 	adrp	x1, 11000 <__func__.3864+0x18>
    781c:	91209021 	add	x1, x1, #0x824
    7820:	b8605820 	ldr	w0, [x1,w0,uxtw #2]
    7824:	10000061 	adr	x1, 7830 <kprintf+0x160>
    7828:	8b20c820 	add	x0, x1, w0, sxtw #2
    782c:	d61f0000 	br	x0
/home/optee/RPi3/optee_os/lib/libutils/ext/snprintk.c:297
    7830:	39429fa0 	ldrb	w0, [x29,#167]
    7834:	6b1f001f 	cmp	w0, wzr
    7838:	54fffde1 	b.ne	77f4 <kprintf+0x124>
/home/optee/RPi3/optee_os/lib/libutils/ext/snprintk.c:298
    783c:	52800400 	mov	w0, #0x20                  	// #32
    7840:	39029fa0 	strb	w0, [x29,#167]
/home/optee/RPi3/optee_os/lib/libutils/ext/snprintk.c:299
    7844:	17ffffec 	b	77f4 <kprintf+0x124>
/home/optee/RPi3/optee_os/lib/libutils/ext/snprintk.c:301
    7848:	b940b7a0 	ldr	w0, [x29,#180]
    784c:	32000000 	orr	w0, w0, #0x1
    7850:	b900b7a0 	str	w0, [x29,#180]
/home/optee/RPi3/optee_os/lib/libutils/ext/snprintk.c:302
    7854:	17ffffe8 	b	77f4 <kprintf+0x124>
/home/optee/RPi3/optee_os/lib/libutils/ext/snprintk.c:310
    7858:	b9401a60 	ldr	w0, [x19,#24]
    785c:	f9400261 	ldr	x1, [x19]
    7860:	6b1f001f 	cmp	w0, wzr
    7864:	540000eb 	b.lt	7880 <kprintf+0x1b0>
/home/optee/RPi3/optee_os/lib/libutils/ext/snprintk.c:310 (discriminator 1)
    7868:	aa0103e0 	mov	x0, x1
    786c:	91002c00 	add	x0, x0, #0xb
    7870:	927df000 	and	x0, x0, #0xfffffffffffffff8
    7874:	f9000260 	str	x0, [x19]
    7878:	aa0103e0 	mov	x0, x1
    787c:	1400000f 	b	78b8 <kprintf+0x1e8>
/home/optee/RPi3/optee_os/lib/libutils/ext/snprintk.c:310 (discriminator 2)
    7880:	11002002 	add	w2, w0, #0x8
    7884:	b9001a62 	str	w2, [x19,#24]
    7888:	b9401a62 	ldr	w2, [x19,#24]
    788c:	6b1f005f 	cmp	w2, wzr
    7890:	540000ed 	b.le	78ac <kprintf+0x1dc>
/home/optee/RPi3/optee_os/lib/libutils/ext/snprintk.c:310 (discriminator 4)
    7894:	aa0103e0 	mov	x0, x1
    7898:	91002c00 	add	x0, x0, #0xb
    789c:	927df000 	and	x0, x0, #0xfffffffffffffff8
    78a0:	f9000260 	str	x0, [x19]
    78a4:	aa0103e0 	mov	x0, x1
    78a8:	14000004 	b	78b8 <kprintf+0x1e8>
/home/optee/RPi3/optee_os/lib/libutils/ext/snprintk.c:310 (discriminator 5)
    78ac:	f9400661 	ldr	x1, [x19,#8]
    78b0:	93407c00 	sxtw	x0, w0
    78b4:	8b000020 	add	x0, x1, x0
/home/optee/RPi3/optee_os/lib/libutils/ext/snprintk.c:310 (discriminator 8)
    78b8:	b9400000 	ldr	w0, [x0]
    78bc:	b900afa0 	str	w0, [x29,#172]
    78c0:	b940afa0 	ldr	w0, [x29,#172]
    78c4:	6b1f001f 	cmp	w0, wzr
    78c8:	5400004b 	b.lt	78d0 <kprintf+0x200>
/home/optee/RPi3/optee_os/lib/libutils/ext/snprintk.c:311
    78cc:	17ffffca 	b	77f4 <kprintf+0x124>
/home/optee/RPi3/optee_os/lib/libutils/ext/snprintk.c:312
    78d0:	b940afa0 	ldr	w0, [x29,#172]
    78d4:	4b0003e0 	neg	w0, w0
    78d8:	b900afa0 	str	w0, [x29,#172]
/home/optee/RPi3/optee_os/lib/libutils/ext/snprintk.c:315
    78dc:	b940b7a0 	ldr	w0, [x29,#180]
    78e0:	321e0000 	orr	w0, w0, #0x4
    78e4:	b900b7a0 	str	w0, [x29,#180]
/home/optee/RPi3/optee_os/lib/libutils/ext/snprintk.c:316
    78e8:	17ffffc3 	b	77f4 <kprintf+0x124>
/home/optee/RPi3/optee_os/lib/libutils/ext/snprintk.c:318
    78ec:	52800560 	mov	w0, #0x2b                  	// #43
    78f0:	39029fa0 	strb	w0, [x29,#167]
/home/optee/RPi3/optee_os/lib/libutils/ext/snprintk.c:319
    78f4:	17ffffc0 	b	77f4 <kprintf+0x124>
/home/optee/RPi3/optee_os/lib/libutils/ext/snprintk.c:321
    78f8:	f94067a0 	ldr	x0, [x29,#200]
    78fc:	91000401 	add	x1, x0, #0x1
    7900:	f90067a1 	str	x1, [x29,#200]
    7904:	39400000 	ldrb	w0, [x0]
    7908:	b900c7a0 	str	w0, [x29,#196]
    790c:	b940c7a0 	ldr	w0, [x29,#196]
    7910:	7100a81f 	cmp	w0, #0x2a
    7914:	54000441 	b.ne	799c <kprintf+0x2cc>
/home/optee/RPi3/optee_os/lib/libutils/ext/snprintk.c:322
    7918:	b9401a60 	ldr	w0, [x19,#24]
    791c:	f9400261 	ldr	x1, [x19]
    7920:	6b1f001f 	cmp	w0, wzr
    7924:	540000eb 	b.lt	7940 <kprintf+0x270>
/home/optee/RPi3/optee_os/lib/libutils/ext/snprintk.c:322 (discriminator 1)
    7928:	aa0103e0 	mov	x0, x1
    792c:	91002c00 	add	x0, x0, #0xb
    7930:	927df000 	and	x0, x0, #0xfffffffffffffff8
    7934:	f9000260 	str	x0, [x19]
    7938:	aa0103e0 	mov	x0, x1
    793c:	1400000f 	b	7978 <kprintf+0x2a8>
/home/optee/RPi3/optee_os/lib/libutils/ext/snprintk.c:322 (discriminator 2)
    7940:	11002002 	add	w2, w0, #0x8
    7944:	b9001a62 	str	w2, [x19,#24]
    7948:	b9401a62 	ldr	w2, [x19,#24]
    794c:	6b1f005f 	cmp	w2, wzr
    7950:	540000ed 	b.le	796c <kprintf+0x29c>
/home/optee/RPi3/optee_os/lib/libutils/ext/snprintk.c:322 (discriminator 4)
    7954:	aa0103e0 	mov	x0, x1
    7958:	91002c00 	add	x0, x0, #0xb
    795c:	927df000 	and	x0, x0, #0xfffffffffffffff8
    7960:	f9000260 	str	x0, [x19]
    7964:	aa0103e0 	mov	x0, x1
    7968:	14000004 	b	7978 <kprintf+0x2a8>
/home/optee/RPi3/optee_os/lib/libutils/ext/snprintk.c:322 (discriminator 5)
    796c:	f9400661 	ldr	x1, [x19,#8]
    7970:	93407c00 	sxtw	x0, w0
    7974:	8b000020 	add	x0, x1, x0
/home/optee/RPi3/optee_os/lib/libutils/ext/snprintk.c:322 (discriminator 8)
    7978:	b9400000 	ldr	w0, [x0]
    797c:	b900c3a0 	str	w0, [x29,#192]
/home/optee/RPi3/optee_os/lib/libutils/ext/snprintk.c:323 (discriminator 8)
    7980:	b940c3a2 	ldr	w2, [x29,#192]
    7984:	b940c3a1 	ldr	w1, [x29,#192]
    7988:	12800000 	mov	w0, #0xffffffff            	// #-1
    798c:	6b1f005f 	cmp	w2, wzr
    7990:	1a80a020 	csel	w0, w1, w0, ge
    7994:	b900aba0 	str	w0, [x29,#168]
/home/optee/RPi3/optee_os/lib/libutils/ext/snprintk.c:324 (discriminator 8)
    7998:	17ffff97 	b	77f4 <kprintf+0x124>
/home/optee/RPi3/optee_os/lib/libutils/ext/snprintk.c:326
    799c:	b900c3bf 	str	wzr, [x29,#192]
/home/optee/RPi3/optee_os/lib/libutils/ext/snprintk.c:327
    79a0:	14000010 	b	79e0 <kprintf+0x310>
/home/optee/RPi3/optee_os/lib/libutils/ext/snprintk.c:328
    79a4:	b940c3a1 	ldr	w1, [x29,#192]
    79a8:	2a0103e0 	mov	w0, w1
    79ac:	531e7400 	lsl	w0, w0, #2
    79b0:	0b010000 	add	w0, w0, w1
    79b4:	531f7800 	lsl	w0, w0, #1
    79b8:	2a0003e1 	mov	w1, w0
    79bc:	b940c7a0 	ldr	w0, [x29,#196]
    79c0:	5100c000 	sub	w0, w0, #0x30
    79c4:	0b000020 	add	w0, w1, w0
    79c8:	b900c3a0 	str	w0, [x29,#192]
/home/optee/RPi3/optee_os/lib/libutils/ext/snprintk.c:329
    79cc:	f94067a0 	ldr	x0, [x29,#200]
    79d0:	91000401 	add	x1, x0, #0x1
    79d4:	f90067a1 	str	x1, [x29,#200]
    79d8:	39400000 	ldrb	w0, [x0]
    79dc:	b900c7a0 	str	w0, [x29,#196]
/home/optee/RPi3/optee_os/lib/libutils/ext/snprintk.c:327
    79e0:	b940c7a0 	ldr	w0, [x29,#196]
    79e4:	5100c000 	sub	w0, w0, #0x30
    79e8:	7100241f 	cmp	w0, #0x9
    79ec:	54fffdc9 	b.ls	79a4 <kprintf+0x2d4>
/home/optee/RPi3/optee_os/lib/libutils/ext/snprintk.c:331
    79f0:	b940c3a2 	ldr	w2, [x29,#192]
    79f4:	b940c3a1 	ldr	w1, [x29,#192]
    79f8:	12800000 	mov	w0, #0xffffffff            	// #-1
    79fc:	6b1f005f 	cmp	w2, wzr
    7a00:	1a80a020 	csel	w0, w1, w0, ge
    7a04:	b900aba0 	str	w0, [x29,#168]
/home/optee/RPi3/optee_os/lib/libutils/ext/snprintk.c:332
    7a08:	17ffff80 	b	7808 <kprintf+0x138>
/home/optee/RPi3/optee_os/lib/libutils/ext/snprintk.c:339
    7a0c:	b940b7a0 	ldr	w0, [x29,#180]
    7a10:	32160000 	orr	w0, w0, #0x400
    7a14:	b900b7a0 	str	w0, [x29,#180]
/home/optee/RPi3/optee_os/lib/libutils/ext/snprintk.c:340
    7a18:	17ffff77 	b	77f4 <kprintf+0x124>
/home/optee/RPi3/optee_os/lib/libutils/ext/snprintk.c:343
    7a1c:	b900c3bf 	str	wzr, [x29,#192]
/home/optee/RPi3/optee_os/lib/libutils/ext/snprintk.c:345 (discriminator 1)
    7a20:	b940c3a1 	ldr	w1, [x29,#192]
    7a24:	2a0103e0 	mov	w0, w1
    7a28:	531e7400 	lsl	w0, w0, #2
    7a2c:	0b010000 	add	w0, w0, w1
    7a30:	531f7800 	lsl	w0, w0, #1
    7a34:	2a0003e1 	mov	w1, w0
    7a38:	b940c7a0 	ldr	w0, [x29,#196]
    7a3c:	5100c000 	sub	w0, w0, #0x30
    7a40:	0b000020 	add	w0, w1, w0
    7a44:	b900c3a0 	str	w0, [x29,#192]
/home/optee/RPi3/optee_os/lib/libutils/ext/snprintk.c:346 (discriminator 1)
    7a48:	f94067a0 	ldr	x0, [x29,#200]
    7a4c:	91000401 	add	x1, x0, #0x1
    7a50:	f90067a1 	str	x1, [x29,#200]
    7a54:	39400000 	ldrb	w0, [x0]
    7a58:	b900c7a0 	str	w0, [x29,#196]
/home/optee/RPi3/optee_os/lib/libutils/ext/snprintk.c:347 (discriminator 1)
    7a5c:	b940c7a0 	ldr	w0, [x29,#196]
    7a60:	5100c000 	sub	w0, w0, #0x30
    7a64:	7100241f 	cmp	w0, #0x9
    7a68:	54fffdc9 	b.ls	7a20 <kprintf+0x350>
/home/optee/RPi3/optee_os/lib/libutils/ext/snprintk.c:348
    7a6c:	b940c3a0 	ldr	w0, [x29,#192]
    7a70:	b900afa0 	str	w0, [x29,#172]
/home/optee/RPi3/optee_os/lib/libutils/ext/snprintk.c:349
    7a74:	17ffff65 	b	7808 <kprintf+0x138>
/home/optee/RPi3/optee_os/lib/libutils/ext/snprintk.c:351
    7a78:	b940b7a0 	ldr	w0, [x29,#180]
    7a7c:	321a0000 	orr	w0, w0, #0x40
    7a80:	b900b7a0 	str	w0, [x29,#180]
/home/optee/RPi3/optee_os/lib/libutils/ext/snprintk.c:352
    7a84:	17ffff5c 	b	77f4 <kprintf+0x124>
/home/optee/RPi3/optee_os/lib/libutils/ext/snprintk.c:354
    7a88:	b940b7a0 	ldr	w0, [x29,#180]
    7a8c:	32190000 	orr	w0, w0, #0x80
    7a90:	b900b7a0 	str	w0, [x29,#180]
/home/optee/RPi3/optee_os/lib/libutils/ext/snprintk.c:355
    7a94:	17ffff58 	b	77f4 <kprintf+0x124>
/home/optee/RPi3/optee_os/lib/libutils/ext/snprintk.c:357
    7a98:	f94067a0 	ldr	x0, [x29,#200]
    7a9c:	39400000 	ldrb	w0, [x0]
    7aa0:	7101b01f 	cmp	w0, #0x6c
    7aa4:	54000101 	b.ne	7ac4 <kprintf+0x3f4>
/home/optee/RPi3/optee_os/lib/libutils/ext/snprintk.c:358
    7aa8:	f94067a0 	ldr	x0, [x29,#200]
    7aac:	91000400 	add	x0, x0, #0x1
    7ab0:	f90067a0 	str	x0, [x29,#200]
/home/optee/RPi3/optee_os/lib/libutils/ext/snprintk.c:359
    7ab4:	b940b7a0 	ldr	w0, [x29,#180]
    7ab8:	321b0000 	orr	w0, w0, #0x20
    7abc:	b900b7a0 	str	w0, [x29,#180]
    7ac0:	17ffff4d 	b	77f4 <kprintf+0x124>
/home/optee/RPi3/optee_os/lib/libutils/ext/snprintk.c:361
    7ac4:	b940b7a0 	ldr	w0, [x29,#180]
    7ac8:	321c0000 	orr	w0, w0, #0x10
    7acc:	b900b7a0 	str	w0, [x29,#180]
/home/optee/RPi3/optee_os/lib/libutils/ext/snprintk.c:363
    7ad0:	17ffff49 	b	77f4 <kprintf+0x124>
/home/optee/RPi3/optee_os/lib/libutils/ext/snprintk.c:365
    7ad4:	b940b7a0 	ldr	w0, [x29,#180]
    7ad8:	321b0000 	orr	w0, w0, #0x20
    7adc:	b900b7a0 	str	w0, [x29,#180]
/home/optee/RPi3/optee_os/lib/libutils/ext/snprintk.c:366
    7ae0:	17ffff45 	b	77f4 <kprintf+0x124>
/home/optee/RPi3/optee_os/lib/libutils/ext/snprintk.c:368
    7ae4:	b940b7a0 	ldr	w0, [x29,#180]
    7ae8:	32180000 	orr	w0, w0, #0x100
    7aec:	b900b7a0 	str	w0, [x29,#180]
/home/optee/RPi3/optee_os/lib/libutils/ext/snprintk.c:369
    7af0:	17ffff41 	b	77f4 <kprintf+0x124>
/home/optee/RPi3/optee_os/lib/libutils/ext/snprintk.c:371
    7af4:	b940b7a0 	ldr	w0, [x29,#180]
    7af8:	32170000 	orr	w0, w0, #0x200
    7afc:	b900b7a0 	str	w0, [x29,#180]
/home/optee/RPi3/optee_os/lib/libutils/ext/snprintk.c:372
    7b00:	17ffff3d 	b	77f4 <kprintf+0x124>
/home/optee/RPi3/optee_os/lib/libutils/ext/snprintk.c:374
    7b04:	910123a0 	add	x0, x29, #0x48
    7b08:	f9005fa0 	str	x0, [x29,#184]
    7b0c:	b9401a60 	ldr	w0, [x19,#24]
    7b10:	f9400261 	ldr	x1, [x19]
    7b14:	6b1f001f 	cmp	w0, wzr
    7b18:	540000eb 	b.lt	7b34 <kprintf+0x464>
/home/optee/RPi3/optee_os/lib/libutils/ext/snprintk.c:374 (discriminator 1)
    7b1c:	aa0103e0 	mov	x0, x1
    7b20:	91002c00 	add	x0, x0, #0xb
    7b24:	927df000 	and	x0, x0, #0xfffffffffffffff8
    7b28:	f9000260 	str	x0, [x19]
    7b2c:	aa0103e0 	mov	x0, x1
    7b30:	1400000f 	b	7b6c <kprintf+0x49c>
/home/optee/RPi3/optee_os/lib/libutils/ext/snprintk.c:374 (discriminator 2)
    7b34:	11002002 	add	w2, w0, #0x8
    7b38:	b9001a62 	str	w2, [x19,#24]
    7b3c:	b9401a62 	ldr	w2, [x19,#24]
    7b40:	6b1f005f 	cmp	w2, wzr
    7b44:	540000ed 	b.le	7b60 <kprintf+0x490>
/home/optee/RPi3/optee_os/lib/libutils/ext/snprintk.c:374 (discriminator 4)
    7b48:	aa0103e0 	mov	x0, x1
    7b4c:	91002c00 	add	x0, x0, #0xb
    7b50:	927df000 	and	x0, x0, #0xfffffffffffffff8
    7b54:	f9000260 	str	x0, [x19]
    7b58:	aa0103e0 	mov	x0, x1
    7b5c:	14000004 	b	7b6c <kprintf+0x49c>
/home/optee/RPi3/optee_os/lib/libutils/ext/snprintk.c:374 (discriminator 5)
    7b60:	f9400661 	ldr	x1, [x19,#8]
    7b64:	93407c00 	sxtw	x0, w0
    7b68:	8b000020 	add	x0, x1, x0
/home/optee/RPi3/optee_os/lib/libutils/ext/snprintk.c:374 (discriminator 8)
    7b6c:	b9400000 	ldr	w0, [x0]
    7b70:	53001c01 	uxtb	w1, w0
    7b74:	f9405fa0 	ldr	x0, [x29,#184]
    7b78:	39000001 	strb	w1, [x0]
/home/optee/RPi3/optee_os/lib/libutils/ext/snprintk.c:375 (discriminator 8)
    7b7c:	52800020 	mov	w0, #0x1                   	// #1
    7b80:	b9008ba0 	str	w0, [x29,#136]
/home/optee/RPi3/optee_os/lib/libutils/ext/snprintk.c:376 (discriminator 8)
    7b84:	39029fbf 	strb	wzr, [x29,#167]
/home/optee/RPi3/optee_os/lib/libutils/ext/snprintk.c:377 (discriminator 8)
    7b88:	14000578 	b	9168 <kprintf+0x1a98>
/home/optee/RPi3/optee_os/lib/libutils/ext/snprintk.c:379
    7b8c:	b940b7a0 	ldr	w0, [x29,#180]
    7b90:	321c0000 	orr	w0, w0, #0x10
    7b94:	b900b7a0 	str	w0, [x29,#180]
/home/optee/RPi3/optee_os/lib/libutils/ext/snprintk.c:383
    7b98:	b940b7a0 	ldr	w0, [x29,#180]
    7b9c:	12190000 	and	w0, w0, #0x80
    7ba0:	6b1f001f 	cmp	w0, wzr
    7ba4:	54000360 	b.eq	7c10 <kprintf+0x540>
/home/optee/RPi3/optee_os/lib/libutils/ext/snprintk.c:383 (discriminator 1)
    7ba8:	b9401a60 	ldr	w0, [x19,#24]
    7bac:	f9400261 	ldr	x1, [x19]
    7bb0:	6b1f001f 	cmp	w0, wzr
    7bb4:	540000eb 	b.lt	7bd0 <kprintf+0x500>
/home/optee/RPi3/optee_os/lib/libutils/ext/snprintk.c:383 (discriminator 3)
    7bb8:	aa0103e0 	mov	x0, x1
    7bbc:	91003c00 	add	x0, x0, #0xf
    7bc0:	927df000 	and	x0, x0, #0xfffffffffffffff8
    7bc4:	f9000260 	str	x0, [x19]
    7bc8:	aa0103e0 	mov	x0, x1
    7bcc:	1400000f 	b	7c08 <kprintf+0x538>
/home/optee/RPi3/optee_os/lib/libutils/ext/snprintk.c:383 (discriminator 4)
    7bd0:	11002002 	add	w2, w0, #0x8
    7bd4:	b9001a62 	str	w2, [x19,#24]
    7bd8:	b9401a62 	ldr	w2, [x19,#24]
    7bdc:	6b1f005f 	cmp	w2, wzr
    7be0:	540000ed 	b.le	7bfc <kprintf+0x52c>
/home/optee/RPi3/optee_os/lib/libutils/ext/snprintk.c:383 (discriminator 6)
    7be4:	aa0103e0 	mov	x0, x1
    7be8:	91003c00 	add	x0, x0, #0xf
    7bec:	927df000 	and	x0, x0, #0xfffffffffffffff8
    7bf0:	f9000260 	str	x0, [x19]
    7bf4:	aa0103e0 	mov	x0, x1
    7bf8:	14000004 	b	7c08 <kprintf+0x538>
/home/optee/RPi3/optee_os/lib/libutils/ext/snprintk.c:383 (discriminator 7)
    7bfc:	f9400661 	ldr	x1, [x19,#8]
    7c00:	93407c00 	sxtw	x0, w0
    7c04:	8b000020 	add	x0, x1, x0
/home/optee/RPi3/optee_os/lib/libutils/ext/snprintk.c:383 (discriminator 10)
    7c08:	f9400000 	ldr	x0, [x0]
    7c0c:	140000b3 	b	7ed8 <kprintf+0x808>
/home/optee/RPi3/optee_os/lib/libutils/ext/snprintk.c:383 (discriminator 2)
    7c10:	b940b7a0 	ldr	w0, [x29,#180]
    7c14:	12180000 	and	w0, w0, #0x100
    7c18:	6b1f001f 	cmp	w0, wzr
    7c1c:	54000360 	b.eq	7c88 <kprintf+0x5b8>
/home/optee/RPi3/optee_os/lib/libutils/ext/snprintk.c:383 (discriminator 12)
    7c20:	b9401a60 	ldr	w0, [x19,#24]
    7c24:	f9400261 	ldr	x1, [x19]
    7c28:	6b1f001f 	cmp	w0, wzr
    7c2c:	540000eb 	b.lt	7c48 <kprintf+0x578>
/home/optee/RPi3/optee_os/lib/libutils/ext/snprintk.c:383 (discriminator 14)
    7c30:	aa0103e0 	mov	x0, x1
    7c34:	91003c00 	add	x0, x0, #0xf
    7c38:	927df000 	and	x0, x0, #0xfffffffffffffff8
    7c3c:	f9000260 	str	x0, [x19]
    7c40:	aa0103e0 	mov	x0, x1
    7c44:	1400000f 	b	7c80 <kprintf+0x5b0>
/home/optee/RPi3/optee_os/lib/libutils/ext/snprintk.c:383 (discriminator 15)
    7c48:	11002002 	add	w2, w0, #0x8
    7c4c:	b9001a62 	str	w2, [x19,#24]
    7c50:	b9401a62 	ldr	w2, [x19,#24]
    7c54:	6b1f005f 	cmp	w2, wzr
    7c58:	540000ed 	b.le	7c74 <kprintf+0x5a4>
/home/optee/RPi3/optee_os/lib/libutils/ext/snprintk.c:383 (discriminator 17)
    7c5c:	aa0103e0 	mov	x0, x1
    7c60:	91003c00 	add	x0, x0, #0xf
    7c64:	927df000 	and	x0, x0, #0xfffffffffffffff8
    7c68:	f9000260 	str	x0, [x19]
    7c6c:	aa0103e0 	mov	x0, x1
    7c70:	14000004 	b	7c80 <kprintf+0x5b0>
/home/optee/RPi3/optee_os/lib/libutils/ext/snprintk.c:383 (discriminator 18)
    7c74:	f9400661 	ldr	x1, [x19,#8]
    7c78:	93407c00 	sxtw	x0, w0
    7c7c:	8b000020 	add	x0, x1, x0
/home/optee/RPi3/optee_os/lib/libutils/ext/snprintk.c:383 (discriminator 21)
    7c80:	f9400000 	ldr	x0, [x0]
    7c84:	14000095 	b	7ed8 <kprintf+0x808>
/home/optee/RPi3/optee_os/lib/libutils/ext/snprintk.c:383 (discriminator 13)
    7c88:	b940b7a0 	ldr	w0, [x29,#180]
    7c8c:	12170000 	and	w0, w0, #0x200
    7c90:	6b1f001f 	cmp	w0, wzr
    7c94:	54000360 	b.eq	7d00 <kprintf+0x630>
/home/optee/RPi3/optee_os/lib/libutils/ext/snprintk.c:383 (discriminator 23)
    7c98:	b9401a60 	ldr	w0, [x19,#24]
    7c9c:	f9400261 	ldr	x1, [x19]
    7ca0:	6b1f001f 	cmp	w0, wzr
    7ca4:	540000eb 	b.lt	7cc0 <kprintf+0x5f0>
/home/optee/RPi3/optee_os/lib/libutils/ext/snprintk.c:383 (discriminator 25)
    7ca8:	aa0103e0 	mov	x0, x1
    7cac:	91003c00 	add	x0, x0, #0xf
    7cb0:	927df000 	and	x0, x0, #0xfffffffffffffff8
    7cb4:	f9000260 	str	x0, [x19]
    7cb8:	aa0103e0 	mov	x0, x1
    7cbc:	1400000f 	b	7cf8 <kprintf+0x628>
/home/optee/RPi3/optee_os/lib/libutils/ext/snprintk.c:383 (discriminator 26)
    7cc0:	11002002 	add	w2, w0, #0x8
    7cc4:	b9001a62 	str	w2, [x19,#24]
    7cc8:	b9401a62 	ldr	w2, [x19,#24]
    7ccc:	6b1f005f 	cmp	w2, wzr
    7cd0:	540000ed 	b.le	7cec <kprintf+0x61c>
/home/optee/RPi3/optee_os/lib/libutils/ext/snprintk.c:383 (discriminator 28)
    7cd4:	aa0103e0 	mov	x0, x1
    7cd8:	91003c00 	add	x0, x0, #0xf
    7cdc:	927df000 	and	x0, x0, #0xfffffffffffffff8
    7ce0:	f9000260 	str	x0, [x19]
    7ce4:	aa0103e0 	mov	x0, x1
    7ce8:	14000004 	b	7cf8 <kprintf+0x628>
/home/optee/RPi3/optee_os/lib/libutils/ext/snprintk.c:383 (discriminator 29)
    7cec:	f9400661 	ldr	x1, [x19,#8]
    7cf0:	93407c00 	sxtw	x0, w0
    7cf4:	8b000020 	add	x0, x1, x0
/home/optee/RPi3/optee_os/lib/libutils/ext/snprintk.c:383 (discriminator 32)
    7cf8:	f9400000 	ldr	x0, [x0]
    7cfc:	14000077 	b	7ed8 <kprintf+0x808>
/home/optee/RPi3/optee_os/lib/libutils/ext/snprintk.c:383 (discriminator 24)
    7d00:	b940b7a0 	ldr	w0, [x29,#180]
    7d04:	121b0000 	and	w0, w0, #0x20
    7d08:	6b1f001f 	cmp	w0, wzr
    7d0c:	54000360 	b.eq	7d78 <kprintf+0x6a8>
/home/optee/RPi3/optee_os/lib/libutils/ext/snprintk.c:383 (discriminator 34)
    7d10:	b9401a60 	ldr	w0, [x19,#24]
    7d14:	f9400261 	ldr	x1, [x19]
    7d18:	6b1f001f 	cmp	w0, wzr
    7d1c:	540000eb 	b.lt	7d38 <kprintf+0x668>
/home/optee/RPi3/optee_os/lib/libutils/ext/snprintk.c:383 (discriminator 36)
    7d20:	aa0103e0 	mov	x0, x1
    7d24:	91003c00 	add	x0, x0, #0xf
    7d28:	927df000 	and	x0, x0, #0xfffffffffffffff8
    7d2c:	f9000260 	str	x0, [x19]
    7d30:	aa0103e0 	mov	x0, x1
    7d34:	1400000f 	b	7d70 <kprintf+0x6a0>
/home/optee/RPi3/optee_os/lib/libutils/ext/snprintk.c:383 (discriminator 37)
    7d38:	11002002 	add	w2, w0, #0x8
    7d3c:	b9001a62 	str	w2, [x19,#24]
    7d40:	b9401a62 	ldr	w2, [x19,#24]
    7d44:	6b1f005f 	cmp	w2, wzr
    7d48:	540000ed 	b.le	7d64 <kprintf+0x694>
/home/optee/RPi3/optee_os/lib/libutils/ext/snprintk.c:383 (discriminator 39)
    7d4c:	aa0103e0 	mov	x0, x1
    7d50:	91003c00 	add	x0, x0, #0xf
    7d54:	927df000 	and	x0, x0, #0xfffffffffffffff8
    7d58:	f9000260 	str	x0, [x19]
    7d5c:	aa0103e0 	mov	x0, x1
    7d60:	14000004 	b	7d70 <kprintf+0x6a0>
/home/optee/RPi3/optee_os/lib/libutils/ext/snprintk.c:383 (discriminator 40)
    7d64:	f9400661 	ldr	x1, [x19,#8]
    7d68:	93407c00 	sxtw	x0, w0
    7d6c:	8b000020 	add	x0, x1, x0
/home/optee/RPi3/optee_os/lib/libutils/ext/snprintk.c:383 (discriminator 43)
    7d70:	f9400000 	ldr	x0, [x0]
    7d74:	14000059 	b	7ed8 <kprintf+0x808>
/home/optee/RPi3/optee_os/lib/libutils/ext/snprintk.c:383 (discriminator 35)
    7d78:	b940b7a0 	ldr	w0, [x29,#180]
    7d7c:	121c0000 	and	w0, w0, #0x10
    7d80:	6b1f001f 	cmp	w0, wzr
    7d84:	54000360 	b.eq	7df0 <kprintf+0x720>
/home/optee/RPi3/optee_os/lib/libutils/ext/snprintk.c:383 (discriminator 45)
    7d88:	b9401a60 	ldr	w0, [x19,#24]
    7d8c:	f9400261 	ldr	x1, [x19]
    7d90:	6b1f001f 	cmp	w0, wzr
    7d94:	540000eb 	b.lt	7db0 <kprintf+0x6e0>
/home/optee/RPi3/optee_os/lib/libutils/ext/snprintk.c:383 (discriminator 47)
    7d98:	aa0103e0 	mov	x0, x1
    7d9c:	91003c00 	add	x0, x0, #0xf
    7da0:	927df000 	and	x0, x0, #0xfffffffffffffff8
    7da4:	f9000260 	str	x0, [x19]
    7da8:	aa0103e0 	mov	x0, x1
    7dac:	1400000f 	b	7de8 <kprintf+0x718>
/home/optee/RPi3/optee_os/lib/libutils/ext/snprintk.c:383 (discriminator 48)
    7db0:	11002002 	add	w2, w0, #0x8
    7db4:	b9001a62 	str	w2, [x19,#24]
    7db8:	b9401a62 	ldr	w2, [x19,#24]
    7dbc:	6b1f005f 	cmp	w2, wzr
    7dc0:	540000ed 	b.le	7ddc <kprintf+0x70c>
/home/optee/RPi3/optee_os/lib/libutils/ext/snprintk.c:383 (discriminator 50)
    7dc4:	aa0103e0 	mov	x0, x1
    7dc8:	91003c00 	add	x0, x0, #0xf
    7dcc:	927df000 	and	x0, x0, #0xfffffffffffffff8
    7dd0:	f9000260 	str	x0, [x19]
    7dd4:	aa0103e0 	mov	x0, x1
    7dd8:	14000004 	b	7de8 <kprintf+0x718>
/home/optee/RPi3/optee_os/lib/libutils/ext/snprintk.c:383 (discriminator 51)
    7ddc:	f9400661 	ldr	x1, [x19,#8]
    7de0:	93407c00 	sxtw	x0, w0
    7de4:	8b000020 	add	x0, x1, x0
/home/optee/RPi3/optee_os/lib/libutils/ext/snprintk.c:383 (discriminator 54)
    7de8:	f9400000 	ldr	x0, [x0]
    7dec:	1400003b 	b	7ed8 <kprintf+0x808>
/home/optee/RPi3/optee_os/lib/libutils/ext/snprintk.c:383 (discriminator 46)
    7df0:	b940b7a0 	ldr	w0, [x29,#180]
    7df4:	121a0000 	and	w0, w0, #0x40
    7df8:	6b1f001f 	cmp	w0, wzr
    7dfc:	540003a0 	b.eq	7e70 <kprintf+0x7a0>
/home/optee/RPi3/optee_os/lib/libutils/ext/snprintk.c:383 (discriminator 56)
    7e00:	b9401a60 	ldr	w0, [x19,#24]
    7e04:	f9400261 	ldr	x1, [x19]
    7e08:	6b1f001f 	cmp	w0, wzr
    7e0c:	540000eb 	b.lt	7e28 <kprintf+0x758>
/home/optee/RPi3/optee_os/lib/libutils/ext/snprintk.c:383 (discriminator 58)
    7e10:	aa0103e0 	mov	x0, x1
    7e14:	91002c00 	add	x0, x0, #0xb
    7e18:	927df000 	and	x0, x0, #0xfffffffffffffff8
    7e1c:	f9000260 	str	x0, [x19]
    7e20:	aa0103e0 	mov	x0, x1
    7e24:	1400000f 	b	7e60 <kprintf+0x790>
/home/optee/RPi3/optee_os/lib/libutils/ext/snprintk.c:383 (discriminator 59)
    7e28:	11002002 	add	w2, w0, #0x8
    7e2c:	b9001a62 	str	w2, [x19,#24]
    7e30:	b9401a62 	ldr	w2, [x19,#24]
    7e34:	6b1f005f 	cmp	w2, wzr
    7e38:	540000ed 	b.le	7e54 <kprintf+0x784>
/home/optee/RPi3/optee_os/lib/libutils/ext/snprintk.c:383 (discriminator 61)
    7e3c:	aa0103e0 	mov	x0, x1
    7e40:	91002c00 	add	x0, x0, #0xb
    7e44:	927df000 	and	x0, x0, #0xfffffffffffffff8
    7e48:	f9000260 	str	x0, [x19]
    7e4c:	aa0103e0 	mov	x0, x1
    7e50:	14000004 	b	7e60 <kprintf+0x790>
/home/optee/RPi3/optee_os/lib/libutils/ext/snprintk.c:383 (discriminator 62)
    7e54:	f9400661 	ldr	x1, [x19,#8]
    7e58:	93407c00 	sxtw	x0, w0
    7e5c:	8b000020 	add	x0, x1, x0
/home/optee/RPi3/optee_os/lib/libutils/ext/snprintk.c:383 (discriminator 65)
    7e60:	b9400000 	ldr	w0, [x0]
    7e64:	13003c00 	sxth	w0, w0
    7e68:	93403c00 	sxth	x0, w0
    7e6c:	1400001b 	b	7ed8 <kprintf+0x808>
/home/optee/RPi3/optee_os/lib/libutils/ext/snprintk.c:383 (discriminator 57)
    7e70:	b9401a60 	ldr	w0, [x19,#24]
    7e74:	f9400261 	ldr	x1, [x19]
    7e78:	6b1f001f 	cmp	w0, wzr
    7e7c:	540000eb 	b.lt	7e98 <kprintf+0x7c8>
/home/optee/RPi3/optee_os/lib/libutils/ext/snprintk.c:383 (discriminator 67)
    7e80:	aa0103e0 	mov	x0, x1
    7e84:	91002c00 	add	x0, x0, #0xb
    7e88:	927df000 	and	x0, x0, #0xfffffffffffffff8
    7e8c:	f9000260 	str	x0, [x19]
    7e90:	aa0103e0 	mov	x0, x1
    7e94:	1400000f 	b	7ed0 <kprintf+0x800>
/home/optee/RPi3/optee_os/lib/libutils/ext/snprintk.c:383 (discriminator 68)
    7e98:	11002002 	add	w2, w0, #0x8
    7e9c:	b9001a62 	str	w2, [x19,#24]
    7ea0:	b9401a62 	ldr	w2, [x19,#24]
    7ea4:	6b1f005f 	cmp	w2, wzr
    7ea8:	540000ed 	b.le	7ec4 <kprintf+0x7f4>
/home/optee/RPi3/optee_os/lib/libutils/ext/snprintk.c:383 (discriminator 70)
    7eac:	aa0103e0 	mov	x0, x1
    7eb0:	91002c00 	add	x0, x0, #0xb
    7eb4:	927df000 	and	x0, x0, #0xfffffffffffffff8
    7eb8:	f9000260 	str	x0, [x19]
    7ebc:	aa0103e0 	mov	x0, x1
    7ec0:	14000004 	b	7ed0 <kprintf+0x800>
/home/optee/RPi3/optee_os/lib/libutils/ext/snprintk.c:383 (discriminator 71)
    7ec4:	f9400661 	ldr	x1, [x19,#8]
    7ec8:	93407c00 	sxtw	x0, w0
    7ecc:	8b000020 	add	x0, x1, x0
/home/optee/RPi3/optee_os/lib/libutils/ext/snprintk.c:383 (discriminator 74)
    7ed0:	b9400000 	ldr	w0, [x0]
    7ed4:	93407c00 	sxtw	x0, w0
/home/optee/RPi3/optee_os/lib/libutils/ext/snprintk.c:383 (discriminator 80)
    7ed8:	f9004fa0 	str	x0, [x29,#152]
/home/optee/RPi3/optee_os/lib/libutils/ext/snprintk.c:384 (discriminator 80)
    7edc:	f9404fa0 	ldr	x0, [x29,#152]
    7ee0:	eb1f001f 	cmp	x0, xzr
    7ee4:	540000ca 	b.ge	7efc <kprintf+0x82c>
/home/optee/RPi3/optee_os/lib/libutils/ext/snprintk.c:385
    7ee8:	f9404fa0 	ldr	x0, [x29,#152]
    7eec:	cb0003e0 	neg	x0, x0
    7ef0:	f9004fa0 	str	x0, [x29,#152]
/home/optee/RPi3/optee_os/lib/libutils/ext/snprintk.c:386
    7ef4:	528005a0 	mov	w0, #0x2d                  	// #45
    7ef8:	39029fa0 	strb	w0, [x29,#167]
/home/optee/RPi3/optee_os/lib/libutils/ext/snprintk.c:388
    7efc:	52800020 	mov	w0, #0x1                   	// #1
    7f00:	b90097a0 	str	w0, [x29,#148]
/home/optee/RPi3/optee_os/lib/libutils/ext/snprintk.c:389
    7f04:	14000405 	b	8f18 <kprintf+0x1848>
/home/optee/RPi3/optee_os/lib/libutils/ext/snprintk.c:391
    7f08:	b940b7a0 	ldr	w0, [x29,#180]
    7f0c:	12190000 	and	w0, w0, #0x80
    7f10:	6b1f001f 	cmp	w0, wzr
    7f14:	540003a0 	b.eq	7f88 <kprintf+0x8b8>
/home/optee/RPi3/optee_os/lib/libutils/ext/snprintk.c:392
    7f18:	b9401a60 	ldr	w0, [x19,#24]
    7f1c:	f9400261 	ldr	x1, [x19]
    7f20:	6b1f001f 	cmp	w0, wzr
    7f24:	540000eb 	b.lt	7f40 <kprintf+0x870>
/home/optee/RPi3/optee_os/lib/libutils/ext/snprintk.c:392 (discriminator 1)
    7f28:	aa0103e0 	mov	x0, x1
    7f2c:	91003c00 	add	x0, x0, #0xf
    7f30:	927df000 	and	x0, x0, #0xfffffffffffffff8
    7f34:	f9000260 	str	x0, [x19]
    7f38:	aa0103e0 	mov	x0, x1
    7f3c:	1400000f 	b	7f78 <kprintf+0x8a8>
/home/optee/RPi3/optee_os/lib/libutils/ext/snprintk.c:392 (discriminator 2)
    7f40:	11002002 	add	w2, w0, #0x8
    7f44:	b9001a62 	str	w2, [x19,#24]
    7f48:	b9401a62 	ldr	w2, [x19,#24]
    7f4c:	6b1f005f 	cmp	w2, wzr
    7f50:	540000ed 	b.le	7f6c <kprintf+0x89c>
/home/optee/RPi3/optee_os/lib/libutils/ext/snprintk.c:392 (discriminator 4)
    7f54:	aa0103e0 	mov	x0, x1
    7f58:	91003c00 	add	x0, x0, #0xf
    7f5c:	927df000 	and	x0, x0, #0xfffffffffffffff8
    7f60:	f9000260 	str	x0, [x19]
    7f64:	aa0103e0 	mov	x0, x1
    7f68:	14000004 	b	7f78 <kprintf+0x8a8>
/home/optee/RPi3/optee_os/lib/libutils/ext/snprintk.c:392 (discriminator 5)
    7f6c:	f9400661 	ldr	x1, [x19,#8]
    7f70:	93407c00 	sxtw	x0, w0
    7f74:	8b000020 	add	x0, x1, x0
/home/optee/RPi3/optee_os/lib/libutils/ext/snprintk.c:392 (discriminator 8)
    7f78:	f9400000 	ldr	x0, [x0]
    7f7c:	b980b3a1 	ldrsw	x1, [x29,#176]
    7f80:	f9000001 	str	x1, [x0]
/home/optee/RPi3/optee_os/lib/libutils/ext/snprintk.c:405 (discriminator 8)
    7f84:	1400056e 	b	953c <kprintf+0x1e6c>
/home/optee/RPi3/optee_os/lib/libutils/ext/snprintk.c:393
    7f88:	b940b7a0 	ldr	w0, [x29,#180]
    7f8c:	12180000 	and	w0, w0, #0x100
    7f90:	6b1f001f 	cmp	w0, wzr
    7f94:	540003a0 	b.eq	8008 <kprintf+0x938>
/home/optee/RPi3/optee_os/lib/libutils/ext/snprintk.c:394
    7f98:	b9401a60 	ldr	w0, [x19,#24]
    7f9c:	f9400261 	ldr	x1, [x19]
    7fa0:	6b1f001f 	cmp	w0, wzr
    7fa4:	540000eb 	b.lt	7fc0 <kprintf+0x8f0>
/home/optee/RPi3/optee_os/lib/libutils/ext/snprintk.c:394 (discriminator 1)
    7fa8:	aa0103e0 	mov	x0, x1
    7fac:	91003c00 	add	x0, x0, #0xf
    7fb0:	927df000 	and	x0, x0, #0xfffffffffffffff8
    7fb4:	f9000260 	str	x0, [x19]
    7fb8:	aa0103e0 	mov	x0, x1
    7fbc:	1400000f 	b	7ff8 <kprintf+0x928>
/home/optee/RPi3/optee_os/lib/libutils/ext/snprintk.c:394 (discriminator 2)
    7fc0:	11002002 	add	w2, w0, #0x8
    7fc4:	b9001a62 	str	w2, [x19,#24]
    7fc8:	b9401a62 	ldr	w2, [x19,#24]
    7fcc:	6b1f005f 	cmp	w2, wzr
    7fd0:	540000ed 	b.le	7fec <kprintf+0x91c>
/home/optee/RPi3/optee_os/lib/libutils/ext/snprintk.c:394 (discriminator 4)
    7fd4:	aa0103e0 	mov	x0, x1
    7fd8:	91003c00 	add	x0, x0, #0xf
    7fdc:	927df000 	and	x0, x0, #0xfffffffffffffff8
    7fe0:	f9000260 	str	x0, [x19]
    7fe4:	aa0103e0 	mov	x0, x1
    7fe8:	14000004 	b	7ff8 <kprintf+0x928>
/home/optee/RPi3/optee_os/lib/libutils/ext/snprintk.c:394 (discriminator 5)
    7fec:	f9400661 	ldr	x1, [x19,#8]
    7ff0:	93407c00 	sxtw	x0, w0
    7ff4:	8b000020 	add	x0, x1, x0
/home/optee/RPi3/optee_os/lib/libutils/ext/snprintk.c:394 (discriminator 8)
    7ff8:	f9400000 	ldr	x0, [x0]
    7ffc:	b980b3a1 	ldrsw	x1, [x29,#176]
    8000:	f9000001 	str	x1, [x0]
/home/optee/RPi3/optee_os/lib/libutils/ext/snprintk.c:405 (discriminator 8)
    8004:	1400054e 	b	953c <kprintf+0x1e6c>
/home/optee/RPi3/optee_os/lib/libutils/ext/snprintk.c:395
    8008:	b940b7a0 	ldr	w0, [x29,#180]
    800c:	12170000 	and	w0, w0, #0x200
    8010:	6b1f001f 	cmp	w0, wzr
    8014:	540003a0 	b.eq	8088 <kprintf+0x9b8>
/home/optee/RPi3/optee_os/lib/libutils/ext/snprintk.c:396
    8018:	b9401a60 	ldr	w0, [x19,#24]
    801c:	f9400261 	ldr	x1, [x19]
    8020:	6b1f001f 	cmp	w0, wzr
    8024:	540000eb 	b.lt	8040 <kprintf+0x970>
/home/optee/RPi3/optee_os/lib/libutils/ext/snprintk.c:396 (discriminator 1)
    8028:	aa0103e0 	mov	x0, x1
    802c:	91003c00 	add	x0, x0, #0xf
    8030:	927df000 	and	x0, x0, #0xfffffffffffffff8
    8034:	f9000260 	str	x0, [x19]
    8038:	aa0103e0 	mov	x0, x1
    803c:	1400000f 	b	8078 <kprintf+0x9a8>
/home/optee/RPi3/optee_os/lib/libutils/ext/snprintk.c:396 (discriminator 2)
    8040:	11002002 	add	w2, w0, #0x8
    8044:	b9001a62 	str	w2, [x19,#24]
    8048:	b9401a62 	ldr	w2, [x19,#24]
    804c:	6b1f005f 	cmp	w2, wzr
    8050:	540000ed 	b.le	806c <kprintf+0x99c>
/home/optee/RPi3/optee_os/lib/libutils/ext/snprintk.c:396 (discriminator 4)
    8054:	aa0103e0 	mov	x0, x1
    8058:	91003c00 	add	x0, x0, #0xf
    805c:	927df000 	and	x0, x0, #0xfffffffffffffff8
    8060:	f9000260 	str	x0, [x19]
    8064:	aa0103e0 	mov	x0, x1
    8068:	14000004 	b	8078 <kprintf+0x9a8>
/home/optee/RPi3/optee_os/lib/libutils/ext/snprintk.c:396 (discriminator 5)
    806c:	f9400661 	ldr	x1, [x19,#8]
    8070:	93407c00 	sxtw	x0, w0
    8074:	8b000020 	add	x0, x1, x0
/home/optee/RPi3/optee_os/lib/libutils/ext/snprintk.c:396 (discriminator 8)
    8078:	f9400000 	ldr	x0, [x0]
    807c:	b980b3a1 	ldrsw	x1, [x29,#176]
    8080:	f9000001 	str	x1, [x0]
/home/optee/RPi3/optee_os/lib/libutils/ext/snprintk.c:405 (discriminator 8)
    8084:	1400052e 	b	953c <kprintf+0x1e6c>
/home/optee/RPi3/optee_os/lib/libutils/ext/snprintk.c:397
    8088:	b940b7a0 	ldr	w0, [x29,#180]
    808c:	121b0000 	and	w0, w0, #0x20
    8090:	6b1f001f 	cmp	w0, wzr
    8094:	540003a0 	b.eq	8108 <kprintf+0xa38>
/home/optee/RPi3/optee_os/lib/libutils/ext/snprintk.c:398
    8098:	b9401a60 	ldr	w0, [x19,#24]
    809c:	f9400261 	ldr	x1, [x19]
    80a0:	6b1f001f 	cmp	w0, wzr
    80a4:	540000eb 	b.lt	80c0 <kprintf+0x9f0>
/home/optee/RPi3/optee_os/lib/libutils/ext/snprintk.c:398 (discriminator 1)
    80a8:	aa0103e0 	mov	x0, x1
    80ac:	91003c00 	add	x0, x0, #0xf
    80b0:	927df000 	and	x0, x0, #0xfffffffffffffff8
    80b4:	f9000260 	str	x0, [x19]
    80b8:	aa0103e0 	mov	x0, x1
    80bc:	1400000f 	b	80f8 <kprintf+0xa28>
/home/optee/RPi3/optee_os/lib/libutils/ext/snprintk.c:398 (discriminator 2)
    80c0:	11002002 	add	w2, w0, #0x8
    80c4:	b9001a62 	str	w2, [x19,#24]
    80c8:	b9401a62 	ldr	w2, [x19,#24]
    80cc:	6b1f005f 	cmp	w2, wzr
    80d0:	540000ed 	b.le	80ec <kprintf+0xa1c>
/home/optee/RPi3/optee_os/lib/libutils/ext/snprintk.c:398 (discriminator 4)
    80d4:	aa0103e0 	mov	x0, x1
    80d8:	91003c00 	add	x0, x0, #0xf
    80dc:	927df000 	and	x0, x0, #0xfffffffffffffff8
    80e0:	f9000260 	str	x0, [x19]
    80e4:	aa0103e0 	mov	x0, x1
    80e8:	14000004 	b	80f8 <kprintf+0xa28>
/home/optee/RPi3/optee_os/lib/libutils/ext/snprintk.c:398 (discriminator 5)
    80ec:	f9400661 	ldr	x1, [x19,#8]
    80f0:	93407c00 	sxtw	x0, w0
    80f4:	8b000020 	add	x0, x1, x0
/home/optee/RPi3/optee_os/lib/libutils/ext/snprintk.c:398 (discriminator 8)
    80f8:	f9400000 	ldr	x0, [x0]
    80fc:	b980b3a1 	ldrsw	x1, [x29,#176]
    8100:	f9000001 	str	x1, [x0]
/home/optee/RPi3/optee_os/lib/libutils/ext/snprintk.c:405 (discriminator 8)
    8104:	1400050e 	b	953c <kprintf+0x1e6c>
/home/optee/RPi3/optee_os/lib/libutils/ext/snprintk.c:399
    8108:	b940b7a0 	ldr	w0, [x29,#180]
    810c:	121c0000 	and	w0, w0, #0x10
    8110:	6b1f001f 	cmp	w0, wzr
    8114:	540003a0 	b.eq	8188 <kprintf+0xab8>
/home/optee/RPi3/optee_os/lib/libutils/ext/snprintk.c:400
    8118:	b9401a60 	ldr	w0, [x19,#24]
    811c:	f9400261 	ldr	x1, [x19]
    8120:	6b1f001f 	cmp	w0, wzr
    8124:	540000eb 	b.lt	8140 <kprintf+0xa70>
/home/optee/RPi3/optee_os/lib/libutils/ext/snprintk.c:400 (discriminator 1)
    8128:	aa0103e0 	mov	x0, x1
    812c:	91003c00 	add	x0, x0, #0xf
    8130:	927df000 	and	x0, x0, #0xfffffffffffffff8
    8134:	f9000260 	str	x0, [x19]
    8138:	aa0103e0 	mov	x0, x1
    813c:	1400000f 	b	8178 <kprintf+0xaa8>
/home/optee/RPi3/optee_os/lib/libutils/ext/snprintk.c:400 (discriminator 2)
    8140:	11002002 	add	w2, w0, #0x8
    8144:	b9001a62 	str	w2, [x19,#24]
    8148:	b9401a62 	ldr	w2, [x19,#24]
    814c:	6b1f005f 	cmp	w2, wzr
    8150:	540000ed 	b.le	816c <kprintf+0xa9c>
/home/optee/RPi3/optee_os/lib/libutils/ext/snprintk.c:400 (discriminator 4)
    8154:	aa0103e0 	mov	x0, x1
    8158:	91003c00 	add	x0, x0, #0xf
    815c:	927df000 	and	x0, x0, #0xfffffffffffffff8
    8160:	f9000260 	str	x0, [x19]
    8164:	aa0103e0 	mov	x0, x1
    8168:	14000004 	b	8178 <kprintf+0xaa8>
/home/optee/RPi3/optee_os/lib/libutils/ext/snprintk.c:400 (discriminator 5)
    816c:	f9400661 	ldr	x1, [x19,#8]
    8170:	93407c00 	sxtw	x0, w0
    8174:	8b000020 	add	x0, x1, x0
/home/optee/RPi3/optee_os/lib/libutils/ext/snprintk.c:400 (discriminator 8)
    8178:	f9400000 	ldr	x0, [x0]
    817c:	b980b3a1 	ldrsw	x1, [x29,#176]
    8180:	f9000001 	str	x1, [x0]
/home/optee/RPi3/optee_os/lib/libutils/ext/snprintk.c:405 (discriminator 8)
    8184:	140004ee 	b	953c <kprintf+0x1e6c>
/home/optee/RPi3/optee_os/lib/libutils/ext/snprintk.c:401
    8188:	b940b7a0 	ldr	w0, [x29,#180]
    818c:	121a0000 	and	w0, w0, #0x40
    8190:	6b1f001f 	cmp	w0, wzr
    8194:	540003c0 	b.eq	820c <kprintf+0xb3c>
/home/optee/RPi3/optee_os/lib/libutils/ext/snprintk.c:402
    8198:	b9401a60 	ldr	w0, [x19,#24]
    819c:	f9400261 	ldr	x1, [x19]
    81a0:	6b1f001f 	cmp	w0, wzr
    81a4:	540000eb 	b.lt	81c0 <kprintf+0xaf0>
/home/optee/RPi3/optee_os/lib/libutils/ext/snprintk.c:402 (discriminator 1)
    81a8:	aa0103e0 	mov	x0, x1
    81ac:	91003c00 	add	x0, x0, #0xf
    81b0:	927df000 	and	x0, x0, #0xfffffffffffffff8
    81b4:	f9000260 	str	x0, [x19]
    81b8:	aa0103e0 	mov	x0, x1
    81bc:	1400000f 	b	81f8 <kprintf+0xb28>
/home/optee/RPi3/optee_os/lib/libutils/ext/snprintk.c:402 (discriminator 2)
    81c0:	11002002 	add	w2, w0, #0x8
    81c4:	b9001a62 	str	w2, [x19,#24]
    81c8:	b9401a62 	ldr	w2, [x19,#24]
    81cc:	6b1f005f 	cmp	w2, wzr
    81d0:	540000ed 	b.le	81ec <kprintf+0xb1c>
/home/optee/RPi3/optee_os/lib/libutils/ext/snprintk.c:402 (discriminator 4)
    81d4:	aa0103e0 	mov	x0, x1
    81d8:	91003c00 	add	x0, x0, #0xf
    81dc:	927df000 	and	x0, x0, #0xfffffffffffffff8
    81e0:	f9000260 	str	x0, [x19]
    81e4:	aa0103e0 	mov	x0, x1
    81e8:	14000004 	b	81f8 <kprintf+0xb28>
/home/optee/RPi3/optee_os/lib/libutils/ext/snprintk.c:402 (discriminator 5)
    81ec:	f9400661 	ldr	x1, [x19,#8]
    81f0:	93407c00 	sxtw	x0, w0
    81f4:	8b000020 	add	x0, x1, x0
/home/optee/RPi3/optee_os/lib/libutils/ext/snprintk.c:402 (discriminator 8)
    81f8:	f9400000 	ldr	x0, [x0]
    81fc:	b940b3a1 	ldr	w1, [x29,#176]
    8200:	13003c21 	sxth	w1, w1
    8204:	79000001 	strh	w1, [x0]
/home/optee/RPi3/optee_os/lib/libutils/ext/snprintk.c:405 (discriminator 8)
    8208:	140004cd 	b	953c <kprintf+0x1e6c>
/home/optee/RPi3/optee_os/lib/libutils/ext/snprintk.c:404
    820c:	b9401a60 	ldr	w0, [x19,#24]
    8210:	f9400261 	ldr	x1, [x19]
    8214:	6b1f001f 	cmp	w0, wzr
    8218:	540000eb 	b.lt	8234 <kprintf+0xb64>
/home/optee/RPi3/optee_os/lib/libutils/ext/snprintk.c:404 (discriminator 1)
    821c:	aa0103e0 	mov	x0, x1
    8220:	91003c00 	add	x0, x0, #0xf
    8224:	927df000 	and	x0, x0, #0xfffffffffffffff8
    8228:	f9000260 	str	x0, [x19]
    822c:	aa0103e0 	mov	x0, x1
    8230:	1400000f 	b	826c <kprintf+0xb9c>
/home/optee/RPi3/optee_os/lib/libutils/ext/snprintk.c:404 (discriminator 2)
    8234:	11002002 	add	w2, w0, #0x8
    8238:	b9001a62 	str	w2, [x19,#24]
    823c:	b9401a62 	ldr	w2, [x19,#24]
    8240:	6b1f005f 	cmp	w2, wzr
    8244:	540000ed 	b.le	8260 <kprintf+0xb90>
/home/optee/RPi3/optee_os/lib/libutils/ext/snprintk.c:404 (discriminator 4)
    8248:	aa0103e0 	mov	x0, x1
    824c:	91003c00 	add	x0, x0, #0xf
    8250:	927df000 	and	x0, x0, #0xfffffffffffffff8
    8254:	f9000260 	str	x0, [x19]
    8258:	aa0103e0 	mov	x0, x1
    825c:	14000004 	b	826c <kprintf+0xb9c>
/home/optee/RPi3/optee_os/lib/libutils/ext/snprintk.c:404 (discriminator 5)
    8260:	f9400661 	ldr	x1, [x19,#8]
    8264:	93407c00 	sxtw	x0, w0
    8268:	8b000020 	add	x0, x1, x0
/home/optee/RPi3/optee_os/lib/libutils/ext/snprintk.c:404 (discriminator 8)
    826c:	f9400000 	ldr	x0, [x0]
    8270:	b940b3a1 	ldr	w1, [x29,#176]
    8274:	b9000001 	str	w1, [x0]
/home/optee/RPi3/optee_os/lib/libutils/ext/snprintk.c:405 (discriminator 8)
    8278:	140004b1 	b	953c <kprintf+0x1e6c>
/home/optee/RPi3/optee_os/lib/libutils/ext/snprintk.c:407
    827c:	b940b7a0 	ldr	w0, [x29,#180]
    8280:	321c0000 	orr	w0, w0, #0x10
    8284:	b900b7a0 	str	w0, [x29,#180]
/home/optee/RPi3/optee_os/lib/libutils/ext/snprintk.c:410
    8288:	b940b7a0 	ldr	w0, [x29,#180]
    828c:	12190000 	and	w0, w0, #0x80
    8290:	6b1f001f 	cmp	w0, wzr
    8294:	54000360 	b.eq	8300 <kprintf+0xc30>
/home/optee/RPi3/optee_os/lib/libutils/ext/snprintk.c:410 (discriminator 1)
    8298:	b9401a60 	ldr	w0, [x19,#24]
    829c:	f9400261 	ldr	x1, [x19]
    82a0:	6b1f001f 	cmp	w0, wzr
    82a4:	540000eb 	b.lt	82c0 <kprintf+0xbf0>
/home/optee/RPi3/optee_os/lib/libutils/ext/snprintk.c:410 (discriminator 3)
    82a8:	aa0103e0 	mov	x0, x1
    82ac:	91003c00 	add	x0, x0, #0xf
    82b0:	927df000 	and	x0, x0, #0xfffffffffffffff8
    82b4:	f9000260 	str	x0, [x19]
    82b8:	aa0103e0 	mov	x0, x1
    82bc:	1400000f 	b	82f8 <kprintf+0xc28>
/home/optee/RPi3/optee_os/lib/libutils/ext/snprintk.c:410 (discriminator 4)
    82c0:	11002002 	add	w2, w0, #0x8
    82c4:	b9001a62 	str	w2, [x19,#24]
    82c8:	b9401a62 	ldr	w2, [x19,#24]
    82cc:	6b1f005f 	cmp	w2, wzr
    82d0:	540000ed 	b.le	82ec <kprintf+0xc1c>
/home/optee/RPi3/optee_os/lib/libutils/ext/snprintk.c:410 (discriminator 6)
    82d4:	aa0103e0 	mov	x0, x1
    82d8:	91003c00 	add	x0, x0, #0xf
    82dc:	927df000 	and	x0, x0, #0xfffffffffffffff8
    82e0:	f9000260 	str	x0, [x19]
    82e4:	aa0103e0 	mov	x0, x1
    82e8:	14000004 	b	82f8 <kprintf+0xc28>
/home/optee/RPi3/optee_os/lib/libutils/ext/snprintk.c:410 (discriminator 7)
    82ec:	f9400661 	ldr	x1, [x19,#8]
    82f0:	93407c00 	sxtw	x0, w0
    82f4:	8b000020 	add	x0, x1, x0
/home/optee/RPi3/optee_os/lib/libutils/ext/snprintk.c:410 (discriminator 10)
    82f8:	f9400000 	ldr	x0, [x0]
    82fc:	140000b3 	b	85c8 <kprintf+0xef8>
/home/optee/RPi3/optee_os/lib/libutils/ext/snprintk.c:410 (discriminator 2)
    8300:	b940b7a0 	ldr	w0, [x29,#180]
    8304:	12180000 	and	w0, w0, #0x100
    8308:	6b1f001f 	cmp	w0, wzr
    830c:	54000360 	b.eq	8378 <kprintf+0xca8>
/home/optee/RPi3/optee_os/lib/libutils/ext/snprintk.c:410 (discriminator 12)
    8310:	b9401a60 	ldr	w0, [x19,#24]
    8314:	f9400261 	ldr	x1, [x19]
    8318:	6b1f001f 	cmp	w0, wzr
    831c:	540000eb 	b.lt	8338 <kprintf+0xc68>
/home/optee/RPi3/optee_os/lib/libutils/ext/snprintk.c:410 (discriminator 14)
    8320:	aa0103e0 	mov	x0, x1
    8324:	91003c00 	add	x0, x0, #0xf
    8328:	927df000 	and	x0, x0, #0xfffffffffffffff8
    832c:	f9000260 	str	x0, [x19]
    8330:	aa0103e0 	mov	x0, x1
    8334:	1400000f 	b	8370 <kprintf+0xca0>
/home/optee/RPi3/optee_os/lib/libutils/ext/snprintk.c:410 (discriminator 15)
    8338:	11002002 	add	w2, w0, #0x8
    833c:	b9001a62 	str	w2, [x19,#24]
    8340:	b9401a62 	ldr	w2, [x19,#24]
    8344:	6b1f005f 	cmp	w2, wzr
    8348:	540000ed 	b.le	8364 <kprintf+0xc94>
/home/optee/RPi3/optee_os/lib/libutils/ext/snprintk.c:410 (discriminator 17)
    834c:	aa0103e0 	mov	x0, x1
    8350:	91003c00 	add	x0, x0, #0xf
    8354:	927df000 	and	x0, x0, #0xfffffffffffffff8
    8358:	f9000260 	str	x0, [x19]
    835c:	aa0103e0 	mov	x0, x1
    8360:	14000004 	b	8370 <kprintf+0xca0>
/home/optee/RPi3/optee_os/lib/libutils/ext/snprintk.c:410 (discriminator 18)
    8364:	f9400661 	ldr	x1, [x19,#8]
    8368:	93407c00 	sxtw	x0, w0
    836c:	8b000020 	add	x0, x1, x0
/home/optee/RPi3/optee_os/lib/libutils/ext/snprintk.c:410 (discriminator 21)
    8370:	f9400000 	ldr	x0, [x0]
    8374:	14000095 	b	85c8 <kprintf+0xef8>
/home/optee/RPi3/optee_os/lib/libutils/ext/snprintk.c:410 (discriminator 13)
    8378:	b940b7a0 	ldr	w0, [x29,#180]
    837c:	12170000 	and	w0, w0, #0x200
    8380:	6b1f001f 	cmp	w0, wzr
    8384:	54000360 	b.eq	83f0 <kprintf+0xd20>
/home/optee/RPi3/optee_os/lib/libutils/ext/snprintk.c:410 (discriminator 23)
    8388:	b9401a60 	ldr	w0, [x19,#24]
    838c:	f9400261 	ldr	x1, [x19]
    8390:	6b1f001f 	cmp	w0, wzr
    8394:	540000eb 	b.lt	83b0 <kprintf+0xce0>
/home/optee/RPi3/optee_os/lib/libutils/ext/snprintk.c:410 (discriminator 25)
    8398:	aa0103e0 	mov	x0, x1
    839c:	91003c00 	add	x0, x0, #0xf
    83a0:	927df000 	and	x0, x0, #0xfffffffffffffff8
    83a4:	f9000260 	str	x0, [x19]
    83a8:	aa0103e0 	mov	x0, x1
    83ac:	1400000f 	b	83e8 <kprintf+0xd18>
/home/optee/RPi3/optee_os/lib/libutils/ext/snprintk.c:410 (discriminator 26)
    83b0:	11002002 	add	w2, w0, #0x8
    83b4:	b9001a62 	str	w2, [x19,#24]
    83b8:	b9401a62 	ldr	w2, [x19,#24]
    83bc:	6b1f005f 	cmp	w2, wzr
    83c0:	540000ed 	b.le	83dc <kprintf+0xd0c>
/home/optee/RPi3/optee_os/lib/libutils/ext/snprintk.c:410 (discriminator 28)
    83c4:	aa0103e0 	mov	x0, x1
    83c8:	91003c00 	add	x0, x0, #0xf
    83cc:	927df000 	and	x0, x0, #0xfffffffffffffff8
    83d0:	f9000260 	str	x0, [x19]
    83d4:	aa0103e0 	mov	x0, x1
    83d8:	14000004 	b	83e8 <kprintf+0xd18>
/home/optee/RPi3/optee_os/lib/libutils/ext/snprintk.c:410 (discriminator 29)
    83dc:	f9400661 	ldr	x1, [x19,#8]
    83e0:	93407c00 	sxtw	x0, w0
    83e4:	8b000020 	add	x0, x1, x0
/home/optee/RPi3/optee_os/lib/libutils/ext/snprintk.c:410 (discriminator 32)
    83e8:	f9400000 	ldr	x0, [x0]
    83ec:	14000077 	b	85c8 <kprintf+0xef8>
/home/optee/RPi3/optee_os/lib/libutils/ext/snprintk.c:410 (discriminator 24)
    83f0:	b940b7a0 	ldr	w0, [x29,#180]
    83f4:	121b0000 	and	w0, w0, #0x20
    83f8:	6b1f001f 	cmp	w0, wzr
    83fc:	54000360 	b.eq	8468 <kprintf+0xd98>
/home/optee/RPi3/optee_os/lib/libutils/ext/snprintk.c:410 (discriminator 34)
    8400:	b9401a60 	ldr	w0, [x19,#24]
    8404:	f9400261 	ldr	x1, [x19]
    8408:	6b1f001f 	cmp	w0, wzr
    840c:	540000eb 	b.lt	8428 <kprintf+0xd58>
/home/optee/RPi3/optee_os/lib/libutils/ext/snprintk.c:410 (discriminator 36)
    8410:	aa0103e0 	mov	x0, x1
    8414:	91003c00 	add	x0, x0, #0xf
    8418:	927df000 	and	x0, x0, #0xfffffffffffffff8
    841c:	f9000260 	str	x0, [x19]
    8420:	aa0103e0 	mov	x0, x1
    8424:	1400000f 	b	8460 <kprintf+0xd90>
/home/optee/RPi3/optee_os/lib/libutils/ext/snprintk.c:410 (discriminator 37)
    8428:	11002002 	add	w2, w0, #0x8
    842c:	b9001a62 	str	w2, [x19,#24]
    8430:	b9401a62 	ldr	w2, [x19,#24]
    8434:	6b1f005f 	cmp	w2, wzr
    8438:	540000ed 	b.le	8454 <kprintf+0xd84>
/home/optee/RPi3/optee_os/lib/libutils/ext/snprintk.c:410 (discriminator 39)
    843c:	aa0103e0 	mov	x0, x1
    8440:	91003c00 	add	x0, x0, #0xf
    8444:	927df000 	and	x0, x0, #0xfffffffffffffff8
    8448:	f9000260 	str	x0, [x19]
    844c:	aa0103e0 	mov	x0, x1
    8450:	14000004 	b	8460 <kprintf+0xd90>
/home/optee/RPi3/optee_os/lib/libutils/ext/snprintk.c:410 (discriminator 40)
    8454:	f9400661 	ldr	x1, [x19,#8]
    8458:	93407c00 	sxtw	x0, w0
    845c:	8b000020 	add	x0, x1, x0
/home/optee/RPi3/optee_os/lib/libutils/ext/snprintk.c:410 (discriminator 43)
    8460:	f9400000 	ldr	x0, [x0]
    8464:	14000059 	b	85c8 <kprintf+0xef8>
/home/optee/RPi3/optee_os/lib/libutils/ext/snprintk.c:410 (discriminator 35)
    8468:	b940b7a0 	ldr	w0, [x29,#180]
    846c:	121c0000 	and	w0, w0, #0x10
    8470:	6b1f001f 	cmp	w0, wzr
    8474:	54000360 	b.eq	84e0 <kprintf+0xe10>
/home/optee/RPi3/optee_os/lib/libutils/ext/snprintk.c:410 (discriminator 45)
    8478:	b9401a60 	ldr	w0, [x19,#24]
    847c:	f9400261 	ldr	x1, [x19]
    8480:	6b1f001f 	cmp	w0, wzr
    8484:	540000eb 	b.lt	84a0 <kprintf+0xdd0>
/home/optee/RPi3/optee_os/lib/libutils/ext/snprintk.c:410 (discriminator 47)
    8488:	aa0103e0 	mov	x0, x1
    848c:	91003c00 	add	x0, x0, #0xf
    8490:	927df000 	and	x0, x0, #0xfffffffffffffff8
    8494:	f9000260 	str	x0, [x19]
    8498:	aa0103e0 	mov	x0, x1
    849c:	1400000f 	b	84d8 <kprintf+0xe08>
/home/optee/RPi3/optee_os/lib/libutils/ext/snprintk.c:410 (discriminator 48)
    84a0:	11002002 	add	w2, w0, #0x8
    84a4:	b9001a62 	str	w2, [x19,#24]
    84a8:	b9401a62 	ldr	w2, [x19,#24]
    84ac:	6b1f005f 	cmp	w2, wzr
    84b0:	540000ed 	b.le	84cc <kprintf+0xdfc>
/home/optee/RPi3/optee_os/lib/libutils/ext/snprintk.c:410 (discriminator 50)
    84b4:	aa0103e0 	mov	x0, x1
    84b8:	91003c00 	add	x0, x0, #0xf
    84bc:	927df000 	and	x0, x0, #0xfffffffffffffff8
    84c0:	f9000260 	str	x0, [x19]
    84c4:	aa0103e0 	mov	x0, x1
    84c8:	14000004 	b	84d8 <kprintf+0xe08>
/home/optee/RPi3/optee_os/lib/libutils/ext/snprintk.c:410 (discriminator 51)
    84cc:	f9400661 	ldr	x1, [x19,#8]
    84d0:	93407c00 	sxtw	x0, w0
    84d4:	8b000020 	add	x0, x1, x0
/home/optee/RPi3/optee_os/lib/libutils/ext/snprintk.c:410 (discriminator 54)
    84d8:	f9400000 	ldr	x0, [x0]
    84dc:	1400003b 	b	85c8 <kprintf+0xef8>
/home/optee/RPi3/optee_os/lib/libutils/ext/snprintk.c:410 (discriminator 46)
    84e0:	b940b7a0 	ldr	w0, [x29,#180]
    84e4:	121a0000 	and	w0, w0, #0x40
    84e8:	6b1f001f 	cmp	w0, wzr
    84ec:	540003a0 	b.eq	8560 <kprintf+0xe90>
/home/optee/RPi3/optee_os/lib/libutils/ext/snprintk.c:410 (discriminator 56)
    84f0:	b9401a60 	ldr	w0, [x19,#24]
    84f4:	f9400261 	ldr	x1, [x19]
    84f8:	6b1f001f 	cmp	w0, wzr
    84fc:	540000eb 	b.lt	8518 <kprintf+0xe48>
/home/optee/RPi3/optee_os/lib/libutils/ext/snprintk.c:410 (discriminator 58)
    8500:	aa0103e0 	mov	x0, x1
    8504:	91002c00 	add	x0, x0, #0xb
    8508:	927df000 	and	x0, x0, #0xfffffffffffffff8
    850c:	f9000260 	str	x0, [x19]
    8510:	aa0103e0 	mov	x0, x1
    8514:	1400000f 	b	8550 <kprintf+0xe80>
/home/optee/RPi3/optee_os/lib/libutils/ext/snprintk.c:410 (discriminator 59)
    8518:	11002002 	add	w2, w0, #0x8
    851c:	b9001a62 	str	w2, [x19,#24]
    8520:	b9401a62 	ldr	w2, [x19,#24]
    8524:	6b1f005f 	cmp	w2, wzr
    8528:	540000ed 	b.le	8544 <kprintf+0xe74>
/home/optee/RPi3/optee_os/lib/libutils/ext/snprintk.c:410 (discriminator 61)
    852c:	aa0103e0 	mov	x0, x1
    8530:	91002c00 	add	x0, x0, #0xb
    8534:	927df000 	and	x0, x0, #0xfffffffffffffff8
    8538:	f9000260 	str	x0, [x19]
    853c:	aa0103e0 	mov	x0, x1
    8540:	14000004 	b	8550 <kprintf+0xe80>
/home/optee/RPi3/optee_os/lib/libutils/ext/snprintk.c:410 (discriminator 62)
    8544:	f9400661 	ldr	x1, [x19,#8]
    8548:	93407c00 	sxtw	x0, w0
    854c:	8b000020 	add	x0, x1, x0
/home/optee/RPi3/optee_os/lib/libutils/ext/snprintk.c:410 (discriminator 65)
    8550:	b9400000 	ldr	w0, [x0]
    8554:	53003c00 	uxth	w0, w0
    8558:	53003c00 	uxth	w0, w0
    855c:	1400001b 	b	85c8 <kprintf+0xef8>
/home/optee/RPi3/optee_os/lib/libutils/ext/snprintk.c:410 (discriminator 57)
    8560:	b9401a60 	ldr	w0, [x19,#24]
    8564:	f9400261 	ldr	x1, [x19]
    8568:	6b1f001f 	cmp	w0, wzr
    856c:	540000eb 	b.lt	8588 <kprintf+0xeb8>
/home/optee/RPi3/optee_os/lib/libutils/ext/snprintk.c:410 (discriminator 67)
    8570:	aa0103e0 	mov	x0, x1
    8574:	91002c00 	add	x0, x0, #0xb
    8578:	927df000 	and	x0, x0, #0xfffffffffffffff8
    857c:	f9000260 	str	x0, [x19]
    8580:	aa0103e0 	mov	x0, x1
    8584:	1400000f 	b	85c0 <kprintf+0xef0>
/home/optee/RPi3/optee_os/lib/libutils/ext/snprintk.c:410 (discriminator 68)
    8588:	11002002 	add	w2, w0, #0x8
    858c:	b9001a62 	str	w2, [x19,#24]
    8590:	b9401a62 	ldr	w2, [x19,#24]
    8594:	6b1f005f 	cmp	w2, wzr
    8598:	540000ed 	b.le	85b4 <kprintf+0xee4>
/home/optee/RPi3/optee_os/lib/libutils/ext/snprintk.c:410 (discriminator 70)
    859c:	aa0103e0 	mov	x0, x1
    85a0:	91002c00 	add	x0, x0, #0xb
    85a4:	927df000 	and	x0, x0, #0xfffffffffffffff8
    85a8:	f9000260 	str	x0, [x19]
    85ac:	aa0103e0 	mov	x0, x1
    85b0:	14000004 	b	85c0 <kprintf+0xef0>
/home/optee/RPi3/optee_os/lib/libutils/ext/snprintk.c:410 (discriminator 71)
    85b4:	f9400661 	ldr	x1, [x19,#8]
    85b8:	93407c00 	sxtw	x0, w0
    85bc:	8b000020 	add	x0, x1, x0
/home/optee/RPi3/optee_os/lib/libutils/ext/snprintk.c:410 (discriminator 74)
    85c0:	b9400000 	ldr	w0, [x0]
    85c4:	2a0003e0 	mov	w0, w0
/home/optee/RPi3/optee_os/lib/libutils/ext/snprintk.c:410 (discriminator 80)
    85c8:	f9004fa0 	str	x0, [x29,#152]
/home/optee/RPi3/optee_os/lib/libutils/ext/snprintk.c:411 (discriminator 80)
    85cc:	b90097bf 	str	wzr, [x29,#148]
/home/optee/RPi3/optee_os/lib/libutils/ext/snprintk.c:412 (discriminator 80)
    85d0:	14000251 	b	8f14 <kprintf+0x1844>
/home/optee/RPi3/optee_os/lib/libutils/ext/snprintk.c:414
    85d4:	3940cfa0 	ldrb	w0, [x29,#51]
    85d8:	6b1f001f 	cmp	w0, wzr
    85dc:	540005e0 	b.eq	8698 <kprintf+0xfc8>
/home/optee/RPi3/optee_os/lib/libutils/ext/snprintk.c:414 (discriminator 1)
    85e0:	f94067a0 	ldr	x0, [x29,#200]
    85e4:	39400000 	ldrb	w0, [x0]
    85e8:	7101541f 	cmp	w0, #0x55
    85ec:	54000561 	b.ne	8698 <kprintf+0xfc8>
/home/optee/RPi3/optee_os/lib/libutils/ext/snprintk.c:414 (discriminator 2)
    85f0:	f94067a0 	ldr	x0, [x29,#200]
    85f4:	91000400 	add	x0, x0, #0x1
    85f8:	39400000 	ldrb	w0, [x0]
    85fc:	7101b01f 	cmp	w0, #0x6c
    8600:	540004c1 	b.ne	8698 <kprintf+0xfc8>
/home/optee/RPi3/optee_os/lib/libutils/ext/snprintk.c:419
    8604:	f94067a0 	ldr	x0, [x29,#200]
    8608:	91000800 	add	x0, x0, #0x2
    860c:	f90067a0 	str	x0, [x29,#200]
/home/optee/RPi3/optee_os/lib/libutils/ext/snprintk.c:420
    8610:	b9401a60 	ldr	w0, [x19,#24]
    8614:	f9400261 	ldr	x1, [x19]
    8618:	6b1f001f 	cmp	w0, wzr
    861c:	540000eb 	b.lt	8638 <kprintf+0xf68>
/home/optee/RPi3/optee_os/lib/libutils/ext/snprintk.c:420 (discriminator 1)
    8620:	aa0103e0 	mov	x0, x1
    8624:	91003c00 	add	x0, x0, #0xf
    8628:	927df000 	and	x0, x0, #0xfffffffffffffff8
    862c:	f9000260 	str	x0, [x19]
    8630:	aa0103e0 	mov	x0, x1
    8634:	1400000f 	b	8670 <kprintf+0xfa0>
/home/optee/RPi3/optee_os/lib/libutils/ext/snprintk.c:420 (discriminator 2)
    8638:	11002002 	add	w2, w0, #0x8
    863c:	b9001a62 	str	w2, [x19,#24]
    8640:	b9401a62 	ldr	w2, [x19,#24]
    8644:	6b1f005f 	cmp	w2, wzr
    8648:	540000ed 	b.le	8664 <kprintf+0xf94>
/home/optee/RPi3/optee_os/lib/libutils/ext/snprintk.c:420 (discriminator 4)
    864c:	aa0103e0 	mov	x0, x1
    8650:	91003c00 	add	x0, x0, #0xf
    8654:	927df000 	and	x0, x0, #0xfffffffffffffff8
    8658:	f9000260 	str	x0, [x19]
    865c:	aa0103e0 	mov	x0, x1
    8660:	14000004 	b	8670 <kprintf+0xfa0>
/home/optee/RPi3/optee_os/lib/libutils/ext/snprintk.c:420 (discriminator 5)
    8664:	f9400661 	ldr	x1, [x19,#8]
    8668:	93407c00 	sxtw	x0, w0
    866c:	8b000020 	add	x0, x1, x0
/home/optee/RPi3/optee_os/lib/libutils/ext/snprintk.c:420 (discriminator 8)
    8670:	f9400001 	ldr	x1, [x0]
    8674:	910123a0 	add	x0, x29, #0x48
    8678:	aa0103e2 	mov	x2, x1
    867c:	d2800481 	mov	x1, #0x24                  	// #36
    8680:	97fffbd8 	bl	75e0 <uuid2str>
    8684:	b9008ba0 	str	w0, [x29,#136]
/home/optee/RPi3/optee_os/lib/libutils/ext/snprintk.c:422 (discriminator 8)
    8688:	910123a0 	add	x0, x29, #0x48
    868c:	f9005fa0 	str	x0, [x29,#184]
/home/optee/RPi3/optee_os/lib/libutils/ext/snprintk.c:423 (discriminator 8)
    8690:	39029fbf 	strb	wzr, [x29,#167]
/home/optee/RPi3/optee_os/lib/libutils/ext/snprintk.c:424 (discriminator 8)
    8694:	140002b5 	b	9168 <kprintf+0x1a98>
/home/optee/RPi3/optee_os/lib/libutils/ext/snprintk.c:434
    8698:	b9401a60 	ldr	w0, [x19,#24]
    869c:	f9400261 	ldr	x1, [x19]
    86a0:	6b1f001f 	cmp	w0, wzr
    86a4:	540000eb 	b.lt	86c0 <kprintf+0xff0>
/home/optee/RPi3/optee_os/lib/libutils/ext/snprintk.c:434 (discriminator 1)
    86a8:	aa0103e0 	mov	x0, x1
    86ac:	91003c00 	add	x0, x0, #0xf
    86b0:	927df000 	and	x0, x0, #0xfffffffffffffff8
    86b4:	f9000260 	str	x0, [x19]
    86b8:	aa0103e0 	mov	x0, x1
    86bc:	1400000f 	b	86f8 <kprintf+0x1028>
/home/optee/RPi3/optee_os/lib/libutils/ext/snprintk.c:434 (discriminator 2)
    86c0:	11002002 	add	w2, w0, #0x8
    86c4:	b9001a62 	str	w2, [x19,#24]
    86c8:	b9401a62 	ldr	w2, [x19,#24]
    86cc:	6b1f005f 	cmp	w2, wzr
    86d0:	540000ed 	b.le	86ec <kprintf+0x101c>
/home/optee/RPi3/optee_os/lib/libutils/ext/snprintk.c:434 (discriminator 4)
    86d4:	aa0103e0 	mov	x0, x1
    86d8:	91003c00 	add	x0, x0, #0xf
    86dc:	927df000 	and	x0, x0, #0xfffffffffffffff8
    86e0:	f9000260 	str	x0, [x19]
    86e4:	aa0103e0 	mov	x0, x1
    86e8:	14000004 	b	86f8 <kprintf+0x1028>
/home/optee/RPi3/optee_os/lib/libutils/ext/snprintk.c:434 (discriminator 5)
    86ec:	f9400661 	ldr	x1, [x19,#8]
    86f0:	93407c00 	sxtw	x0, w0
    86f4:	8b000020 	add	x0, x1, x0
/home/optee/RPi3/optee_os/lib/libutils/ext/snprintk.c:434 (discriminator 8)
    86f8:	f9400000 	ldr	x0, [x0]
    86fc:	f9004fa0 	str	x0, [x29,#152]
/home/optee/RPi3/optee_os/lib/libutils/ext/snprintk.c:435 (discriminator 8)
    8700:	52800040 	mov	w0, #0x2                   	// #2
    8704:	b90097a0 	str	w0, [x29,#148]
/home/optee/RPi3/optee_os/lib/libutils/ext/snprintk.c:436 (discriminator 8)
    8708:	b0000040 	adrp	x0, 11000 <__func__.3864+0x18>
    870c:	911e8000 	add	x0, x0, #0x7a0
    8710:	f90043a0 	str	x0, [x29,#128]
/home/optee/RPi3/optee_os/lib/libutils/ext/snprintk.c:437 (discriminator 8)
    8714:	b940b7a0 	ldr	w0, [x29,#180]
    8718:	321f0000 	orr	w0, w0, #0x2
    871c:	b900b7a0 	str	w0, [x29,#180]
/home/optee/RPi3/optee_os/lib/libutils/ext/snprintk.c:438 (discriminator 8)
    8720:	52800f00 	mov	w0, #0x78                  	// #120
    8724:	b900c7a0 	str	w0, [x29,#196]
/home/optee/RPi3/optee_os/lib/libutils/ext/snprintk.c:439 (discriminator 8)
    8728:	140001fb 	b	8f14 <kprintf+0x1844>
/home/optee/RPi3/optee_os/lib/libutils/ext/snprintk.c:441
    872c:	b9401a60 	ldr	w0, [x19,#24]
    8730:	f9400261 	ldr	x1, [x19]
    8734:	6b1f001f 	cmp	w0, wzr
    8738:	540000eb 	b.lt	8754 <kprintf+0x1084>
/home/optee/RPi3/optee_os/lib/libutils/ext/snprintk.c:441 (discriminator 1)
    873c:	aa0103e0 	mov	x0, x1
    8740:	91003c00 	add	x0, x0, #0xf
    8744:	927df000 	and	x0, x0, #0xfffffffffffffff8
    8748:	f9000260 	str	x0, [x19]
    874c:	aa0103e0 	mov	x0, x1
    8750:	1400000f 	b	878c <kprintf+0x10bc>
/home/optee/RPi3/optee_os/lib/libutils/ext/snprintk.c:441 (discriminator 2)
    8754:	11002002 	add	w2, w0, #0x8
    8758:	b9001a62 	str	w2, [x19,#24]
    875c:	b9401a62 	ldr	w2, [x19,#24]
    8760:	6b1f005f 	cmp	w2, wzr
    8764:	540000ed 	b.le	8780 <kprintf+0x10b0>
/home/optee/RPi3/optee_os/lib/libutils/ext/snprintk.c:441 (discriminator 4)
    8768:	aa0103e0 	mov	x0, x1
    876c:	91003c00 	add	x0, x0, #0xf
    8770:	927df000 	and	x0, x0, #0xfffffffffffffff8
    8774:	f9000260 	str	x0, [x19]
    8778:	aa0103e0 	mov	x0, x1
    877c:	14000004 	b	878c <kprintf+0x10bc>
/home/optee/RPi3/optee_os/lib/libutils/ext/snprintk.c:441 (discriminator 5)
    8780:	f9400661 	ldr	x1, [x19,#8]
    8784:	93407c00 	sxtw	x0, w0
    8788:	8b000020 	add	x0, x1, x0
/home/optee/RPi3/optee_os/lib/libutils/ext/snprintk.c:441 (discriminator 8)
    878c:	f9400000 	ldr	x0, [x0]
    8790:	f9005fa0 	str	x0, [x29,#184]
    8794:	f9405fa0 	ldr	x0, [x29,#184]
    8798:	eb1f001f 	cmp	x0, xzr
    879c:	54000081 	b.ne	87ac <kprintf+0x10dc>
/home/optee/RPi3/optee_os/lib/libutils/ext/snprintk.c:443
    87a0:	b0000040 	adrp	x0, 11000 <__func__.3864+0x18>
    87a4:	91200000 	add	x0, x0, #0x800
    87a8:	f9005fa0 	str	x0, [x29,#184]
/home/optee/RPi3/optee_os/lib/libutils/ext/snprintk.c:444
    87ac:	b940aba0 	ldr	w0, [x29,#168]
    87b0:	6b1f001f 	cmp	w0, wzr
    87b4:	5400030b 	b.lt	8814 <kprintf+0x1144>
/home/optee/RPi3/optee_os/lib/libutils/ext/snprintk.c:450
    87b8:	b980aba0 	ldrsw	x0, [x29,#168]
    87bc:	aa0003e2 	mov	x2, x0
    87c0:	52800001 	mov	w1, #0x0                   	// #0
    87c4:	f9405fa0 	ldr	x0, [x29,#184]
    87c8:	940004d1 	bl	9b0c <memchr>
    87cc:	f9003ba0 	str	x0, [x29,#112]
/home/optee/RPi3/optee_os/lib/libutils/ext/snprintk.c:452
    87d0:	f9403ba0 	ldr	x0, [x29,#112]
    87d4:	eb1f001f 	cmp	x0, xzr
    87d8:	54000180 	b.eq	8808 <kprintf+0x1138>
/home/optee/RPi3/optee_os/lib/libutils/ext/snprintk.c:453
    87dc:	f9403ba1 	ldr	x1, [x29,#112]
    87e0:	f9405fa0 	ldr	x0, [x29,#184]
    87e4:	cb000020 	sub	x0, x1, x0
    87e8:	b9008ba0 	str	w0, [x29,#136]
/home/optee/RPi3/optee_os/lib/libutils/ext/snprintk.c:454
    87ec:	b9408ba1 	ldr	w1, [x29,#136]
    87f0:	b940aba0 	ldr	w0, [x29,#168]
    87f4:	6b00003f 	cmp	w1, w0
    87f8:	5400014d 	b.le	8820 <kprintf+0x1150>
/home/optee/RPi3/optee_os/lib/libutils/ext/snprintk.c:455
    87fc:	b940aba0 	ldr	w0, [x29,#168]
    8800:	b9008ba0 	str	w0, [x29,#136]
    8804:	14000007 	b	8820 <kprintf+0x1150>
/home/optee/RPi3/optee_os/lib/libutils/ext/snprintk.c:457
    8808:	b940aba0 	ldr	w0, [x29,#168]
    880c:	b9008ba0 	str	w0, [x29,#136]
    8810:	14000004 	b	8820 <kprintf+0x1150>
/home/optee/RPi3/optee_os/lib/libutils/ext/snprintk.c:459
    8814:	f9405fa0 	ldr	x0, [x29,#184]
    8818:	97fffabc 	bl	7308 <strlen>
    881c:	b9008ba0 	str	w0, [x29,#136]
/home/optee/RPi3/optee_os/lib/libutils/ext/snprintk.c:460
    8820:	39029fbf 	strb	wzr, [x29,#167]
/home/optee/RPi3/optee_os/lib/libutils/ext/snprintk.c:461
    8824:	14000251 	b	9168 <kprintf+0x1a98>
/home/optee/RPi3/optee_os/lib/libutils/ext/snprintk.c:463
    8828:	b940b7a0 	ldr	w0, [x29,#180]
    882c:	321c0000 	orr	w0, w0, #0x10
    8830:	b900b7a0 	str	w0, [x29,#180]
/home/optee/RPi3/optee_os/lib/libutils/ext/snprintk.c:466
    8834:	b940b7a0 	ldr	w0, [x29,#180]
    8838:	12190000 	and	w0, w0, #0x80
    883c:	6b1f001f 	cmp	w0, wzr
    8840:	54000360 	b.eq	88ac <kprintf+0x11dc>
/home/optee/RPi3/optee_os/lib/libutils/ext/snprintk.c:466 (discriminator 1)
    8844:	b9401a60 	ldr	w0, [x19,#24]
    8848:	f9400261 	ldr	x1, [x19]
    884c:	6b1f001f 	cmp	w0, wzr
    8850:	540000eb 	b.lt	886c <kprintf+0x119c>
/home/optee/RPi3/optee_os/lib/libutils/ext/snprintk.c:466 (discriminator 3)
    8854:	aa0103e0 	mov	x0, x1
    8858:	91003c00 	add	x0, x0, #0xf
    885c:	927df000 	and	x0, x0, #0xfffffffffffffff8
    8860:	f9000260 	str	x0, [x19]
    8864:	aa0103e0 	mov	x0, x1
    8868:	1400000f 	b	88a4 <kprintf+0x11d4>
/home/optee/RPi3/optee_os/lib/libutils/ext/snprintk.c:466 (discriminator 4)
    886c:	11002002 	add	w2, w0, #0x8
    8870:	b9001a62 	str	w2, [x19,#24]
    8874:	b9401a62 	ldr	w2, [x19,#24]
    8878:	6b1f005f 	cmp	w2, wzr
    887c:	540000ed 	b.le	8898 <kprintf+0x11c8>
/home/optee/RPi3/optee_os/lib/libutils/ext/snprintk.c:466 (discriminator 6)
    8880:	aa0103e0 	mov	x0, x1
    8884:	91003c00 	add	x0, x0, #0xf
    8888:	927df000 	and	x0, x0, #0xfffffffffffffff8
    888c:	f9000260 	str	x0, [x19]
    8890:	aa0103e0 	mov	x0, x1
    8894:	14000004 	b	88a4 <kprintf+0x11d4>
/home/optee/RPi3/optee_os/lib/libutils/ext/snprintk.c:466 (discriminator 7)
    8898:	f9400661 	ldr	x1, [x19,#8]
    889c:	93407c00 	sxtw	x0, w0
    88a0:	8b000020 	add	x0, x1, x0
/home/optee/RPi3/optee_os/lib/libutils/ext/snprintk.c:466 (discriminator 10)
    88a4:	f9400000 	ldr	x0, [x0]
    88a8:	140000b3 	b	8b74 <kprintf+0x14a4>
/home/optee/RPi3/optee_os/lib/libutils/ext/snprintk.c:466 (discriminator 2)
    88ac:	b940b7a0 	ldr	w0, [x29,#180]
    88b0:	12180000 	and	w0, w0, #0x100
    88b4:	6b1f001f 	cmp	w0, wzr
    88b8:	54000360 	b.eq	8924 <kprintf+0x1254>
/home/optee/RPi3/optee_os/lib/libutils/ext/snprintk.c:466 (discriminator 12)
    88bc:	b9401a60 	ldr	w0, [x19,#24]
    88c0:	f9400261 	ldr	x1, [x19]
    88c4:	6b1f001f 	cmp	w0, wzr
    88c8:	540000eb 	b.lt	88e4 <kprintf+0x1214>
/home/optee/RPi3/optee_os/lib/libutils/ext/snprintk.c:466 (discriminator 14)
    88cc:	aa0103e0 	mov	x0, x1
    88d0:	91003c00 	add	x0, x0, #0xf
    88d4:	927df000 	and	x0, x0, #0xfffffffffffffff8
    88d8:	f9000260 	str	x0, [x19]
    88dc:	aa0103e0 	mov	x0, x1
    88e0:	1400000f 	b	891c <kprintf+0x124c>
/home/optee/RPi3/optee_os/lib/libutils/ext/snprintk.c:466 (discriminator 15)
    88e4:	11002002 	add	w2, w0, #0x8
    88e8:	b9001a62 	str	w2, [x19,#24]
    88ec:	b9401a62 	ldr	w2, [x19,#24]
    88f0:	6b1f005f 	cmp	w2, wzr
    88f4:	540000ed 	b.le	8910 <kprintf+0x1240>
/home/optee/RPi3/optee_os/lib/libutils/ext/snprintk.c:466 (discriminator 17)
    88f8:	aa0103e0 	mov	x0, x1
    88fc:	91003c00 	add	x0, x0, #0xf
    8900:	927df000 	and	x0, x0, #0xfffffffffffffff8
    8904:	f9000260 	str	x0, [x19]
    8908:	aa0103e0 	mov	x0, x1
    890c:	14000004 	b	891c <kprintf+0x124c>
/home/optee/RPi3/optee_os/lib/libutils/ext/snprintk.c:466 (discriminator 18)
    8910:	f9400661 	ldr	x1, [x19,#8]
    8914:	93407c00 	sxtw	x0, w0
    8918:	8b000020 	add	x0, x1, x0
/home/optee/RPi3/optee_os/lib/libutils/ext/snprintk.c:466 (discriminator 21)
    891c:	f9400000 	ldr	x0, [x0]
    8920:	14000095 	b	8b74 <kprintf+0x14a4>
/home/optee/RPi3/optee_os/lib/libutils/ext/snprintk.c:466 (discriminator 13)
    8924:	b940b7a0 	ldr	w0, [x29,#180]
    8928:	12170000 	and	w0, w0, #0x200
    892c:	6b1f001f 	cmp	w0, wzr
    8930:	54000360 	b.eq	899c <kprintf+0x12cc>
/home/optee/RPi3/optee_os/lib/libutils/ext/snprintk.c:466 (discriminator 23)
    8934:	b9401a60 	ldr	w0, [x19,#24]
    8938:	f9400261 	ldr	x1, [x19]
    893c:	6b1f001f 	cmp	w0, wzr
    8940:	540000eb 	b.lt	895c <kprintf+0x128c>
/home/optee/RPi3/optee_os/lib/libutils/ext/snprintk.c:466 (discriminator 25)
    8944:	aa0103e0 	mov	x0, x1
    8948:	91003c00 	add	x0, x0, #0xf
    894c:	927df000 	and	x0, x0, #0xfffffffffffffff8
    8950:	f9000260 	str	x0, [x19]
    8954:	aa0103e0 	mov	x0, x1
    8958:	1400000f 	b	8994 <kprintf+0x12c4>
/home/optee/RPi3/optee_os/lib/libutils/ext/snprintk.c:466 (discriminator 26)
    895c:	11002002 	add	w2, w0, #0x8
    8960:	b9001a62 	str	w2, [x19,#24]
    8964:	b9401a62 	ldr	w2, [x19,#24]
    8968:	6b1f005f 	cmp	w2, wzr
    896c:	540000ed 	b.le	8988 <kprintf+0x12b8>
/home/optee/RPi3/optee_os/lib/libutils/ext/snprintk.c:466 (discriminator 28)
    8970:	aa0103e0 	mov	x0, x1
    8974:	91003c00 	add	x0, x0, #0xf
    8978:	927df000 	and	x0, x0, #0xfffffffffffffff8
    897c:	f9000260 	str	x0, [x19]
    8980:	aa0103e0 	mov	x0, x1
    8984:	14000004 	b	8994 <kprintf+0x12c4>
/home/optee/RPi3/optee_os/lib/libutils/ext/snprintk.c:466 (discriminator 29)
    8988:	f9400661 	ldr	x1, [x19,#8]
    898c:	93407c00 	sxtw	x0, w0
    8990:	8b000020 	add	x0, x1, x0
/home/optee/RPi3/optee_os/lib/libutils/ext/snprintk.c:466 (discriminator 32)
    8994:	f9400000 	ldr	x0, [x0]
    8998:	14000077 	b	8b74 <kprintf+0x14a4>
/home/optee/RPi3/optee_os/lib/libutils/ext/snprintk.c:466 (discriminator 24)
    899c:	b940b7a0 	ldr	w0, [x29,#180]
    89a0:	121b0000 	and	w0, w0, #0x20
    89a4:	6b1f001f 	cmp	w0, wzr
    89a8:	54000360 	b.eq	8a14 <kprintf+0x1344>
/home/optee/RPi3/optee_os/lib/libutils/ext/snprintk.c:466 (discriminator 34)
    89ac:	b9401a60 	ldr	w0, [x19,#24]
    89b0:	f9400261 	ldr	x1, [x19]
    89b4:	6b1f001f 	cmp	w0, wzr
    89b8:	540000eb 	b.lt	89d4 <kprintf+0x1304>
/home/optee/RPi3/optee_os/lib/libutils/ext/snprintk.c:466 (discriminator 36)
    89bc:	aa0103e0 	mov	x0, x1
    89c0:	91003c00 	add	x0, x0, #0xf
    89c4:	927df000 	and	x0, x0, #0xfffffffffffffff8
    89c8:	f9000260 	str	x0, [x19]
    89cc:	aa0103e0 	mov	x0, x1
    89d0:	1400000f 	b	8a0c <kprintf+0x133c>
/home/optee/RPi3/optee_os/lib/libutils/ext/snprintk.c:466 (discriminator 37)
    89d4:	11002002 	add	w2, w0, #0x8
    89d8:	b9001a62 	str	w2, [x19,#24]
    89dc:	b9401a62 	ldr	w2, [x19,#24]
    89e0:	6b1f005f 	cmp	w2, wzr
    89e4:	540000ed 	b.le	8a00 <kprintf+0x1330>
/home/optee/RPi3/optee_os/lib/libutils/ext/snprintk.c:466 (discriminator 39)
    89e8:	aa0103e0 	mov	x0, x1
    89ec:	91003c00 	add	x0, x0, #0xf
    89f0:	927df000 	and	x0, x0, #0xfffffffffffffff8
    89f4:	f9000260 	str	x0, [x19]
    89f8:	aa0103e0 	mov	x0, x1
    89fc:	14000004 	b	8a0c <kprintf+0x133c>
/home/optee/RPi3/optee_os/lib/libutils/ext/snprintk.c:466 (discriminator 40)
    8a00:	f9400661 	ldr	x1, [x19,#8]
    8a04:	93407c00 	sxtw	x0, w0
    8a08:	8b000020 	add	x0, x1, x0
/home/optee/RPi3/optee_os/lib/libutils/ext/snprintk.c:466 (discriminator 43)
    8a0c:	f9400000 	ldr	x0, [x0]
    8a10:	14000059 	b	8b74 <kprintf+0x14a4>
/home/optee/RPi3/optee_os/lib/libutils/ext/snprintk.c:466 (discriminator 35)
    8a14:	b940b7a0 	ldr	w0, [x29,#180]
    8a18:	121c0000 	and	w0, w0, #0x10
    8a1c:	6b1f001f 	cmp	w0, wzr
    8a20:	54000360 	b.eq	8a8c <kprintf+0x13bc>
/home/optee/RPi3/optee_os/lib/libutils/ext/snprintk.c:466 (discriminator 45)
    8a24:	b9401a60 	ldr	w0, [x19,#24]
    8a28:	f9400261 	ldr	x1, [x19]
    8a2c:	6b1f001f 	cmp	w0, wzr
    8a30:	540000eb 	b.lt	8a4c <kprintf+0x137c>
/home/optee/RPi3/optee_os/lib/libutils/ext/snprintk.c:466 (discriminator 47)
    8a34:	aa0103e0 	mov	x0, x1
    8a38:	91003c00 	add	x0, x0, #0xf
    8a3c:	927df000 	and	x0, x0, #0xfffffffffffffff8
    8a40:	f9000260 	str	x0, [x19]
    8a44:	aa0103e0 	mov	x0, x1
    8a48:	1400000f 	b	8a84 <kprintf+0x13b4>
/home/optee/RPi3/optee_os/lib/libutils/ext/snprintk.c:466 (discriminator 48)
    8a4c:	11002002 	add	w2, w0, #0x8
    8a50:	b9001a62 	str	w2, [x19,#24]
    8a54:	b9401a62 	ldr	w2, [x19,#24]
    8a58:	6b1f005f 	cmp	w2, wzr
    8a5c:	540000ed 	b.le	8a78 <kprintf+0x13a8>
/home/optee/RPi3/optee_os/lib/libutils/ext/snprintk.c:466 (discriminator 50)
    8a60:	aa0103e0 	mov	x0, x1
    8a64:	91003c00 	add	x0, x0, #0xf
    8a68:	927df000 	and	x0, x0, #0xfffffffffffffff8
    8a6c:	f9000260 	str	x0, [x19]
    8a70:	aa0103e0 	mov	x0, x1
    8a74:	14000004 	b	8a84 <kprintf+0x13b4>
/home/optee/RPi3/optee_os/lib/libutils/ext/snprintk.c:466 (discriminator 51)
    8a78:	f9400661 	ldr	x1, [x19,#8]
    8a7c:	93407c00 	sxtw	x0, w0
    8a80:	8b000020 	add	x0, x1, x0
/home/optee/RPi3/optee_os/lib/libutils/ext/snprintk.c:466 (discriminator 54)
    8a84:	f9400000 	ldr	x0, [x0]
    8a88:	1400003b 	b	8b74 <kprintf+0x14a4>
/home/optee/RPi3/optee_os/lib/libutils/ext/snprintk.c:466 (discriminator 46)
    8a8c:	b940b7a0 	ldr	w0, [x29,#180]
    8a90:	121a0000 	and	w0, w0, #0x40
    8a94:	6b1f001f 	cmp	w0, wzr
    8a98:	540003a0 	b.eq	8b0c <kprintf+0x143c>
/home/optee/RPi3/optee_os/lib/libutils/ext/snprintk.c:466 (discriminator 56)
    8a9c:	b9401a60 	ldr	w0, [x19,#24]
    8aa0:	f9400261 	ldr	x1, [x19]
    8aa4:	6b1f001f 	cmp	w0, wzr
    8aa8:	540000eb 	b.lt	8ac4 <kprintf+0x13f4>
/home/optee/RPi3/optee_os/lib/libutils/ext/snprintk.c:466 (discriminator 58)
    8aac:	aa0103e0 	mov	x0, x1
    8ab0:	91002c00 	add	x0, x0, #0xb
    8ab4:	927df000 	and	x0, x0, #0xfffffffffffffff8
    8ab8:	f9000260 	str	x0, [x19]
    8abc:	aa0103e0 	mov	x0, x1
    8ac0:	1400000f 	b	8afc <kprintf+0x142c>
/home/optee/RPi3/optee_os/lib/libutils/ext/snprintk.c:466 (discriminator 59)
    8ac4:	11002002 	add	w2, w0, #0x8
    8ac8:	b9001a62 	str	w2, [x19,#24]
    8acc:	b9401a62 	ldr	w2, [x19,#24]
    8ad0:	6b1f005f 	cmp	w2, wzr
    8ad4:	540000ed 	b.le	8af0 <kprintf+0x1420>
/home/optee/RPi3/optee_os/lib/libutils/ext/snprintk.c:466 (discriminator 61)
    8ad8:	aa0103e0 	mov	x0, x1
    8adc:	91002c00 	add	x0, x0, #0xb
    8ae0:	927df000 	and	x0, x0, #0xfffffffffffffff8
    8ae4:	f9000260 	str	x0, [x19]
    8ae8:	aa0103e0 	mov	x0, x1
    8aec:	14000004 	b	8afc <kprintf+0x142c>
/home/optee/RPi3/optee_os/lib/libutils/ext/snprintk.c:466 (discriminator 62)
    8af0:	f9400661 	ldr	x1, [x19,#8]
    8af4:	93407c00 	sxtw	x0, w0
    8af8:	8b000020 	add	x0, x1, x0
/home/optee/RPi3/optee_os/lib/libutils/ext/snprintk.c:466 (discriminator 65)
    8afc:	b9400000 	ldr	w0, [x0]
    8b00:	53003c00 	uxth	w0, w0
    8b04:	53003c00 	uxth	w0, w0
    8b08:	1400001b 	b	8b74 <kprintf+0x14a4>
/home/optee/RPi3/optee_os/lib/libutils/ext/snprintk.c:466 (discriminator 57)
    8b0c:	b9401a60 	ldr	w0, [x19,#24]
    8b10:	f9400261 	ldr	x1, [x19]
    8b14:	6b1f001f 	cmp	w0, wzr
    8b18:	540000eb 	b.lt	8b34 <kprintf+0x1464>
/home/optee/RPi3/optee_os/lib/libutils/ext/snprintk.c:466 (discriminator 67)
    8b1c:	aa0103e0 	mov	x0, x1
    8b20:	91002c00 	add	x0, x0, #0xb
    8b24:	927df000 	and	x0, x0, #0xfffffffffffffff8
    8b28:	f9000260 	str	x0, [x19]
    8b2c:	aa0103e0 	mov	x0, x1
    8b30:	1400000f 	b	8b6c <kprintf+0x149c>
/home/optee/RPi3/optee_os/lib/libutils/ext/snprintk.c:466 (discriminator 68)
    8b34:	11002002 	add	w2, w0, #0x8
    8b38:	b9001a62 	str	w2, [x19,#24]
    8b3c:	b9401a62 	ldr	w2, [x19,#24]
    8b40:	6b1f005f 	cmp	w2, wzr
    8b44:	540000ed 	b.le	8b60 <kprintf+0x1490>
/home/optee/RPi3/optee_os/lib/libutils/ext/snprintk.c:466 (discriminator 70)
    8b48:	aa0103e0 	mov	x0, x1
    8b4c:	91002c00 	add	x0, x0, #0xb
    8b50:	927df000 	and	x0, x0, #0xfffffffffffffff8
    8b54:	f9000260 	str	x0, [x19]
    8b58:	aa0103e0 	mov	x0, x1
    8b5c:	14000004 	b	8b6c <kprintf+0x149c>
/home/optee/RPi3/optee_os/lib/libutils/ext/snprintk.c:466 (discriminator 71)
    8b60:	f9400661 	ldr	x1, [x19,#8]
    8b64:	93407c00 	sxtw	x0, w0
    8b68:	8b000020 	add	x0, x1, x0
/home/optee/RPi3/optee_os/lib/libutils/ext/snprintk.c:466 (discriminator 74)
    8b6c:	b9400000 	ldr	w0, [x0]
    8b70:	2a0003e0 	mov	w0, w0
/home/optee/RPi3/optee_os/lib/libutils/ext/snprintk.c:466 (discriminator 80)
    8b74:	f9004fa0 	str	x0, [x29,#152]
/home/optee/RPi3/optee_os/lib/libutils/ext/snprintk.c:467 (discriminator 80)
    8b78:	52800020 	mov	w0, #0x1                   	// #1
    8b7c:	b90097a0 	str	w0, [x29,#148]
/home/optee/RPi3/optee_os/lib/libutils/ext/snprintk.c:468 (discriminator 80)
    8b80:	140000e5 	b	8f14 <kprintf+0x1844>
/home/optee/RPi3/optee_os/lib/libutils/ext/snprintk.c:470
    8b84:	b0000040 	adrp	x0, 11000 <__func__.3864+0x18>
    8b88:	911ee000 	add	x0, x0, #0x7b8
    8b8c:	f90043a0 	str	x0, [x29,#128]
/home/optee/RPi3/optee_os/lib/libutils/ext/snprintk.c:471
    8b90:	14000004 	b	8ba0 <kprintf+0x14d0>
/home/optee/RPi3/optee_os/lib/libutils/ext/snprintk.c:473
    8b94:	b0000040 	adrp	x0, 11000 <__func__.3864+0x18>
    8b98:	911e8000 	add	x0, x0, #0x7a0
    8b9c:	f90043a0 	str	x0, [x29,#128]
/home/optee/RPi3/optee_os/lib/libutils/ext/snprintk.c:474
    8ba0:	b940b7a0 	ldr	w0, [x29,#180]
    8ba4:	12190000 	and	w0, w0, #0x80
    8ba8:	6b1f001f 	cmp	w0, wzr
    8bac:	54000360 	b.eq	8c18 <kprintf+0x1548>
/home/optee/RPi3/optee_os/lib/libutils/ext/snprintk.c:474 (discriminator 1)
    8bb0:	b9401a60 	ldr	w0, [x19,#24]
    8bb4:	f9400261 	ldr	x1, [x19]
    8bb8:	6b1f001f 	cmp	w0, wzr
    8bbc:	540000eb 	b.lt	8bd8 <kprintf+0x1508>
/home/optee/RPi3/optee_os/lib/libutils/ext/snprintk.c:474 (discriminator 3)
    8bc0:	aa0103e0 	mov	x0, x1
    8bc4:	91003c00 	add	x0, x0, #0xf
    8bc8:	927df000 	and	x0, x0, #0xfffffffffffffff8
    8bcc:	f9000260 	str	x0, [x19]
    8bd0:	aa0103e0 	mov	x0, x1
    8bd4:	1400000f 	b	8c10 <kprintf+0x1540>
/home/optee/RPi3/optee_os/lib/libutils/ext/snprintk.c:474 (discriminator 4)
    8bd8:	11002002 	add	w2, w0, #0x8
    8bdc:	b9001a62 	str	w2, [x19,#24]
    8be0:	b9401a62 	ldr	w2, [x19,#24]
    8be4:	6b1f005f 	cmp	w2, wzr
    8be8:	540000ed 	b.le	8c04 <kprintf+0x1534>
/home/optee/RPi3/optee_os/lib/libutils/ext/snprintk.c:474 (discriminator 6)
    8bec:	aa0103e0 	mov	x0, x1
    8bf0:	91003c00 	add	x0, x0, #0xf
    8bf4:	927df000 	and	x0, x0, #0xfffffffffffffff8
    8bf8:	f9000260 	str	x0, [x19]
    8bfc:	aa0103e0 	mov	x0, x1
    8c00:	14000004 	b	8c10 <kprintf+0x1540>
/home/optee/RPi3/optee_os/lib/libutils/ext/snprintk.c:474 (discriminator 7)
    8c04:	f9400661 	ldr	x1, [x19,#8]
    8c08:	93407c00 	sxtw	x0, w0
    8c0c:	8b000020 	add	x0, x1, x0
/home/optee/RPi3/optee_os/lib/libutils/ext/snprintk.c:474 (discriminator 10)
    8c10:	f9400000 	ldr	x0, [x0]
    8c14:	140000b3 	b	8ee0 <kprintf+0x1810>
/home/optee/RPi3/optee_os/lib/libutils/ext/snprintk.c:474 (discriminator 2)
    8c18:	b940b7a0 	ldr	w0, [x29,#180]
    8c1c:	12180000 	and	w0, w0, #0x100
    8c20:	6b1f001f 	cmp	w0, wzr
    8c24:	54000360 	b.eq	8c90 <kprintf+0x15c0>
/home/optee/RPi3/optee_os/lib/libutils/ext/snprintk.c:474 (discriminator 12)
    8c28:	b9401a60 	ldr	w0, [x19,#24]
    8c2c:	f9400261 	ldr	x1, [x19]
    8c30:	6b1f001f 	cmp	w0, wzr
    8c34:	540000eb 	b.lt	8c50 <kprintf+0x1580>
/home/optee/RPi3/optee_os/lib/libutils/ext/snprintk.c:474 (discriminator 14)
    8c38:	aa0103e0 	mov	x0, x1
    8c3c:	91003c00 	add	x0, x0, #0xf
    8c40:	927df000 	and	x0, x0, #0xfffffffffffffff8
    8c44:	f9000260 	str	x0, [x19]
    8c48:	aa0103e0 	mov	x0, x1
    8c4c:	1400000f 	b	8c88 <kprintf+0x15b8>
/home/optee/RPi3/optee_os/lib/libutils/ext/snprintk.c:474 (discriminator 15)
    8c50:	11002002 	add	w2, w0, #0x8
    8c54:	b9001a62 	str	w2, [x19,#24]
    8c58:	b9401a62 	ldr	w2, [x19,#24]
    8c5c:	6b1f005f 	cmp	w2, wzr
    8c60:	540000ed 	b.le	8c7c <kprintf+0x15ac>
/home/optee/RPi3/optee_os/lib/libutils/ext/snprintk.c:474 (discriminator 17)
    8c64:	aa0103e0 	mov	x0, x1
    8c68:	91003c00 	add	x0, x0, #0xf
    8c6c:	927df000 	and	x0, x0, #0xfffffffffffffff8
    8c70:	f9000260 	str	x0, [x19]
    8c74:	aa0103e0 	mov	x0, x1
    8c78:	14000004 	b	8c88 <kprintf+0x15b8>
/home/optee/RPi3/optee_os/lib/libutils/ext/snprintk.c:474 (discriminator 18)
    8c7c:	f9400661 	ldr	x1, [x19,#8]
    8c80:	93407c00 	sxtw	x0, w0
    8c84:	8b000020 	add	x0, x1, x0
/home/optee/RPi3/optee_os/lib/libutils/ext/snprintk.c:474 (discriminator 21)
    8c88:	f9400000 	ldr	x0, [x0]
    8c8c:	14000095 	b	8ee0 <kprintf+0x1810>
/home/optee/RPi3/optee_os/lib/libutils/ext/snprintk.c:474 (discriminator 13)
    8c90:	b940b7a0 	ldr	w0, [x29,#180]
    8c94:	12170000 	and	w0, w0, #0x200
    8c98:	6b1f001f 	cmp	w0, wzr
    8c9c:	54000360 	b.eq	8d08 <kprintf+0x1638>
/home/optee/RPi3/optee_os/lib/libutils/ext/snprintk.c:474 (discriminator 23)
    8ca0:	b9401a60 	ldr	w0, [x19,#24]
    8ca4:	f9400261 	ldr	x1, [x19]
    8ca8:	6b1f001f 	cmp	w0, wzr
    8cac:	540000eb 	b.lt	8cc8 <kprintf+0x15f8>
/home/optee/RPi3/optee_os/lib/libutils/ext/snprintk.c:474 (discriminator 25)
    8cb0:	aa0103e0 	mov	x0, x1
    8cb4:	91003c00 	add	x0, x0, #0xf
    8cb8:	927df000 	and	x0, x0, #0xfffffffffffffff8
    8cbc:	f9000260 	str	x0, [x19]
    8cc0:	aa0103e0 	mov	x0, x1
    8cc4:	1400000f 	b	8d00 <kprintf+0x1630>
/home/optee/RPi3/optee_os/lib/libutils/ext/snprintk.c:474 (discriminator 26)
    8cc8:	11002002 	add	w2, w0, #0x8
    8ccc:	b9001a62 	str	w2, [x19,#24]
    8cd0:	b9401a62 	ldr	w2, [x19,#24]
    8cd4:	6b1f005f 	cmp	w2, wzr
    8cd8:	540000ed 	b.le	8cf4 <kprintf+0x1624>
/home/optee/RPi3/optee_os/lib/libutils/ext/snprintk.c:474 (discriminator 28)
    8cdc:	aa0103e0 	mov	x0, x1
    8ce0:	91003c00 	add	x0, x0, #0xf
    8ce4:	927df000 	and	x0, x0, #0xfffffffffffffff8
    8ce8:	f9000260 	str	x0, [x19]
    8cec:	aa0103e0 	mov	x0, x1
    8cf0:	14000004 	b	8d00 <kprintf+0x1630>
/home/optee/RPi3/optee_os/lib/libutils/ext/snprintk.c:474 (discriminator 29)
    8cf4:	f9400661 	ldr	x1, [x19,#8]
    8cf8:	93407c00 	sxtw	x0, w0
    8cfc:	8b000020 	add	x0, x1, x0
/home/optee/RPi3/optee_os/lib/libutils/ext/snprintk.c:474 (discriminator 32)
    8d00:	f9400000 	ldr	x0, [x0]
    8d04:	14000077 	b	8ee0 <kprintf+0x1810>
/home/optee/RPi3/optee_os/lib/libutils/ext/snprintk.c:474 (discriminator 24)
    8d08:	b940b7a0 	ldr	w0, [x29,#180]
    8d0c:	121b0000 	and	w0, w0, #0x20
    8d10:	6b1f001f 	cmp	w0, wzr
    8d14:	54000360 	b.eq	8d80 <kprintf+0x16b0>
/home/optee/RPi3/optee_os/lib/libutils/ext/snprintk.c:474 (discriminator 34)
    8d18:	b9401a60 	ldr	w0, [x19,#24]
    8d1c:	f9400261 	ldr	x1, [x19]
    8d20:	6b1f001f 	cmp	w0, wzr
    8d24:	540000eb 	b.lt	8d40 <kprintf+0x1670>
/home/optee/RPi3/optee_os/lib/libutils/ext/snprintk.c:474 (discriminator 36)
    8d28:	aa0103e0 	mov	x0, x1
    8d2c:	91003c00 	add	x0, x0, #0xf
    8d30:	927df000 	and	x0, x0, #0xfffffffffffffff8
    8d34:	f9000260 	str	x0, [x19]
    8d38:	aa0103e0 	mov	x0, x1
    8d3c:	1400000f 	b	8d78 <kprintf+0x16a8>
/home/optee/RPi3/optee_os/lib/libutils/ext/snprintk.c:474 (discriminator 37)
    8d40:	11002002 	add	w2, w0, #0x8
    8d44:	b9001a62 	str	w2, [x19,#24]
    8d48:	b9401a62 	ldr	w2, [x19,#24]
    8d4c:	6b1f005f 	cmp	w2, wzr
    8d50:	540000ed 	b.le	8d6c <kprintf+0x169c>
/home/optee/RPi3/optee_os/lib/libutils/ext/snprintk.c:474 (discriminator 39)
    8d54:	aa0103e0 	mov	x0, x1
    8d58:	91003c00 	add	x0, x0, #0xf
    8d5c:	927df000 	and	x0, x0, #0xfffffffffffffff8
    8d60:	f9000260 	str	x0, [x19]
    8d64:	aa0103e0 	mov	x0, x1
    8d68:	14000004 	b	8d78 <kprintf+0x16a8>
/home/optee/RPi3/optee_os/lib/libutils/ext/snprintk.c:474 (discriminator 40)
    8d6c:	f9400661 	ldr	x1, [x19,#8]
    8d70:	93407c00 	sxtw	x0, w0
    8d74:	8b000020 	add	x0, x1, x0
/home/optee/RPi3/optee_os/lib/libutils/ext/snprintk.c:474 (discriminator 43)
    8d78:	f9400000 	ldr	x0, [x0]
    8d7c:	14000059 	b	8ee0 <kprintf+0x1810>
/home/optee/RPi3/optee_os/lib/libutils/ext/snprintk.c:474 (discriminator 35)
    8d80:	b940b7a0 	ldr	w0, [x29,#180]
    8d84:	121c0000 	and	w0, w0, #0x10
    8d88:	6b1f001f 	cmp	w0, wzr
    8d8c:	54000360 	b.eq	8df8 <kprintf+0x1728>
/home/optee/RPi3/optee_os/lib/libutils/ext/snprintk.c:474 (discriminator 45)
    8d90:	b9401a60 	ldr	w0, [x19,#24]
    8d94:	f9400261 	ldr	x1, [x19]
    8d98:	6b1f001f 	cmp	w0, wzr
    8d9c:	540000eb 	b.lt	8db8 <kprintf+0x16e8>
/home/optee/RPi3/optee_os/lib/libutils/ext/snprintk.c:474 (discriminator 47)
    8da0:	aa0103e0 	mov	x0, x1
    8da4:	91003c00 	add	x0, x0, #0xf
    8da8:	927df000 	and	x0, x0, #0xfffffffffffffff8
    8dac:	f9000260 	str	x0, [x19]
    8db0:	aa0103e0 	mov	x0, x1
    8db4:	1400000f 	b	8df0 <kprintf+0x1720>
/home/optee/RPi3/optee_os/lib/libutils/ext/snprintk.c:474 (discriminator 48)
    8db8:	11002002 	add	w2, w0, #0x8
    8dbc:	b9001a62 	str	w2, [x19,#24]
    8dc0:	b9401a62 	ldr	w2, [x19,#24]
    8dc4:	6b1f005f 	cmp	w2, wzr
    8dc8:	540000ed 	b.le	8de4 <kprintf+0x1714>
/home/optee/RPi3/optee_os/lib/libutils/ext/snprintk.c:474 (discriminator 50)
    8dcc:	aa0103e0 	mov	x0, x1
    8dd0:	91003c00 	add	x0, x0, #0xf
    8dd4:	927df000 	and	x0, x0, #0xfffffffffffffff8
    8dd8:	f9000260 	str	x0, [x19]
    8ddc:	aa0103e0 	mov	x0, x1
    8de0:	14000004 	b	8df0 <kprintf+0x1720>
/home/optee/RPi3/optee_os/lib/libutils/ext/snprintk.c:474 (discriminator 51)
    8de4:	f9400661 	ldr	x1, [x19,#8]
    8de8:	93407c00 	sxtw	x0, w0
    8dec:	8b000020 	add	x0, x1, x0
/home/optee/RPi3/optee_os/lib/libutils/ext/snprintk.c:474 (discriminator 54)
    8df0:	f9400000 	ldr	x0, [x0]
    8df4:	1400003b 	b	8ee0 <kprintf+0x1810>
/home/optee/RPi3/optee_os/lib/libutils/ext/snprintk.c:474 (discriminator 46)
    8df8:	b940b7a0 	ldr	w0, [x29,#180]
    8dfc:	121a0000 	and	w0, w0, #0x40
    8e00:	6b1f001f 	cmp	w0, wzr
    8e04:	540003a0 	b.eq	8e78 <kprintf+0x17a8>
/home/optee/RPi3/optee_os/lib/libutils/ext/snprintk.c:474 (discriminator 56)
    8e08:	b9401a60 	ldr	w0, [x19,#24]
    8e0c:	f9400261 	ldr	x1, [x19]
    8e10:	6b1f001f 	cmp	w0, wzr
    8e14:	540000eb 	b.lt	8e30 <kprintf+0x1760>
/home/optee/RPi3/optee_os/lib/libutils/ext/snprintk.c:474 (discriminator 58)
    8e18:	aa0103e0 	mov	x0, x1
    8e1c:	91002c00 	add	x0, x0, #0xb
    8e20:	927df000 	and	x0, x0, #0xfffffffffffffff8
    8e24:	f9000260 	str	x0, [x19]
    8e28:	aa0103e0 	mov	x0, x1
    8e2c:	1400000f 	b	8e68 <kprintf+0x1798>
/home/optee/RPi3/optee_os/lib/libutils/ext/snprintk.c:474 (discriminator 59)
    8e30:	11002002 	add	w2, w0, #0x8
    8e34:	b9001a62 	str	w2, [x19,#24]
    8e38:	b9401a62 	ldr	w2, [x19,#24]
    8e3c:	6b1f005f 	cmp	w2, wzr
    8e40:	540000ed 	b.le	8e5c <kprintf+0x178c>
/home/optee/RPi3/optee_os/lib/libutils/ext/snprintk.c:474 (discriminator 61)
    8e44:	aa0103e0 	mov	x0, x1
    8e48:	91002c00 	add	x0, x0, #0xb
    8e4c:	927df000 	and	x0, x0, #0xfffffffffffffff8
    8e50:	f9000260 	str	x0, [x19]
    8e54:	aa0103e0 	mov	x0, x1
    8e58:	14000004 	b	8e68 <kprintf+0x1798>
/home/optee/RPi3/optee_os/lib/libutils/ext/snprintk.c:474 (discriminator 62)
    8e5c:	f9400661 	ldr	x1, [x19,#8]
    8e60:	93407c00 	sxtw	x0, w0
    8e64:	8b000020 	add	x0, x1, x0
/home/optee/RPi3/optee_os/lib/libutils/ext/snprintk.c:474 (discriminator 65)
    8e68:	b9400000 	ldr	w0, [x0]
    8e6c:	53003c00 	uxth	w0, w0
    8e70:	53003c00 	uxth	w0, w0
    8e74:	1400001b 	b	8ee0 <kprintf+0x1810>
/home/optee/RPi3/optee_os/lib/libutils/ext/snprintk.c:474 (discriminator 57)
    8e78:	b9401a60 	ldr	w0, [x19,#24]
    8e7c:	f9400261 	ldr	x1, [x19]
    8e80:	6b1f001f 	cmp	w0, wzr
    8e84:	540000eb 	b.lt	8ea0 <kprintf+0x17d0>
/home/optee/RPi3/optee_os/lib/libutils/ext/snprintk.c:474 (discriminator 67)
    8e88:	aa0103e0 	mov	x0, x1
    8e8c:	91002c00 	add	x0, x0, #0xb
    8e90:	927df000 	and	x0, x0, #0xfffffffffffffff8
    8e94:	f9000260 	str	x0, [x19]
    8e98:	aa0103e0 	mov	x0, x1
    8e9c:	1400000f 	b	8ed8 <kprintf+0x1808>
/home/optee/RPi3/optee_os/lib/libutils/ext/snprintk.c:474 (discriminator 68)
    8ea0:	11002002 	add	w2, w0, #0x8
    8ea4:	b9001a62 	str	w2, [x19,#24]
    8ea8:	b9401a62 	ldr	w2, [x19,#24]
    8eac:	6b1f005f 	cmp	w2, wzr
    8eb0:	540000ed 	b.le	8ecc <kprintf+0x17fc>
/home/optee/RPi3/optee_os/lib/libutils/ext/snprintk.c:474 (discriminator 70)
    8eb4:	aa0103e0 	mov	x0, x1
    8eb8:	91002c00 	add	x0, x0, #0xb
    8ebc:	927df000 	and	x0, x0, #0xfffffffffffffff8
    8ec0:	f9000260 	str	x0, [x19]
    8ec4:	aa0103e0 	mov	x0, x1
    8ec8:	14000004 	b	8ed8 <kprintf+0x1808>
/home/optee/RPi3/optee_os/lib/libutils/ext/snprintk.c:474 (discriminator 71)
    8ecc:	f9400661 	ldr	x1, [x19,#8]
    8ed0:	93407c00 	sxtw	x0, w0
    8ed4:	8b000020 	add	x0, x1, x0
/home/optee/RPi3/optee_os/lib/libutils/ext/snprintk.c:474 (discriminator 74)
    8ed8:	b9400000 	ldr	w0, [x0]
    8edc:	2a0003e0 	mov	w0, w0
/home/optee/RPi3/optee_os/lib/libutils/ext/snprintk.c:474 (discriminator 80)
    8ee0:	f9004fa0 	str	x0, [x29,#152]
/home/optee/RPi3/optee_os/lib/libutils/ext/snprintk.c:475 (discriminator 80)
    8ee4:	52800040 	mov	w0, #0x2                   	// #2
    8ee8:	b90097a0 	str	w0, [x29,#148]
/home/optee/RPi3/optee_os/lib/libutils/ext/snprintk.c:477 (discriminator 80)
    8eec:	b940b7a0 	ldr	w0, [x29,#180]
    8ef0:	12000000 	and	w0, w0, #0x1
    8ef4:	6b1f001f 	cmp	w0, wzr
    8ef8:	540000e0 	b.eq	8f14 <kprintf+0x1844>
/home/optee/RPi3/optee_os/lib/libutils/ext/snprintk.c:477 (discriminator 1)
    8efc:	f9404fa0 	ldr	x0, [x29,#152]
    8f00:	eb1f001f 	cmp	x0, xzr
    8f04:	54000080 	b.eq	8f14 <kprintf+0x1844>
/home/optee/RPi3/optee_os/lib/libutils/ext/snprintk.c:478
    8f08:	b940b7a0 	ldr	w0, [x29,#180]
    8f0c:	321f0000 	orr	w0, w0, #0x2
    8f10:	b900b7a0 	str	w0, [x29,#180]
/home/optee/RPi3/optee_os/lib/libutils/ext/snprintk.c:481
    8f14:	39029fbf 	strb	wzr, [x29,#167]
/home/optee/RPi3/optee_os/lib/libutils/ext/snprintk.c:487
    8f18:	b940aba0 	ldr	w0, [x29,#168]
    8f1c:	b90093a0 	str	w0, [x29,#144]
    8f20:	b94093a0 	ldr	w0, [x29,#144]
    8f24:	6b1f001f 	cmp	w0, wzr
    8f28:	5400008b 	b.lt	8f38 <kprintf+0x1868>
/home/optee/RPi3/optee_os/lib/libutils/ext/snprintk.c:488
    8f2c:	b940b7a0 	ldr	w0, [x29,#180]
    8f30:	12157800 	and	w0, w0, #0xfffffbff
    8f34:	b900b7a0 	str	w0, [x29,#180]
/home/optee/RPi3/optee_os/lib/libutils/ext/snprintk.c:495
    8f38:	910123a0 	add	x0, x29, #0x48
    8f3c:	91009000 	add	x0, x0, #0x24
    8f40:	f9005fa0 	str	x0, [x29,#184]
/home/optee/RPi3/optee_os/lib/libutils/ext/snprintk.c:496
    8f44:	f9404fa0 	ldr	x0, [x29,#152]
    8f48:	eb1f001f 	cmp	x0, xzr
    8f4c:	54000081 	b.ne	8f5c <kprintf+0x188c>
/home/optee/RPi3/optee_os/lib/libutils/ext/snprintk.c:496 (discriminator 1)
    8f50:	b940aba0 	ldr	w0, [x29,#168]
    8f54:	6b1f001f 	cmp	w0, wzr
    8f58:	54000e00 	b.eq	9118 <kprintf+0x1a48>
/home/optee/RPi3/optee_os/lib/libutils/ext/snprintk.c:502
    8f5c:	b94097a0 	ldr	w0, [x29,#148]
    8f60:	7100041f 	cmp	w0, #0x1
    8f64:	540008c0 	b.eq	907c <kprintf+0x19ac>
    8f68:	7100041f 	cmp	w0, #0x1
    8f6c:	54000083 	b.cc	8f7c <kprintf+0x18ac>
    8f70:	7100081f 	cmp	w0, #0x2
    8f74:	540009e0 	b.eq	90b0 <kprintf+0x19e0>
    8f78:	1400005f 	b	90f4 <kprintf+0x1a24>
/home/optee/RPi3/optee_os/lib/libutils/ext/snprintk.c:505 (discriminator 1)
    8f7c:	f9405fa0 	ldr	x0, [x29,#184]
    8f80:	d1000400 	sub	x0, x0, #0x1
    8f84:	f9005fa0 	str	x0, [x29,#184]
    8f88:	f9404fa0 	ldr	x0, [x29,#152]
    8f8c:	53001c00 	uxtb	w0, w0
    8f90:	12000800 	and	w0, w0, #0x7
    8f94:	53001c00 	uxtb	w0, w0
    8f98:	1100c000 	add	w0, w0, #0x30
    8f9c:	53001c01 	uxtb	w1, w0
    8fa0:	f9405fa0 	ldr	x0, [x29,#184]
    8fa4:	39000001 	strb	w1, [x0]
/home/optee/RPi3/optee_os/lib/libutils/ext/snprintk.c:506 (discriminator 1)
    8fa8:	f9404fa0 	ldr	x0, [x29,#152]
    8fac:	d343fc00 	lsr	x0, x0, #3
    8fb0:	f9004fa0 	str	x0, [x29,#152]
/home/optee/RPi3/optee_os/lib/libutils/ext/snprintk.c:507 (discriminator 1)
    8fb4:	f9404fa0 	ldr	x0, [x29,#152]
    8fb8:	eb1f001f 	cmp	x0, xzr
    8fbc:	54fffe01 	b.ne	8f7c <kprintf+0x18ac>
/home/optee/RPi3/optee_os/lib/libutils/ext/snprintk.c:509
    8fc0:	b940b7a0 	ldr	w0, [x29,#180]
    8fc4:	12000000 	and	w0, w0, #0x1
    8fc8:	6b1f001f 	cmp	w0, wzr
    8fcc:	54000a40 	b.eq	9114 <kprintf+0x1a44>
/home/optee/RPi3/optee_os/lib/libutils/ext/snprintk.c:509 (discriminator 1)
    8fd0:	f9405fa0 	ldr	x0, [x29,#184]
    8fd4:	39400000 	ldrb	w0, [x0]
    8fd8:	7100c01f 	cmp	w0, #0x30
    8fdc:	540009c0 	b.eq	9114 <kprintf+0x1a44>
/home/optee/RPi3/optee_os/lib/libutils/ext/snprintk.c:510
    8fe0:	f9405fa0 	ldr	x0, [x29,#184]
    8fe4:	d1000400 	sub	x0, x0, #0x1
    8fe8:	f9005fa0 	str	x0, [x29,#184]
    8fec:	f9405fa0 	ldr	x0, [x29,#184]
    8ff0:	52800601 	mov	w1, #0x30                  	// #48
    8ff4:	39000001 	strb	w1, [x0]
/home/optee/RPi3/optee_os/lib/libutils/ext/snprintk.c:511
    8ff8:	14000047 	b	9114 <kprintf+0x1a44>
/home/optee/RPi3/optee_os/lib/libutils/ext/snprintk.c:516
    8ffc:	f9405fa0 	ldr	x0, [x29,#184]
    9000:	d1000400 	sub	x0, x0, #0x1
    9004:	f9005fa0 	str	x0, [x29,#184]
    9008:	f9404fa2 	ldr	x2, [x29,#152]
    900c:	b202e7e0 	mov	x0, #0xcccccccccccccccc    	// #-3689348814741910324
    9010:	f29999a0 	movk	x0, #0xcccd
    9014:	d29999a0 	mov	x0, #0xcccd                	// #52429
    9018:	f2b99980 	movk	x0, #0xcccc, lsl #16
    901c:	f2d99980 	movk	x0, #0xcccc, lsl #32
    9020:	f2f99980 	movk	x0, #0xcccc, lsl #48
    9024:	9bc07c40 	umulh	x0, x2, x0
    9028:	d343fc01 	lsr	x1, x0, #3
    902c:	aa0103e0 	mov	x0, x1
    9030:	d37ef400 	lsl	x0, x0, #2
    9034:	8b010000 	add	x0, x0, x1
    9038:	d37ff800 	lsl	x0, x0, #1
    903c:	cb000041 	sub	x1, x2, x0
    9040:	53001c20 	uxtb	w0, w1
    9044:	1100c000 	add	w0, w0, #0x30
    9048:	53001c01 	uxtb	w1, w0
    904c:	f9405fa0 	ldr	x0, [x29,#184]
    9050:	39000001 	strb	w1, [x0]
/home/optee/RPi3/optee_os/lib/libutils/ext/snprintk.c:517
    9054:	f9404fa1 	ldr	x1, [x29,#152]
    9058:	b202e7e0 	mov	x0, #0xcccccccccccccccc    	// #-3689348814741910324
    905c:	f29999a0 	movk	x0, #0xcccd
    9060:	d29999a0 	mov	x0, #0xcccd                	// #52429
    9064:	f2b99980 	movk	x0, #0xcccc, lsl #16
    9068:	f2d99980 	movk	x0, #0xcccc, lsl #32
    906c:	f2f99980 	movk	x0, #0xcccc, lsl #48
    9070:	9bc07c20 	umulh	x0, x1, x0
    9074:	d343fc00 	lsr	x0, x0, #3
    9078:	f9004fa0 	str	x0, [x29,#152]
/home/optee/RPi3/optee_os/lib/libutils/ext/snprintk.c:515
    907c:	f9404fa0 	ldr	x0, [x29,#152]
    9080:	f100241f 	cmp	x0, #0x9
    9084:	54fffbc8 	b.hi	8ffc <kprintf+0x192c>
/home/optee/RPi3/optee_os/lib/libutils/ext/snprintk.c:519
    9088:	f9405fa0 	ldr	x0, [x29,#184]
    908c:	d1000400 	sub	x0, x0, #0x1
    9090:	f9005fa0 	str	x0, [x29,#184]
    9094:	f9404fa0 	ldr	x0, [x29,#152]
    9098:	53001c00 	uxtb	w0, w0
    909c:	1100c000 	add	w0, w0, #0x30
    90a0:	53001c01 	uxtb	w1, w0
    90a4:	f9405fa0 	ldr	x0, [x29,#184]
    90a8:	39000001 	strb	w1, [x0]
/home/optee/RPi3/optee_os/lib/libutils/ext/snprintk.c:520
    90ac:	1400001b 	b	9118 <kprintf+0x1a48>
/home/optee/RPi3/optee_os/lib/libutils/ext/snprintk.c:524 (discriminator 1)
    90b0:	f9405fa0 	ldr	x0, [x29,#184]
    90b4:	d1000400 	sub	x0, x0, #0x1
    90b8:	f9005fa0 	str	x0, [x29,#184]
    90bc:	f9404fa0 	ldr	x0, [x29,#152]
    90c0:	92400c00 	and	x0, x0, #0xf
    90c4:	f94043a1 	ldr	x1, [x29,#128]
    90c8:	8b000020 	add	x0, x1, x0
    90cc:	39400001 	ldrb	w1, [x0]
    90d0:	f9405fa0 	ldr	x0, [x29,#184]
    90d4:	39000001 	strb	w1, [x0]
/home/optee/RPi3/optee_os/lib/libutils/ext/snprintk.c:525 (discriminator 1)
    90d8:	f9404fa0 	ldr	x0, [x29,#152]
    90dc:	d344fc00 	lsr	x0, x0, #4
    90e0:	f9004fa0 	str	x0, [x29,#152]
/home/optee/RPi3/optee_os/lib/libutils/ext/snprintk.c:526 (discriminator 1)
    90e4:	f9404fa0 	ldr	x0, [x29,#152]
    90e8:	eb1f001f 	cmp	x0, xzr
    90ec:	54fffe21 	b.ne	90b0 <kprintf+0x19e0>
/home/optee/RPi3/optee_os/lib/libutils/ext/snprintk.c:527
    90f0:	1400000a 	b	9118 <kprintf+0x1a48>
/home/optee/RPi3/optee_os/lib/libutils/ext/snprintk.c:531
    90f4:	90000040 	adrp	x0, 11000 <__func__.3864+0x18>
    90f8:	91202000 	add	x0, x0, #0x808
    90fc:	f9005fa0 	str	x0, [x29,#184]
/home/optee/RPi3/optee_os/lib/libutils/ext/snprintk.c:532
    9100:	f9405fa0 	ldr	x0, [x29,#184]
    9104:	97fff881 	bl	7308 <strlen>
    9108:	b9008ba0 	str	w0, [x29,#136]
/home/optee/RPi3/optee_os/lib/libutils/ext/snprintk.c:533
    910c:	d503201f 	nop
/home/optee/RPi3/optee_os/lib/libutils/ext/snprintk.c:538
    9110:	14000016 	b	9168 <kprintf+0x1a98>
/home/optee/RPi3/optee_os/lib/libutils/ext/snprintk.c:511
    9114:	d503201f 	nop
/home/optee/RPi3/optee_os/lib/libutils/ext/snprintk.c:536
    9118:	910123a0 	add	x0, x29, #0x48
    911c:	91009000 	add	x0, x0, #0x24
    9120:	aa0003e1 	mov	x1, x0
    9124:	f9405fa0 	ldr	x0, [x29,#184]
    9128:	cb000020 	sub	x0, x1, x0
    912c:	b9008ba0 	str	w0, [x29,#136]
/home/optee/RPi3/optee_os/lib/libutils/ext/snprintk.c:538
    9130:	1400000e 	b	9168 <kprintf+0x1a98>
/home/optee/RPi3/optee_os/lib/libutils/ext/snprintk.c:540
    9134:	b940c7a0 	ldr	w0, [x29,#196]
    9138:	6b1f001f 	cmp	w0, wzr
    913c:	54002060 	b.eq	9548 <kprintf+0x1e78>
/home/optee/RPi3/optee_os/lib/libutils/ext/snprintk.c:543
    9140:	910123a0 	add	x0, x29, #0x48
    9144:	f9005fa0 	str	x0, [x29,#184]
/home/optee/RPi3/optee_os/lib/libutils/ext/snprintk.c:544
    9148:	b940c7a0 	ldr	w0, [x29,#196]
    914c:	53001c01 	uxtb	w1, w0
    9150:	f9405fa0 	ldr	x0, [x29,#184]
    9154:	39000001 	strb	w1, [x0]
/home/optee/RPi3/optee_os/lib/libutils/ext/snprintk.c:545
    9158:	52800020 	mov	w0, #0x1                   	// #1
    915c:	b9008ba0 	str	w0, [x29,#136]
/home/optee/RPi3/optee_os/lib/libutils/ext/snprintk.c:546
    9160:	39029fbf 	strb	wzr, [x29,#167]
/home/optee/RPi3/optee_os/lib/libutils/ext/snprintk.c:547
    9164:	d503201f 	nop
/home/optee/RPi3/optee_os/lib/libutils/ext/snprintk.c:564
    9168:	b94093a0 	ldr	w0, [x29,#144]
    916c:	b9408ba2 	ldr	w2, [x29,#136]
    9170:	b9408ba1 	ldr	w1, [x29,#136]
    9174:	6b00005f 	cmp	w2, w0
    9178:	1a80a020 	csel	w0, w1, w0, ge
    917c:	b9008fa0 	str	w0, [x29,#140]
/home/optee/RPi3/optee_os/lib/libutils/ext/snprintk.c:565
    9180:	39429fa0 	ldrb	w0, [x29,#167]
    9184:	6b1f001f 	cmp	w0, wzr
    9188:	540000a0 	b.eq	919c <kprintf+0x1acc>
/home/optee/RPi3/optee_os/lib/libutils/ext/snprintk.c:566
    918c:	b9408fa0 	ldr	w0, [x29,#140]
    9190:	11000400 	add	w0, w0, #0x1
    9194:	b9008fa0 	str	w0, [x29,#140]
    9198:	14000008 	b	91b8 <kprintf+0x1ae8>
/home/optee/RPi3/optee_os/lib/libutils/ext/snprintk.c:567
    919c:	b940b7a0 	ldr	w0, [x29,#180]
    91a0:	121f0000 	and	w0, w0, #0x2
    91a4:	6b1f001f 	cmp	w0, wzr
    91a8:	54000080 	b.eq	91b8 <kprintf+0x1ae8>
/home/optee/RPi3/optee_os/lib/libutils/ext/snprintk.c:568
    91ac:	b9408fa0 	ldr	w0, [x29,#140]
    91b0:	11000800 	add	w0, w0, #0x2
    91b4:	b9008fa0 	str	w0, [x29,#140]
/home/optee/RPi3/optee_os/lib/libutils/ext/snprintk.c:571
    91b8:	b940afa0 	ldr	w0, [x29,#172]
    91bc:	b9408fa2 	ldr	w2, [x29,#140]
    91c0:	b9408fa1 	ldr	w1, [x29,#140]
    91c4:	6b00005f 	cmp	w2, w0
    91c8:	1a80a020 	csel	w0, w1, w0, ge
    91cc:	b940b3a1 	ldr	w1, [x29,#176]
    91d0:	0b000020 	add	w0, w1, w0
    91d4:	b900b3a0 	str	w0, [x29,#176]
/home/optee/RPi3/optee_os/lib/libutils/ext/snprintk.c:574
    91d8:	b940b7a1 	ldr	w1, [x29,#180]
    91dc:	52808080 	mov	w0, #0x404                 	// #1028
    91e0:	0a000020 	and	w0, w1, w0
    91e4:	6b1f001f 	cmp	w0, wzr
    91e8:	540003a1 	b.ne	925c <kprintf+0x1b8c>
/home/optee/RPi3/optee_os/lib/libutils/ext/snprintk.c:575
    91ec:	b940afa1 	ldr	w1, [x29,#172]
    91f0:	b9408fa0 	ldr	w0, [x29,#140]
    91f4:	4b000020 	sub	w0, w1, w0
    91f8:	b900c3a0 	str	w0, [x29,#192]
/home/optee/RPi3/optee_os/lib/libutils/ext/snprintk.c:576
    91fc:	14000013 	b	9248 <kprintf+0x1b78>
/home/optee/RPi3/optee_os/lib/libutils/ext/snprintk.c:577
    9200:	b94037a0 	ldr	w0, [x29,#52]
    9204:	7100201f 	cmp	w0, #0x8
    9208:	54000201 	b.ne	9248 <kprintf+0x1b78>
/home/optee/RPi3/optee_os/lib/libutils/ext/snprintk.c:577 (discriminator 1)
    920c:	f94013a0 	ldr	x0, [x29,#32]
    9210:	eb1f001f 	cmp	x0, xzr
    9214:	540001a0 	b.eq	9248 <kprintf+0x1b78>
/home/optee/RPi3/optee_os/lib/libutils/ext/snprintk.c:577 (discriminator 2)
    9218:	f94017a0 	ldr	x0, [x29,#40]
    921c:	eb1f001f 	cmp	x0, xzr
    9220:	540000a0 	b.eq	9234 <kprintf+0x1b64>
/home/optee/RPi3/optee_os/lib/libutils/ext/snprintk.c:577 (discriminator 4)
    9224:	f94013a1 	ldr	x1, [x29,#32]
    9228:	f9403fa0 	ldr	x0, [x29,#120]
    922c:	eb00003f 	cmp	x1, x0
    9230:	540000c2 	b.cs	9248 <kprintf+0x1b78>
/home/optee/RPi3/optee_os/lib/libutils/ext/snprintk.c:577 (discriminator 5)
    9234:	f94013a0 	ldr	x0, [x29,#32]
    9238:	91000401 	add	x1, x0, #0x1
    923c:	f90013a1 	str	x1, [x29,#32]
    9240:	52800401 	mov	w1, #0x20                  	// #32
    9244:	39000001 	strb	w1, [x0]
/home/optee/RPi3/optee_os/lib/libutils/ext/snprintk.c:576
    9248:	b940c3a0 	ldr	w0, [x29,#192]
    924c:	51000401 	sub	w1, w0, #0x1
    9250:	b900c3a1 	str	w1, [x29,#192]
    9254:	6b1f001f 	cmp	w0, wzr
    9258:	54fffd4c 	b.gt	9200 <kprintf+0x1b30>
/home/optee/RPi3/optee_os/lib/libutils/ext/snprintk.c:581
    925c:	39429fa0 	ldrb	w0, [x29,#167]
    9260:	6b1f001f 	cmp	w0, wzr
    9264:	54000280 	b.eq	92b4 <kprintf+0x1be4>
/home/optee/RPi3/optee_os/lib/libutils/ext/snprintk.c:582
    9268:	b94037a0 	ldr	w0, [x29,#52]
    926c:	7100201f 	cmp	w0, #0x8
    9270:	54000741 	b.ne	9358 <kprintf+0x1c88>
/home/optee/RPi3/optee_os/lib/libutils/ext/snprintk.c:582 (discriminator 1)
    9274:	f94013a0 	ldr	x0, [x29,#32]
    9278:	eb1f001f 	cmp	x0, xzr
    927c:	540006e0 	b.eq	9358 <kprintf+0x1c88>
/home/optee/RPi3/optee_os/lib/libutils/ext/snprintk.c:582 (discriminator 2)
    9280:	f94017a0 	ldr	x0, [x29,#40]
    9284:	eb1f001f 	cmp	x0, xzr
    9288:	540000a0 	b.eq	929c <kprintf+0x1bcc>
/home/optee/RPi3/optee_os/lib/libutils/ext/snprintk.c:582 (discriminator 4)
    928c:	f94013a1 	ldr	x1, [x29,#32]
    9290:	f9403fa0 	ldr	x0, [x29,#120]
    9294:	eb00003f 	cmp	x1, x0
    9298:	54000602 	b.cs	9358 <kprintf+0x1c88>
/home/optee/RPi3/optee_os/lib/libutils/ext/snprintk.c:582 (discriminator 5)
    929c:	f94013a0 	ldr	x0, [x29,#32]
    92a0:	91000401 	add	x1, x0, #0x1
    92a4:	f90013a1 	str	x1, [x29,#32]
    92a8:	39429fa1 	ldrb	w1, [x29,#167]
    92ac:	39000001 	strb	w1, [x0]
    92b0:	1400002a 	b	9358 <kprintf+0x1c88>
/home/optee/RPi3/optee_os/lib/libutils/ext/snprintk.c:583
    92b4:	b940b7a0 	ldr	w0, [x29,#180]
    92b8:	121f0000 	and	w0, w0, #0x2
    92bc:	6b1f001f 	cmp	w0, wzr
    92c0:	540004c0 	b.eq	9358 <kprintf+0x1c88>
/home/optee/RPi3/optee_os/lib/libutils/ext/snprintk.c:584
    92c4:	b94037a0 	ldr	w0, [x29,#52]
    92c8:	7100201f 	cmp	w0, #0x8
    92cc:	54000201 	b.ne	930c <kprintf+0x1c3c>
/home/optee/RPi3/optee_os/lib/libutils/ext/snprintk.c:584 (discriminator 1)
    92d0:	f94013a0 	ldr	x0, [x29,#32]
    92d4:	eb1f001f 	cmp	x0, xzr
    92d8:	540001a0 	b.eq	930c <kprintf+0x1c3c>
/home/optee/RPi3/optee_os/lib/libutils/ext/snprintk.c:584 (discriminator 2)
    92dc:	f94017a0 	ldr	x0, [x29,#40]
    92e0:	eb1f001f 	cmp	x0, xzr
    92e4:	540000a0 	b.eq	92f8 <kprintf+0x1c28>
/home/optee/RPi3/optee_os/lib/libutils/ext/snprintk.c:584 (discriminator 4)
    92e8:	f94013a1 	ldr	x1, [x29,#32]
    92ec:	f9403fa0 	ldr	x0, [x29,#120]
    92f0:	eb00003f 	cmp	x1, x0
    92f4:	540000c2 	b.cs	930c <kprintf+0x1c3c>
/home/optee/RPi3/optee_os/lib/libutils/ext/snprintk.c:584 (discriminator 5)
    92f8:	f94013a0 	ldr	x0, [x29,#32]
    92fc:	91000401 	add	x1, x0, #0x1
    9300:	f90013a1 	str	x1, [x29,#32]
    9304:	52800601 	mov	w1, #0x30                  	// #48
    9308:	39000001 	strb	w1, [x0]
/home/optee/RPi3/optee_os/lib/libutils/ext/snprintk.c:585
    930c:	b94037a0 	ldr	w0, [x29,#52]
    9310:	7100201f 	cmp	w0, #0x8
    9314:	54000221 	b.ne	9358 <kprintf+0x1c88>
/home/optee/RPi3/optee_os/lib/libutils/ext/snprintk.c:585 (discriminator 1)
    9318:	f94013a0 	ldr	x0, [x29,#32]
    931c:	eb1f001f 	cmp	x0, xzr
    9320:	540001c0 	b.eq	9358 <kprintf+0x1c88>
/home/optee/RPi3/optee_os/lib/libutils/ext/snprintk.c:585 (discriminator 2)
    9324:	f94017a0 	ldr	x0, [x29,#40]
    9328:	eb1f001f 	cmp	x0, xzr
    932c:	540000a0 	b.eq	9340 <kprintf+0x1c70>
/home/optee/RPi3/optee_os/lib/libutils/ext/snprintk.c:585 (discriminator 4)
    9330:	f94013a1 	ldr	x1, [x29,#32]
    9334:	f9403fa0 	ldr	x0, [x29,#120]
    9338:	eb00003f 	cmp	x1, x0
    933c:	540000e2 	b.cs	9358 <kprintf+0x1c88>
/home/optee/RPi3/optee_os/lib/libutils/ext/snprintk.c:585 (discriminator 5)
    9340:	f94013a0 	ldr	x0, [x29,#32]
    9344:	91000401 	add	x1, x0, #0x1
    9348:	f90013a1 	str	x1, [x29,#32]
    934c:	b940c7a1 	ldr	w1, [x29,#196]
    9350:	53001c21 	uxtb	w1, w1
    9354:	39000001 	strb	w1, [x0]
/home/optee/RPi3/optee_os/lib/libutils/ext/snprintk.c:589
    9358:	b940b7a1 	ldr	w1, [x29,#180]
    935c:	52808080 	mov	w0, #0x404                 	// #1028
    9360:	0a000020 	and	w0, w1, w0
    9364:	7110001f 	cmp	w0, #0x400
    9368:	540003a1 	b.ne	93dc <kprintf+0x1d0c>
/home/optee/RPi3/optee_os/lib/libutils/ext/snprintk.c:590
    936c:	b940afa1 	ldr	w1, [x29,#172]
    9370:	b9408fa0 	ldr	w0, [x29,#140]
    9374:	4b000020 	sub	w0, w1, w0
    9378:	b900c3a0 	str	w0, [x29,#192]
/home/optee/RPi3/optee_os/lib/libutils/ext/snprintk.c:591
    937c:	14000013 	b	93c8 <kprintf+0x1cf8>
/home/optee/RPi3/optee_os/lib/libutils/ext/snprintk.c:592
    9380:	b94037a0 	ldr	w0, [x29,#52]
    9384:	7100201f 	cmp	w0, #0x8
    9388:	54000201 	b.ne	93c8 <kprintf+0x1cf8>
/home/optee/RPi3/optee_os/lib/libutils/ext/snprintk.c:592 (discriminator 1)
    938c:	f94013a0 	ldr	x0, [x29,#32]
    9390:	eb1f001f 	cmp	x0, xzr
    9394:	540001a0 	b.eq	93c8 <kprintf+0x1cf8>
/home/optee/RPi3/optee_os/lib/libutils/ext/snprintk.c:592 (discriminator 2)
    9398:	f94017a0 	ldr	x0, [x29,#40]
    939c:	eb1f001f 	cmp	x0, xzr
    93a0:	540000a0 	b.eq	93b4 <kprintf+0x1ce4>
/home/optee/RPi3/optee_os/lib/libutils/ext/snprintk.c:592 (discriminator 4)
    93a4:	f94013a1 	ldr	x1, [x29,#32]
    93a8:	f9403fa0 	ldr	x0, [x29,#120]
    93ac:	eb00003f 	cmp	x1, x0
    93b0:	540000c2 	b.cs	93c8 <kprintf+0x1cf8>
/home/optee/RPi3/optee_os/lib/libutils/ext/snprintk.c:592 (discriminator 5)
    93b4:	f94013a0 	ldr	x0, [x29,#32]
    93b8:	91000401 	add	x1, x0, #0x1
    93bc:	f90013a1 	str	x1, [x29,#32]
    93c0:	52800601 	mov	w1, #0x30                  	// #48
    93c4:	39000001 	strb	w1, [x0]
/home/optee/RPi3/optee_os/lib/libutils/ext/snprintk.c:591
    93c8:	b940c3a0 	ldr	w0, [x29,#192]
    93cc:	51000401 	sub	w1, w0, #0x1
    93d0:	b900c3a1 	str	w1, [x29,#192]
    93d4:	6b1f001f 	cmp	w0, wzr
    93d8:	54fffd4c 	b.gt	9380 <kprintf+0x1cb0>
/home/optee/RPi3/optee_os/lib/libutils/ext/snprintk.c:596
    93dc:	b94093a1 	ldr	w1, [x29,#144]
    93e0:	b9408ba0 	ldr	w0, [x29,#136]
    93e4:	4b000020 	sub	w0, w1, w0
    93e8:	b900c3a0 	str	w0, [x29,#192]
/home/optee/RPi3/optee_os/lib/libutils/ext/snprintk.c:597
    93ec:	14000013 	b	9438 <kprintf+0x1d68>
/home/optee/RPi3/optee_os/lib/libutils/ext/snprintk.c:598
    93f0:	b94037a0 	ldr	w0, [x29,#52]
    93f4:	7100201f 	cmp	w0, #0x8
    93f8:	54000201 	b.ne	9438 <kprintf+0x1d68>
/home/optee/RPi3/optee_os/lib/libutils/ext/snprintk.c:598 (discriminator 1)
    93fc:	f94013a0 	ldr	x0, [x29,#32]
    9400:	eb1f001f 	cmp	x0, xzr
    9404:	540001a0 	b.eq	9438 <kprintf+0x1d68>
/home/optee/RPi3/optee_os/lib/libutils/ext/snprintk.c:598 (discriminator 2)
    9408:	f94017a0 	ldr	x0, [x29,#40]
    940c:	eb1f001f 	cmp	x0, xzr
    9410:	540000a0 	b.eq	9424 <kprintf+0x1d54>
/home/optee/RPi3/optee_os/lib/libutils/ext/snprintk.c:598 (discriminator 4)
    9414:	f94013a1 	ldr	x1, [x29,#32]
    9418:	f9403fa0 	ldr	x0, [x29,#120]
    941c:	eb00003f 	cmp	x1, x0
    9420:	540000c2 	b.cs	9438 <kprintf+0x1d68>
/home/optee/RPi3/optee_os/lib/libutils/ext/snprintk.c:598 (discriminator 5)
    9424:	f94013a0 	ldr	x0, [x29,#32]
    9428:	91000401 	add	x1, x0, #0x1
    942c:	f90013a1 	str	x1, [x29,#32]
    9430:	52800601 	mov	w1, #0x30                  	// #48
    9434:	39000001 	strb	w1, [x0]
/home/optee/RPi3/optee_os/lib/libutils/ext/snprintk.c:597
    9438:	b940c3a0 	ldr	w0, [x29,#192]
    943c:	51000401 	sub	w1, w0, #0x1
    9440:	b900c3a1 	str	w1, [x29,#192]
    9444:	6b1f001f 	cmp	w0, wzr
    9448:	54fffd4c 	b.gt	93f0 <kprintf+0x1d20>
/home/optee/RPi3/optee_os/lib/libutils/ext/snprintk.c:601
    944c:	14000017 	b	94a8 <kprintf+0x1dd8>
/home/optee/RPi3/optee_os/lib/libutils/ext/snprintk.c:602
    9450:	b94037a0 	ldr	w0, [x29,#52]
    9454:	7100201f 	cmp	w0, #0x8
    9458:	54000221 	b.ne	949c <kprintf+0x1dcc>
/home/optee/RPi3/optee_os/lib/libutils/ext/snprintk.c:602 (discriminator 1)
    945c:	f94013a0 	ldr	x0, [x29,#32]
    9460:	eb1f001f 	cmp	x0, xzr
    9464:	540001c0 	b.eq	949c <kprintf+0x1dcc>
/home/optee/RPi3/optee_os/lib/libutils/ext/snprintk.c:602 (discriminator 2)
    9468:	f94017a0 	ldr	x0, [x29,#40]
    946c:	eb1f001f 	cmp	x0, xzr
    9470:	540000a0 	b.eq	9484 <kprintf+0x1db4>
/home/optee/RPi3/optee_os/lib/libutils/ext/snprintk.c:602 (discriminator 4)
    9474:	f94013a1 	ldr	x1, [x29,#32]
    9478:	f9403fa0 	ldr	x0, [x29,#120]
    947c:	eb00003f 	cmp	x1, x0
    9480:	540000e2 	b.cs	949c <kprintf+0x1dcc>
/home/optee/RPi3/optee_os/lib/libutils/ext/snprintk.c:602 (discriminator 5)
    9484:	f94013a0 	ldr	x0, [x29,#32]
    9488:	91000401 	add	x1, x0, #0x1
    948c:	f90013a1 	str	x1, [x29,#32]
    9490:	f9405fa1 	ldr	x1, [x29,#184]
    9494:	39400021 	ldrb	w1, [x1]
    9498:	39000001 	strb	w1, [x0]
/home/optee/RPi3/optee_os/lib/libutils/ext/snprintk.c:601
    949c:	f9405fa0 	ldr	x0, [x29,#184]
    94a0:	91000400 	add	x0, x0, #0x1
    94a4:	f9005fa0 	str	x0, [x29,#184]
/home/optee/RPi3/optee_os/lib/libutils/ext/snprintk.c:601 (discriminator 1)
    94a8:	b9408ba0 	ldr	w0, [x29,#136]
    94ac:	51000401 	sub	w1, w0, #0x1
    94b0:	b9008ba1 	str	w1, [x29,#136]
    94b4:	6b1f001f 	cmp	w0, wzr
    94b8:	54fffcc1 	b.ne	9450 <kprintf+0x1d80>
/home/optee/RPi3/optee_os/lib/libutils/ext/snprintk.c:604
    94bc:	b940b7a0 	ldr	w0, [x29,#180]
    94c0:	121e0000 	and	w0, w0, #0x4
    94c4:	6b1f001f 	cmp	w0, wzr
    94c8:	54ff1380 	b.eq	7738 <kprintf+0x68>
/home/optee/RPi3/optee_os/lib/libutils/ext/snprintk.c:605
    94cc:	b940afa1 	ldr	w1, [x29,#172]
    94d0:	b9408fa0 	ldr	w0, [x29,#140]
    94d4:	4b000020 	sub	w0, w1, w0
    94d8:	b900c3a0 	str	w0, [x29,#192]
/home/optee/RPi3/optee_os/lib/libutils/ext/snprintk.c:606
    94dc:	14000013 	b	9528 <kprintf+0x1e58>
/home/optee/RPi3/optee_os/lib/libutils/ext/snprintk.c:607
    94e0:	b94037a0 	ldr	w0, [x29,#52]
    94e4:	7100201f 	cmp	w0, #0x8
    94e8:	54000201 	b.ne	9528 <kprintf+0x1e58>
/home/optee/RPi3/optee_os/lib/libutils/ext/snprintk.c:607 (discriminator 1)
    94ec:	f94013a0 	ldr	x0, [x29,#32]
    94f0:	eb1f001f 	cmp	x0, xzr
    94f4:	540001a0 	b.eq	9528 <kprintf+0x1e58>
/home/optee/RPi3/optee_os/lib/libutils/ext/snprintk.c:607 (discriminator 2)
    94f8:	f94017a0 	ldr	x0, [x29,#40]
    94fc:	eb1f001f 	cmp	x0, xzr
    9500:	540000a0 	b.eq	9514 <kprintf+0x1e44>
/home/optee/RPi3/optee_os/lib/libutils/ext/snprintk.c:607 (discriminator 4)
    9504:	f94013a1 	ldr	x1, [x29,#32]
    9508:	f9403fa0 	ldr	x0, [x29,#120]
    950c:	eb00003f 	cmp	x1, x0
    9510:	540000c2 	b.cs	9528 <kprintf+0x1e58>
/home/optee/RPi3/optee_os/lib/libutils/ext/snprintk.c:607 (discriminator 5)
    9514:	f94013a0 	ldr	x0, [x29,#32]
    9518:	91000401 	add	x1, x0, #0x1
    951c:	f90013a1 	str	x1, [x29,#32]
    9520:	52800401 	mov	w1, #0x20                  	// #32
    9524:	39000001 	strb	w1, [x0]
/home/optee/RPi3/optee_os/lib/libutils/ext/snprintk.c:606
    9528:	b940c3a0 	ldr	w0, [x29,#192]
    952c:	51000401 	sub	w1, w0, #0x1
    9530:	b900c3a1 	str	w1, [x29,#192]
    9534:	6b1f001f 	cmp	w0, wzr
    9538:	54fffd4c 	b.gt	94e0 <kprintf+0x1e10>
/home/optee/RPi3/optee_os/lib/libutils/ext/snprintk.c:609
    953c:	17fff87f 	b	7738 <kprintf+0x68>
/home/optee/RPi3/optee_os/lib/libutils/ext/snprintk.c:279
    9540:	d503201f 	nop
    9544:	14000002 	b	954c <kprintf+0x1e7c>
/home/optee/RPi3/optee_os/lib/libutils/ext/snprintk.c:541
    9548:	d503201f 	nop
/home/optee/RPi3/optee_os/lib/libutils/ext/snprintk.c:612
    954c:	b94037a0 	ldr	w0, [x29,#52]
    9550:	7100201f 	cmp	w0, #0x8
    9554:	540000e1 	b.ne	9570 <kprintf+0x1ea0>
/home/optee/RPi3/optee_os/lib/libutils/ext/snprintk.c:612 (discriminator 1)
    9558:	f94017a0 	ldr	x0, [x29,#40]
    955c:	eb1f001f 	cmp	x0, xzr
    9560:	54000080 	b.eq	9570 <kprintf+0x1ea0>
/home/optee/RPi3/optee_os/lib/libutils/ext/snprintk.c:613
    9564:	f94017a0 	ldr	x0, [x29,#40]
    9568:	f94013a1 	ldr	x1, [x29,#32]
    956c:	f9000001 	str	x1, [x0]
/home/optee/RPi3/optee_os/lib/libutils/ext/snprintk.c:614
    9570:	b940b3a0 	ldr	w0, [x29,#176]
/home/optee/RPi3/optee_os/lib/libutils/ext/snprintk.c:615
    9574:	f9400bf3 	ldr	x19, [sp,#16]
    9578:	a8cd7bfd 	ldp	x29, x30, [sp],#208
    957c:	d65f03c0 	ret

0000000000009580 <strlcpy>:
strlcpy():
/home/optee/RPi3/optee_os/lib/libutils/ext/strlcpy.c:46
    9580:	a9bc53f3 	stp	x19, x20, [sp,#-64]!
    9584:	f9000bf5 	str	x21, [sp,#16]
    9588:	f9001fe0 	str	x0, [sp,#56]
    958c:	f9001be1 	str	x1, [sp,#48]
    9590:	f90017e2 	str	x2, [sp,#40]
/home/optee/RPi3/optee_os/lib/libutils/ext/strlcpy.c:47
    9594:	f9401ff5 	ldr	x21, [sp,#56]
/home/optee/RPi3/optee_os/lib/libutils/ext/strlcpy.c:48
    9598:	f9401bf4 	ldr	x20, [sp,#48]
/home/optee/RPi3/optee_os/lib/libutils/ext/strlcpy.c:49
    959c:	f94017f3 	ldr	x19, [sp,#40]
/home/optee/RPi3/optee_os/lib/libutils/ext/strlcpy.c:52
    95a0:	eb1f027f 	cmp	x19, xzr
    95a4:	54000240 	b.eq	95ec <strlcpy+0x6c>
/home/optee/RPi3/optee_os/lib/libutils/ext/strlcpy.c:52 (discriminator 1)
    95a8:	d1000673 	sub	x19, x19, #0x1
    95ac:	eb1f027f 	cmp	x19, xzr
    95b0:	540001e0 	b.eq	95ec <strlcpy+0x6c>
/home/optee/RPi3/optee_os/lib/libutils/ext/strlcpy.c:54
    95b4:	aa1503e0 	mov	x0, x21
    95b8:	91000415 	add	x21, x0, #0x1
    95bc:	aa1403e1 	mov	x1, x20
    95c0:	91000434 	add	x20, x1, #0x1
    95c4:	39400021 	ldrb	w1, [x1]
    95c8:	39000001 	strb	w1, [x0]
    95cc:	39400000 	ldrb	w0, [x0]
    95d0:	6b1f001f 	cmp	w0, wzr
    95d4:	540000a0 	b.eq	95e8 <strlcpy+0x68>
/home/optee/RPi3/optee_os/lib/libutils/ext/strlcpy.c:56
    95d8:	d1000673 	sub	x19, x19, #0x1
    95dc:	eb1f027f 	cmp	x19, xzr
    95e0:	54fffea1 	b.ne	95b4 <strlcpy+0x34>
    95e4:	14000002 	b	95ec <strlcpy+0x6c>
/home/optee/RPi3/optee_os/lib/libutils/ext/strlcpy.c:55
    95e8:	d503201f 	nop
/home/optee/RPi3/optee_os/lib/libutils/ext/strlcpy.c:60
    95ec:	eb1f027f 	cmp	x19, xzr
    95f0:	54000161 	b.ne	961c <strlcpy+0x9c>
/home/optee/RPi3/optee_os/lib/libutils/ext/strlcpy.c:61
    95f4:	f94017e0 	ldr	x0, [sp,#40]
    95f8:	eb1f001f 	cmp	x0, xzr
    95fc:	54000040 	b.eq	9604 <strlcpy+0x84>
/home/optee/RPi3/optee_os/lib/libutils/ext/strlcpy.c:62
    9600:	390002bf 	strb	wzr, [x21]
/home/optee/RPi3/optee_os/lib/libutils/ext/strlcpy.c:63
    9604:	d503201f 	nop
/home/optee/RPi3/optee_os/lib/libutils/ext/strlcpy.c:63 (discriminator 1)
    9608:	aa1403e0 	mov	x0, x20
    960c:	91000414 	add	x20, x0, #0x1
    9610:	39400000 	ldrb	w0, [x0]
    9614:	6b1f001f 	cmp	w0, wzr
    9618:	54ffff81 	b.ne	9608 <strlcpy+0x88>
/home/optee/RPi3/optee_os/lib/libutils/ext/strlcpy.c:67
    961c:	aa1403e1 	mov	x1, x20
    9620:	f9401be0 	ldr	x0, [sp,#48]
    9624:	cb000020 	sub	x0, x1, x0
    9628:	d1000400 	sub	x0, x0, #0x1
/home/optee/RPi3/optee_os/lib/libutils/ext/strlcpy.c:68
    962c:	f9400bf5 	ldr	x21, [sp,#16]
    9630:	a8c453f3 	ldp	x19, x20, [sp],#64
    9634:	d65f03c0 	ret

0000000000009638 <trace_set_level>:
trace_set_level():
/home/optee/RPi3/optee_os/lib/libutils/ext/trace.c:42
    9638:	d10043ff 	sub	sp, sp, #0x10
    963c:	b9000fe0 	str	w0, [sp,#12]
/home/optee/RPi3/optee_os/lib/libutils/ext/trace.c:43
    9640:	b9400fe0 	ldr	w0, [sp,#12]
    9644:	6b1f001f 	cmp	w0, wzr
    9648:	5400012d 	b.le	966c <trace_set_level+0x34>
/home/optee/RPi3/optee_os/lib/libutils/ext/trace.c:43 (discriminator 1)
    964c:	b9400fe0 	ldr	w0, [sp,#12]
    9650:	7100101f 	cmp	w0, #0x4
    9654:	540000cc 	b.gt	966c <trace_set_level+0x34>
/home/optee/RPi3/optee_os/lib/libutils/ext/trace.c:44
    9658:	b0000040 	adrp	x0, 12000 <PRIME_TABLE+0x5d0>
    965c:	f9453800 	ldr	x0, [x0,#2672]
    9660:	b9400fe1 	ldr	w1, [sp,#12]
    9664:	b9000001 	str	w1, [x0]
    9668:	14000005 	b	967c <trace_set_level+0x44>
/home/optee/RPi3/optee_os/lib/libutils/ext/trace.c:46
    966c:	b0000040 	adrp	x0, 12000 <PRIME_TABLE+0x5d0>
    9670:	f9453800 	ldr	x0, [x0,#2672]
    9674:	52800081 	mov	w1, #0x4                   	// #4
    9678:	b9000001 	str	w1, [x0]
/home/optee/RPi3/optee_os/lib/libutils/ext/trace.c:47
    967c:	d503201f 	nop
    9680:	910043ff 	add	sp, sp, #0x10
    9684:	d65f03c0 	ret

0000000000009688 <trace_get_level>:
trace_get_level():
/home/optee/RPi3/optee_os/lib/libutils/ext/trace.c:51
    9688:	b0000040 	adrp	x0, 12000 <PRIME_TABLE+0x5d0>
    968c:	f9453800 	ldr	x0, [x0,#2672]
    9690:	b9400000 	ldr	w0, [x0]
/home/optee/RPi3/optee_os/lib/libutils/ext/trace.c:52
    9694:	d65f03c0 	ret

0000000000009698 <trace_level_to_string>:
trace_level_to_string():
/home/optee/RPi3/optee_os/lib/libutils/ext/trace.c:55
    9698:	d10083ff 	sub	sp, sp, #0x20
    969c:	b9000fe0 	str	w0, [sp,#12]
    96a0:	39002fe1 	strb	w1, [sp,#11]
/home/optee/RPi3/optee_os/lib/libutils/ext/trace.c:59
    96a4:	b9001fff 	str	wzr, [sp,#28]
/home/optee/RPi3/optee_os/lib/libutils/ext/trace.c:61
    96a8:	39402fe0 	ldrb	w0, [sp,#11]
    96ac:	52000000 	eor	w0, w0, #0x1
    96b0:	53001c00 	uxtb	w0, w0
    96b4:	6b1f001f 	cmp	w0, wzr
    96b8:	54000080 	b.eq	96c8 <trace_level_to_string+0x30>
/home/optee/RPi3/optee_os/lib/libutils/ext/trace.c:62
    96bc:	90000040 	adrp	x0, 11000 <__func__.3864+0x18>
    96c0:	91264000 	add	x0, x0, #0x990
    96c4:	14000010 	b	9704 <trace_level_to_string+0x6c>
/home/optee/RPi3/optee_os/lib/libutils/ext/trace.c:64
    96c8:	b9400fe0 	ldr	w0, [sp,#12]
    96cc:	6b1f001f 	cmp	w0, wzr
    96d0:	540000cd 	b.le	96e8 <trace_level_to_string+0x50>
/home/optee/RPi3/optee_os/lib/libutils/ext/trace.c:64 (discriminator 1)
    96d4:	b9400fe0 	ldr	w0, [sp,#12]
    96d8:	7100101f 	cmp	w0, #0x4
    96dc:	5400006c 	b.gt	96e8 <trace_level_to_string+0x50>
/home/optee/RPi3/optee_os/lib/libutils/ext/trace.c:65
    96e0:	b9400fe0 	ldr	w0, [sp,#12]
    96e4:	b9001fe0 	str	w0, [sp,#28]
/home/optee/RPi3/optee_os/lib/libutils/ext/trace.c:67
    96e8:	b9801fe1 	ldrsw	x1, [sp,#28]
    96ec:	aa0103e0 	mov	x0, x1
    96f0:	d37df000 	lsl	x0, x0, #3
    96f4:	8b010000 	add	x0, x0, x1
    96f8:	90000041 	adrp	x1, 11000 <__func__.3864+0x18>
    96fc:	91272021 	add	x1, x1, #0x9c8
    9700:	8b010000 	add	x0, x0, x1
/home/optee/RPi3/optee_os/lib/libutils/ext/trace.c:68
    9704:	910083ff 	add	sp, sp, #0x20
    9708:	d65f03c0 	ret

000000000000970c <trace_printf>:
trace_printf():
/home/optee/RPi3/optee_os/lib/libutils/ext/trace.c:73
    970c:	d10843ff 	sub	sp, sp, #0x210
    9710:	a9bf7bfd 	stp	x29, x30, [sp,#-16]!
    9714:	910003fd 	mov	x29, sp
    9718:	f90027a0 	str	x0, [x29,#72]
    971c:	b90047a1 	str	w1, [x29,#68]
    9720:	b90043a2 	str	w2, [x29,#64]
    9724:	3900ffa3 	strb	w3, [x29,#63]
    9728:	f9001ba4 	str	x4, [x29,#48]
    972c:	f90107a5 	str	x5, [x29,#520]
    9730:	f9010ba6 	str	x6, [x29,#528]
    9734:	f9010fa7 	str	x7, [x29,#536]
    9738:	910603a0 	add	x0, x29, #0x180
    973c:	3d800000 	str	q0, [x0]
    9740:	910643a0 	add	x0, x29, #0x190
    9744:	3d800001 	str	q1, [x0]
    9748:	910683a0 	add	x0, x29, #0x1a0
    974c:	3d800002 	str	q2, [x0]
    9750:	9106c3a0 	add	x0, x29, #0x1b0
    9754:	3d800003 	str	q3, [x0]
    9758:	910703a0 	add	x0, x29, #0x1c0
    975c:	3d800004 	str	q4, [x0]
    9760:	910743a0 	add	x0, x29, #0x1d0
    9764:	3d800005 	str	q5, [x0]
    9768:	910783a0 	add	x0, x29, #0x1e0
    976c:	3d800006 	str	q6, [x0]
    9770:	9107c3a0 	add	x0, x29, #0x1f0
    9774:	3d800007 	str	q7, [x0]
/home/optee/RPi3/optee_os/lib/libutils/ext/trace.c:76
    9778:	f900bfbf 	str	xzr, [x29,#376]
/home/optee/RPi3/optee_os/lib/libutils/ext/trace.c:80
    977c:	3940ffa0 	ldrb	w0, [x29,#63]
    9780:	6b1f001f 	cmp	w0, wzr
    9784:	540000e0 	b.eq	97a0 <trace_printf+0x94>
/home/optee/RPi3/optee_os/lib/libutils/ext/trace.c:80 (discriminator 1)
    9788:	b0000040 	adrp	x0, 12000 <PRIME_TABLE+0x5d0>
    978c:	f9453800 	ldr	x0, [x0,#2672]
    9790:	b9400000 	ldr	w0, [x0]
    9794:	b94043a1 	ldr	w1, [x29,#64]
    9798:	6b00003f 	cmp	w1, w0
    979c:	540018ac 	b.gt	9ab0 <trace_printf+0x3a4>
/home/optee/RPi3/optee_os/lib/libutils/ext/trace.c:83
    97a0:	3940ffa1 	ldrb	w1, [x29,#63]
    97a4:	b94043a0 	ldr	w0, [x29,#64]
    97a8:	97ffffbc 	bl	9698 <trace_level_to_string>
    97ac:	aa0003e2 	mov	x2, x0
    97b0:	90000040 	adrp	x0, 11000 <__func__.3864+0x18>
    97b4:	91268001 	add	x1, x0, #0x9a0
    97b8:	910143a0 	add	x0, x29, #0x50
    97bc:	aa0203e3 	mov	x3, x2
    97c0:	aa0103e2 	mov	x2, x1
    97c4:	d2802001 	mov	x1, #0x100                 	// #256
    97c8:	97fff709 	bl	73ec <snprintk>
    97cc:	b90173a0 	str	w0, [x29,#368]
/home/optee/RPi3/optee_os/lib/libutils/ext/trace.c:85
    97d0:	b94173a0 	ldr	w0, [x29,#368]
    97d4:	6b1f001f 	cmp	w0, wzr
    97d8:	5400170b 	b.lt	9ab8 <trace_printf+0x3ac>
/home/optee/RPi3/optee_os/lib/libutils/ext/trace.c:87
    97dc:	b98173a0 	ldrsw	x0, [x29,#368]
    97e0:	f940bfa1 	ldr	x1, [x29,#376]
    97e4:	8b000020 	add	x0, x1, x0
    97e8:	f900bfa0 	str	x0, [x29,#376]
/home/optee/RPi3/optee_os/lib/libutils/ext/trace.c:89
    97ec:	3940ffa0 	ldrb	w0, [x29,#63]
    97f0:	6b1f001f 	cmp	w0, wzr
    97f4:	540000e0 	b.eq	9810 <trace_printf+0x104>
/home/optee/RPi3/optee_os/lib/libutils/ext/trace.c:89 (discriminator 1)
    97f8:	b94043a0 	ldr	w0, [x29,#64]
    97fc:	7100081f 	cmp	w0, #0x2
    9800:	5400008c 	b.gt	9810 <trace_printf+0x104>
/home/optee/RPi3/optee_os/lib/libutils/ext/trace.c:90
    9804:	12800000 	mov	w0, #0xffffffff            	// #-1
    9808:	b90177a0 	str	w0, [x29,#372]
    980c:	14000003 	b	9818 <trace_printf+0x10c>
/home/optee/RPi3/optee_os/lib/libutils/ext/trace.c:92
    9810:	97ffeccf 	bl	4b4c <trace_ext_get_thread_id>
    9814:	b90177a0 	str	w0, [x29,#372]
/home/optee/RPi3/optee_os/lib/libutils/ext/trace.c:94
    9818:	b94177a0 	ldr	w0, [x29,#372]
    981c:	6b1f001f 	cmp	w0, wzr
    9820:	540002ab 	b.lt	9874 <trace_printf+0x168>
/home/optee/RPi3/optee_os/lib/libutils/ext/trace.c:95
    9824:	910143a1 	add	x1, x29, #0x50
    9828:	f940bfa0 	ldr	x0, [x29,#376]
    982c:	8b000024 	add	x4, x1, x0
    9830:	d2802001 	mov	x1, #0x100                 	// #256
    9834:	f940bfa0 	ldr	x0, [x29,#376]
    9838:	cb000021 	sub	x1, x1, x0
    983c:	90000040 	adrp	x0, 11000 <__func__.3864+0x18>
    9840:	9126a000 	add	x0, x0, #0x9a8
    9844:	b94177a3 	ldr	w3, [x29,#372]
    9848:	aa0003e2 	mov	x2, x0
    984c:	aa0403e0 	mov	x0, x4
    9850:	97fff6e7 	bl	73ec <snprintk>
    9854:	b90173a0 	str	w0, [x29,#368]
/home/optee/RPi3/optee_os/lib/libutils/ext/trace.c:97
    9858:	b94173a0 	ldr	w0, [x29,#368]
    985c:	6b1f001f 	cmp	w0, wzr
    9860:	5400130b 	b.lt	9ac0 <trace_printf+0x3b4>
/home/optee/RPi3/optee_os/lib/libutils/ext/trace.c:99
    9864:	b98173a0 	ldrsw	x0, [x29,#368]
    9868:	f940bfa1 	ldr	x1, [x29,#376]
    986c:	8b000020 	add	x0, x1, x0
    9870:	f900bfa0 	str	x0, [x29,#376]
/home/optee/RPi3/optee_os/lib/libutils/ext/trace.c:102
    9874:	910143a1 	add	x1, x29, #0x50
    9878:	f940bfa0 	ldr	x0, [x29,#376]
    987c:	8b000024 	add	x4, x1, x0
    9880:	d2802001 	mov	x1, #0x100                 	// #256
    9884:	f940bfa0 	ldr	x0, [x29,#376]
    9888:	cb000021 	sub	x1, x1, x0
    988c:	b0000040 	adrp	x0, 12000 <PRIME_TABLE+0x5d0>
    9890:	f9453c02 	ldr	x2, [x0,#2680]
    9894:	90000040 	adrp	x0, 11000 <__func__.3864+0x18>
    9898:	9126c000 	add	x0, x0, #0x9b0
    989c:	aa0203e3 	mov	x3, x2
    98a0:	aa0003e2 	mov	x2, x0
    98a4:	aa0403e0 	mov	x0, x4
    98a8:	97fff6d1 	bl	73ec <snprintk>
    98ac:	b90173a0 	str	w0, [x29,#368]
/home/optee/RPi3/optee_os/lib/libutils/ext/trace.c:104
    98b0:	b94173a0 	ldr	w0, [x29,#368]
    98b4:	6b1f001f 	cmp	w0, wzr
    98b8:	5400108b 	b.lt	9ac8 <trace_printf+0x3bc>
/home/optee/RPi3/optee_os/lib/libutils/ext/trace.c:106
    98bc:	b98173a0 	ldrsw	x0, [x29,#368]
    98c0:	f940bfa1 	ldr	x1, [x29,#376]
    98c4:	8b000020 	add	x0, x1, x0
    98c8:	f900bfa0 	str	x0, [x29,#376]
/home/optee/RPi3/optee_os/lib/libutils/ext/trace.c:108
    98cc:	3940ffa0 	ldrb	w0, [x29,#63]
    98d0:	6b1f001f 	cmp	w0, wzr
    98d4:	540000a0 	b.eq	98e8 <trace_printf+0x1dc>
/home/optee/RPi3/optee_os/lib/libutils/ext/trace.c:108 (discriminator 1)
    98d8:	b94043a0 	ldr	w0, [x29,#64]
    98dc:	7100081f 	cmp	w0, #0x2
    98e0:	5400004c 	b.gt	98e8 <trace_printf+0x1dc>
/home/optee/RPi3/optee_os/lib/libutils/ext/trace.c:109
    98e4:	f90027bf 	str	xzr, [x29,#72]
/home/optee/RPi3/optee_os/lib/libutils/ext/trace.c:111
    98e8:	f94027a0 	ldr	x0, [x29,#72]
    98ec:	eb1f001f 	cmp	x0, xzr
    98f0:	540002c0 	b.eq	9948 <trace_printf+0x23c>
/home/optee/RPi3/optee_os/lib/libutils/ext/trace.c:112
    98f4:	910143a1 	add	x1, x29, #0x50
    98f8:	f940bfa0 	ldr	x0, [x29,#376]
    98fc:	8b000025 	add	x5, x1, x0
    9900:	d2802001 	mov	x1, #0x100                 	// #256
    9904:	f940bfa0 	ldr	x0, [x29,#376]
    9908:	cb000021 	sub	x1, x1, x0
    990c:	90000040 	adrp	x0, 11000 <__func__.3864+0x18>
    9910:	9126e000 	add	x0, x0, #0x9b8
    9914:	b94047a4 	ldr	w4, [x29,#68]
    9918:	f94027a3 	ldr	x3, [x29,#72]
    991c:	aa0003e2 	mov	x2, x0
    9920:	aa0503e0 	mov	x0, x5
    9924:	97fff6b2 	bl	73ec <snprintk>
    9928:	b90173a0 	str	w0, [x29,#368]
/home/optee/RPi3/optee_os/lib/libutils/ext/trace.c:114
    992c:	b94173a0 	ldr	w0, [x29,#368]
    9930:	6b1f001f 	cmp	w0, wzr
    9934:	54000ceb 	b.lt	9ad0 <trace_printf+0x3c4>
/home/optee/RPi3/optee_os/lib/libutils/ext/trace.c:116
    9938:	b98173a0 	ldrsw	x0, [x29,#368]
    993c:	f940bfa1 	ldr	x1, [x29,#376]
    9940:	8b000020 	add	x0, x1, x0
    9944:	f900bfa0 	str	x0, [x29,#376]
/home/optee/RPi3/optee_os/lib/libutils/ext/trace.c:119
    9948:	910143a1 	add	x1, x29, #0x50
    994c:	f940bfa0 	ldr	x0, [x29,#376]
    9950:	8b000023 	add	x3, x1, x0
    9954:	d2802001 	mov	x1, #0x100                 	// #256
    9958:	f940bfa0 	ldr	x0, [x29,#376]
    995c:	cb000021 	sub	x1, x1, x0
    9960:	90000040 	adrp	x0, 11000 <__func__.3864+0x18>
    9964:	91270000 	add	x0, x0, #0x9c0
    9968:	aa0003e2 	mov	x2, x0
    996c:	aa0303e0 	mov	x0, x3
    9970:	97fff69f 	bl	73ec <snprintk>
    9974:	b90173a0 	str	w0, [x29,#368]
/home/optee/RPi3/optee_os/lib/libutils/ext/trace.c:120
    9978:	b94173a0 	ldr	w0, [x29,#368]
    997c:	6b1f001f 	cmp	w0, wzr
    9980:	54000acb 	b.lt	9ad8 <trace_printf+0x3cc>
/home/optee/RPi3/optee_os/lib/libutils/ext/trace.c:122
    9984:	b98173a0 	ldrsw	x0, [x29,#368]
    9988:	f940bfa1 	ldr	x1, [x29,#376]
    998c:	8b000020 	add	x0, x1, x0
    9990:	f900bfa0 	str	x0, [x29,#376]
/home/optee/RPi3/optee_os/lib/libutils/ext/trace.c:124
    9994:	910883a0 	add	x0, x29, #0x220
    9998:	f900aba0 	str	x0, [x29,#336]
    999c:	910883a0 	add	x0, x29, #0x220
    99a0:	f900afa0 	str	x0, [x29,#344]
    99a4:	910803a0 	add	x0, x29, #0x200
    99a8:	f900b3a0 	str	x0, [x29,#352]
    99ac:	128002e0 	mov	w0, #0xffffffe8            	// #-24
    99b0:	b9016ba0 	str	w0, [x29,#360]
    99b4:	12800fe0 	mov	w0, #0xffffff80            	// #-128
    99b8:	b9016fa0 	str	w0, [x29,#364]
/home/optee/RPi3/optee_os/lib/libutils/ext/trace.c:125
    99bc:	910143a1 	add	x1, x29, #0x50
    99c0:	f940bfa0 	ldr	x0, [x29,#376]
    99c4:	8b000024 	add	x4, x1, x0
    99c8:	d2802001 	mov	x1, #0x100                 	// #256
    99cc:	f940bfa0 	ldr	x0, [x29,#376]
    99d0:	cb000025 	sub	x5, x1, x0
    99d4:	910543a0 	add	x0, x29, #0x150
    99d8:	a9400400 	ldp	x0, x1, [x0]
    99dc:	a90107a0 	stp	x0, x1, [x29,#16]
    99e0:	910583a0 	add	x0, x29, #0x160
    99e4:	a9400400 	ldp	x0, x1, [x0]
    99e8:	a90207a0 	stp	x0, x1, [x29,#32]
    99ec:	910043a0 	add	x0, x29, #0x10
    99f0:	aa0003e3 	mov	x3, x0
    99f4:	f9401ba2 	ldr	x2, [x29,#48]
    99f8:	aa0503e1 	mov	x1, x5
    99fc:	aa0403e0 	mov	x0, x4
    9a00:	97fff6a9 	bl	74a4 <vsnprintk>
    9a04:	b90173a0 	str	w0, [x29,#368]
/home/optee/RPi3/optee_os/lib/libutils/ext/trace.c:127
    9a08:	b94173a0 	ldr	w0, [x29,#368]
    9a0c:	6b1f001f 	cmp	w0, wzr
    9a10:	540000ad 	b.le	9a24 <trace_printf+0x318>
/home/optee/RPi3/optee_os/lib/libutils/ext/trace.c:128
    9a14:	b98173a0 	ldrsw	x0, [x29,#368]
    9a18:	f940bfa1 	ldr	x1, [x29,#376]
    9a1c:	8b000020 	add	x0, x1, x0
    9a20:	f900bfa0 	str	x0, [x29,#376]
/home/optee/RPi3/optee_os/lib/libutils/ext/trace.c:130
    9a24:	f940bfa0 	ldr	x0, [x29,#376]
    9a28:	f103f81f 	cmp	x0, #0xfe
    9a2c:	54000069 	b.ls	9a38 <trace_printf+0x32c>
/home/optee/RPi3/optee_os/lib/libutils/ext/trace.c:131
    9a30:	d2801fc0 	mov	x0, #0xfe                  	// #254
    9a34:	f900bfa0 	str	x0, [x29,#376]
/home/optee/RPi3/optee_os/lib/libutils/ext/trace.c:133
    9a38:	d13a03a1 	sub	x1, x29, #0xe80
    9a3c:	f940bfa0 	ldr	x0, [x29,#376]
    9a40:	8b000020 	add	x0, x1, x0
    9a44:	aa0003e1 	mov	x1, x0
    9a48:	52800140 	mov	w0, #0xa                   	// #10
    9a4c:	393b4020 	strb	w0, [x1,#3792]
/home/optee/RPi3/optee_os/lib/libutils/ext/trace.c:134
    9a50:	14000004 	b	9a60 <trace_printf+0x354>
/home/optee/RPi3/optee_os/lib/libutils/ext/trace.c:135
    9a54:	f940bfa0 	ldr	x0, [x29,#376]
    9a58:	d1000400 	sub	x0, x0, #0x1
    9a5c:	f900bfa0 	str	x0, [x29,#376]
/home/optee/RPi3/optee_os/lib/libutils/ext/trace.c:134
    9a60:	f940bfa0 	ldr	x0, [x29,#376]
    9a64:	eb1f001f 	cmp	x0, xzr
    9a68:	540000e0 	b.eq	9a84 <trace_printf+0x378>
/home/optee/RPi3/optee_os/lib/libutils/ext/trace.c:134 (discriminator 1)
    9a6c:	d13a03a1 	sub	x1, x29, #0xe80
    9a70:	f940bfa0 	ldr	x0, [x29,#376]
    9a74:	8b000020 	add	x0, x1, x0
    9a78:	397b4000 	ldrb	w0, [x0,#3792]
    9a7c:	7100281f 	cmp	w0, #0xa
    9a80:	54fffea0 	b.eq	9a54 <trace_printf+0x348>
/home/optee/RPi3/optee_os/lib/libutils/ext/trace.c:136
    9a84:	f940bfa0 	ldr	x0, [x29,#376]
    9a88:	91000400 	add	x0, x0, #0x1
    9a8c:	f900bfa0 	str	x0, [x29,#376]
/home/optee/RPi3/optee_os/lib/libutils/ext/trace.c:137
    9a90:	f940bfa0 	ldr	x0, [x29,#376]
    9a94:	91000400 	add	x0, x0, #0x1
    9a98:	d13a03a1 	sub	x1, x29, #0xe80
    9a9c:	8b000020 	add	x0, x1, x0
    9aa0:	393b401f 	strb	wzr, [x0,#3792]
/home/optee/RPi3/optee_os/lib/libutils/ext/trace.c:139
    9aa4:	910143a0 	add	x0, x29, #0x50
    9aa8:	97ffec1e 	bl	4b20 <trace_ext_puts>
    9aac:	1400000c 	b	9adc <trace_printf+0x3d0>
/home/optee/RPi3/optee_os/lib/libutils/ext/trace.c:81
    9ab0:	d503201f 	nop
    9ab4:	1400000a 	b	9adc <trace_printf+0x3d0>
/home/optee/RPi3/optee_os/lib/libutils/ext/trace.c:86
    9ab8:	d503201f 	nop
    9abc:	14000008 	b	9adc <trace_printf+0x3d0>
/home/optee/RPi3/optee_os/lib/libutils/ext/trace.c:98
    9ac0:	d503201f 	nop
    9ac4:	14000006 	b	9adc <trace_printf+0x3d0>
/home/optee/RPi3/optee_os/lib/libutils/ext/trace.c:105
    9ac8:	d503201f 	nop
    9acc:	14000004 	b	9adc <trace_printf+0x3d0>
/home/optee/RPi3/optee_os/lib/libutils/ext/trace.c:115
    9ad0:	d503201f 	nop
    9ad4:	14000002 	b	9adc <trace_printf+0x3d0>
/home/optee/RPi3/optee_os/lib/libutils/ext/trace.c:121
    9ad8:	d503201f 	nop
/home/optee/RPi3/optee_os/lib/libutils/ext/trace.c:140
    9adc:	a8c17bfd 	ldp	x29, x30, [sp],#16
    9ae0:	910843ff 	add	sp, sp, #0x210
    9ae4:	d65f03c0 	ret

0000000000009ae8 <dhex_dump>:
dhex_dump():
/home/optee/RPi3/optee_os/lib/libutils/ext/trace.c:251
    9ae8:	d10083ff 	sub	sp, sp, #0x20
    9aec:	f9000fe0 	str	x0, [sp,#24]
    9af0:	b90017e1 	str	w1, [sp,#20]
    9af4:	b90013e2 	str	w2, [sp,#16]
    9af8:	f90007e3 	str	x3, [sp,#8]
    9afc:	b90007e4 	str	w4, [sp,#4]
/home/optee/RPi3/optee_os/lib/libutils/ext/trace.c:252
    9b00:	d503201f 	nop
    9b04:	910083ff 	add	sp, sp, #0x20
    9b08:	d65f03c0 	ret

0000000000009b0c <memchr>:
memchr():
/home/optee/RPi3/optee_os/lib/libutils/isoc/newlib/memchr.c:105
    9b0c:	d10103ff 	sub	sp, sp, #0x40
    9b10:	f9000fe0 	str	x0, [sp,#24]
    9b14:	b90017e1 	str	w1, [sp,#20]
    9b18:	f90007e2 	str	x2, [sp,#8]
/home/optee/RPi3/optee_os/lib/libutils/isoc/newlib/memchr.c:106
    9b1c:	f9400fe0 	ldr	x0, [sp,#24]
    9b20:	f9001fe0 	str	x0, [sp,#56]
/home/optee/RPi3/optee_os/lib/libutils/isoc/newlib/memchr.c:107
    9b24:	b94017e0 	ldr	w0, [sp,#20]
    9b28:	39008fe0 	strb	w0, [sp,#35]
/home/optee/RPi3/optee_os/lib/libutils/isoc/newlib/memchr.c:114
    9b2c:	14000012 	b	9b74 <memchr+0x68>
/home/optee/RPi3/optee_os/lib/libutils/isoc/newlib/memchr.c:115
    9b30:	f94007e0 	ldr	x0, [sp,#8]
    9b34:	d1000401 	sub	x1, x0, #0x1
    9b38:	f90007e1 	str	x1, [sp,#8]
    9b3c:	eb1f001f 	cmp	x0, xzr
    9b40:	54000061 	b.ne	9b4c <memchr+0x40>
/home/optee/RPi3/optee_os/lib/libutils/isoc/newlib/memchr.c:116
    9b44:	d2800000 	mov	x0, #0x0                   	// #0
    9b48:	14000061 	b	9ccc <memchr+0x1c0>
/home/optee/RPi3/optee_os/lib/libutils/isoc/newlib/memchr.c:117
    9b4c:	f9401fe0 	ldr	x0, [sp,#56]
    9b50:	39400000 	ldrb	w0, [x0]
    9b54:	39408fe1 	ldrb	w1, [sp,#35]
    9b58:	6b00003f 	cmp	w1, w0
    9b5c:	54000061 	b.ne	9b68 <memchr+0x5c>
/home/optee/RPi3/optee_os/lib/libutils/isoc/newlib/memchr.c:118
    9b60:	f9401fe0 	ldr	x0, [sp,#56]
    9b64:	1400005a 	b	9ccc <memchr+0x1c0>
/home/optee/RPi3/optee_os/lib/libutils/isoc/newlib/memchr.c:119
    9b68:	f9401fe0 	ldr	x0, [sp,#56]
    9b6c:	91000400 	add	x0, x0, #0x1
    9b70:	f9001fe0 	str	x0, [sp,#56]
/home/optee/RPi3/optee_os/lib/libutils/isoc/newlib/memchr.c:114
    9b74:	f9401fe0 	ldr	x0, [sp,#56]
    9b78:	92400800 	and	x0, x0, #0x7
    9b7c:	eb1f001f 	cmp	x0, xzr
    9b80:	54fffd81 	b.ne	9b30 <memchr+0x24>
/home/optee/RPi3/optee_os/lib/libutils/isoc/newlib/memchr.c:122
    9b84:	f94007e0 	ldr	x0, [sp,#8]
    9b88:	f1001c1f 	cmp	x0, #0x7
    9b8c:	54000949 	b.ls	9cb4 <memchr+0x1a8>
/home/optee/RPi3/optee_os/lib/libutils/isoc/newlib/memchr.c:131
    9b90:	f9401fe0 	ldr	x0, [sp,#56]
    9b94:	f9001be0 	str	x0, [sp,#48]
/home/optee/RPi3/optee_os/lib/libutils/isoc/newlib/memchr.c:132
    9b98:	39408fe0 	ldrb	w0, [sp,#35]
    9b9c:	53185c01 	lsl	w1, w0, #8
    9ba0:	39408fe0 	ldrb	w0, [sp,#35]
    9ba4:	2a000020 	orr	w0, w1, w0
    9ba8:	93407c00 	sxtw	x0, w0
    9bac:	f90017e0 	str	x0, [sp,#40]
/home/optee/RPi3/optee_os/lib/libutils/isoc/newlib/memchr.c:133
    9bb0:	f94017e0 	ldr	x0, [sp,#40]
    9bb4:	d370bc00 	lsl	x0, x0, #16
    9bb8:	f94017e1 	ldr	x1, [sp,#40]
    9bbc:	aa000020 	orr	x0, x1, x0
    9bc0:	f90017e0 	str	x0, [sp,#40]
/home/optee/RPi3/optee_os/lib/libutils/isoc/newlib/memchr.c:134
    9bc4:	52800400 	mov	w0, #0x20                  	// #32
    9bc8:	b90027e0 	str	w0, [sp,#36]
    9bcc:	1400000a 	b	9bf4 <memchr+0xe8>
/home/optee/RPi3/optee_os/lib/libutils/isoc/newlib/memchr.c:135 (discriminator 3)
    9bd0:	b94027e0 	ldr	w0, [sp,#36]
    9bd4:	f94017e1 	ldr	x1, [sp,#40]
    9bd8:	9ac02020 	lsl	x0, x1, x0
    9bdc:	f94017e1 	ldr	x1, [sp,#40]
    9be0:	aa000020 	orr	x0, x1, x0
    9be4:	f90017e0 	str	x0, [sp,#40]
/home/optee/RPi3/optee_os/lib/libutils/isoc/newlib/memchr.c:134 (discriminator 3)
    9be8:	b94027e0 	ldr	w0, [sp,#36]
    9bec:	531f7800 	lsl	w0, w0, #1
    9bf0:	b90027e0 	str	w0, [sp,#36]
/home/optee/RPi3/optee_os/lib/libutils/isoc/newlib/memchr.c:134 (discriminator 1)
    9bf4:	b94027e0 	ldr	w0, [sp,#36]
    9bf8:	7100fc1f 	cmp	w0, #0x3f
    9bfc:	54fffea9 	b.ls	9bd0 <memchr+0xc4>
/home/optee/RPi3/optee_os/lib/libutils/isoc/newlib/memchr.c:137
    9c00:	1400001b 	b	9c6c <memchr+0x160>
/home/optee/RPi3/optee_os/lib/libutils/isoc/newlib/memchr.c:138
    9c04:	f9401be0 	ldr	x0, [sp,#48]
    9c08:	f9400001 	ldr	x1, [x0]
    9c0c:	f94017e0 	ldr	x0, [sp,#40]
    9c10:	ca000021 	eor	x1, x1, x0
    9c14:	b207dbe0 	mov	x0, #0xfefefefefefefefe    	// #-72340172838076674
    9c18:	f29fdfe0 	movk	x0, #0xfeff
    9c1c:	d29fdfe0 	mov	x0, #0xfeff                	// #65279
    9c20:	f2bfdfc0 	movk	x0, #0xfefe, lsl #16
    9c24:	f2dfdfc0 	movk	x0, #0xfefe, lsl #32
    9c28:	f2ffdfc0 	movk	x0, #0xfefe, lsl #48
    9c2c:	8b000021 	add	x1, x1, x0
    9c30:	f9401be0 	ldr	x0, [sp,#48]
    9c34:	f9400002 	ldr	x2, [x0]
    9c38:	f94017e0 	ldr	x0, [sp,#40]
    9c3c:	ca000040 	eor	x0, x2, x0
    9c40:	aa2003e0 	mvn	x0, x0
    9c44:	8a000020 	and	x0, x1, x0
    9c48:	9201c000 	and	x0, x0, #0x8080808080808080
    9c4c:	eb1f001f 	cmp	x0, xzr
    9c50:	54000161 	b.ne	9c7c <memchr+0x170>
/home/optee/RPi3/optee_os/lib/libutils/isoc/newlib/memchr.c:140
    9c54:	f94007e0 	ldr	x0, [sp,#8]
    9c58:	d1002000 	sub	x0, x0, #0x8
    9c5c:	f90007e0 	str	x0, [sp,#8]
/home/optee/RPi3/optee_os/lib/libutils/isoc/newlib/memchr.c:141
    9c60:	f9401be0 	ldr	x0, [sp,#48]
    9c64:	91002000 	add	x0, x0, #0x8
    9c68:	f9001be0 	str	x0, [sp,#48]
/home/optee/RPi3/optee_os/lib/libutils/isoc/newlib/memchr.c:137
    9c6c:	f94007e0 	ldr	x0, [sp,#8]
    9c70:	f1001c1f 	cmp	x0, #0x7
    9c74:	54fffc88 	b.hi	9c04 <memchr+0xf8>
    9c78:	14000002 	b	9c80 <memchr+0x174>
/home/optee/RPi3/optee_os/lib/libutils/isoc/newlib/memchr.c:139
    9c7c:	d503201f 	nop
/home/optee/RPi3/optee_os/lib/libutils/isoc/newlib/memchr.c:147
    9c80:	f9401be0 	ldr	x0, [sp,#48]
    9c84:	f9001fe0 	str	x0, [sp,#56]
/home/optee/RPi3/optee_os/lib/libutils/isoc/newlib/memchr.c:151
    9c88:	1400000b 	b	9cb4 <memchr+0x1a8>
/home/optee/RPi3/optee_os/lib/libutils/isoc/newlib/memchr.c:152
    9c8c:	f9401fe0 	ldr	x0, [sp,#56]
    9c90:	39400000 	ldrb	w0, [x0]
    9c94:	39408fe1 	ldrb	w1, [sp,#35]
    9c98:	6b00003f 	cmp	w1, w0
    9c9c:	54000061 	b.ne	9ca8 <memchr+0x19c>
/home/optee/RPi3/optee_os/lib/libutils/isoc/newlib/memchr.c:153
    9ca0:	f9401fe0 	ldr	x0, [sp,#56]
    9ca4:	1400000a 	b	9ccc <memchr+0x1c0>
/home/optee/RPi3/optee_os/lib/libutils/isoc/newlib/memchr.c:154
    9ca8:	f9401fe0 	ldr	x0, [sp,#56]
    9cac:	91000400 	add	x0, x0, #0x1
    9cb0:	f9001fe0 	str	x0, [sp,#56]
/home/optee/RPi3/optee_os/lib/libutils/isoc/newlib/memchr.c:151
    9cb4:	f94007e0 	ldr	x0, [sp,#8]
    9cb8:	d1000401 	sub	x1, x0, #0x1
    9cbc:	f90007e1 	str	x1, [sp,#8]
    9cc0:	eb1f001f 	cmp	x0, xzr
    9cc4:	54fffe41 	b.ne	9c8c <memchr+0x180>
/home/optee/RPi3/optee_os/lib/libutils/isoc/newlib/memchr.c:157
    9cc8:	d2800000 	mov	x0, #0x0                   	// #0
/home/optee/RPi3/optee_os/lib/libutils/isoc/newlib/memchr.c:158
    9ccc:	910103ff 	add	sp, sp, #0x40
    9cd0:	d65f03c0 	ret

0000000000009cd4 <__mpa_set_unused_digits_to_zero>:
__mpa_set_unused_digits_to_zero():
/home/optee/RPi3/optee_os/lib/libmpa/mpa_misc.c:52
    9cd4:	a9bd7bfd 	stp	x29, x30, [sp,#-48]!
    9cd8:	910003fd 	mov	x29, sp
    9cdc:	f9000fa0 	str	x0, [x29,#24]
/home/optee/RPi3/optee_os/lib/libmpa/mpa_misc.c:59
    9ce0:	f9400fa0 	ldr	x0, [x29,#24]
    9ce4:	b9400400 	ldr	w0, [x0,#4]
    9ce8:	6b1f001f 	cmp	w0, wzr
    9cec:	5a80a400 	cneg	w0, w0, lt
    9cf0:	b9002fa0 	str	w0, [x29,#44]
/home/optee/RPi3/optee_os/lib/libmpa/mpa_misc.c:60
    9cf4:	f9400fa0 	ldr	x0, [x29,#24]
    9cf8:	91002001 	add	x1, x0, #0x8
    9cfc:	b9802fa0 	ldrsw	x0, [x29,#44]
    9d00:	d37ef400 	lsl	x0, x0, #2
    9d04:	8b000023 	add	x3, x1, x0
    9d08:	f9400fa0 	ldr	x0, [x29,#24]
    9d0c:	b9400001 	ldr	w1, [x0]
    9d10:	b9402fa0 	ldr	w0, [x29,#44]
    9d14:	4b000020 	sub	w0, w1, w0
    9d18:	531e7400 	lsl	w0, w0, #2
    9d1c:	2a0003e0 	mov	w0, w0
    9d20:	aa0003e2 	mov	x2, x0
    9d24:	52800001 	mov	w1, #0x0                   	// #0
    9d28:	aa0303e0 	mov	x0, x3
    9d2c:	97fff504 	bl	713c <memset>
/home/optee/RPi3/optee_os/lib/libmpa/mpa_misc.c:61
    9d30:	d503201f 	nop
    9d34:	a8c37bfd 	ldp	x29, x30, [sp],#48
    9d38:	d65f03c0 	ret

0000000000009d3c <mpa_wipe>:
mpa_wipe():
/home/optee/RPi3/optee_os/lib/libmpa/mpa_misc.c:77
    9d3c:	a9be7bfd 	stp	x29, x30, [sp,#-32]!
    9d40:	910003fd 	mov	x29, sp
    9d44:	f9000fa0 	str	x0, [x29,#24]
/home/optee/RPi3/optee_os/lib/libmpa/mpa_misc.c:78
    9d48:	f9400fa0 	ldr	x0, [x29,#24]
    9d4c:	91002003 	add	x3, x0, #0x8
    9d50:	f9400fa0 	ldr	x0, [x29,#24]
    9d54:	b9400000 	ldr	w0, [x0]
    9d58:	531e7400 	lsl	w0, w0, #2
    9d5c:	2a0003e0 	mov	w0, w0
    9d60:	aa0003e2 	mov	x2, x0
    9d64:	52800001 	mov	w1, #0x0                   	// #0
    9d68:	aa0303e0 	mov	x0, x3
    9d6c:	97fff4f4 	bl	713c <memset>
/home/optee/RPi3/optee_os/lib/libmpa/mpa_misc.c:79
    9d70:	f9400fa0 	ldr	x0, [x29,#24]
    9d74:	b900041f 	str	wzr, [x0,#4]
/home/optee/RPi3/optee_os/lib/libmpa/mpa_misc.c:80
    9d78:	d503201f 	nop
    9d7c:	a8c27bfd 	ldp	x29, x30, [sp],#32
    9d80:	d65f03c0 	ret

0000000000009d84 <mpa_copy>:
mpa_copy():
/home/optee/RPi3/optee_os/lib/libmpa/mpa_misc.c:92
    9d84:	a9be7bfd 	stp	x29, x30, [sp,#-32]!
    9d88:	910003fd 	mov	x29, sp
    9d8c:	f9000fa0 	str	x0, [x29,#24]
    9d90:	f9000ba1 	str	x1, [x29,#16]
/home/optee/RPi3/optee_os/lib/libmpa/mpa_misc.c:93
    9d94:	f9400fa1 	ldr	x1, [x29,#24]
    9d98:	f9400ba0 	ldr	x0, [x29,#16]
    9d9c:	eb00003f 	cmp	x1, x0
    9da0:	54000260 	b.eq	9dec <mpa_copy+0x68>
/home/optee/RPi3/optee_os/lib/libmpa/mpa_misc.c:96
    9da4:	f9400fa0 	ldr	x0, [x29,#24]
    9da8:	91002003 	add	x3, x0, #0x8
    9dac:	f9400ba0 	ldr	x0, [x29,#16]
    9db0:	91002001 	add	x1, x0, #0x8
    9db4:	f9400ba0 	ldr	x0, [x29,#16]
    9db8:	b9400400 	ldr	w0, [x0,#4]
    9dbc:	6b1f001f 	cmp	w0, wzr
    9dc0:	5a80a400 	cneg	w0, w0, lt
    9dc4:	531e7400 	lsl	w0, w0, #2
    9dc8:	93407c00 	sxtw	x0, w0
    9dcc:	aa0003e2 	mov	x2, x0
    9dd0:	aa0303e0 	mov	x0, x3
    9dd4:	97fff3f7 	bl	6db0 <memcpy>
/home/optee/RPi3/optee_os/lib/libmpa/mpa_misc.c:97
    9dd8:	f9400ba0 	ldr	x0, [x29,#16]
    9ddc:	b9400401 	ldr	w1, [x0,#4]
    9de0:	f9400fa0 	ldr	x0, [x29,#24]
    9de4:	b9000401 	str	w1, [x0,#4]
    9de8:	14000002 	b	9df0 <mpa_copy+0x6c>
/home/optee/RPi3/optee_os/lib/libmpa/mpa_misc.c:94
    9dec:	d503201f 	nop
/home/optee/RPi3/optee_os/lib/libmpa/mpa_misc.c:98
    9df0:	a8c27bfd 	ldp	x29, x30, [sp],#32
    9df4:	d65f03c0 	ret

0000000000009df8 <mpa_abs>:
mpa_abs():
/home/optee/RPi3/optee_os/lib/libmpa/mpa_misc.c:106
    9df8:	a9be7bfd 	stp	x29, x30, [sp,#-32]!
    9dfc:	910003fd 	mov	x29, sp
    9e00:	f9000fa0 	str	x0, [x29,#24]
    9e04:	f9000ba1 	str	x1, [x29,#16]
/home/optee/RPi3/optee_os/lib/libmpa/mpa_misc.c:107
    9e08:	f9400ba1 	ldr	x1, [x29,#16]
    9e0c:	f9400fa0 	ldr	x0, [x29,#24]
    9e10:	97ffffdd 	bl	9d84 <mpa_copy>
/home/optee/RPi3/optee_os/lib/libmpa/mpa_misc.c:108
    9e14:	f9400fa0 	ldr	x0, [x29,#24]
    9e18:	b9400400 	ldr	w0, [x0,#4]
    9e1c:	6b1f001f 	cmp	w0, wzr
    9e20:	540000ca 	b.ge	9e38 <mpa_abs+0x40>
/home/optee/RPi3/optee_os/lib/libmpa/mpa_misc.c:108 (discriminator 1)
    9e24:	f9400fa0 	ldr	x0, [x29,#24]
    9e28:	b9400400 	ldr	w0, [x0,#4]
    9e2c:	4b0003e1 	neg	w1, w0
    9e30:	f9400fa0 	ldr	x0, [x29,#24]
    9e34:	b9000401 	str	w1, [x0,#4]
/home/optee/RPi3/optee_os/lib/libmpa/mpa_misc.c:109
    9e38:	d503201f 	nop
    9e3c:	a8c27bfd 	ldp	x29, x30, [sp],#32
    9e40:	d65f03c0 	ret

0000000000009e44 <mpa_highest_bit_index>:
mpa_highest_bit_index():
/home/optee/RPi3/optee_os/lib/libmpa/mpa_misc.c:119
    9e44:	d10083ff 	sub	sp, sp, #0x20
    9e48:	f90007e0 	str	x0, [sp,#8]
/home/optee/RPi3/optee_os/lib/libmpa/mpa_misc.c:123
    9e4c:	f94007e0 	ldr	x0, [sp,#8]
    9e50:	b9400400 	ldr	w0, [x0,#4]
    9e54:	6b1f001f 	cmp	w0, wzr
    9e58:	54000061 	b.ne	9e64 <mpa_highest_bit_index+0x20>
/home/optee/RPi3/optee_os/lib/libmpa/mpa_misc.c:124
    9e5c:	12800000 	mov	w0, #0xffffffff            	// #-1
    9e60:	14000025 	b	9ef4 <mpa_highest_bit_index+0xb0>
/home/optee/RPi3/optee_os/lib/libmpa/mpa_misc.c:126
    9e64:	f94007e0 	ldr	x0, [sp,#8]
    9e68:	b9400400 	ldr	w0, [x0,#4]
    9e6c:	6b1f001f 	cmp	w0, wzr
    9e70:	5a80a400 	cneg	w0, w0, lt
    9e74:	51000400 	sub	w0, w0, #0x1
    9e78:	f94007e1 	ldr	x1, [sp,#8]
    9e7c:	93407c00 	sxtw	x0, w0
    9e80:	d37ef400 	lsl	x0, x0, #2
    9e84:	8b000020 	add	x0, x1, x0
    9e88:	b9400800 	ldr	w0, [x0,#8]
    9e8c:	b9001fe0 	str	w0, [sp,#28]
/home/optee/RPi3/optee_os/lib/libmpa/mpa_misc.c:128
    9e90:	b9001bff 	str	wzr, [sp,#24]
    9e94:	1400000a 	b	9ebc <mpa_highest_bit_index+0x78>
/home/optee/RPi3/optee_os/lib/libmpa/mpa_misc.c:129
    9e98:	b9401fe0 	ldr	w0, [sp,#28]
    9e9c:	53017c00 	lsr	w0, w0, #1
    9ea0:	b9001fe0 	str	w0, [sp,#28]
/home/optee/RPi3/optee_os/lib/libmpa/mpa_misc.c:130
    9ea4:	b9401fe0 	ldr	w0, [sp,#28]
    9ea8:	6b1f001f 	cmp	w0, wzr
    9eac:	54000100 	b.eq	9ecc <mpa_highest_bit_index+0x88>
/home/optee/RPi3/optee_os/lib/libmpa/mpa_misc.c:128 (discriminator 2)
    9eb0:	b9401be0 	ldr	w0, [sp,#24]
    9eb4:	11000400 	add	w0, w0, #0x1
    9eb8:	b9001be0 	str	w0, [sp,#24]
/home/optee/RPi3/optee_os/lib/libmpa/mpa_misc.c:128 (discriminator 1)
    9ebc:	b9401be0 	ldr	w0, [sp,#24]
    9ec0:	71007c1f 	cmp	w0, #0x1f
    9ec4:	54fffea9 	b.ls	9e98 <mpa_highest_bit_index+0x54>
    9ec8:	14000002 	b	9ed0 <mpa_highest_bit_index+0x8c>
/home/optee/RPi3/optee_os/lib/libmpa/mpa_misc.c:131
    9ecc:	d503201f 	nop
/home/optee/RPi3/optee_os/lib/libmpa/mpa_misc.c:133
    9ed0:	f94007e0 	ldr	x0, [sp,#8]
    9ed4:	b9400400 	ldr	w0, [x0,#4]
    9ed8:	6b1f001f 	cmp	w0, wzr
    9edc:	5a80a400 	cneg	w0, w0, lt
    9ee0:	51000400 	sub	w0, w0, #0x1
    9ee4:	531b6800 	lsl	w0, w0, #5
    9ee8:	2a0003e1 	mov	w1, w0
    9eec:	b9401be0 	ldr	w0, [sp,#24]
    9ef0:	0b000020 	add	w0, w1, w0
/home/optee/RPi3/optee_os/lib/libmpa/mpa_misc.c:134
    9ef4:	910083ff 	add	sp, sp, #0x20
    9ef8:	d65f03c0 	ret

0000000000009efc <mpa_get_bit>:
mpa_get_bit():
/home/optee/RPi3/optee_os/lib/libmpa/mpa_misc.c:146
    9efc:	d10083ff 	sub	sp, sp, #0x20
    9f00:	f90007e0 	str	x0, [sp,#8]
    9f04:	b90007e1 	str	w1, [sp,#4]
/home/optee/RPi3/optee_os/lib/libmpa/mpa_misc.c:150
    9f08:	b94007e0 	ldr	w0, [sp,#4]
    9f0c:	53057c00 	lsr	w0, w0, #5
    9f10:	b9001fe0 	str	w0, [sp,#28]
/home/optee/RPi3/optee_os/lib/libmpa/mpa_misc.c:151
    9f14:	b94007e0 	ldr	w0, [sp,#4]
    9f18:	92401000 	and	x0, x0, #0x1f
    9f1c:	f9000be0 	str	x0, [sp,#16]
/home/optee/RPi3/optee_os/lib/libmpa/mpa_misc.c:153
    9f20:	f94007e0 	ldr	x0, [sp,#8]
    9f24:	b9400400 	ldr	w0, [x0,#4]
    9f28:	6b1f001f 	cmp	w0, wzr
    9f2c:	5a80a400 	cneg	w0, w0, lt
    9f30:	2a0003e1 	mov	w1, w0
    9f34:	b9401fe0 	ldr	w0, [sp,#28]
    9f38:	6b00003f 	cmp	w1, w0
    9f3c:	54000062 	b.cs	9f48 <mpa_get_bit+0x4c>
/home/optee/RPi3/optee_os/lib/libmpa/mpa_misc.c:154
    9f40:	52800000 	mov	w0, #0x0                   	// #0
    9f44:	14000011 	b	9f88 <mpa_get_bit+0x8c>
/home/optee/RPi3/optee_os/lib/libmpa/mpa_misc.c:155
    9f48:	f9400be0 	ldr	x0, [sp,#16]
    9f4c:	2a0003e1 	mov	w1, w0
    9f50:	d2800020 	mov	x0, #0x1                   	// #1
    9f54:	9ac12000 	lsl	x0, x0, x1
    9f58:	f9000be0 	str	x0, [sp,#16]
/home/optee/RPi3/optee_os/lib/libmpa/mpa_misc.c:156
    9f5c:	f94007e1 	ldr	x1, [sp,#8]
    9f60:	b9401fe0 	ldr	w0, [sp,#28]
    9f64:	d37ef400 	lsl	x0, x0, #2
    9f68:	8b000020 	add	x0, x1, x0
    9f6c:	b9400800 	ldr	w0, [x0,#8]
    9f70:	2a0003e1 	mov	w1, w0
    9f74:	f9400be0 	ldr	x0, [sp,#16]
    9f78:	8a000020 	and	x0, x1, x0
    9f7c:	eb1f001f 	cmp	x0, xzr
    9f80:	1a9f07e0 	cset	w0, ne
    9f84:	53001c00 	uxtb	w0, w0
/home/optee/RPi3/optee_os/lib/libmpa/mpa_misc.c:157
    9f88:	910083ff 	add	sp, sp, #0x20
    9f8c:	d65f03c0 	ret

0000000000009f90 <mpa_can_hold>:
mpa_can_hold():
/home/optee/RPi3/optee_os/lib/libmpa/mpa_misc.c:166
    9f90:	d10043ff 	sub	sp, sp, #0x10
    9f94:	f90007e0 	str	x0, [sp,#8]
    9f98:	f90003e1 	str	x1, [sp]
/home/optee/RPi3/optee_os/lib/libmpa/mpa_misc.c:167
    9f9c:	f94007e0 	ldr	x0, [sp,#8]
    9fa0:	b9400001 	ldr	w1, [x0]
    9fa4:	f94003e0 	ldr	x0, [sp]
    9fa8:	b9400400 	ldr	w0, [x0,#4]
    9fac:	6b1f001f 	cmp	w0, wzr
    9fb0:	5a80a400 	cneg	w0, w0, lt
    9fb4:	6b00003f 	cmp	w1, w0
    9fb8:	1a9f37e0 	cset	w0, cs
    9fbc:	53001c00 	uxtb	w0, w0
/home/optee/RPi3/optee_os/lib/libmpa/mpa_misc.c:168
    9fc0:	910043ff 	add	sp, sp, #0x10
    9fc4:	d65f03c0 	ret

0000000000009fc8 <mpa_parity>:
mpa_parity():
/home/optee/RPi3/optee_os/lib/libmpa/mpa_misc.c:176
    9fc8:	d10043ff 	sub	sp, sp, #0x10
    9fcc:	f90007e0 	str	x0, [sp,#8]
/home/optee/RPi3/optee_os/lib/libmpa/mpa_misc.c:177
    9fd0:	f94007e0 	ldr	x0, [sp,#8]
    9fd4:	b9400800 	ldr	w0, [x0,#8]
    9fd8:	12000000 	and	w0, w0, #0x1
/home/optee/RPi3/optee_os/lib/libmpa/mpa_misc.c:178
    9fdc:	6b1f001f 	cmp	w0, wzr
    9fe0:	1a9f07e0 	cset	w0, ne
    9fe4:	53001c00 	uxtb	w0, w0
/home/optee/RPi3/optee_os/lib/libmpa/mpa_misc.c:179
    9fe8:	910043ff 	add	sp, sp, #0x10
    9fec:	d65f03c0 	ret

0000000000009ff0 <mpa_constant_one>:
mpa_constant_one():
/home/optee/RPi3/optee_os/lib/libmpa/mpa_misc.c:188
    9ff0:	90000040 	adrp	x0, 11000 <__func__.3864+0x18>
    9ff4:	91286000 	add	x0, x0, #0xa18
/home/optee/RPi3/optee_os/lib/libmpa/mpa_misc.c:189
    9ff8:	d65f03c0 	ret

0000000000009ffc <__mpa_montgomery_mul_add>:
__mpa_montgomery_mul_add():
/home/optee/RPi3/optee_os/lib/libmpa/mpa_montgomery.c:48
    9ffc:	d10103ff 	sub	sp, sp, #0x40
    a000:	f9000fe0 	str	x0, [sp,#24]
    a004:	f9000be1 	str	x1, [sp,#16]
    a008:	b9000fe2 	str	w2, [sp,#12]
/home/optee/RPi3/optee_os/lib/libmpa/mpa_montgomery.c:56
    a00c:	b9400fe0 	ldr	w0, [sp,#12]
    a010:	6b1f001f 	cmp	w0, wzr
    a014:	54000920 	b.eq	a138 <__mpa_montgomery_mul_add+0x13c>
/home/optee/RPi3/optee_os/lib/libmpa/mpa_montgomery.c:58
    a018:	f9400fe0 	ldr	x0, [sp,#24]
    a01c:	91002000 	add	x0, x0, #0x8
    a020:	f90017e0 	str	x0, [sp,#40]
/home/optee/RPi3/optee_os/lib/libmpa/mpa_montgomery.c:59
    a024:	f9400fe0 	ldr	x0, [sp,#24]
    a028:	91002000 	add	x0, x0, #0x8
    a02c:	f9001fe0 	str	x0, [sp,#56]
/home/optee/RPi3/optee_os/lib/libmpa/mpa_montgomery.c:60
    a030:	b90033ff 	str	wzr, [sp,#48]
/home/optee/RPi3/optee_os/lib/libmpa/mpa_montgomery.c:61
    a034:	b90037ff 	str	wzr, [sp,#52]
    a038:	1400001b 	b	a0a4 <__mpa_montgomery_mul_add+0xa8>
/home/optee/RPi3/optee_os/lib/libmpa/mpa_montgomery.c:62 (discriminator 3)
    a03c:	f9401fe0 	ldr	x0, [sp,#56]
    a040:	b9400000 	ldr	w0, [x0]
    a044:	2a0003e1 	mov	w1, w0
/home/optee/RPi3/optee_os/lib/libmpa/mpa_montgomery.c:63 (discriminator 3)
    a048:	f9400be2 	ldr	x2, [sp,#16]
    a04c:	b98037e0 	ldrsw	x0, [sp,#52]
    a050:	d37ef400 	lsl	x0, x0, #2
    a054:	8b000040 	add	x0, x2, x0
    a058:	b9400800 	ldr	w0, [x0,#8]
    a05c:	2a0003e2 	mov	w2, w0
    a060:	b9400fe0 	ldr	w0, [sp,#12]
    a064:	9b007c40 	mul	x0, x2, x0
/home/optee/RPi3/optee_os/lib/libmpa/mpa_montgomery.c:62 (discriminator 3)
    a068:	8b000021 	add	x1, x1, x0
/home/optee/RPi3/optee_os/lib/libmpa/mpa_montgomery.c:64 (discriminator 3)
    a06c:	b94033e0 	ldr	w0, [sp,#48]
/home/optee/RPi3/optee_os/lib/libmpa/mpa_montgomery.c:62 (discriminator 3)
    a070:	8b000020 	add	x0, x1, x0
    a074:	f90013e0 	str	x0, [sp,#32]
/home/optee/RPi3/optee_os/lib/libmpa/mpa_montgomery.c:65 (discriminator 3)
    a078:	f9401fe0 	ldr	x0, [sp,#56]
    a07c:	91001001 	add	x1, x0, #0x4
    a080:	f9001fe1 	str	x1, [sp,#56]
    a084:	f94013e1 	ldr	x1, [sp,#32]
    a088:	b9000001 	str	w1, [x0]
/home/optee/RPi3/optee_os/lib/libmpa/mpa_montgomery.c:66 (discriminator 3)
    a08c:	f94013e0 	ldr	x0, [sp,#32]
    a090:	d360fc00 	lsr	x0, x0, #32
    a094:	b90033e0 	str	w0, [sp,#48]
/home/optee/RPi3/optee_os/lib/libmpa/mpa_montgomery.c:61 (discriminator 3)
    a098:	b94037e0 	ldr	w0, [sp,#52]
    a09c:	11000400 	add	w0, w0, #0x1
    a0a0:	b90037e0 	str	w0, [sp,#52]
/home/optee/RPi3/optee_os/lib/libmpa/mpa_montgomery.c:61 (discriminator 1)
    a0a4:	f9400be0 	ldr	x0, [sp,#16]
    a0a8:	b9400401 	ldr	w1, [x0,#4]
    a0ac:	b94037e0 	ldr	w0, [sp,#52]
    a0b0:	6b00003f 	cmp	w1, w0
    a0b4:	54fffc4c 	b.gt	a03c <__mpa_montgomery_mul_add+0x40>
/home/optee/RPi3/optee_os/lib/libmpa/mpa_montgomery.c:68
    a0b8:	1400000f 	b	a0f4 <__mpa_montgomery_mul_add+0xf8>
/home/optee/RPi3/optee_os/lib/libmpa/mpa_montgomery.c:69
    a0bc:	f9401fe0 	ldr	x0, [sp,#56]
    a0c0:	b9400000 	ldr	w0, [x0]
    a0c4:	2a0003e1 	mov	w1, w0
    a0c8:	b94033e0 	ldr	w0, [sp,#48]
    a0cc:	8b000020 	add	x0, x1, x0
    a0d0:	f90013e0 	str	x0, [sp,#32]
/home/optee/RPi3/optee_os/lib/libmpa/mpa_montgomery.c:70
    a0d4:	f9401fe0 	ldr	x0, [sp,#56]
    a0d8:	91001001 	add	x1, x0, #0x4
    a0dc:	f9001fe1 	str	x1, [sp,#56]
    a0e0:	f94013e1 	ldr	x1, [sp,#32]
    a0e4:	b9000001 	str	w1, [x0]
/home/optee/RPi3/optee_os/lib/libmpa/mpa_montgomery.c:71
    a0e8:	f94013e0 	ldr	x0, [sp,#32]
    a0ec:	d360fc00 	lsr	x0, x0, #32
    a0f0:	b90033e0 	str	w0, [sp,#48]
/home/optee/RPi3/optee_os/lib/libmpa/mpa_montgomery.c:68
    a0f4:	b94033e0 	ldr	w0, [sp,#48]
    a0f8:	6b1f001f 	cmp	w0, wzr
    a0fc:	54fffe01 	b.ne	a0bc <__mpa_montgomery_mul_add+0xc0>
/home/optee/RPi3/optee_os/lib/libmpa/mpa_montgomery.c:73
    a100:	f9401fe1 	ldr	x1, [sp,#56]
    a104:	f94017e0 	ldr	x0, [sp,#40]
    a108:	cb000020 	sub	x0, x1, x0
    a10c:	9342fc00 	asr	x0, x0, #2
    a110:	b90037e0 	str	w0, [sp,#52]
/home/optee/RPi3/optee_os/lib/libmpa/mpa_montgomery.c:74
    a114:	f9400fe0 	ldr	x0, [sp,#24]
    a118:	b9400401 	ldr	w1, [x0,#4]
    a11c:	b94037e0 	ldr	w0, [sp,#52]
    a120:	6b00003f 	cmp	w1, w0
    a124:	540000ca 	b.ge	a13c <__mpa_montgomery_mul_add+0x140>
/home/optee/RPi3/optee_os/lib/libmpa/mpa_montgomery.c:75
    a128:	f9400fe0 	ldr	x0, [sp,#24]
    a12c:	b94037e1 	ldr	w1, [sp,#52]
    a130:	b9000401 	str	w1, [x0,#4]
    a134:	14000002 	b	a13c <__mpa_montgomery_mul_add+0x140>
/home/optee/RPi3/optee_os/lib/libmpa/mpa_montgomery.c:57
    a138:	d503201f 	nop
/home/optee/RPi3/optee_os/lib/libmpa/mpa_montgomery.c:80
    a13c:	910103ff 	add	sp, sp, #0x40
    a140:	d65f03c0 	ret

000000000000a144 <__mpa_montgomery_sub_ack>:
__mpa_montgomery_sub_ack():
/home/optee/RPi3/optee_os/lib/libmpa/mpa_montgomery.c:90
    a144:	d100c3ff 	sub	sp, sp, #0x30
    a148:	f90007e0 	str	x0, [sp,#8]
    a14c:	f90003e1 	str	x1, [sp]
/home/optee/RPi3/optee_os/lib/libmpa/mpa_montgomery.c:97
    a150:	f94007e0 	ldr	x0, [sp,#8]
    a154:	91002000 	add	x0, x0, #0x8
    a158:	f90017e0 	str	x0, [sp,#40]
/home/optee/RPi3/optee_os/lib/libmpa/mpa_montgomery.c:98
    a15c:	b90027ff 	str	wzr, [sp,#36]
/home/optee/RPi3/optee_os/lib/libmpa/mpa_montgomery.c:99
    a160:	b90023ff 	str	wzr, [sp,#32]
/home/optee/RPi3/optee_os/lib/libmpa/mpa_montgomery.c:100
    a164:	1400001a 	b	a1cc <__mpa_montgomery_sub_ack+0x88>
/home/optee/RPi3/optee_os/lib/libmpa/mpa_montgomery.c:101
    a168:	f94017e0 	ldr	x0, [sp,#40]
    a16c:	b9400000 	ldr	w0, [x0]
    a170:	2a0003e1 	mov	w1, w0
    a174:	f94003e2 	ldr	x2, [sp]
    a178:	b98023e0 	ldrsw	x0, [sp,#32]
    a17c:	d37ef400 	lsl	x0, x0, #2
    a180:	8b000040 	add	x0, x2, x0
    a184:	b9400800 	ldr	w0, [x0,#8]
    a188:	2a0003e0 	mov	w0, w0
    a18c:	cb000021 	sub	x1, x1, x0
/home/optee/RPi3/optee_os/lib/libmpa/mpa_montgomery.c:102
    a190:	b94027e0 	ldr	w0, [sp,#36]
/home/optee/RPi3/optee_os/lib/libmpa/mpa_montgomery.c:101
    a194:	cb000020 	sub	x0, x1, x0
    a198:	f9000fe0 	str	x0, [sp,#24]
/home/optee/RPi3/optee_os/lib/libmpa/mpa_montgomery.c:103
    a19c:	f94017e0 	ldr	x0, [sp,#40]
    a1a0:	91001001 	add	x1, x0, #0x4
    a1a4:	f90017e1 	str	x1, [sp,#40]
    a1a8:	f9400fe1 	ldr	x1, [sp,#24]
    a1ac:	b9000001 	str	w1, [x0]
/home/optee/RPi3/optee_os/lib/libmpa/mpa_montgomery.c:104
    a1b0:	f9400fe0 	ldr	x0, [sp,#24]
    a1b4:	d360fc00 	lsr	x0, x0, #32
    a1b8:	4b0003e0 	neg	w0, w0
    a1bc:	b90027e0 	str	w0, [sp,#36]
/home/optee/RPi3/optee_os/lib/libmpa/mpa_montgomery.c:105
    a1c0:	b94023e0 	ldr	w0, [sp,#32]
    a1c4:	11000400 	add	w0, w0, #0x1
    a1c8:	b90023e0 	str	w0, [sp,#32]
/home/optee/RPi3/optee_os/lib/libmpa/mpa_montgomery.c:100
    a1cc:	f94003e0 	ldr	x0, [sp]
    a1d0:	b9400401 	ldr	w1, [x0,#4]
    a1d4:	b94023e0 	ldr	w0, [sp,#32]
    a1d8:	6b00003f 	cmp	w1, w0
    a1dc:	54fffc6c 	b.gt	a168 <__mpa_montgomery_sub_ack+0x24>
/home/optee/RPi3/optee_os/lib/libmpa/mpa_montgomery.c:109
    a1e0:	14000013 	b	a22c <__mpa_montgomery_sub_ack+0xe8>
/home/optee/RPi3/optee_os/lib/libmpa/mpa_montgomery.c:110
    a1e4:	f94017e0 	ldr	x0, [sp,#40]
    a1e8:	b9400000 	ldr	w0, [x0]
    a1ec:	2a0003e1 	mov	w1, w0
    a1f0:	b94027e0 	ldr	w0, [sp,#36]
    a1f4:	cb000020 	sub	x0, x1, x0
    a1f8:	f9000fe0 	str	x0, [sp,#24]
/home/optee/RPi3/optee_os/lib/libmpa/mpa_montgomery.c:111
    a1fc:	f94017e0 	ldr	x0, [sp,#40]
    a200:	91001001 	add	x1, x0, #0x4
    a204:	f90017e1 	str	x1, [sp,#40]
    a208:	f9400fe1 	ldr	x1, [sp,#24]
    a20c:	b9000001 	str	w1, [x0]
/home/optee/RPi3/optee_os/lib/libmpa/mpa_montgomery.c:112
    a210:	f9400fe0 	ldr	x0, [sp,#24]
    a214:	d360fc00 	lsr	x0, x0, #32
    a218:	4b0003e0 	neg	w0, w0
    a21c:	b90027e0 	str	w0, [sp,#36]
/home/optee/RPi3/optee_os/lib/libmpa/mpa_montgomery.c:113
    a220:	b94023e0 	ldr	w0, [sp,#32]
    a224:	11000400 	add	w0, w0, #0x1
    a228:	b90023e0 	str	w0, [sp,#32]
/home/optee/RPi3/optee_os/lib/libmpa/mpa_montgomery.c:109
    a22c:	b94027e0 	ldr	w0, [sp,#36]
    a230:	6b1f001f 	cmp	w0, wzr
    a234:	54fffd81 	b.ne	a1e4 <__mpa_montgomery_sub_ack+0xa0>
/home/optee/RPi3/optee_os/lib/libmpa/mpa_montgomery.c:115
    a238:	f94007e0 	ldr	x0, [sp,#8]
    a23c:	b9400401 	ldr	w1, [x0,#4]
    a240:	b94023e0 	ldr	w0, [sp,#32]
    a244:	6b00003f 	cmp	w1, w0
    a248:	5400024c 	b.gt	a290 <__mpa_montgomery_sub_ack+0x14c>
/home/optee/RPi3/optee_os/lib/libmpa/mpa_montgomery.c:117
    a24c:	14000006 	b	a264 <__mpa_montgomery_sub_ack+0x120>
/home/optee/RPi3/optee_os/lib/libmpa/mpa_montgomery.c:118
    a250:	f94007e0 	ldr	x0, [sp,#8]
    a254:	b9400400 	ldr	w0, [x0,#4]
    a258:	51000401 	sub	w1, w0, #0x1
    a25c:	f94007e0 	ldr	x0, [sp,#8]
    a260:	b9000401 	str	w1, [x0,#4]
/home/optee/RPi3/optee_os/lib/libmpa/mpa_montgomery.c:117
    a264:	f94007e0 	ldr	x0, [sp,#8]
    a268:	b9400400 	ldr	w0, [x0,#4]
    a26c:	6b1f001f 	cmp	w0, wzr
    a270:	5400010d 	b.le	a290 <__mpa_montgomery_sub_ack+0x14c>
/home/optee/RPi3/optee_os/lib/libmpa/mpa_montgomery.c:117 (discriminator 1)
    a274:	f94017e0 	ldr	x0, [sp,#40]
    a278:	d1001000 	sub	x0, x0, #0x4
    a27c:	f90017e0 	str	x0, [sp,#40]
    a280:	f94017e0 	ldr	x0, [sp,#40]
    a284:	b9400000 	ldr	w0, [x0]
    a288:	6b1f001f 	cmp	w0, wzr
    a28c:	54fffe20 	b.eq	a250 <__mpa_montgomery_sub_ack+0x10c>
/home/optee/RPi3/optee_os/lib/libmpa/mpa_montgomery.c:123
    a290:	d503201f 	nop
    a294:	9100c3ff 	add	sp, sp, #0x30
    a298:	d65f03c0 	ret

000000000000a29c <__mpa_montgomery_mul>:
__mpa_montgomery_mul():
/home/optee/RPi3/optee_os/lib/libmpa/mpa_montgomery.c:137
    a29c:	a9bb7bfd 	stp	x29, x30, [sp,#-80]!
    a2a0:	910003fd 	mov	x29, sp
    a2a4:	f9001fa0 	str	x0, [x29,#56]
    a2a8:	f9001ba1 	str	x1, [x29,#48]
    a2ac:	f90017a2 	str	x2, [x29,#40]
    a2b0:	f90013a3 	str	x3, [x29,#32]
    a2b4:	b9001fa4 	str	w4, [x29,#28]
/home/optee/RPi3/optee_os/lib/libmpa/mpa_montgomery.c:142
    a2b8:	f9401fa0 	ldr	x0, [x29,#56]
    a2bc:	97fffea0 	bl	9d3c <mpa_wipe>
/home/optee/RPi3/optee_os/lib/libmpa/mpa_montgomery.c:144
    a2c0:	b9004fbf 	str	wzr, [x29,#76]
    a2c4:	1400005e 	b	a43c <__mpa_montgomery_mul+0x1a0>
/home/optee/RPi3/optee_os/lib/libmpa/mpa_montgomery.c:145
    a2c8:	f9401fa0 	ldr	x0, [x29,#56]
    a2cc:	b9400802 	ldr	w2, [x0,#8]
/home/optee/RPi3/optee_os/lib/libmpa/mpa_montgomery.c:146
    a2d0:	f9401ba0 	ldr	x0, [x29,#48]
    a2d4:	b9400400 	ldr	w0, [x0,#4]
    a2d8:	6b1f001f 	cmp	w0, wzr
    a2dc:	5a80a401 	cneg	w1, w0, lt
    a2e0:	b9404fa0 	ldr	w0, [x29,#76]
    a2e4:	6b00003f 	cmp	w1, w0
    a2e8:	540000ed 	b.le	a304 <__mpa_montgomery_mul+0x68>
/home/optee/RPi3/optee_os/lib/libmpa/mpa_montgomery.c:146 (discriminator 1)
    a2ec:	f9401ba1 	ldr	x1, [x29,#48]
    a2f0:	b9804fa0 	ldrsw	x0, [x29,#76]
    a2f4:	d37ef400 	lsl	x0, x0, #2
    a2f8:	8b000020 	add	x0, x1, x0
    a2fc:	b9400801 	ldr	w1, [x0,#8]
    a300:	14000002 	b	a308 <__mpa_montgomery_mul+0x6c>
/home/optee/RPi3/optee_os/lib/libmpa/mpa_montgomery.c:146 (discriminator 2)
    a304:	52800001 	mov	w1, #0x0                   	// #0
/home/optee/RPi3/optee_os/lib/libmpa/mpa_montgomery.c:147
    a308:	f94017a0 	ldr	x0, [x29,#40]
    a30c:	b9400400 	ldr	w0, [x0,#4]
    a310:	6b1f001f 	cmp	w0, wzr
    a314:	540000ab 	b.lt	a328 <__mpa_montgomery_mul+0x8c>
/home/optee/RPi3/optee_os/lib/libmpa/mpa_montgomery.c:147 (discriminator 2)
    a318:	f94017a0 	ldr	x0, [x29,#40]
    a31c:	b9400400 	ldr	w0, [x0,#4]
    a320:	6b1f001f 	cmp	w0, wzr
    a324:	5400008d 	b.le	a334 <__mpa_montgomery_mul+0x98>
/home/optee/RPi3/optee_os/lib/libmpa/mpa_montgomery.c:147 (discriminator 3)
    a328:	f94017a0 	ldr	x0, [x29,#40]
    a32c:	b9400800 	ldr	w0, [x0,#8]
    a330:	14000002 	b	a338 <__mpa_montgomery_mul+0x9c>
/home/optee/RPi3/optee_os/lib/libmpa/mpa_montgomery.c:147 (discriminator 4)
    a334:	52800000 	mov	w0, #0x0                   	// #0
/home/optee/RPi3/optee_os/lib/libmpa/mpa_montgomery.c:146
    a338:	1b007c20 	mul	w0, w1, w0
/home/optee/RPi3/optee_os/lib/libmpa/mpa_montgomery.c:145
    a33c:	0b000041 	add	w1, w2, w0
    a340:	b9401fa0 	ldr	w0, [x29,#28]
    a344:	1b007c20 	mul	w0, w1, w0
    a348:	b90047a0 	str	w0, [x29,#68]
/home/optee/RPi3/optee_os/lib/libmpa/mpa_montgomery.c:150
    a34c:	f9401ba0 	ldr	x0, [x29,#48]
    a350:	b9400400 	ldr	w0, [x0,#4]
    a354:	6b1f001f 	cmp	w0, wzr
    a358:	5a80a401 	cneg	w1, w0, lt
/home/optee/RPi3/optee_os/lib/libmpa/mpa_montgomery.c:149
    a35c:	b9404fa0 	ldr	w0, [x29,#76]
    a360:	6b00003f 	cmp	w1, w0
    a364:	540000ed 	b.le	a380 <__mpa_montgomery_mul+0xe4>
/home/optee/RPi3/optee_os/lib/libmpa/mpa_montgomery.c:149 (discriminator 1)
    a368:	f9401ba1 	ldr	x1, [x29,#48]
    a36c:	b9804fa0 	ldrsw	x0, [x29,#76]
    a370:	d37ef400 	lsl	x0, x0, #2
    a374:	8b000020 	add	x0, x1, x0
    a378:	b9400800 	ldr	w0, [x0,#8]
    a37c:	14000002 	b	a384 <__mpa_montgomery_mul+0xe8>
/home/optee/RPi3/optee_os/lib/libmpa/mpa_montgomery.c:149 (discriminator 2)
    a380:	52800000 	mov	w0, #0x0                   	// #0
/home/optee/RPi3/optee_os/lib/libmpa/mpa_montgomery.c:149 (discriminator 4)
    a384:	2a0003e2 	mov	w2, w0
    a388:	f94017a1 	ldr	x1, [x29,#40]
    a38c:	f9401fa0 	ldr	x0, [x29,#56]
    a390:	97ffff1b 	bl	9ffc <__mpa_montgomery_mul_add>
/home/optee/RPi3/optee_os/lib/libmpa/mpa_montgomery.c:151 (discriminator 4)
    a394:	b94047a2 	ldr	w2, [x29,#68]
    a398:	f94013a1 	ldr	x1, [x29,#32]
    a39c:	f9401fa0 	ldr	x0, [x29,#56]
    a3a0:	97ffff17 	bl	9ffc <__mpa_montgomery_mul_add>
/home/optee/RPi3/optee_os/lib/libmpa/mpa_montgomery.c:154 (discriminator 4)
    a3a4:	f9401fa0 	ldr	x0, [x29,#56]
    a3a8:	b9400400 	ldr	w0, [x0,#4]
    a3ac:	51000401 	sub	w1, w0, #0x1
    a3b0:	f9401fa0 	ldr	x0, [x29,#56]
    a3b4:	b9000401 	str	w1, [x0,#4]
/home/optee/RPi3/optee_os/lib/libmpa/mpa_montgomery.c:155 (discriminator 4)
    a3b8:	b9004bbf 	str	wzr, [x29,#72]
    a3bc:	14000010 	b	a3fc <__mpa_montgomery_mul+0x160>
/home/optee/RPi3/optee_os/lib/libmpa/mpa_montgomery.c:156 (discriminator 3)
    a3c0:	b9404ba0 	ldr	w0, [x29,#72]
    a3c4:	11000400 	add	w0, w0, #0x1
    a3c8:	f9401fa1 	ldr	x1, [x29,#56]
    a3cc:	93407c00 	sxtw	x0, w0
    a3d0:	d37ef400 	lsl	x0, x0, #2
    a3d4:	8b000020 	add	x0, x1, x0
    a3d8:	b9400801 	ldr	w1, [x0,#8]
    a3dc:	f9401fa2 	ldr	x2, [x29,#56]
    a3e0:	b9804ba0 	ldrsw	x0, [x29,#72]
    a3e4:	d37ef400 	lsl	x0, x0, #2
    a3e8:	8b000040 	add	x0, x2, x0
    a3ec:	b9000801 	str	w1, [x0,#8]
/home/optee/RPi3/optee_os/lib/libmpa/mpa_montgomery.c:155 (discriminator 3)
    a3f0:	b9404ba0 	ldr	w0, [x29,#72]
    a3f4:	11000400 	add	w0, w0, #0x1
    a3f8:	b9004ba0 	str	w0, [x29,#72]
/home/optee/RPi3/optee_os/lib/libmpa/mpa_montgomery.c:155 (discriminator 1)
    a3fc:	f9401fa0 	ldr	x0, [x29,#56]
    a400:	b9400401 	ldr	w1, [x0,#4]
    a404:	b9404ba0 	ldr	w0, [x29,#72]
    a408:	6b00003f 	cmp	w1, w0
    a40c:	54fffdac 	b.gt	a3c0 <__mpa_montgomery_mul+0x124>
/home/optee/RPi3/optee_os/lib/libmpa/mpa_montgomery.c:157 (discriminator 2)
    a410:	f9401fa0 	ldr	x0, [x29,#56]
    a414:	91002001 	add	x1, x0, #0x8
    a418:	f9401fa0 	ldr	x0, [x29,#56]
    a41c:	b9400400 	ldr	w0, [x0,#4]
    a420:	93407c00 	sxtw	x0, w0
    a424:	d37ef400 	lsl	x0, x0, #2
    a428:	8b000020 	add	x0, x1, x0
    a42c:	b900001f 	str	wzr, [x0]
/home/optee/RPi3/optee_os/lib/libmpa/mpa_montgomery.c:144 (discriminator 2)
    a430:	b9404fa0 	ldr	w0, [x29,#76]
    a434:	11000400 	add	w0, w0, #0x1
    a438:	b9004fa0 	str	w0, [x29,#76]
/home/optee/RPi3/optee_os/lib/libmpa/mpa_montgomery.c:144 (discriminator 1)
    a43c:	f94013a0 	ldr	x0, [x29,#32]
    a440:	b9400401 	ldr	w1, [x0,#4]
    a444:	b9404fa0 	ldr	w0, [x29,#76]
    a448:	6b00003f 	cmp	w1, w0
    a44c:	54fff3ec 	b.gt	a2c8 <__mpa_montgomery_mul+0x2c>
/home/optee/RPi3/optee_os/lib/libmpa/mpa_montgomery.c:161
    a450:	f94013a1 	ldr	x1, [x29,#32]
    a454:	f9401fa0 	ldr	x0, [x29,#56]
    a458:	9400125a 	bl	edc0 <__mpa_abs_cmp>
    a45c:	6b1f001f 	cmp	w0, wzr
    a460:	5400008b 	b.lt	a470 <__mpa_montgomery_mul+0x1d4>
/home/optee/RPi3/optee_os/lib/libmpa/mpa_montgomery.c:162
    a464:	f94013a1 	ldr	x1, [x29,#32]
    a468:	f9401fa0 	ldr	x0, [x29,#56]
    a46c:	97ffff36 	bl	a144 <__mpa_montgomery_sub_ack>
/home/optee/RPi3/optee_os/lib/libmpa/mpa_montgomery.c:163
    a470:	d503201f 	nop
    a474:	a8c57bfd 	ldp	x29, x30, [sp],#80
    a478:	d65f03c0 	ret

000000000000a47c <mpa_compute_fmm_context>:
mpa_compute_fmm_context():
/home/optee/RPi3/optee_os/lib/libmpa/mpa_montgomery.c:179
    a47c:	a9b97bfd 	stp	x29, x30, [sp,#-112]!
    a480:	910003fd 	mov	x29, sp
    a484:	f9001fa0 	str	x0, [x29,#56]
    a488:	f9001ba1 	str	x1, [x29,#48]
    a48c:	f90017a2 	str	x2, [x29,#40]
    a490:	f90013a3 	str	x3, [x29,#32]
    a494:	f9000fa4 	str	x4, [x29,#24]
/home/optee/RPi3/optee_os/lib/libmpa/mpa_montgomery.c:187
    a498:	910103a0 	add	x0, x29, #0x40
    a49c:	f90037a0 	str	x0, [x29,#104]
/home/optee/RPi3/optee_os/lib/libmpa/mpa_montgomery.c:193
    a4a0:	f9401fa0 	ldr	x0, [x29,#56]
    a4a4:	b9400400 	ldr	w0, [x0,#4]
    a4a8:	6b1f001f 	cmp	w0, wzr
    a4ac:	5a80a400 	cneg	w0, w0, lt
    a4b0:	b90067a0 	str	w0, [x29,#100]
/home/optee/RPi3/optee_os/lib/libmpa/mpa_montgomery.c:194
    a4b4:	52800021 	mov	w1, #0x1                   	// #1
    a4b8:	f9401ba0 	ldr	x0, [x29,#48]
    a4bc:	9400021a 	bl	ad24 <mpa_set_word>
/home/optee/RPi3/optee_os/lib/libmpa/mpa_montgomery.c:195
    a4c0:	b94067a0 	ldr	w0, [x29,#100]
    a4c4:	531b6800 	lsl	w0, w0, #5
    a4c8:	2a0003e2 	mov	w2, w0
    a4cc:	f9401ba1 	ldr	x1, [x29,#48]
    a4d0:	f9401ba0 	ldr	x0, [x29,#48]
    a4d4:	94000c98 	bl	d734 <mpa_shift_left>
/home/optee/RPi3/optee_os/lib/libmpa/mpa_montgomery.c:196
    a4d8:	f9400fa3 	ldr	x3, [x29,#24]
    a4dc:	f9401fa2 	ldr	x2, [x29,#56]
    a4e0:	f9401ba1 	ldr	x1, [x29,#48]
    a4e4:	f9401ba0 	ldr	x0, [x29,#48]
    a4e8:	9400178c 	bl	10318 <mpa_mod>
/home/optee/RPi3/optee_os/lib/libmpa/mpa_montgomery.c:199
    a4ec:	f9400fa4 	ldr	x4, [x29,#24]
    a4f0:	f9401fa3 	ldr	x3, [x29,#56]
    a4f4:	f9401ba2 	ldr	x2, [x29,#48]
    a4f8:	f9401ba1 	ldr	x1, [x29,#48]
    a4fc:	f94017a0 	ldr	x0, [x29,#40]
    a500:	940017cd 	bl	10434 <mpa_mul_mod>
/home/optee/RPi3/optee_os/lib/libmpa/mpa_montgomery.c:202
    a504:	f94037a0 	ldr	x0, [x29,#104]
    a508:	52800021 	mov	w1, #0x1                   	// #1
    a50c:	b9000001 	str	w1, [x0]
/home/optee/RPi3/optee_os/lib/libmpa/mpa_montgomery.c:203
    a510:	f94037a0 	ldr	x0, [x29,#104]
    a514:	52800021 	mov	w1, #0x1                   	// #1
    a518:	b9000401 	str	w1, [x0,#4]
/home/optee/RPi3/optee_os/lib/libmpa/mpa_montgomery.c:204
    a51c:	f9401fa0 	ldr	x0, [x29,#56]
    a520:	b9400801 	ldr	w1, [x0,#8]
    a524:	f94037a0 	ldr	x0, [x29,#104]
    a528:	b9000801 	str	w1, [x0,#8]
/home/optee/RPi3/optee_os/lib/libmpa/mpa_montgomery.c:206
    a52c:	910163a0 	add	x0, x29, #0x58
    a530:	f9400fa1 	ldr	x1, [x29,#24]
    a534:	9400099f 	bl	cbb0 <mpa_alloc_static_temp_var>
/home/optee/RPi3/optee_os/lib/libmpa/mpa_montgomery.c:207
    a538:	910143a0 	add	x0, x29, #0x50
    a53c:	f9400fa1 	ldr	x1, [x29,#24]
    a540:	9400099c 	bl	cbb0 <mpa_alloc_static_temp_var>
/home/optee/RPi3/optee_os/lib/libmpa/mpa_montgomery.c:209
    a544:	f9402ba6 	ldr	x6, [x29,#80]
    a548:	f9402fa1 	ldr	x1, [x29,#88]
    a54c:	90000040 	adrp	x0, 12000 <PRIME_TABLE+0x5d0>
    a550:	f9454800 	ldr	x0, [x0,#2704]
    a554:	f9400fa5 	ldr	x5, [x29,#24]
    a558:	aa0003e4 	mov	x4, x0
    a55c:	f94037a3 	ldr	x3, [x29,#104]
    a560:	d2800002 	mov	x2, #0x0                   	// #0
    a564:	aa0603e0 	mov	x0, x6
    a568:	94000825 	bl	c5fc <mpa_extended_gcd>
/home/optee/RPi3/optee_os/lib/libmpa/mpa_montgomery.c:211
    a56c:	f9402ba0 	ldr	x0, [x29,#80]
    a570:	52800021 	mov	w1, #0x1                   	// #1
    a574:	940012c2 	bl	f07c <mpa_cmp_short>
    a578:	b90063a0 	str	w0, [x29,#96]
/home/optee/RPi3/optee_os/lib/libmpa/mpa_montgomery.c:213
    a57c:	b94063a0 	ldr	w0, [x29,#96]
    a580:	6b1f001f 	cmp	w0, wzr
    a584:	54000241 	b.ne	a5cc <mpa_compute_fmm_context+0x150>
/home/optee/RPi3/optee_os/lib/libmpa/mpa_montgomery.c:229
    a588:	f9402fa0 	ldr	x0, [x29,#88]
    a58c:	b9400400 	ldr	w0, [x0,#4]
    a590:	6b1f001f 	cmp	w0, wzr
    a594:	5400012b 	b.lt	a5b8 <mpa_compute_fmm_context+0x13c>
/home/optee/RPi3/optee_os/lib/libmpa/mpa_montgomery.c:230
    a598:	f9402fa4 	ldr	x4, [x29,#88]
    a59c:	f9402fa1 	ldr	x1, [x29,#88]
    a5a0:	90000040 	adrp	x0, 12000 <PRIME_TABLE+0x5d0>
    a5a4:	f9454800 	ldr	x0, [x0,#2704]
    a5a8:	f9400fa3 	ldr	x3, [x29,#24]
    a5ac:	aa0003e2 	mov	x2, x0
    a5b0:	aa0403e0 	mov	x0, x4
    a5b4:	94001038 	bl	e694 <mpa_sub>
/home/optee/RPi3/optee_os/lib/libmpa/mpa_montgomery.c:234
    a5b8:	f9402fa0 	ldr	x0, [x29,#88]
    a5bc:	b9400801 	ldr	w1, [x0,#8]
    a5c0:	f94013a0 	ldr	x0, [x29,#32]
    a5c4:	b9000001 	str	w1, [x0]
    a5c8:	14000002 	b	a5d0 <mpa_compute_fmm_context+0x154>
/home/optee/RPi3/optee_os/lib/libmpa/mpa_montgomery.c:214
    a5cc:	d503201f 	nop
/home/optee/RPi3/optee_os/lib/libmpa/mpa_montgomery.c:238
    a5d0:	910143a0 	add	x0, x29, #0x50
    a5d4:	f9400fa1 	ldr	x1, [x29,#24]
    a5d8:	94000981 	bl	cbdc <mpa_free_static_temp_var>
/home/optee/RPi3/optee_os/lib/libmpa/mpa_montgomery.c:239
    a5dc:	910163a0 	add	x0, x29, #0x58
    a5e0:	f9400fa1 	ldr	x1, [x29,#24]
    a5e4:	9400097e 	bl	cbdc <mpa_free_static_temp_var>
/home/optee/RPi3/optee_os/lib/libmpa/mpa_montgomery.c:241
    a5e8:	b94063a0 	ldr	w0, [x29,#96]
    a5ec:	6b1f001f 	cmp	w0, wzr
    a5f0:	54000060 	b.eq	a5fc <mpa_compute_fmm_context+0x180>
/home/optee/RPi3/optee_os/lib/libmpa/mpa_montgomery.c:242
    a5f4:	12800000 	mov	w0, #0xffffffff            	// #-1
    a5f8:	14000002 	b	a600 <mpa_compute_fmm_context+0x184>
/home/optee/RPi3/optee_os/lib/libmpa/mpa_montgomery.c:243
    a5fc:	52800000 	mov	w0, #0x0                   	// #0
/home/optee/RPi3/optee_os/lib/libmpa/mpa_montgomery.c:244 (discriminator 1)
    a600:	a8c77bfd 	ldp	x29, x30, [sp],#112
    a604:	d65f03c0 	ret

000000000000a608 <mpa_montgomery_mul>:
mpa_montgomery_mul():
/home/optee/RPi3/optee_os/lib/libmpa/mpa_montgomery.c:257
    a608:	a9bb7bfd 	stp	x29, x30, [sp,#-80]!
    a60c:	910003fd 	mov	x29, sp
    a610:	f9001fa0 	str	x0, [x29,#56]
    a614:	f9001ba1 	str	x1, [x29,#48]
    a618:	f90017a2 	str	x2, [x29,#40]
    a61c:	f90013a3 	str	x3, [x29,#32]
    a620:	b9001fa4 	str	w4, [x29,#28]
    a624:	f9000ba5 	str	x5, [x29,#16]
/home/optee/RPi3/optee_os/lib/libmpa/mpa_montgomery.c:260
    a628:	910123a0 	add	x0, x29, #0x48
    a62c:	f9400ba1 	ldr	x1, [x29,#16]
    a630:	94000960 	bl	cbb0 <mpa_alloc_static_temp_var>
/home/optee/RPi3/optee_os/lib/libmpa/mpa_montgomery.c:262
    a634:	f94027a0 	ldr	x0, [x29,#72]
    a638:	b9401fa4 	ldr	w4, [x29,#28]
    a63c:	f94013a3 	ldr	x3, [x29,#32]
    a640:	f94017a2 	ldr	x2, [x29,#40]
    a644:	f9401ba1 	ldr	x1, [x29,#48]
    a648:	97ffff15 	bl	a29c <__mpa_montgomery_mul>
/home/optee/RPi3/optee_os/lib/libmpa/mpa_montgomery.c:264
    a64c:	f94027a0 	ldr	x0, [x29,#72]
    a650:	aa0003e1 	mov	x1, x0
    a654:	f9401fa0 	ldr	x0, [x29,#56]
    a658:	97fffdcb 	bl	9d84 <mpa_copy>
/home/optee/RPi3/optee_os/lib/libmpa/mpa_montgomery.c:265
    a65c:	910123a0 	add	x0, x29, #0x48
    a660:	f9400ba1 	ldr	x1, [x29,#16]
    a664:	9400095e 	bl	cbdc <mpa_free_static_temp_var>
/home/optee/RPi3/optee_os/lib/libmpa/mpa_montgomery.c:266
    a668:	d503201f 	nop
    a66c:	a8c57bfd 	ldp	x29, x30, [sp],#80
    a670:	d65f03c0 	ret

000000000000a674 <mpa_is_prob_prime>:
mpa_is_prob_prime():
/home/optee/RPi3/optee_os/lib/libmpa/mpa_primetest.c:89
    a674:	a9bc7bfd 	stp	x29, x30, [sp,#-64]!
    a678:	910003fd 	mov	x29, sp
    a67c:	f90017a0 	str	x0, [x29,#40]
    a680:	b90027a1 	str	w1, [x29,#36]
    a684:	f9000fa2 	str	x2, [x29,#24]
/home/optee/RPi3/optee_os/lib/libmpa/mpa_primetest.c:90
    a688:	b9003fbf 	str	wzr, [x29,#60]
/home/optee/RPi3/optee_os/lib/libmpa/mpa_primetest.c:93
    a68c:	f94017a0 	ldr	x0, [x29,#40]
    a690:	94000024 	bl	a720 <is_small_prime>
    a694:	b9003fa0 	str	w0, [x29,#60]
/home/optee/RPi3/optee_os/lib/libmpa/mpa_primetest.c:94
    a698:	b9403fa0 	ldr	w0, [x29,#60]
    a69c:	3100041f 	cmn	w0, #0x1
    a6a0:	540001c1 	b.ne	a6d8 <mpa_is_prob_prime+0x64>
/home/optee/RPi3/optee_os/lib/libmpa/mpa_primetest.c:98
    a6a4:	f9400fa1 	ldr	x1, [x29,#24]
    a6a8:	f94017a0 	ldr	x0, [x29,#40]
    a6ac:	94000052 	bl	a7f4 <has_small_factors>
    a6b0:	6b1f001f 	cmp	w0, wzr
    a6b4:	54000060 	b.eq	a6c0 <mpa_is_prob_prime+0x4c>
/home/optee/RPi3/optee_os/lib/libmpa/mpa_primetest.c:99
    a6b8:	b9003fbf 	str	wzr, [x29,#60]
/home/optee/RPi3/optee_os/lib/libmpa/mpa_primetest.c:100
    a6bc:	14000008 	b	a6dc <mpa_is_prob_prime+0x68>
/home/optee/RPi3/optee_os/lib/libmpa/mpa_primetest.c:103
    a6c0:	f9400fa2 	ldr	x2, [x29,#24]
    a6c4:	b94027a1 	ldr	w1, [x29,#36]
    a6c8:	f94017a0 	ldr	x0, [x29,#40]
    a6cc:	94000066 	bl	a864 <primality_test_miller_rabin>
    a6d0:	b9003fa0 	str	w0, [x29,#60]
    a6d4:	14000002 	b	a6dc <mpa_is_prob_prime+0x68>
/home/optee/RPi3/optee_os/lib/libmpa/mpa_primetest.c:95
    a6d8:	d503201f 	nop
/home/optee/RPi3/optee_os/lib/libmpa/mpa_primetest.c:106
    a6dc:	b9403fa0 	ldr	w0, [x29,#60]
/home/optee/RPi3/optee_os/lib/libmpa/mpa_primetest.c:107
    a6e0:	a8c47bfd 	ldp	x29, x30, [sp],#64
    a6e4:	d65f03c0 	ret

000000000000a6e8 <check_table>:
check_table():
/home/optee/RPi3/optee_os/lib/libmpa/mpa_primetest.c:116
    a6e8:	d10043ff 	sub	sp, sp, #0x10
    a6ec:	b9000fe0 	str	w0, [sp,#12]
/home/optee/RPi3/optee_os/lib/libmpa/mpa_primetest.c:117
    a6f0:	b9400fe0 	ldr	w0, [sp,#12]
    a6f4:	53057c01 	lsr	w1, w0, #5
    a6f8:	f0000020 	adrp	x0, 11000 <__func__.3864+0x18>
    a6fc:	9128c000 	add	x0, x0, #0xa30
    a700:	2a0103e1 	mov	w1, w1
    a704:	b8617801 	ldr	w1, [x0,x1,lsl #2]
    a708:	b9400fe0 	ldr	w0, [sp,#12]
    a70c:	12001000 	and	w0, w0, #0x1f
    a710:	1ac02420 	lsr	w0, w1, w0
    a714:	12000000 	and	w0, w0, #0x1
/home/optee/RPi3/optee_os/lib/libmpa/mpa_primetest.c:118
    a718:	910043ff 	add	sp, sp, #0x10
    a71c:	d65f03c0 	ret

000000000000a720 <is_small_prime>:
is_small_prime():
/home/optee/RPi3/optee_os/lib/libmpa/mpa_primetest.c:131
    a720:	a9bd7bfd 	stp	x29, x30, [sp,#-48]!
    a724:	910003fd 	mov	x29, sp
    a728:	f9000fa0 	str	x0, [x29,#24]
/home/optee/RPi3/optee_os/lib/libmpa/mpa_primetest.c:136
    a72c:	f9400fa0 	ldr	x0, [x29,#24]
    a730:	b9400400 	ldr	w0, [x0,#4]
    a734:	6b1f001f 	cmp	w0, wzr
    a738:	5a80a400 	cneg	w0, w0, lt
    a73c:	7100041f 	cmp	w0, #0x1
    a740:	5400012d 	b.le	a764 <is_small_prime+0x44>
/home/optee/RPi3/optee_os/lib/libmpa/mpa_primetest.c:137
    a744:	f9400fa0 	ldr	x0, [x29,#24]
    a748:	97fffe20 	bl	9fc8 <mpa_parity>
    a74c:	6b1f001f 	cmp	w0, wzr
    a750:	54000061 	b.ne	a75c <is_small_prime+0x3c>
/home/optee/RPi3/optee_os/lib/libmpa/mpa_primetest.c:137 (discriminator 1)
    a754:	52800000 	mov	w0, #0x0                   	// #0
    a758:	14000025 	b	a7ec <is_small_prime+0xcc>
/home/optee/RPi3/optee_os/lib/libmpa/mpa_primetest.c:137 (discriminator 2)
    a75c:	12800000 	mov	w0, #0xffffffff            	// #-1
    a760:	14000023 	b	a7ec <is_small_prime+0xcc>
/home/optee/RPi3/optee_os/lib/libmpa/mpa_primetest.c:139
    a764:	f9400fa0 	ldr	x0, [x29,#24]
    a768:	9400017f 	bl	ad64 <mpa_get_word>
    a76c:	b9002fa0 	str	w0, [x29,#44]
/home/optee/RPi3/optee_os/lib/libmpa/mpa_primetest.c:140
    a770:	b9402fa0 	ldr	w0, [x29,#44]
    a774:	32000000 	orr	w0, w0, #0x1
    a778:	7100041f 	cmp	w0, #0x1
    a77c:	54000061 	b.ne	a788 <is_small_prime+0x68>
/home/optee/RPi3/optee_os/lib/libmpa/mpa_primetest.c:141
    a780:	52800000 	mov	w0, #0x0                   	// #0
    a784:	1400001a 	b	a7ec <is_small_prime+0xcc>
/home/optee/RPi3/optee_os/lib/libmpa/mpa_primetest.c:142
    a788:	b9402fa0 	ldr	w0, [x29,#44]
    a78c:	7100081f 	cmp	w0, #0x2
    a790:	54000061 	b.ne	a79c <is_small_prime+0x7c>
/home/optee/RPi3/optee_os/lib/libmpa/mpa_primetest.c:143
    a794:	52800020 	mov	w0, #0x1                   	// #1
    a798:	14000015 	b	a7ec <is_small_prime+0xcc>
/home/optee/RPi3/optee_os/lib/libmpa/mpa_primetest.c:144
    a79c:	b9402fa0 	ldr	w0, [x29,#44]
    a7a0:	12000000 	and	w0, w0, #0x1
    a7a4:	6b1f001f 	cmp	w0, wzr
    a7a8:	54000061 	b.ne	a7b4 <is_small_prime+0x94>
/home/optee/RPi3/optee_os/lib/libmpa/mpa_primetest.c:145
    a7ac:	52800000 	mov	w0, #0x0                   	// #0
    a7b0:	1400000f 	b	a7ec <is_small_prime+0xcc>
/home/optee/RPi3/optee_os/lib/libmpa/mpa_primetest.c:148
    a7b4:	529869e0 	mov	w0, #0xc34f                	// #49999
    a7b8:	2a0003e1 	mov	w1, w0
    a7bc:	f9400fa0 	ldr	x0, [x29,#24]
    a7c0:	9400122f 	bl	f07c <mpa_cmp_short>
    a7c4:	6b1f001f 	cmp	w0, wzr
    a7c8:	5400006d 	b.le	a7d4 <is_small_prime+0xb4>
/home/optee/RPi3/optee_os/lib/libmpa/mpa_primetest.c:149
    a7cc:	12800000 	mov	w0, #0xffffffff            	// #-1
    a7d0:	14000007 	b	a7ec <is_small_prime+0xcc>
/home/optee/RPi3/optee_os/lib/libmpa/mpa_primetest.c:150
    a7d4:	b9402fa0 	ldr	w0, [x29,#44]
    a7d8:	51000c00 	sub	w0, w0, #0x3
    a7dc:	53017c00 	lsr	w0, w0, #1
    a7e0:	b9002fa0 	str	w0, [x29,#44]
/home/optee/RPi3/optee_os/lib/libmpa/mpa_primetest.c:151
    a7e4:	b9402fa0 	ldr	w0, [x29,#44]
    a7e8:	97ffffc0 	bl	a6e8 <check_table>
/home/optee/RPi3/optee_os/lib/libmpa/mpa_primetest.c:155
    a7ec:	a8c37bfd 	ldp	x29, x30, [sp],#48
    a7f0:	d65f03c0 	ret

000000000000a7f4 <has_small_factors>:
has_small_factors():
/home/optee/RPi3/optee_os/lib/libmpa/mpa_primetest.c:165
    a7f4:	a9bc7bfd 	stp	x29, x30, [sp,#-64]!
    a7f8:	910003fd 	mov	x29, sp
    a7fc:	f9000fa0 	str	x0, [x29,#24]
    a800:	f9000ba1 	str	x1, [x29,#16]
/home/optee/RPi3/optee_os/lib/libmpa/mpa_primetest.c:166
    a804:	90000040 	adrp	x0, 12000 <PRIME_TABLE+0x5d0>
    a808:	9119a000 	add	x0, x0, #0x668
    a80c:	f9001fa0 	str	x0, [x29,#56]
/home/optee/RPi3/optee_os/lib/libmpa/mpa_primetest.c:170
    a810:	9100a3a0 	add	x0, x29, #0x28
    a814:	f9400ba1 	ldr	x1, [x29,#16]
    a818:	940008e6 	bl	cbb0 <mpa_alloc_static_temp_var>
/home/optee/RPi3/optee_os/lib/libmpa/mpa_primetest.c:171
    a81c:	f94017a0 	ldr	x0, [x29,#40]
    a820:	f9400ba3 	ldr	x3, [x29,#16]
    a824:	f9401fa2 	ldr	x2, [x29,#56]
    a828:	f9400fa1 	ldr	x1, [x29,#24]
    a82c:	94000712 	bl	c474 <mpa_gcd>
/home/optee/RPi3/optee_os/lib/libmpa/mpa_primetest.c:172
    a830:	f94017a0 	ldr	x0, [x29,#40]
    a834:	52800021 	mov	w1, #0x1                   	// #1
    a838:	94001211 	bl	f07c <mpa_cmp_short>
    a83c:	6b1f001f 	cmp	w0, wzr
    a840:	1a9f07e0 	cset	w0, ne
    a844:	53001c00 	uxtb	w0, w0
    a848:	b90037a0 	str	w0, [x29,#52]
/home/optee/RPi3/optee_os/lib/libmpa/mpa_primetest.c:173
    a84c:	9100a3a0 	add	x0, x29, #0x28
    a850:	f9400ba1 	ldr	x1, [x29,#16]
    a854:	940008e2 	bl	cbdc <mpa_free_static_temp_var>
/home/optee/RPi3/optee_os/lib/libmpa/mpa_primetest.c:175
    a858:	b94037a0 	ldr	w0, [x29,#52]
/home/optee/RPi3/optee_os/lib/libmpa/mpa_primetest.c:176
    a85c:	a8c47bfd 	ldp	x29, x30, [sp],#64
    a860:	d65f03c0 	ret

000000000000a864 <primality_test_miller_rabin>:
primality_test_miller_rabin():
/home/optee/RPi3/optee_os/lib/libmpa/mpa_primetest.c:185
    a864:	a9b77bfd 	stp	x29, x30, [sp,#-144]!
    a868:	910003fd 	mov	x29, sp
    a86c:	f90017a0 	str	x0, [x29,#40]
    a870:	b90027a1 	str	w1, [x29,#36]
    a874:	f9000fa2 	str	x2, [x29,#24]
/home/optee/RPi3/optee_os/lib/libmpa/mpa_primetest.c:192
    a878:	b9007fbf 	str	wzr, [x29,#124]
/home/optee/RPi3/optee_os/lib/libmpa/mpa_primetest.c:202
    a87c:	910123a0 	add	x0, x29, #0x48
    a880:	f9400fa1 	ldr	x1, [x29,#24]
    a884:	940008cb 	bl	cbb0 <mpa_alloc_static_temp_var>
/home/optee/RPi3/optee_os/lib/libmpa/mpa_primetest.c:203
    a888:	910103a0 	add	x0, x29, #0x40
    a88c:	f9400fa1 	ldr	x1, [x29,#24]
    a890:	940008c8 	bl	cbb0 <mpa_alloc_static_temp_var>
/home/optee/RPi3/optee_os/lib/libmpa/mpa_primetest.c:205
    a894:	f94027a0 	ldr	x0, [x29,#72]
    a898:	f94023a1 	ldr	x1, [x29,#64]
    a89c:	9100f3a2 	add	x2, x29, #0x3c
    a8a0:	f9400fa4 	ldr	x4, [x29,#24]
    a8a4:	aa0203e3 	mov	x3, x2
    a8a8:	aa0103e2 	mov	x2, x1
    a8ac:	aa0003e1 	mov	x1, x0
    a8b0:	f94017a0 	ldr	x0, [x29,#40]
    a8b4:	97fffef2 	bl	a47c <mpa_compute_fmm_context>
    a8b8:	3100041f 	cmn	w0, #0x1
    a8bc:	54000061 	b.ne	a8c8 <primality_test_miller_rabin+0x64>
/home/optee/RPi3/optee_os/lib/libmpa/mpa_primetest.c:206
    a8c0:	b9008fbf 	str	wzr, [x29,#140]
/home/optee/RPi3/optee_os/lib/libmpa/mpa_primetest.c:207
    a8c4:	140000bb 	b	abb0 <primality_test_miller_rabin+0x34c>
/home/optee/RPi3/optee_os/lib/libmpa/mpa_primetest.c:210
    a8c8:	9101a3a0 	add	x0, x29, #0x68
    a8cc:	f9400fa1 	ldr	x1, [x29,#24]
    a8d0:	940008b8 	bl	cbb0 <mpa_alloc_static_temp_var>
/home/optee/RPi3/optee_os/lib/libmpa/mpa_primetest.c:211
    a8d4:	910183a0 	add	x0, x29, #0x60
    a8d8:	f9400fa1 	ldr	x1, [x29,#24]
    a8dc:	940008b5 	bl	cbb0 <mpa_alloc_static_temp_var>
/home/optee/RPi3/optee_os/lib/libmpa/mpa_primetest.c:212
    a8e0:	910163a0 	add	x0, x29, #0x58
    a8e4:	f9400fa1 	ldr	x1, [x29,#24]
    a8e8:	940008b2 	bl	cbb0 <mpa_alloc_static_temp_var>
/home/optee/RPi3/optee_os/lib/libmpa/mpa_primetest.c:213
    a8ec:	910143a0 	add	x0, x29, #0x50
    a8f0:	f9400fa1 	ldr	x1, [x29,#24]
    a8f4:	940008af 	bl	cbb0 <mpa_alloc_static_temp_var>
/home/optee/RPi3/optee_os/lib/libmpa/mpa_primetest.c:216
    a8f8:	90000040 	adrp	x0, 12000 <PRIME_TABLE+0x5d0>
    a8fc:	911c8000 	add	x0, x0, #0x720
    a900:	aa0003e1 	mov	x1, x0
    a904:	f94017a0 	ldr	x0, [x29,#40]
    a908:	940011a6 	bl	efa0 <mpa_cmp>
/home/optee/RPi3/optee_os/lib/libmpa/mpa_primetest.c:215
    a90c:	531f7c00 	lsr	w0, w0, #31
    a910:	3901efa0 	strb	w0, [x29,#123]
/home/optee/RPi3/optee_os/lib/libmpa/mpa_primetest.c:218
    a914:	3941efa0 	ldrb	w0, [x29,#123]
    a918:	6b1f001f 	cmp	w0, wzr
    a91c:	54000080 	b.eq	a92c <primality_test_miller_rabin+0xc8>
/home/optee/RPi3/optee_os/lib/libmpa/mpa_primetest.c:219
    a920:	528000e0 	mov	w0, #0x7                   	// #7
    a924:	b9008ba0 	str	w0, [x29,#136]
    a928:	14000007 	b	a944 <primality_test_miller_rabin+0xe0>
/home/optee/RPi3/optee_os/lib/libmpa/mpa_primetest.c:221
    a92c:	b94027a0 	ldr	w0, [x29,#36]
    a930:	11000400 	add	w0, w0, #0x1
    a934:	531f7c01 	lsr	w1, w0, #31
    a938:	0b000020 	add	w0, w1, w0
    a93c:	13017c00 	asr	w0, w0, #1
    a940:	b9008ba0 	str	w0, [x29,#136]
/home/optee/RPi3/optee_os/lib/libmpa/mpa_primetest.c:223
    a944:	f9402fa0 	ldr	x0, [x29,#88]
    a948:	f9400fa3 	ldr	x3, [x29,#24]
    a94c:	52800022 	mov	w2, #0x1                   	// #1
    a950:	f94017a1 	ldr	x1, [x29,#40]
    a954:	9400109b 	bl	ebc0 <mpa_sub_word>
/home/optee/RPi3/optee_os/lib/libmpa/mpa_primetest.c:224
    a958:	f94033a0 	ldr	x0, [x29,#96]
    a95c:	f9402fa1 	ldr	x1, [x29,#88]
    a960:	97fffd09 	bl	9d84 <mpa_copy>
/home/optee/RPi3/optee_os/lib/libmpa/mpa_primetest.c:225
    a964:	b90083bf 	str	wzr, [x29,#128]
/home/optee/RPi3/optee_os/lib/libmpa/mpa_primetest.c:227
    a968:	14000008 	b	a988 <primality_test_miller_rabin+0x124>
/home/optee/RPi3/optee_os/lib/libmpa/mpa_primetest.c:228
    a96c:	f94033a0 	ldr	x0, [x29,#96]
    a970:	f94033a1 	ldr	x1, [x29,#96]
    a974:	52800022 	mov	w2, #0x1                   	// #1
    a978:	94000c51 	bl	dabc <mpa_shift_right>
/home/optee/RPi3/optee_os/lib/libmpa/mpa_primetest.c:229
    a97c:	b94083a0 	ldr	w0, [x29,#128]
    a980:	11000400 	add	w0, w0, #0x1
    a984:	b90083a0 	str	w0, [x29,#128]
/home/optee/RPi3/optee_os/lib/libmpa/mpa_primetest.c:227
    a988:	f94033a0 	ldr	x0, [x29,#96]
    a98c:	97fffd8f 	bl	9fc8 <mpa_parity>
    a990:	6b1f001f 	cmp	w0, wzr
    a994:	54fffec0 	b.eq	a96c <primality_test_miller_rabin+0x108>
/home/optee/RPi3/optee_os/lib/libmpa/mpa_primetest.c:232
    a998:	12800000 	mov	w0, #0xffffffff            	// #-1
    a99c:	b9008fa0 	str	w0, [x29,#140]
/home/optee/RPi3/optee_os/lib/libmpa/mpa_primetest.c:233
    a9a0:	b90087bf 	str	wzr, [x29,#132]
    a9a4:	14000068 	b	ab44 <primality_test_miller_rabin+0x2e0>
/home/optee/RPi3/optee_os/lib/libmpa/mpa_primetest.c:234
    a9a8:	3941efa0 	ldrb	w0, [x29,#123]
    a9ac:	6b1f001f 	cmp	w0, wzr
    a9b0:	54000240 	b.eq	a9f8 <primality_test_miller_rabin+0x194>
/home/optee/RPi3/optee_os/lib/libmpa/mpa_primetest.c:235
    a9b4:	f94037a2 	ldr	x2, [x29,#104]
    a9b8:	90000040 	adrp	x0, 12000 <PRIME_TABLE+0x5d0>
    a9bc:	911d0000 	add	x0, x0, #0x740
    a9c0:	b98087a1 	ldrsw	x1, [x29,#132]
    a9c4:	b8617800 	ldr	w0, [x0,x1,lsl #2]
    a9c8:	2a0003e1 	mov	w1, w0
    a9cc:	aa0203e0 	mov	x0, x2
    a9d0:	94000081 	bl	abd4 <mpa_set_S32>
/home/optee/RPi3/optee_os/lib/libmpa/mpa_primetest.c:236
    a9d4:	f94037a0 	ldr	x0, [x29,#104]
    a9d8:	aa0003e1 	mov	x1, x0
    a9dc:	f94017a0 	ldr	x0, [x29,#40]
    a9e0:	94001170 	bl	efa0 <mpa_cmp>
    a9e4:	6b1f001f 	cmp	w0, wzr
    a9e8:	540002c1 	b.ne	aa40 <primality_test_miller_rabin+0x1dc>
/home/optee/RPi3/optee_os/lib/libmpa/mpa_primetest.c:237
    a9ec:	52800020 	mov	w0, #0x1                   	// #1
    a9f0:	b9008fa0 	str	w0, [x29,#140]
/home/optee/RPi3/optee_os/lib/libmpa/mpa_primetest.c:238
    a9f4:	14000051 	b	ab38 <primality_test_miller_rabin+0x2d4>
/home/optee/RPi3/optee_os/lib/libmpa/mpa_primetest.c:246
    a9f8:	f9402fa0 	ldr	x0, [x29,#88]
    a9fc:	f9402fa1 	ldr	x1, [x29,#88]
    aa00:	f9400fa3 	ldr	x3, [x29,#24]
    aa04:	52800022 	mov	w2, #0x1                   	// #1
    aa08:	9400106e 	bl	ebc0 <mpa_sub_word>
/home/optee/RPi3/optee_os/lib/libmpa/mpa_primetest.c:248
    aa0c:	f94037a0 	ldr	x0, [x29,#104]
    aa10:	f9402fa1 	ldr	x1, [x29,#88]
    aa14:	94000a3b 	bl	d300 <mpa_get_random>
/home/optee/RPi3/optee_os/lib/libmpa/mpa_primetest.c:249
    aa18:	f9402fa0 	ldr	x0, [x29,#88]
    aa1c:	f9402fa1 	ldr	x1, [x29,#88]
    aa20:	f9400fa3 	ldr	x3, [x29,#24]
    aa24:	52800022 	mov	w2, #0x1                   	// #1
    aa28:	94000fe8 	bl	e9c8 <mpa_add_word>
/home/optee/RPi3/optee_os/lib/libmpa/mpa_primetest.c:251
    aa2c:	f94037a0 	ldr	x0, [x29,#104]
    aa30:	f94037a1 	ldr	x1, [x29,#104]
    aa34:	f9400fa3 	ldr	x3, [x29,#24]
    aa38:	52800042 	mov	w2, #0x2                   	// #2
    aa3c:	94000fe3 	bl	e9c8 <mpa_add_word>
/home/optee/RPi3/optee_os/lib/libmpa/mpa_primetest.c:254
    aa40:	f9402ba0 	ldr	x0, [x29,#80]
    aa44:	f94037a1 	ldr	x1, [x29,#104]
    aa48:	f94033a2 	ldr	x2, [x29,#96]
    aa4c:	f94027a3 	ldr	x3, [x29,#72]
    aa50:	f94023a4 	ldr	x4, [x29,#64]
    aa54:	b9403fa5 	ldr	w5, [x29,#60]
    aa58:	f9400fa7 	ldr	x7, [x29,#24]
    aa5c:	2a0503e6 	mov	w6, w5
    aa60:	aa0403e5 	mov	x5, x4
    aa64:	aa0303e4 	mov	x4, x3
    aa68:	f94017a3 	ldr	x3, [x29,#40]
    aa6c:	940011c7 	bl	f188 <mpa_exp_mod>
/home/optee/RPi3/optee_os/lib/libmpa/mpa_primetest.c:255
    aa70:	b9007fbf 	str	wzr, [x29,#124]
/home/optee/RPi3/optee_os/lib/libmpa/mpa_primetest.c:258
    aa74:	f9402ba0 	ldr	x0, [x29,#80]
    aa78:	52800021 	mov	w1, #0x1                   	// #1
    aa7c:	94001180 	bl	f07c <mpa_cmp_short>
    aa80:	b90077a0 	str	w0, [x29,#116]
/home/optee/RPi3/optee_os/lib/libmpa/mpa_primetest.c:259
    aa84:	b94077a0 	ldr	w0, [x29,#116]
    aa88:	6b1f001f 	cmp	w0, wzr
    aa8c:	540000c1 	b.ne	aaa4 <primality_test_miller_rabin+0x240>
/home/optee/RPi3/optee_os/lib/libmpa/mpa_primetest.c:259 (discriminator 1)
    aa90:	b9407fa0 	ldr	w0, [x29,#124]
    aa94:	6b1f001f 	cmp	w0, wzr
    aa98:	5400006d 	b.le	aaa4 <primality_test_miller_rabin+0x240>
/home/optee/RPi3/optee_os/lib/libmpa/mpa_primetest.c:260
    aa9c:	b9008fbf 	str	wzr, [x29,#140]
/home/optee/RPi3/optee_os/lib/libmpa/mpa_primetest.c:261
    aaa0:	14000026 	b	ab38 <primality_test_miller_rabin+0x2d4>
/home/optee/RPi3/optee_os/lib/libmpa/mpa_primetest.c:264
    aaa4:	f9402ba0 	ldr	x0, [x29,#80]
    aaa8:	f9402fa1 	ldr	x1, [x29,#88]
    aaac:	9400113d 	bl	efa0 <mpa_cmp>
    aab0:	6b1f001f 	cmp	w0, wzr
    aab4:	54000400 	b.eq	ab34 <primality_test_miller_rabin+0x2d0>
/home/optee/RPi3/optee_os/lib/libmpa/mpa_primetest.c:264 (discriminator 1)
    aab8:	b94077a0 	ldr	w0, [x29,#116]
    aabc:	6b1f001f 	cmp	w0, wzr
    aac0:	54000081 	b.ne	aad0 <primality_test_miller_rabin+0x26c>
/home/optee/RPi3/optee_os/lib/libmpa/mpa_primetest.c:265
    aac4:	b9407fa0 	ldr	w0, [x29,#124]
    aac8:	6b1f001f 	cmp	w0, wzr
    aacc:	54000340 	b.eq	ab34 <primality_test_miller_rabin+0x2d0>
/home/optee/RPi3/optee_os/lib/libmpa/mpa_primetest.c:270
    aad0:	b9407fa0 	ldr	w0, [x29,#124]
    aad4:	11000400 	add	w0, w0, #0x1
    aad8:	b9007fa0 	str	w0, [x29,#124]
/home/optee/RPi3/optee_os/lib/libmpa/mpa_primetest.c:271
    aadc:	b9407fa1 	ldr	w1, [x29,#124]
    aae0:	b94083a0 	ldr	w0, [x29,#128]
    aae4:	6b00003f 	cmp	w1, w0
    aae8:	5400022a 	b.ge	ab2c <primality_test_miller_rabin+0x2c8>
/home/optee/RPi3/optee_os/lib/libmpa/mpa_primetest.c:272
    aaec:	f9402ba8 	ldr	x8, [x29,#80]
    aaf0:	f9402ba1 	ldr	x1, [x29,#80]
    aaf4:	f94027a2 	ldr	x2, [x29,#72]
    aaf8:	f94023a3 	ldr	x3, [x29,#64]
    aafc:	b9403fa4 	ldr	w4, [x29,#60]
    ab00:	90000040 	adrp	x0, 12000 <PRIME_TABLE+0x5d0>
    ab04:	911cc000 	add	x0, x0, #0x730
    ab08:	f9400fa7 	ldr	x7, [x29,#24]
    ab0c:	2a0403e6 	mov	w6, w4
    ab10:	aa0303e5 	mov	x5, x3
    ab14:	aa0203e4 	mov	x4, x2
    ab18:	f94017a3 	ldr	x3, [x29,#40]
    ab1c:	aa0003e2 	mov	x2, x0
    ab20:	aa0803e0 	mov	x0, x8
    ab24:	94001199 	bl	f188 <mpa_exp_mod>
/home/optee/RPi3/optee_os/lib/libmpa/mpa_primetest.c:274
    ab28:	17ffffd3 	b	aa74 <primality_test_miller_rabin+0x210>
/home/optee/RPi3/optee_os/lib/libmpa/mpa_primetest.c:276
    ab2c:	b9008fbf 	str	wzr, [x29,#140]
    ab30:	14000002 	b	ab38 <primality_test_miller_rabin+0x2d4>
/home/optee/RPi3/optee_os/lib/libmpa/mpa_primetest.c:267
    ab34:	d503201f 	nop
/home/optee/RPi3/optee_os/lib/libmpa/mpa_primetest.c:233 (discriminator 2)
    ab38:	b94087a0 	ldr	w0, [x29,#132]
    ab3c:	11000400 	add	w0, w0, #0x1
    ab40:	b90087a0 	str	w0, [x29,#132]
/home/optee/RPi3/optee_os/lib/libmpa/mpa_primetest.c:233 (discriminator 1)
    ab44:	b94087a1 	ldr	w1, [x29,#132]
    ab48:	b9408ba0 	ldr	w0, [x29,#136]
    ab4c:	6b00003f 	cmp	w1, w0
    ab50:	5400008a 	b.ge	ab60 <primality_test_miller_rabin+0x2fc>
/home/optee/RPi3/optee_os/lib/libmpa/mpa_primetest.c:233 (discriminator 3)
    ab54:	b9408fa0 	ldr	w0, [x29,#140]
    ab58:	3100041f 	cmn	w0, #0x1
    ab5c:	54fff260 	b.eq	a9a8 <primality_test_miller_rabin+0x144>
/home/optee/RPi3/optee_os/lib/libmpa/mpa_primetest.c:279
    ab60:	b9408fa0 	ldr	w0, [x29,#140]
    ab64:	3100041f 	cmn	w0, #0x1
    ab68:	540000c1 	b.ne	ab80 <primality_test_miller_rabin+0x31c>
/home/optee/RPi3/optee_os/lib/libmpa/mpa_primetest.c:279 (discriminator 1)
    ab6c:	3941efa0 	ldrb	w0, [x29,#123]
    ab70:	6b1f001f 	cmp	w0, wzr
    ab74:	54000060 	b.eq	ab80 <primality_test_miller_rabin+0x31c>
/home/optee/RPi3/optee_os/lib/libmpa/mpa_primetest.c:280
    ab78:	52800020 	mov	w0, #0x1                   	// #1
    ab7c:	b9008fa0 	str	w0, [x29,#140]
/home/optee/RPi3/optee_os/lib/libmpa/mpa_primetest.c:282
    ab80:	9101a3a0 	add	x0, x29, #0x68
    ab84:	f9400fa1 	ldr	x1, [x29,#24]
    ab88:	94000815 	bl	cbdc <mpa_free_static_temp_var>
/home/optee/RPi3/optee_os/lib/libmpa/mpa_primetest.c:283
    ab8c:	910183a0 	add	x0, x29, #0x60
    ab90:	f9400fa1 	ldr	x1, [x29,#24]
    ab94:	94000812 	bl	cbdc <mpa_free_static_temp_var>
/home/optee/RPi3/optee_os/lib/libmpa/mpa_primetest.c:284
    ab98:	910163a0 	add	x0, x29, #0x58
    ab9c:	f9400fa1 	ldr	x1, [x29,#24]
    aba0:	9400080f 	bl	cbdc <mpa_free_static_temp_var>
/home/optee/RPi3/optee_os/lib/libmpa/mpa_primetest.c:285
    aba4:	910143a0 	add	x0, x29, #0x50
    aba8:	f9400fa1 	ldr	x1, [x29,#24]
    abac:	9400080c 	bl	cbdc <mpa_free_static_temp_var>
/home/optee/RPi3/optee_os/lib/libmpa/mpa_primetest.c:287
    abb0:	910123a0 	add	x0, x29, #0x48
    abb4:	f9400fa1 	ldr	x1, [x29,#24]
    abb8:	94000809 	bl	cbdc <mpa_free_static_temp_var>
/home/optee/RPi3/optee_os/lib/libmpa/mpa_primetest.c:288
    abbc:	910103a0 	add	x0, x29, #0x40
    abc0:	f9400fa1 	ldr	x1, [x29,#24]
    abc4:	94000806 	bl	cbdc <mpa_free_static_temp_var>
/home/optee/RPi3/optee_os/lib/libmpa/mpa_primetest.c:290
    abc8:	b9408fa0 	ldr	w0, [x29,#140]
/home/optee/RPi3/optee_os/lib/libmpa/mpa_primetest.c:291
    abcc:	a8c97bfd 	ldp	x29, x30, [sp],#144
    abd0:	d65f03c0 	ret

000000000000abd4 <mpa_set_S32>:
mpa_set_S32():
/home/optee/RPi3/optee_os/lib/libmpa/mpa_conv.c:35
    abd4:	d10043ff 	sub	sp, sp, #0x10
    abd8:	f90007e0 	str	x0, [sp,#8]
    abdc:	b90007e1 	str	w1, [sp,#4]
/home/optee/RPi3/optee_os/lib/libmpa/mpa_conv.c:37
    abe0:	b94007e0 	ldr	w0, [sp,#4]
    abe4:	6b1f001f 	cmp	w0, wzr
    abe8:	54000140 	b.eq	ac10 <mpa_set_S32+0x3c>
/home/optee/RPi3/optee_os/lib/libmpa/mpa_conv.c:38
    abec:	b94007e0 	ldr	w0, [sp,#4]
    abf0:	6b1f001f 	cmp	w0, wzr
    abf4:	5400006a 	b.ge	ac00 <mpa_set_S32+0x2c>
/home/optee/RPi3/optee_os/lib/libmpa/mpa_conv.c:38 (discriminator 1)
    abf8:	12800000 	mov	w0, #0xffffffff            	// #-1
    abfc:	14000002 	b	ac04 <mpa_set_S32+0x30>
/home/optee/RPi3/optee_os/lib/libmpa/mpa_conv.c:38 (discriminator 2)
    ac00:	52800020 	mov	w0, #0x1                   	// #1
/home/optee/RPi3/optee_os/lib/libmpa/mpa_conv.c:38 (discriminator 4)
    ac04:	f94007e1 	ldr	x1, [sp,#8]
    ac08:	b9000420 	str	w0, [x1,#4]
    ac0c:	14000003 	b	ac18 <mpa_set_S32+0x44>
/home/optee/RPi3/optee_os/lib/libmpa/mpa_conv.c:40
    ac10:	f94007e0 	ldr	x0, [sp,#8]
    ac14:	b900041f 	str	wzr, [x0,#4]
/home/optee/RPi3/optee_os/lib/libmpa/mpa_conv.c:41
    ac18:	b94007e0 	ldr	w0, [sp,#4]
    ac1c:	6b1f001f 	cmp	w0, wzr
    ac20:	5a80a400 	cneg	w0, w0, lt
    ac24:	2a0003e1 	mov	w1, w0
    ac28:	f94007e0 	ldr	x0, [sp,#8]
    ac2c:	b9000801 	str	w1, [x0,#8]
/home/optee/RPi3/optee_os/lib/libmpa/mpa_conv.c:45
    ac30:	d503201f 	nop
    ac34:	910043ff 	add	sp, sp, #0x10
    ac38:	d65f03c0 	ret

000000000000ac3c <mpa_get_S32>:
mpa_get_S32():
/home/optee/RPi3/optee_os/lib/libmpa/mpa_conv.c:55
    ac3c:	d10043ff 	sub	sp, sp, #0x10
    ac40:	f90007e0 	str	x0, [sp,#8]
    ac44:	f90003e1 	str	x1, [sp]
/home/optee/RPi3/optee_os/lib/libmpa/mpa_conv.c:57
    ac48:	f94003e0 	ldr	x0, [sp]
    ac4c:	b9400400 	ldr	w0, [x0,#4]
    ac50:	6b1f001f 	cmp	w0, wzr
    ac54:	5a80a400 	cneg	w0, w0, lt
    ac58:	7100041f 	cmp	w0, #0x1
    ac5c:	5400006d 	b.le	ac68 <mpa_get_S32+0x2c>
/home/optee/RPi3/optee_os/lib/libmpa/mpa_conv.c:58
    ac60:	12800000 	mov	w0, #0xffffffff            	// #-1
    ac64:	1400002e 	b	ad1c <mpa_get_S32+0xe0>
/home/optee/RPi3/optee_os/lib/libmpa/mpa_conv.c:59
    ac68:	f94003e0 	ldr	x0, [sp]
    ac6c:	b9400801 	ldr	w1, [x0,#8]
    ac70:	52b00000 	mov	w0, #0x80000000            	// #-2147483648
    ac74:	6b00003f 	cmp	w1, w0
    ac78:	540000e9 	b.ls	ac94 <mpa_get_S32+0x58>
/home/optee/RPi3/optee_os/lib/libmpa/mpa_conv.c:59 (discriminator 1)
    ac7c:	f94003e0 	ldr	x0, [sp]
    ac80:	b9400400 	ldr	w0, [x0,#4]
    ac84:	6b1f001f 	cmp	w0, wzr
    ac88:	5400006a 	b.ge	ac94 <mpa_get_S32+0x58>
/home/optee/RPi3/optee_os/lib/libmpa/mpa_conv.c:60
    ac8c:	12800000 	mov	w0, #0xffffffff            	// #-1
    ac90:	14000023 	b	ad1c <mpa_get_S32+0xe0>
/home/optee/RPi3/optee_os/lib/libmpa/mpa_conv.c:61
    ac94:	f94003e0 	ldr	x0, [sp]
    ac98:	b9400800 	ldr	w0, [x0,#8]
    ac9c:	6b1f001f 	cmp	w0, wzr
    aca0:	540000ea 	b.ge	acbc <mpa_get_S32+0x80>
/home/optee/RPi3/optee_os/lib/libmpa/mpa_conv.c:61 (discriminator 1)
    aca4:	f94003e0 	ldr	x0, [sp]
    aca8:	b9400400 	ldr	w0, [x0,#4]
    acac:	6b1f001f 	cmp	w0, wzr
    acb0:	5400006b 	b.lt	acbc <mpa_get_S32+0x80>
/home/optee/RPi3/optee_os/lib/libmpa/mpa_conv.c:62
    acb4:	12800000 	mov	w0, #0xffffffff            	// #-1
    acb8:	14000019 	b	ad1c <mpa_get_S32+0xe0>
/home/optee/RPi3/optee_os/lib/libmpa/mpa_conv.c:64
    acbc:	f94003e0 	ldr	x0, [sp]
    acc0:	b9400400 	ldr	w0, [x0,#4]
    acc4:	6b1f001f 	cmp	w0, wzr
    acc8:	540000ab 	b.lt	acdc <mpa_get_S32+0xa0>
/home/optee/RPi3/optee_os/lib/libmpa/mpa_conv.c:64 (discriminator 2)
    accc:	f94003e0 	ldr	x0, [sp]
    acd0:	b9400400 	ldr	w0, [x0,#4]
    acd4:	6b1f001f 	cmp	w0, wzr
    acd8:	5400008d 	b.le	ace8 <mpa_get_S32+0xac>
/home/optee/RPi3/optee_os/lib/libmpa/mpa_conv.c:64 (discriminator 3)
    acdc:	f94003e0 	ldr	x0, [sp]
    ace0:	b9400801 	ldr	w1, [x0,#8]
    ace4:	14000002 	b	acec <mpa_get_S32+0xb0>
/home/optee/RPi3/optee_os/lib/libmpa/mpa_conv.c:64 (discriminator 4)
    ace8:	52800001 	mov	w1, #0x0                   	// #0
/home/optee/RPi3/optee_os/lib/libmpa/mpa_conv.c:64 (discriminator 6)
    acec:	f94003e0 	ldr	x0, [sp]
    acf0:	b9400400 	ldr	w0, [x0,#4]
    acf4:	6b1f001f 	cmp	w0, wzr
    acf8:	5400006b 	b.lt	ad04 <mpa_get_S32+0xc8>
/home/optee/RPi3/optee_os/lib/libmpa/mpa_conv.c:64 (discriminator 7)
    acfc:	52800020 	mov	w0, #0x1                   	// #1
    ad00:	14000002 	b	ad08 <mpa_get_S32+0xcc>
/home/optee/RPi3/optee_os/lib/libmpa/mpa_conv.c:64 (discriminator 8)
    ad04:	12800000 	mov	w0, #0xffffffff            	// #-1
/home/optee/RPi3/optee_os/lib/libmpa/mpa_conv.c:64 (discriminator 10)
    ad08:	1b007c20 	mul	w0, w1, w0
    ad0c:	2a0003e1 	mov	w1, w0
    ad10:	f94007e0 	ldr	x0, [sp,#8]
    ad14:	b9000001 	str	w1, [x0]
/home/optee/RPi3/optee_os/lib/libmpa/mpa_conv.c:65 (discriminator 10)
    ad18:	52800000 	mov	w0, #0x0                   	// #0
/home/optee/RPi3/optee_os/lib/libmpa/mpa_conv.c:70
    ad1c:	910043ff 	add	sp, sp, #0x10
    ad20:	d65f03c0 	ret

000000000000ad24 <mpa_set_word>:
mpa_set_word():
/home/optee/RPi3/optee_os/lib/libmpa/mpa_conv.c:78
    ad24:	d10043ff 	sub	sp, sp, #0x10
    ad28:	f90007e0 	str	x0, [sp,#8]
    ad2c:	b90007e1 	str	w1, [sp,#4]
/home/optee/RPi3/optee_os/lib/libmpa/mpa_conv.c:79
    ad30:	f94007e0 	ldr	x0, [sp,#8]
    ad34:	b94007e1 	ldr	w1, [sp,#4]
    ad38:	b9000801 	str	w1, [x0,#8]
/home/optee/RPi3/optee_os/lib/libmpa/mpa_conv.c:80
    ad3c:	b94007e0 	ldr	w0, [sp,#4]
    ad40:	6b1f001f 	cmp	w0, wzr
    ad44:	1a9f07e0 	cset	w0, ne
    ad48:	53001c00 	uxtb	w0, w0
    ad4c:	2a0003e1 	mov	w1, w0
    ad50:	f94007e0 	ldr	x0, [sp,#8]
    ad54:	b9000401 	str	w1, [x0,#4]
/home/optee/RPi3/optee_os/lib/libmpa/mpa_conv.c:81
    ad58:	d503201f 	nop
    ad5c:	910043ff 	add	sp, sp, #0x10
    ad60:	d65f03c0 	ret

000000000000ad64 <mpa_get_word>:
mpa_get_word():
/home/optee/RPi3/optee_os/lib/libmpa/mpa_conv.c:90
    ad64:	d10043ff 	sub	sp, sp, #0x10
    ad68:	f90007e0 	str	x0, [sp,#8]
/home/optee/RPi3/optee_os/lib/libmpa/mpa_conv.c:91
    ad6c:	f94007e0 	ldr	x0, [sp,#8]
    ad70:	b9400400 	ldr	w0, [x0,#4]
    ad74:	6b1f001f 	cmp	w0, wzr
    ad78:	540000ab 	b.lt	ad8c <mpa_get_word+0x28>
/home/optee/RPi3/optee_os/lib/libmpa/mpa_conv.c:91 (discriminator 2)
    ad7c:	f94007e0 	ldr	x0, [sp,#8]
    ad80:	b9400400 	ldr	w0, [x0,#4]
    ad84:	6b1f001f 	cmp	w0, wzr
    ad88:	5400008d 	b.le	ad98 <mpa_get_word+0x34>
/home/optee/RPi3/optee_os/lib/libmpa/mpa_conv.c:91 (discriminator 3)
    ad8c:	f94007e0 	ldr	x0, [sp,#8]
    ad90:	b9400800 	ldr	w0, [x0,#8]
    ad94:	14000002 	b	ad9c <mpa_get_word+0x38>
/home/optee/RPi3/optee_os/lib/libmpa/mpa_conv.c:91 (discriminator 4)
    ad98:	52800000 	mov	w0, #0x0                   	// #0
/home/optee/RPi3/optee_os/lib/libmpa/mpa_conv.c:92 (discriminator 6)
    ad9c:	910043ff 	add	sp, sp, #0x10
    ada0:	d65f03c0 	ret

000000000000ada4 <__mpa_soft_div>:
__mpa_soft_div():
/home/optee/RPi3/optee_os/lib/libmpa/mpa_div.c:44
    ada4:	d10103ff 	sub	sp, sp, #0x40
    ada8:	f9000fe0 	str	x0, [sp,#24]
    adac:	b90017e1 	str	w1, [sp,#20]
    adb0:	f90007e2 	str	x2, [sp,#8]
/home/optee/RPi3/optee_os/lib/libmpa/mpa_div.c:45
    adb4:	f9001fff 	str	xzr, [sp,#56]
    adb8:	d2800020 	mov	x0, #0x1                   	// #1
    adbc:	f9001be0 	str	x0, [sp,#48]
/home/optee/RPi3/optee_os/lib/libmpa/mpa_div.c:46
    adc0:	b94017e0 	ldr	w0, [sp,#20]
    adc4:	f90017e0 	str	x0, [sp,#40]
/home/optee/RPi3/optee_os/lib/libmpa/mpa_div.c:48
    adc8:	14000007 	b	ade4 <__mpa_soft_div+0x40>
/home/optee/RPi3/optee_os/lib/libmpa/mpa_div.c:49
    adcc:	f94017e0 	ldr	x0, [sp,#40]
    add0:	d37ff800 	lsl	x0, x0, #1
    add4:	f90017e0 	str	x0, [sp,#40]
/home/optee/RPi3/optee_os/lib/libmpa/mpa_div.c:50
    add8:	f9401be0 	ldr	x0, [sp,#48]
    addc:	d37ff800 	lsl	x0, x0, #1
    ade0:	f9001be0 	str	x0, [sp,#48]
/home/optee/RPi3/optee_os/lib/libmpa/mpa_div.c:48
    ade4:	f94017e0 	ldr	x0, [sp,#40]
    ade8:	eb1f001f 	cmp	x0, xzr
    adec:	54ffff0a 	b.ge	adcc <__mpa_soft_div+0x28>
/home/optee/RPi3/optee_os/lib/libmpa/mpa_div.c:53
    adf0:	14000013 	b	ae3c <__mpa_soft_div+0x98>
/home/optee/RPi3/optee_os/lib/libmpa/mpa_div.c:54
    adf4:	f94017e1 	ldr	x1, [sp,#40]
    adf8:	f9400fe0 	ldr	x0, [sp,#24]
    adfc:	eb00003f 	cmp	x1, x0
    ae00:	54000128 	b.hi	ae24 <__mpa_soft_div+0x80>
/home/optee/RPi3/optee_os/lib/libmpa/mpa_div.c:55
    ae04:	f9400fe1 	ldr	x1, [sp,#24]
    ae08:	f94017e0 	ldr	x0, [sp,#40]
    ae0c:	cb000020 	sub	x0, x1, x0
    ae10:	f9000fe0 	str	x0, [sp,#24]
/home/optee/RPi3/optee_os/lib/libmpa/mpa_div.c:56
    ae14:	f9401fe1 	ldr	x1, [sp,#56]
    ae18:	f9401be0 	ldr	x0, [sp,#48]
    ae1c:	8b000020 	add	x0, x1, x0
    ae20:	f9001fe0 	str	x0, [sp,#56]
/home/optee/RPi3/optee_os/lib/libmpa/mpa_div.c:58
    ae24:	f94017e0 	ldr	x0, [sp,#40]
    ae28:	d341fc00 	lsr	x0, x0, #1
    ae2c:	f90017e0 	str	x0, [sp,#40]
/home/optee/RPi3/optee_os/lib/libmpa/mpa_div.c:59
    ae30:	f9401be0 	ldr	x0, [sp,#48]
    ae34:	d341fc00 	lsr	x0, x0, #1
    ae38:	f9001be0 	str	x0, [sp,#48]
/home/optee/RPi3/optee_os/lib/libmpa/mpa_div.c:53
    ae3c:	f9401be0 	ldr	x0, [sp,#48]
    ae40:	eb1f001f 	cmp	x0, xzr
    ae44:	54fffd81 	b.ne	adf4 <__mpa_soft_div+0x50>
/home/optee/RPi3/optee_os/lib/libmpa/mpa_div.c:62
    ae48:	f94007e0 	ldr	x0, [sp,#8]
    ae4c:	eb1f001f 	cmp	x0, xzr
    ae50:	540000a0 	b.eq	ae64 <__mpa_soft_div+0xc0>
/home/optee/RPi3/optee_os/lib/libmpa/mpa_div.c:63
    ae54:	f9400fe0 	ldr	x0, [sp,#24]
    ae58:	2a0003e1 	mov	w1, w0
    ae5c:	f94007e0 	ldr	x0, [sp,#8]
    ae60:	b9000001 	str	w1, [x0]
/home/optee/RPi3/optee_os/lib/libmpa/mpa_div.c:65
    ae64:	f9401fe0 	ldr	x0, [sp,#56]
/home/optee/RPi3/optee_os/lib/libmpa/mpa_div.c:66
    ae68:	910103ff 	add	sp, sp, #0x40
    ae6c:	d65f03c0 	ret

000000000000ae70 <__mpa_div_dword>:
__mpa_div_dword():
/home/optee/RPi3/optee_os/lib/libmpa/mpa_div.c:76
    ae70:	a9bc7bfd 	stp	x29, x30, [sp,#-64]!
    ae74:	910003fd 	mov	x29, sp
    ae78:	b9002fa0 	str	w0, [x29,#44]
    ae7c:	b9002ba1 	str	w1, [x29,#40]
    ae80:	b90027a2 	str	w2, [x29,#36]
    ae84:	f9000fa3 	str	x3, [x29,#24]
/home/optee/RPi3/optee_os/lib/libmpa/mpa_div.c:81
    ae88:	b9402ba0 	ldr	w0, [x29,#40]
    ae8c:	d3607c01 	lsl	x1, x0, #32
    ae90:	b9402fa0 	ldr	w0, [x29,#44]
    ae94:	8b000020 	add	x0, x1, x0
    ae98:	f9001fa0 	str	x0, [x29,#56]
/home/optee/RPi3/optee_os/lib/libmpa/mpa_div.c:82
    ae9c:	f9400fa2 	ldr	x2, [x29,#24]
    aea0:	b94027a1 	ldr	w1, [x29,#36]
    aea4:	f9401fa0 	ldr	x0, [x29,#56]
    aea8:	97ffffbf 	bl	ada4 <__mpa_soft_div>
/home/optee/RPi3/optee_os/lib/libmpa/mpa_div.c:89
    aeac:	a8c47bfd 	ldp	x29, x30, [sp],#64
    aeb0:	d65f03c0 	ret

000000000000aeb4 <__mpa_div_q_r_internal>:
__mpa_div_q_r_internal():
/home/optee/RPi3/optee_os/lib/libmpa/mpa_div.c:106
    aeb4:	a9b67bfd 	stp	x29, x30, [sp,#-160]!
    aeb8:	910003fd 	mov	x29, sp
    aebc:	f9000bf3 	str	x19, [sp,#16]
    aec0:	f90027a0 	str	x0, [x29,#72]
    aec4:	f90023a1 	str	x1, [x29,#64]
    aec8:	f9001fa2 	str	x2, [x29,#56]
    aecc:	f9001ba3 	str	x3, [x29,#48]
    aed0:	f90017a4 	str	x4, [x29,#40]
/home/optee/RPi3/optee_os/lib/libmpa/mpa_div.c:125
    aed4:	9101a3a0 	add	x0, x29, #0x68
    aed8:	f94017a1 	ldr	x1, [x29,#40]
    aedc:	94000735 	bl	cbb0 <mpa_alloc_static_temp_var>
/home/optee/RPi3/optee_os/lib/libmpa/mpa_div.c:126
    aee0:	910183a0 	add	x0, x29, #0x60
    aee4:	f94017a1 	ldr	x1, [x29,#40]
    aee8:	94000732 	bl	cbb0 <mpa_alloc_static_temp_var>
/home/optee/RPi3/optee_os/lib/libmpa/mpa_div.c:127
    aeec:	f94033a0 	ldr	x0, [x29,#96]
    aef0:	f9401ba1 	ldr	x1, [x29,#48]
    aef4:	97fffba4 	bl	9d84 <mpa_copy>
/home/optee/RPi3/optee_os/lib/libmpa/mpa_div.c:134
    aef8:	910163a0 	add	x0, x29, #0x58
    aefc:	f94017a1 	ldr	x1, [x29,#40]
    af00:	9400072c 	bl	cbb0 <mpa_alloc_static_temp_var>
/home/optee/RPi3/optee_os/lib/libmpa/mpa_div.c:135
    af04:	f9402fa0 	ldr	x0, [x29,#88]
    af08:	f9401fa1 	ldr	x1, [x29,#56]
    af0c:	97fffb9e 	bl	9d84 <mpa_copy>
/home/optee/RPi3/optee_os/lib/libmpa/mpa_div.c:136
    af10:	f9402fa0 	ldr	x0, [x29,#88]
    af14:	b9400400 	ldr	w0, [x0,#4]
    af18:	6b1f001f 	cmp	w0, wzr
    af1c:	540000ca 	b.ge	af34 <__mpa_div_q_r_internal+0x80>
/home/optee/RPi3/optee_os/lib/libmpa/mpa_div.c:136 (discriminator 1)
    af20:	f9402fa0 	ldr	x0, [x29,#88]
    af24:	f9402fa1 	ldr	x1, [x29,#88]
    af28:	b9400421 	ldr	w1, [x1,#4]
    af2c:	4b0103e1 	neg	w1, w1
    af30:	b9000401 	str	w1, [x0,#4]
/home/optee/RPi3/optee_os/lib/libmpa/mpa_div.c:137
    af34:	f94033a0 	ldr	x0, [x29,#96]
    af38:	b9400400 	ldr	w0, [x0,#4]
    af3c:	6b1f001f 	cmp	w0, wzr
    af40:	540000ca 	b.ge	af58 <__mpa_div_q_r_internal+0xa4>
/home/optee/RPi3/optee_os/lib/libmpa/mpa_div.c:137 (discriminator 1)
    af44:	f94033a0 	ldr	x0, [x29,#96]
    af48:	f94033a1 	ldr	x1, [x29,#96]
    af4c:	b9400421 	ldr	w1, [x1,#4]
    af50:	4b0103e1 	neg	w1, w1
    af54:	b9000401 	str	w1, [x0,#4]
/home/optee/RPi3/optee_os/lib/libmpa/mpa_div.c:142
    af58:	b9009fbf 	str	wzr, [x29,#156]
/home/optee/RPi3/optee_os/lib/libmpa/mpa_div.c:143
    af5c:	f94033a1 	ldr	x1, [x29,#96]
    af60:	f94033a0 	ldr	x0, [x29,#96]
    af64:	b9400400 	ldr	w0, [x0,#4]
    af68:	6b1f001f 	cmp	w0, wzr
    af6c:	5a80a400 	cneg	w0, w0, lt
    af70:	51000400 	sub	w0, w0, #0x1
    af74:	93407c00 	sxtw	x0, w0
    af78:	d37ef400 	lsl	x0, x0, #2
    af7c:	8b000020 	add	x0, x1, x0
    af80:	b9400800 	ldr	w0, [x0,#8]
    af84:	b90087a0 	str	w0, [x29,#132]
/home/optee/RPi3/optee_os/lib/libmpa/mpa_div.c:144
    af88:	14000007 	b	afa4 <__mpa_div_q_r_internal+0xf0>
/home/optee/RPi3/optee_os/lib/libmpa/mpa_div.c:145
    af8c:	b9409fa0 	ldr	w0, [x29,#156]
    af90:	11000400 	add	w0, w0, #0x1
    af94:	b9009fa0 	str	w0, [x29,#156]
/home/optee/RPi3/optee_os/lib/libmpa/mpa_div.c:146
    af98:	b94087a0 	ldr	w0, [x29,#132]
    af9c:	531f7800 	lsl	w0, w0, #1
    afa0:	b90087a0 	str	w0, [x29,#132]
/home/optee/RPi3/optee_os/lib/libmpa/mpa_div.c:144
    afa4:	b94087a0 	ldr	w0, [x29,#132]
    afa8:	6b1f001f 	cmp	w0, wzr
    afac:	54ffff0a 	b.ge	af8c <__mpa_div_q_r_internal+0xd8>
/home/optee/RPi3/optee_os/lib/libmpa/mpa_div.c:148
    afb0:	b9409fa0 	ldr	w0, [x29,#156]
    afb4:	6b1f001f 	cmp	w0, wzr
    afb8:	54000120 	b.eq	afdc <__mpa_div_q_r_internal+0x128>
/home/optee/RPi3/optee_os/lib/libmpa/mpa_div.c:149
    afbc:	f9402fa0 	ldr	x0, [x29,#88]
    afc0:	f9402fa1 	ldr	x1, [x29,#88]
    afc4:	b9409fa2 	ldr	w2, [x29,#156]
    afc8:	940009db 	bl	d734 <mpa_shift_left>
/home/optee/RPi3/optee_os/lib/libmpa/mpa_div.c:150
    afcc:	f94033a0 	ldr	x0, [x29,#96]
    afd0:	f94033a1 	ldr	x1, [x29,#96]
    afd4:	b9409fa2 	ldr	w2, [x29,#156]
    afd8:	940009d7 	bl	d734 <mpa_shift_left>
/home/optee/RPi3/optee_os/lib/libmpa/mpa_div.c:153
    afdc:	f9402fa0 	ldr	x0, [x29,#88]
    afe0:	b9400400 	ldr	w0, [x0,#4]
    afe4:	b9008fa0 	str	w0, [x29,#140]
/home/optee/RPi3/optee_os/lib/libmpa/mpa_div.c:154
    afe8:	f94033a0 	ldr	x0, [x29,#96]
    afec:	b9400400 	ldr	w0, [x0,#4]
    aff0:	b9008ba0 	str	w0, [x29,#136]
/home/optee/RPi3/optee_os/lib/libmpa/mpa_div.c:155
    aff4:	b9408fa1 	ldr	w1, [x29,#140]
    aff8:	b9408ba0 	ldr	w0, [x29,#136]
    affc:	4b000020 	sub	w0, w1, w0
    b000:	b9009ba0 	str	w0, [x29,#152]
/home/optee/RPi3/optee_os/lib/libmpa/mpa_div.c:157
    b004:	f94027a0 	ldr	x0, [x29,#72]
    b008:	97fffb4d 	bl	9d3c <mpa_wipe>
/home/optee/RPi3/optee_os/lib/libmpa/mpa_div.c:163
    b00c:	f94033a0 	ldr	x0, [x29,#96]
    b010:	b9409ba1 	ldr	w1, [x29,#152]
    b014:	94000930 	bl	d4d4 <__mpa_shift_words_left>
/home/optee/RPi3/optee_os/lib/libmpa/mpa_div.c:165
    b018:	f94033a0 	ldr	x0, [x29,#96]
    b01c:	b9400400 	ldr	w0, [x0,#4]
    b020:	6b1f001f 	cmp	w0, wzr
    b024:	5a80a400 	cneg	w0, w0, lt
    b028:	b90097a0 	str	w0, [x29,#148]
/home/optee/RPi3/optee_os/lib/libmpa/mpa_div.c:166
    b02c:	52800020 	mov	w0, #0x1                   	// #1
    b030:	b90093a0 	str	w0, [x29,#144]
/home/optee/RPi3/optee_os/lib/libmpa/mpa_div.c:167
    b034:	14000024 	b	b0c4 <__mpa_div_q_r_internal+0x210>
/home/optee/RPi3/optee_os/lib/libmpa/mpa_div.c:168
    b038:	b94097a0 	ldr	w0, [x29,#148]
    b03c:	51000400 	sub	w0, w0, #0x1
    b040:	b90097a0 	str	w0, [x29,#148]
/home/optee/RPi3/optee_os/lib/libmpa/mpa_div.c:169
    b044:	f9402fa0 	ldr	x0, [x29,#88]
    b048:	b9400400 	ldr	w0, [x0,#4]
    b04c:	6b1f001f 	cmp	w0, wzr
    b050:	5a80a401 	cneg	w1, w0, lt
    b054:	b94097a0 	ldr	w0, [x29,#148]
    b058:	6b00003f 	cmp	w1, w0
    b05c:	540000ed 	b.le	b078 <__mpa_div_q_r_internal+0x1c4>
/home/optee/RPi3/optee_os/lib/libmpa/mpa_div.c:169 (discriminator 1)
    b060:	f9402fa1 	ldr	x1, [x29,#88]
    b064:	b98097a0 	ldrsw	x0, [x29,#148]
    b068:	d37ef400 	lsl	x0, x0, #2
    b06c:	8b000020 	add	x0, x1, x0
    b070:	b9400801 	ldr	w1, [x0,#8]
    b074:	14000002 	b	b07c <__mpa_div_q_r_internal+0x1c8>
/home/optee/RPi3/optee_os/lib/libmpa/mpa_div.c:169 (discriminator 2)
    b078:	52800001 	mov	w1, #0x0                   	// #0
/home/optee/RPi3/optee_os/lib/libmpa/mpa_div.c:169 (discriminator 4)
    b07c:	f94033a0 	ldr	x0, [x29,#96]
    b080:	b9400400 	ldr	w0, [x0,#4]
    b084:	6b1f001f 	cmp	w0, wzr
    b088:	5a80a402 	cneg	w2, w0, lt
    b08c:	b94097a0 	ldr	w0, [x29,#148]
    b090:	6b00005f 	cmp	w2, w0
    b094:	540000ed 	b.le	b0b0 <__mpa_div_q_r_internal+0x1fc>
/home/optee/RPi3/optee_os/lib/libmpa/mpa_div.c:169 (discriminator 5)
    b098:	f94033a2 	ldr	x2, [x29,#96]
    b09c:	b98097a0 	ldrsw	x0, [x29,#148]
    b0a0:	d37ef400 	lsl	x0, x0, #2
    b0a4:	8b000040 	add	x0, x2, x0
    b0a8:	b9400800 	ldr	w0, [x0,#8]
    b0ac:	14000002 	b	b0b4 <__mpa_div_q_r_internal+0x200>
/home/optee/RPi3/optee_os/lib/libmpa/mpa_div.c:169 (discriminator 6)
    b0b0:	52800000 	mov	w0, #0x0                   	// #0
/home/optee/RPi3/optee_os/lib/libmpa/mpa_div.c:169 (discriminator 8)
    b0b4:	6b00003f 	cmp	w1, w0
    b0b8:	1a9f17e0 	cset	w0, eq
    b0bc:	53001c00 	uxtb	w0, w0
    b0c0:	b90093a0 	str	w0, [x29,#144]
/home/optee/RPi3/optee_os/lib/libmpa/mpa_div.c:167
    b0c4:	b94093a0 	ldr	w0, [x29,#144]
    b0c8:	6b1f001f 	cmp	w0, wzr
    b0cc:	54000080 	b.eq	b0dc <__mpa_div_q_r_internal+0x228>
/home/optee/RPi3/optee_os/lib/libmpa/mpa_div.c:167 (discriminator 1)
    b0d0:	b94097a0 	ldr	w0, [x29,#148]
    b0d4:	6b1f001f 	cmp	w0, wzr
    b0d8:	54fffb0c 	b.gt	b038 <__mpa_div_q_r_internal+0x184>
/home/optee/RPi3/optee_os/lib/libmpa/mpa_div.c:171
    b0dc:	b94093a0 	ldr	w0, [x29,#144]
    b0e0:	6b1f001f 	cmp	w0, wzr
    b0e4:	54000541 	b.ne	b18c <__mpa_div_q_r_internal+0x2d8>
/home/optee/RPi3/optee_os/lib/libmpa/mpa_div.c:171 (discriminator 1)
    b0e8:	f9402fa0 	ldr	x0, [x29,#88]
    b0ec:	b9400400 	ldr	w0, [x0,#4]
    b0f0:	6b1f001f 	cmp	w0, wzr
    b0f4:	5a80a401 	cneg	w1, w0, lt
    b0f8:	b94097a0 	ldr	w0, [x29,#148]
    b0fc:	6b00003f 	cmp	w1, w0
    b100:	540000ed 	b.le	b11c <__mpa_div_q_r_internal+0x268>
/home/optee/RPi3/optee_os/lib/libmpa/mpa_div.c:171 (discriminator 2)
    b104:	f9402fa1 	ldr	x1, [x29,#88]
    b108:	b98097a0 	ldrsw	x0, [x29,#148]
    b10c:	d37ef400 	lsl	x0, x0, #2
    b110:	8b000020 	add	x0, x1, x0
    b114:	b9400801 	ldr	w1, [x0,#8]
    b118:	14000002 	b	b120 <__mpa_div_q_r_internal+0x26c>
/home/optee/RPi3/optee_os/lib/libmpa/mpa_div.c:171 (discriminator 3)
    b11c:	52800001 	mov	w1, #0x0                   	// #0
/home/optee/RPi3/optee_os/lib/libmpa/mpa_div.c:171 (discriminator 5)
    b120:	f94033a0 	ldr	x0, [x29,#96]
    b124:	b9400400 	ldr	w0, [x0,#4]
    b128:	6b1f001f 	cmp	w0, wzr
    b12c:	5a80a402 	cneg	w2, w0, lt
    b130:	b94097a0 	ldr	w0, [x29,#148]
    b134:	6b00005f 	cmp	w2, w0
    b138:	540000ed 	b.le	b154 <__mpa_div_q_r_internal+0x2a0>
/home/optee/RPi3/optee_os/lib/libmpa/mpa_div.c:171 (discriminator 6)
    b13c:	f94033a2 	ldr	x2, [x29,#96]
    b140:	b98097a0 	ldrsw	x0, [x29,#148]
    b144:	d37ef400 	lsl	x0, x0, #2
    b148:	8b000040 	add	x0, x2, x0
    b14c:	b9400800 	ldr	w0, [x0,#8]
    b150:	14000002 	b	b158 <__mpa_div_q_r_internal+0x2a4>
/home/optee/RPi3/optee_os/lib/libmpa/mpa_div.c:171 (discriminator 7)
    b154:	52800000 	mov	w0, #0x0                   	// #0
/home/optee/RPi3/optee_os/lib/libmpa/mpa_div.c:171 (discriminator 9)
    b158:	6b00003f 	cmp	w1, w0
    b15c:	54000189 	b.ls	b18c <__mpa_div_q_r_internal+0x2d8>
/home/optee/RPi3/optee_os/lib/libmpa/mpa_div.c:172
    b160:	f94027a1 	ldr	x1, [x29,#72]
    b164:	b9809ba0 	ldrsw	x0, [x29,#152]
    b168:	d37ef400 	lsl	x0, x0, #2
    b16c:	8b000020 	add	x0, x1, x0
    b170:	52800021 	mov	w1, #0x1                   	// #1
    b174:	b9000801 	str	w1, [x0,#8]
/home/optee/RPi3/optee_os/lib/libmpa/mpa_div.c:173
    b178:	f9402fa0 	ldr	x0, [x29,#88]
    b17c:	f9402fa1 	ldr	x1, [x29,#88]
    b180:	f94033a2 	ldr	x2, [x29,#96]
    b184:	f94017a3 	ldr	x3, [x29,#40]
    b188:	94000d43 	bl	e694 <mpa_sub>
/home/optee/RPi3/optee_os/lib/libmpa/mpa_div.c:177
    b18c:	f9402fa0 	ldr	x0, [x29,#88]
    b190:	b9400400 	ldr	w0, [x0,#4]
    b194:	51000400 	sub	w0, w0, #0x1
    b198:	b90097a0 	str	w0, [x29,#148]
/home/optee/RPi3/optee_os/lib/libmpa/mpa_div.c:178
    b19c:	14000186 	b	b7b4 <__mpa_div_q_r_internal+0x900>
/home/optee/RPi3/optee_os/lib/libmpa/mpa_div.c:179
    b1a0:	f9402fa0 	ldr	x0, [x29,#88]
    b1a4:	b9400400 	ldr	w0, [x0,#4]
    b1a8:	6b1f001f 	cmp	w0, wzr
    b1ac:	5a80a401 	cneg	w1, w0, lt
    b1b0:	b94097a0 	ldr	w0, [x29,#148]
    b1b4:	6b00003f 	cmp	w1, w0
    b1b8:	540000ed 	b.le	b1d4 <__mpa_div_q_r_internal+0x320>
/home/optee/RPi3/optee_os/lib/libmpa/mpa_div.c:179 (discriminator 1)
    b1bc:	f9402fa1 	ldr	x1, [x29,#88]
    b1c0:	b98097a0 	ldrsw	x0, [x29,#148]
    b1c4:	d37ef400 	lsl	x0, x0, #2
    b1c8:	8b000020 	add	x0, x1, x0
    b1cc:	b9400801 	ldr	w1, [x0,#8]
    b1d0:	14000002 	b	b1d8 <__mpa_div_q_r_internal+0x324>
/home/optee/RPi3/optee_os/lib/libmpa/mpa_div.c:179 (discriminator 2)
    b1d4:	52800001 	mov	w1, #0x0                   	// #0
/home/optee/RPi3/optee_os/lib/libmpa/mpa_div.c:180
    b1d8:	b9408ba2 	ldr	w2, [x29,#136]
    b1dc:	b9409ba0 	ldr	w0, [x29,#152]
    b1e0:	0b000040 	add	w0, w2, w0
    b1e4:	51000402 	sub	w2, w0, #0x1
    b1e8:	f94033a0 	ldr	x0, [x29,#96]
    b1ec:	b9400400 	ldr	w0, [x0,#4]
    b1f0:	6b1f001f 	cmp	w0, wzr
    b1f4:	5a80a400 	cneg	w0, w0, lt
    b1f8:	6b00005f 	cmp	w2, w0
    b1fc:	5400016a 	b.ge	b228 <__mpa_div_q_r_internal+0x374>
/home/optee/RPi3/optee_os/lib/libmpa/mpa_div.c:180 (discriminator 1)
    b200:	f94033a2 	ldr	x2, [x29,#96]
    b204:	b9408ba3 	ldr	w3, [x29,#136]
    b208:	b9409ba0 	ldr	w0, [x29,#152]
    b20c:	0b000060 	add	w0, w3, w0
    b210:	51000400 	sub	w0, w0, #0x1
    b214:	93407c00 	sxtw	x0, w0
    b218:	d37ef400 	lsl	x0, x0, #2
    b21c:	8b000040 	add	x0, x2, x0
    b220:	b9400800 	ldr	w0, [x0,#8]
    b224:	14000002 	b	b22c <__mpa_div_q_r_internal+0x378>
/home/optee/RPi3/optee_os/lib/libmpa/mpa_div.c:180 (discriminator 2)
    b228:	52800000 	mov	w0, #0x0                   	// #0
/home/optee/RPi3/optee_os/lib/libmpa/mpa_div.c:179
    b22c:	6b00003f 	cmp	w1, w0
    b230:	54000161 	b.ne	b25c <__mpa_div_q_r_internal+0x3a8>
/home/optee/RPi3/optee_os/lib/libmpa/mpa_div.c:181
    b234:	b94097a1 	ldr	w1, [x29,#148]
    b238:	b9408ba0 	ldr	w0, [x29,#136]
    b23c:	4b000020 	sub	w0, w1, w0
    b240:	f94027a1 	ldr	x1, [x29,#72]
    b244:	93407c00 	sxtw	x0, w0
    b248:	d37ef400 	lsl	x0, x0, #2
    b24c:	8b000020 	add	x0, x1, x0
    b250:	12800001 	mov	w1, #0xffffffff            	// #-1
    b254:	b9000801 	str	w1, [x0,#8]
    b258:	14000043 	b	b364 <__mpa_div_q_r_internal+0x4b0>
/home/optee/RPi3/optee_os/lib/libmpa/mpa_div.c:183
    b25c:	b94097a1 	ldr	w1, [x29,#148]
    b260:	b9408ba0 	ldr	w0, [x29,#136]
    b264:	4b000033 	sub	w19, w1, w0
/home/optee/RPi3/optee_os/lib/libmpa/mpa_div.c:184
    b268:	b94097a0 	ldr	w0, [x29,#148]
    b26c:	51000401 	sub	w1, w0, #0x1
    b270:	f9402fa0 	ldr	x0, [x29,#88]
    b274:	b9400400 	ldr	w0, [x0,#4]
    b278:	6b1f001f 	cmp	w0, wzr
    b27c:	5a80a400 	cneg	w0, w0, lt
    b280:	6b00003f 	cmp	w1, w0
    b284:	5400012a 	b.ge	b2a8 <__mpa_div_q_r_internal+0x3f4>
/home/optee/RPi3/optee_os/lib/libmpa/mpa_div.c:184 (discriminator 1)
    b288:	f9402fa1 	ldr	x1, [x29,#88]
    b28c:	b94097a0 	ldr	w0, [x29,#148]
    b290:	51000400 	sub	w0, w0, #0x1
    b294:	93407c00 	sxtw	x0, w0
    b298:	d37ef400 	lsl	x0, x0, #2
    b29c:	8b000020 	add	x0, x1, x0
    b2a0:	b9400804 	ldr	w4, [x0,#8]
    b2a4:	14000002 	b	b2ac <__mpa_div_q_r_internal+0x3f8>
/home/optee/RPi3/optee_os/lib/libmpa/mpa_div.c:184 (discriminator 2)
    b2a8:	52800004 	mov	w4, #0x0                   	// #0
/home/optee/RPi3/optee_os/lib/libmpa/mpa_div.c:185 (discriminator 4)
    b2ac:	f9402fa0 	ldr	x0, [x29,#88]
    b2b0:	b9400400 	ldr	w0, [x0,#4]
    b2b4:	6b1f001f 	cmp	w0, wzr
    b2b8:	5a80a401 	cneg	w1, w0, lt
/home/optee/RPi3/optee_os/lib/libmpa/mpa_div.c:184 (discriminator 4)
    b2bc:	b94097a0 	ldr	w0, [x29,#148]
    b2c0:	6b00003f 	cmp	w1, w0
    b2c4:	540000ed 	b.le	b2e0 <__mpa_div_q_r_internal+0x42c>
/home/optee/RPi3/optee_os/lib/libmpa/mpa_div.c:185 (discriminator 5)
    b2c8:	f9402fa1 	ldr	x1, [x29,#88]
/home/optee/RPi3/optee_os/lib/libmpa/mpa_div.c:184 (discriminator 5)
    b2cc:	b98097a0 	ldrsw	x0, [x29,#148]
    b2d0:	d37ef400 	lsl	x0, x0, #2
    b2d4:	8b000020 	add	x0, x1, x0
    b2d8:	b9400805 	ldr	w5, [x0,#8]
    b2dc:	14000002 	b	b2e4 <__mpa_div_q_r_internal+0x430>
/home/optee/RPi3/optee_os/lib/libmpa/mpa_div.c:184 (discriminator 6)
    b2e0:	52800005 	mov	w5, #0x0                   	// #0
/home/optee/RPi3/optee_os/lib/libmpa/mpa_div.c:186 (discriminator 8)
    b2e4:	b9408ba1 	ldr	w1, [x29,#136]
    b2e8:	b9409ba0 	ldr	w0, [x29,#152]
    b2ec:	0b000020 	add	w0, w1, w0
    b2f0:	51000401 	sub	w1, w0, #0x1
    b2f4:	f94033a0 	ldr	x0, [x29,#96]
    b2f8:	b9400400 	ldr	w0, [x0,#4]
    b2fc:	6b1f001f 	cmp	w0, wzr
    b300:	5a80a400 	cneg	w0, w0, lt
/home/optee/RPi3/optee_os/lib/libmpa/mpa_div.c:184 (discriminator 8)
    b304:	6b00003f 	cmp	w1, w0
    b308:	5400016a 	b.ge	b334 <__mpa_div_q_r_internal+0x480>
/home/optee/RPi3/optee_os/lib/libmpa/mpa_div.c:186 (discriminator 9)
    b30c:	f94033a1 	ldr	x1, [x29,#96]
    b310:	b9408ba2 	ldr	w2, [x29,#136]
    b314:	b9409ba0 	ldr	w0, [x29,#152]
    b318:	0b000040 	add	w0, w2, w0
    b31c:	51000400 	sub	w0, w0, #0x1
/home/optee/RPi3/optee_os/lib/libmpa/mpa_div.c:184 (discriminator 9)
    b320:	93407c00 	sxtw	x0, w0
    b324:	d37ef400 	lsl	x0, x0, #2
    b328:	8b000020 	add	x0, x1, x0
    b32c:	b9400800 	ldr	w0, [x0,#8]
    b330:	14000002 	b	b338 <__mpa_div_q_r_internal+0x484>
/home/optee/RPi3/optee_os/lib/libmpa/mpa_div.c:184 (discriminator 10)
    b334:	52800000 	mov	w0, #0x0                   	// #0
/home/optee/RPi3/optee_os/lib/libmpa/mpa_div.c:184 (discriminator 12)
    b338:	d2800003 	mov	x3, #0x0                   	// #0
    b33c:	2a0003e2 	mov	w2, w0
    b340:	2a0503e1 	mov	w1, w5
    b344:	2a0403e0 	mov	w0, w4
    b348:	97fffeca 	bl	ae70 <__mpa_div_dword>
    b34c:	2a0003e2 	mov	w2, w0
/home/optee/RPi3/optee_os/lib/libmpa/mpa_div.c:183 (discriminator 12)
    b350:	f94027a1 	ldr	x1, [x29,#72]
    b354:	93407e60 	sxtw	x0, w19
    b358:	d37ef400 	lsl	x0, x0, #2
    b35c:	8b000020 	add	x0, x1, x0
    b360:	b9000802 	str	w2, [x0,#8]
/home/optee/RPi3/optee_os/lib/libmpa/mpa_div.c:192
    b364:	b90087bf 	str	wzr, [x29,#132]
/home/optee/RPi3/optee_os/lib/libmpa/mpa_div.c:193
    b368:	b9007fbf 	str	wzr, [x29,#124]
/home/optee/RPi3/optee_os/lib/libmpa/mpa_div.c:194
    b36c:	b90077bf 	str	wzr, [x29,#116]
/home/optee/RPi3/optee_os/lib/libmpa/mpa_div.c:195
    b370:	b94097a1 	ldr	w1, [x29,#148]
    b374:	b9408ba0 	ldr	w0, [x29,#136]
    b378:	4b000020 	sub	w0, w1, w0
    b37c:	f94027a1 	ldr	x1, [x29,#72]
    b380:	93407c00 	sxtw	x0, w0
    b384:	d37ef400 	lsl	x0, x0, #2
    b388:	8b000020 	add	x0, x1, x0
    b38c:	b9400804 	ldr	w4, [x0,#8]
/home/optee/RPi3/optee_os/lib/libmpa/mpa_div.c:196
    b390:	b9408ba1 	ldr	w1, [x29,#136]
    b394:	b9409ba0 	ldr	w0, [x29,#152]
    b398:	0b000020 	add	w0, w1, w0
    b39c:	51000401 	sub	w1, w0, #0x1
    b3a0:	f94033a0 	ldr	x0, [x29,#96]
    b3a4:	b9400400 	ldr	w0, [x0,#4]
    b3a8:	6b1f001f 	cmp	w0, wzr
    b3ac:	5a80a400 	cneg	w0, w0, lt
/home/optee/RPi3/optee_os/lib/libmpa/mpa_div.c:195
    b3b0:	6b00003f 	cmp	w1, w0
    b3b4:	5400016a 	b.ge	b3e0 <__mpa_div_q_r_internal+0x52c>
/home/optee/RPi3/optee_os/lib/libmpa/mpa_div.c:196 (discriminator 1)
    b3b8:	f94033a1 	ldr	x1, [x29,#96]
    b3bc:	b9408ba2 	ldr	w2, [x29,#136]
    b3c0:	b9409ba0 	ldr	w0, [x29,#152]
    b3c4:	0b000040 	add	w0, w2, w0
    b3c8:	51000400 	sub	w0, w0, #0x1
/home/optee/RPi3/optee_os/lib/libmpa/mpa_div.c:195 (discriminator 1)
    b3cc:	93407c00 	sxtw	x0, w0
    b3d0:	d37ef400 	lsl	x0, x0, #2
    b3d4:	8b000020 	add	x0, x1, x0
    b3d8:	b9400800 	ldr	w0, [x0,#8]
    b3dc:	14000002 	b	b3e4 <__mpa_div_q_r_internal+0x530>
/home/optee/RPi3/optee_os/lib/libmpa/mpa_div.c:195 (discriminator 2)
    b3e0:	52800000 	mov	w0, #0x0                   	// #0
/home/optee/RPi3/optee_os/lib/libmpa/mpa_div.c:195 (discriminator 4)
    b3e4:	910213a2 	add	x2, x29, #0x84
    b3e8:	910203a1 	add	x1, x29, #0x80
    b3ec:	aa0203e3 	mov	x3, x2
    b3f0:	aa0103e2 	mov	x2, x1
    b3f4:	2a0003e1 	mov	w1, w0
    b3f8:	2a0403e0 	mov	w0, w4
    b3fc:	9400063a 	bl	cce4 <__mpa_mul_add_word>
/home/optee/RPi3/optee_os/lib/libmpa/mpa_div.c:199 (discriminator 4)
    b400:	f9402fa0 	ldr	x0, [x29,#88]
    b404:	b9400400 	ldr	w0, [x0,#4]
    b408:	6b1f001f 	cmp	w0, wzr
    b40c:	5a80a401 	cneg	w1, w0, lt
    b410:	b94097a0 	ldr	w0, [x29,#148]
    b414:	6b00003f 	cmp	w1, w0
    b418:	540000ed 	b.le	b434 <__mpa_div_q_r_internal+0x580>
/home/optee/RPi3/optee_os/lib/libmpa/mpa_div.c:199 (discriminator 1)
    b41c:	f9402fa1 	ldr	x1, [x29,#88]
    b420:	b98097a0 	ldrsw	x0, [x29,#148]
    b424:	d37ef400 	lsl	x0, x0, #2
    b428:	8b000020 	add	x0, x1, x0
    b42c:	b9400800 	ldr	w0, [x0,#8]
    b430:	14000002 	b	b438 <__mpa_div_q_r_internal+0x584>
/home/optee/RPi3/optee_os/lib/libmpa/mpa_div.c:199 (discriminator 2)
    b434:	52800000 	mov	w0, #0x0                   	// #0
/home/optee/RPi3/optee_os/lib/libmpa/mpa_div.c:199 (discriminator 4)
    b438:	b94087a1 	ldr	w1, [x29,#132]
    b43c:	6b01001f 	cmp	w0, w1
    b440:	54001243 	b.cc	b688 <__mpa_div_q_r_internal+0x7d4>
/home/optee/RPi3/optee_os/lib/libmpa/mpa_div.c:202
    b444:	b94097a1 	ldr	w1, [x29,#148]
    b448:	b9408ba0 	ldr	w0, [x29,#136]
    b44c:	4b000020 	sub	w0, w1, w0
    b450:	f94027a1 	ldr	x1, [x29,#72]
    b454:	93407c00 	sxtw	x0, w0
    b458:	d37ef400 	lsl	x0, x0, #2
    b45c:	8b000020 	add	x0, x1, x0
    b460:	b9400804 	ldr	w4, [x0,#8]
/home/optee/RPi3/optee_os/lib/libmpa/mpa_div.c:203
    b464:	b9408ba1 	ldr	w1, [x29,#136]
    b468:	b9409ba0 	ldr	w0, [x29,#152]
    b46c:	0b000020 	add	w0, w1, w0
    b470:	51000801 	sub	w1, w0, #0x2
    b474:	f94033a0 	ldr	x0, [x29,#96]
    b478:	b9400400 	ldr	w0, [x0,#4]
    b47c:	6b1f001f 	cmp	w0, wzr
    b480:	5a80a400 	cneg	w0, w0, lt
/home/optee/RPi3/optee_os/lib/libmpa/mpa_div.c:202
    b484:	6b00003f 	cmp	w1, w0
    b488:	5400016a 	b.ge	b4b4 <__mpa_div_q_r_internal+0x600>
/home/optee/RPi3/optee_os/lib/libmpa/mpa_div.c:203 (discriminator 1)
    b48c:	f94033a1 	ldr	x1, [x29,#96]
    b490:	b9408ba2 	ldr	w2, [x29,#136]
    b494:	b9409ba0 	ldr	w0, [x29,#152]
    b498:	0b000040 	add	w0, w2, w0
    b49c:	51000800 	sub	w0, w0, #0x2
/home/optee/RPi3/optee_os/lib/libmpa/mpa_div.c:202 (discriminator 1)
    b4a0:	93407c00 	sxtw	x0, w0
    b4a4:	d37ef400 	lsl	x0, x0, #2
    b4a8:	8b000020 	add	x0, x1, x0
    b4ac:	b9400800 	ldr	w0, [x0,#8]
    b4b0:	14000002 	b	b4b8 <__mpa_div_q_r_internal+0x604>
/home/optee/RPi3/optee_os/lib/libmpa/mpa_div.c:202 (discriminator 2)
    b4b4:	52800000 	mov	w0, #0x0                   	// #0
/home/optee/RPi3/optee_os/lib/libmpa/mpa_div.c:202 (discriminator 4)
    b4b8:	9101f3a2 	add	x2, x29, #0x7c
    b4bc:	9101e3a1 	add	x1, x29, #0x78
    b4c0:	aa0203e3 	mov	x3, x2
    b4c4:	aa0103e2 	mov	x2, x1
    b4c8:	2a0003e1 	mov	w1, w0
    b4cc:	2a0403e0 	mov	w0, w4
    b4d0:	94000605 	bl	cce4 <__mpa_mul_add_word>
/home/optee/RPi3/optee_os/lib/libmpa/mpa_div.c:206 (discriminator 4)
    b4d4:	b94083a0 	ldr	w0, [x29,#128]
    b4d8:	b9407fa1 	ldr	w1, [x29,#124]
    b4dc:	9101d3a3 	add	x3, x29, #0x74
    b4e0:	9101f3a2 	add	x2, x29, #0x7c
    b4e4:	94000a3a 	bl	ddcc <__mpa_full_adder>
/home/optee/RPi3/optee_os/lib/libmpa/mpa_div.c:207 (discriminator 4)
    b4e8:	b90083bf 	str	wzr, [x29,#128]
/home/optee/RPi3/optee_os/lib/libmpa/mpa_div.c:208 (discriminator 4)
    b4ec:	b94087a0 	ldr	w0, [x29,#132]
    b4f0:	b94077a1 	ldr	w1, [x29,#116]
    b4f4:	910203a3 	add	x3, x29, #0x80
    b4f8:	9101d3a2 	add	x2, x29, #0x74
    b4fc:	94000a34 	bl	ddcc <__mpa_full_adder>
/home/optee/RPi3/optee_os/lib/libmpa/mpa_div.c:209 (discriminator 4)
    b500:	b94083a0 	ldr	w0, [x29,#128]
    b504:	6b1f001f 	cmp	w0, wzr
    b508:	54000c61 	b.ne	b694 <__mpa_div_q_r_internal+0x7e0>
/home/optee/RPi3/optee_os/lib/libmpa/mpa_div.c:209 (discriminator 1)
    b50c:	f9402fa0 	ldr	x0, [x29,#88]
    b510:	b9400400 	ldr	w0, [x0,#4]
    b514:	6b1f001f 	cmp	w0, wzr
    b518:	5a80a401 	cneg	w1, w0, lt
    b51c:	b94097a0 	ldr	w0, [x29,#148]
    b520:	6b00003f 	cmp	w1, w0
    b524:	540000ed 	b.le	b540 <__mpa_div_q_r_internal+0x68c>
/home/optee/RPi3/optee_os/lib/libmpa/mpa_div.c:209 (discriminator 2)
    b528:	f9402fa1 	ldr	x1, [x29,#88]
    b52c:	b98097a0 	ldrsw	x0, [x29,#148]
    b530:	d37ef400 	lsl	x0, x0, #2
    b534:	8b000020 	add	x0, x1, x0
    b538:	b9400800 	ldr	w0, [x0,#8]
    b53c:	14000002 	b	b544 <__mpa_div_q_r_internal+0x690>
/home/optee/RPi3/optee_os/lib/libmpa/mpa_div.c:209 (discriminator 3)
    b540:	52800000 	mov	w0, #0x0                   	// #0
/home/optee/RPi3/optee_os/lib/libmpa/mpa_div.c:209 (discriminator 5)
    b544:	b94077a1 	ldr	w1, [x29,#116]
    b548:	6b01001f 	cmp	w0, w1
    b54c:	54000a43 	b.cc	b694 <__mpa_div_q_r_internal+0x7e0>
/home/optee/RPi3/optee_os/lib/libmpa/mpa_div.c:211
    b550:	f9402fa0 	ldr	x0, [x29,#88]
    b554:	b9400400 	ldr	w0, [x0,#4]
    b558:	6b1f001f 	cmp	w0, wzr
    b55c:	5a80a401 	cneg	w1, w0, lt
    b560:	b94097a0 	ldr	w0, [x29,#148]
    b564:	6b00003f 	cmp	w1, w0
    b568:	540000ed 	b.le	b584 <__mpa_div_q_r_internal+0x6d0>
/home/optee/RPi3/optee_os/lib/libmpa/mpa_div.c:211 (discriminator 1)
    b56c:	f9402fa1 	ldr	x1, [x29,#88]
    b570:	b98097a0 	ldrsw	x0, [x29,#148]
    b574:	d37ef400 	lsl	x0, x0, #2
    b578:	8b000020 	add	x0, x1, x0
    b57c:	b9400800 	ldr	w0, [x0,#8]
    b580:	14000002 	b	b588 <__mpa_div_q_r_internal+0x6d4>
/home/optee/RPi3/optee_os/lib/libmpa/mpa_div.c:211 (discriminator 2)
    b584:	52800000 	mov	w0, #0x0                   	// #0
/home/optee/RPi3/optee_os/lib/libmpa/mpa_div.c:211 (discriminator 4)
    b588:	b94077a1 	ldr	w1, [x29,#116]
    b58c:	6b01001f 	cmp	w0, w1
    b590:	54000a08 	b.hi	b6d0 <__mpa_div_q_r_internal+0x81c>
/home/optee/RPi3/optee_os/lib/libmpa/mpa_div.c:213
    b594:	b94097a0 	ldr	w0, [x29,#148]
    b598:	51000401 	sub	w1, w0, #0x1
    b59c:	f9402fa0 	ldr	x0, [x29,#88]
    b5a0:	b9400400 	ldr	w0, [x0,#4]
    b5a4:	6b1f001f 	cmp	w0, wzr
    b5a8:	5a80a400 	cneg	w0, w0, lt
    b5ac:	6b00003f 	cmp	w1, w0
    b5b0:	5400012a 	b.ge	b5d4 <__mpa_div_q_r_internal+0x720>
/home/optee/RPi3/optee_os/lib/libmpa/mpa_div.c:213 (discriminator 1)
    b5b4:	f9402fa1 	ldr	x1, [x29,#88]
    b5b8:	b94097a0 	ldr	w0, [x29,#148]
    b5bc:	51000400 	sub	w0, w0, #0x1
    b5c0:	93407c00 	sxtw	x0, w0
    b5c4:	d37ef400 	lsl	x0, x0, #2
    b5c8:	8b000020 	add	x0, x1, x0
    b5cc:	b9400800 	ldr	w0, [x0,#8]
    b5d0:	14000002 	b	b5d8 <__mpa_div_q_r_internal+0x724>
/home/optee/RPi3/optee_os/lib/libmpa/mpa_div.c:213 (discriminator 2)
    b5d4:	52800000 	mov	w0, #0x0                   	// #0
/home/optee/RPi3/optee_os/lib/libmpa/mpa_div.c:213 (discriminator 4)
    b5d8:	b9407fa1 	ldr	w1, [x29,#124]
    b5dc:	6b01001f 	cmp	w0, w1
    b5e0:	54000583 	b.cc	b690 <__mpa_div_q_r_internal+0x7dc>
/home/optee/RPi3/optee_os/lib/libmpa/mpa_div.c:215
    b5e4:	b94097a0 	ldr	w0, [x29,#148]
    b5e8:	51000401 	sub	w1, w0, #0x1
    b5ec:	f9402fa0 	ldr	x0, [x29,#88]
    b5f0:	b9400400 	ldr	w0, [x0,#4]
    b5f4:	6b1f001f 	cmp	w0, wzr
    b5f8:	5a80a400 	cneg	w0, w0, lt
    b5fc:	6b00003f 	cmp	w1, w0
    b600:	5400012a 	b.ge	b624 <__mpa_div_q_r_internal+0x770>
/home/optee/RPi3/optee_os/lib/libmpa/mpa_div.c:215 (discriminator 1)
    b604:	f9402fa1 	ldr	x1, [x29,#88]
    b608:	b94097a0 	ldr	w0, [x29,#148]
    b60c:	51000400 	sub	w0, w0, #0x1
    b610:	93407c00 	sxtw	x0, w0
    b614:	d37ef400 	lsl	x0, x0, #2
    b618:	8b000020 	add	x0, x1, x0
    b61c:	b9400800 	ldr	w0, [x0,#8]
    b620:	14000002 	b	b628 <__mpa_div_q_r_internal+0x774>
/home/optee/RPi3/optee_os/lib/libmpa/mpa_div.c:215 (discriminator 2)
    b624:	52800000 	mov	w0, #0x0                   	// #0
/home/optee/RPi3/optee_os/lib/libmpa/mpa_div.c:215 (discriminator 4)
    b628:	b9407fa1 	ldr	w1, [x29,#124]
    b62c:	6b01001f 	cmp	w0, w1
    b630:	54000548 	b.hi	b6d8 <__mpa_div_q_r_internal+0x824>
/home/optee/RPi3/optee_os/lib/libmpa/mpa_div.c:217
    b634:	b94097a0 	ldr	w0, [x29,#148]
    b638:	51000801 	sub	w1, w0, #0x2
    b63c:	f9402fa0 	ldr	x0, [x29,#88]
    b640:	b9400400 	ldr	w0, [x0,#4]
    b644:	6b1f001f 	cmp	w0, wzr
    b648:	5a80a400 	cneg	w0, w0, lt
    b64c:	6b00003f 	cmp	w1, w0
    b650:	5400012a 	b.ge	b674 <__mpa_div_q_r_internal+0x7c0>
/home/optee/RPi3/optee_os/lib/libmpa/mpa_div.c:217 (discriminator 1)
    b654:	f9402fa1 	ldr	x1, [x29,#88]
    b658:	b94097a0 	ldr	w0, [x29,#148]
    b65c:	51000800 	sub	w0, w0, #0x2
    b660:	93407c00 	sxtw	x0, w0
    b664:	d37ef400 	lsl	x0, x0, #2
    b668:	8b000020 	add	x0, x1, x0
    b66c:	b9400800 	ldr	w0, [x0,#8]
    b670:	14000002 	b	b678 <__mpa_div_q_r_internal+0x7c4>
/home/optee/RPi3/optee_os/lib/libmpa/mpa_div.c:217 (discriminator 2)
    b674:	52800000 	mov	w0, #0x0                   	// #0
/home/optee/RPi3/optee_os/lib/libmpa/mpa_div.c:217 (discriminator 4)
    b678:	b9407ba1 	ldr	w1, [x29,#120]
    b67c:	6b01001f 	cmp	w0, w1
    b680:	54000302 	b.cs	b6e0 <__mpa_div_q_r_internal+0x82c>
/home/optee/RPi3/optee_os/lib/libmpa/mpa_div.c:218
    b684:	14000004 	b	b694 <__mpa_div_q_r_internal+0x7e0>
/home/optee/RPi3/optee_os/lib/libmpa/mpa_div.c:200
    b688:	d503201f 	nop
    b68c:	14000002 	b	b694 <__mpa_div_q_r_internal+0x7e0>
/home/optee/RPi3/optee_os/lib/libmpa/mpa_div.c:214
    b690:	d503201f 	nop
/home/optee/RPi3/optee_os/lib/libmpa/mpa_div.c:221
    b694:	b94097a1 	ldr	w1, [x29,#148]
    b698:	b9408ba0 	ldr	w0, [x29,#136]
    b69c:	4b000023 	sub	w3, w1, w0
    b6a0:	f94027a1 	ldr	x1, [x29,#72]
    b6a4:	93407c60 	sxtw	x0, w3
    b6a8:	d37ef400 	lsl	x0, x0, #2
    b6ac:	8b000020 	add	x0, x1, x0
    b6b0:	b9400800 	ldr	w0, [x0,#8]
    b6b4:	51000401 	sub	w1, w0, #0x1
    b6b8:	f94027a2 	ldr	x2, [x29,#72]
    b6bc:	93407c60 	sxtw	x0, w3
    b6c0:	d37ef400 	lsl	x0, x0, #2
    b6c4:	8b000040 	add	x0, x2, x0
    b6c8:	b9000801 	str	w1, [x0,#8]
/home/optee/RPi3/optee_os/lib/libmpa/mpa_div.c:222
    b6cc:	17ffff26 	b	b364 <__mpa_div_q_r_internal+0x4b0>
/home/optee/RPi3/optee_os/lib/libmpa/mpa_div.c:212
    b6d0:	d503201f 	nop
    b6d4:	14000004 	b	b6e4 <__mpa_div_q_r_internal+0x830>
/home/optee/RPi3/optee_os/lib/libmpa/mpa_div.c:216
    b6d8:	d503201f 	nop
    b6dc:	14000002 	b	b6e4 <__mpa_div_q_r_internal+0x830>
/home/optee/RPi3/optee_os/lib/libmpa/mpa_div.c:219
    b6e0:	d503201f 	nop
/home/optee/RPi3/optee_os/lib/libmpa/mpa_div.c:225
    b6e4:	f94033a0 	ldr	x0, [x29,#96]
    b6e8:	52800021 	mov	w1, #0x1                   	// #1
    b6ec:	940007c6 	bl	d604 <__mpa_shift_words_right>
/home/optee/RPi3/optee_os/lib/libmpa/mpa_div.c:226
    b6f0:	b9409ba0 	ldr	w0, [x29,#152]
    b6f4:	51000400 	sub	w0, w0, #0x1
    b6f8:	b9009ba0 	str	w0, [x29,#152]
/home/optee/RPi3/optee_os/lib/libmpa/mpa_div.c:227
    b6fc:	f94037a4 	ldr	x4, [x29,#104]
    b700:	f94033a5 	ldr	x5, [x29,#96]
    b704:	b94097a1 	ldr	w1, [x29,#148]
    b708:	b9408ba0 	ldr	w0, [x29,#136]
    b70c:	4b000020 	sub	w0, w1, w0
    b710:	f94027a1 	ldr	x1, [x29,#72]
    b714:	93407c00 	sxtw	x0, w0
    b718:	d37ef400 	lsl	x0, x0, #2
    b71c:	8b000020 	add	x0, x1, x0
    b720:	b9400800 	ldr	w0, [x0,#8]
    b724:	f94017a3 	ldr	x3, [x29,#40]
    b728:	2a0003e2 	mov	w2, w0
    b72c:	aa0503e1 	mov	x1, x5
    b730:	aa0403e0 	mov	x0, x4
    b734:	9400069c 	bl	d1a4 <mpa_mul_word>
/home/optee/RPi3/optee_os/lib/libmpa/mpa_div.c:228
    b738:	f9402fa0 	ldr	x0, [x29,#88]
    b73c:	f9402fa1 	ldr	x1, [x29,#88]
    b740:	f94037a2 	ldr	x2, [x29,#104]
    b744:	f94017a3 	ldr	x3, [x29,#40]
    b748:	94000bd3 	bl	e694 <mpa_sub>
/home/optee/RPi3/optee_os/lib/libmpa/mpa_div.c:229
    b74c:	f9402fa0 	ldr	x0, [x29,#88]
    b750:	b9400400 	ldr	w0, [x0,#4]
    b754:	6b1f001f 	cmp	w0, wzr
    b758:	5400028a 	b.ge	b7a8 <__mpa_div_q_r_internal+0x8f4>
/home/optee/RPi3/optee_os/lib/libmpa/mpa_div.c:230
    b75c:	f9402fa0 	ldr	x0, [x29,#88]
    b760:	f9402fa1 	ldr	x1, [x29,#88]
    b764:	f94033a2 	ldr	x2, [x29,#96]
    b768:	f94017a3 	ldr	x3, [x29,#40]
    b76c:	94000b1b 	bl	e3d8 <mpa_add>
/home/optee/RPi3/optee_os/lib/libmpa/mpa_div.c:231
    b770:	b94097a1 	ldr	w1, [x29,#148]
    b774:	b9408ba0 	ldr	w0, [x29,#136]
    b778:	4b000023 	sub	w3, w1, w0
    b77c:	f94027a1 	ldr	x1, [x29,#72]
    b780:	93407c60 	sxtw	x0, w3
    b784:	d37ef400 	lsl	x0, x0, #2
    b788:	8b000020 	add	x0, x1, x0
    b78c:	b9400800 	ldr	w0, [x0,#8]
    b790:	51000401 	sub	w1, w0, #0x1
    b794:	f94027a2 	ldr	x2, [x29,#72]
    b798:	93407c60 	sxtw	x0, w3
    b79c:	d37ef400 	lsl	x0, x0, #2
    b7a0:	8b000040 	add	x0, x2, x0
    b7a4:	b9000801 	str	w1, [x0,#8]
/home/optee/RPi3/optee_os/lib/libmpa/mpa_div.c:233
    b7a8:	b94097a0 	ldr	w0, [x29,#148]
    b7ac:	51000400 	sub	w0, w0, #0x1
    b7b0:	b90097a0 	str	w0, [x29,#148]
/home/optee/RPi3/optee_os/lib/libmpa/mpa_div.c:178
    b7b4:	b94097a1 	ldr	w1, [x29,#148]
    b7b8:	b9408ba0 	ldr	w0, [x29,#136]
    b7bc:	6b00003f 	cmp	w1, w0
    b7c0:	54ffcf0a 	b.ge	b1a0 <__mpa_div_q_r_internal+0x2ec>
/home/optee/RPi3/optee_os/lib/libmpa/mpa_div.c:238
    b7c4:	b9408fa1 	ldr	w1, [x29,#140]
    b7c8:	b9408ba0 	ldr	w0, [x29,#136]
    b7cc:	4b000020 	sub	w0, w1, w0
    b7d0:	b90097a0 	str	w0, [x29,#148]
/home/optee/RPi3/optee_os/lib/libmpa/mpa_div.c:239
    b7d4:	14000004 	b	b7e4 <__mpa_div_q_r_internal+0x930>
/home/optee/RPi3/optee_os/lib/libmpa/mpa_div.c:240
    b7d8:	b94097a0 	ldr	w0, [x29,#148]
    b7dc:	51000400 	sub	w0, w0, #0x1
    b7e0:	b90097a0 	str	w0, [x29,#148]
/home/optee/RPi3/optee_os/lib/libmpa/mpa_div.c:239
    b7e4:	b94097a0 	ldr	w0, [x29,#148]
    b7e8:	6b1f001f 	cmp	w0, wzr
    b7ec:	5400010b 	b.lt	b80c <__mpa_div_q_r_internal+0x958>
/home/optee/RPi3/optee_os/lib/libmpa/mpa_div.c:239 (discriminator 1)
    b7f0:	f94027a1 	ldr	x1, [x29,#72]
    b7f4:	b98097a0 	ldrsw	x0, [x29,#148]
    b7f8:	d37ef400 	lsl	x0, x0, #2
    b7fc:	8b000020 	add	x0, x1, x0
    b800:	b9400800 	ldr	w0, [x0,#8]
    b804:	6b1f001f 	cmp	w0, wzr
    b808:	54fffe80 	b.eq	b7d8 <__mpa_div_q_r_internal+0x924>
/home/optee/RPi3/optee_os/lib/libmpa/mpa_div.c:241
    b80c:	b94097a0 	ldr	w0, [x29,#148]
    b810:	11000401 	add	w1, w0, #0x1
    b814:	f94027a0 	ldr	x0, [x29,#72]
    b818:	b9000401 	str	w1, [x0,#4]
/home/optee/RPi3/optee_os/lib/libmpa/mpa_div.c:245
    b81c:	f9402fa0 	ldr	x0, [x29,#88]
    b820:	f9402fa1 	ldr	x1, [x29,#88]
    b824:	b9409fa2 	ldr	w2, [x29,#156]
    b828:	940008a5 	bl	dabc <mpa_shift_right>
/home/optee/RPi3/optee_os/lib/libmpa/mpa_div.c:246
    b82c:	f9402fa0 	ldr	x0, [x29,#88]
    b830:	aa0003e1 	mov	x1, x0
    b834:	f94023a0 	ldr	x0, [x29,#64]
    b838:	97fff953 	bl	9d84 <mpa_copy>
/home/optee/RPi3/optee_os/lib/libmpa/mpa_div.c:251
    b83c:	9101a3a0 	add	x0, x29, #0x68
    b840:	f94017a1 	ldr	x1, [x29,#40]
    b844:	940004e6 	bl	cbdc <mpa_free_static_temp_var>
/home/optee/RPi3/optee_os/lib/libmpa/mpa_div.c:252
    b848:	910183a0 	add	x0, x29, #0x60
    b84c:	f94017a1 	ldr	x1, [x29,#40]
    b850:	940004e3 	bl	cbdc <mpa_free_static_temp_var>
/home/optee/RPi3/optee_os/lib/libmpa/mpa_div.c:253
    b854:	910163a0 	add	x0, x29, #0x58
    b858:	f94017a1 	ldr	x1, [x29,#40]
    b85c:	940004e0 	bl	cbdc <mpa_free_static_temp_var>
/home/optee/RPi3/optee_os/lib/libmpa/mpa_div.c:254
    b860:	d503201f 	nop
    b864:	f9400bf3 	ldr	x19, [sp,#16]
    b868:	a8ca7bfd 	ldp	x29, x30, [sp],#160
    b86c:	d65f03c0 	ret

000000000000b870 <__mpa_div_q_r_internal_word>:
__mpa_div_q_r_internal_word():
/home/optee/RPi3/optee_os/lib/libmpa/mpa_div.c:269
    b870:	a9bb7bfd 	stp	x29, x30, [sp,#-80]!
    b874:	910003fd 	mov	x29, sp
    b878:	f90017a0 	str	x0, [x29,#40]
    b87c:	f90013a1 	str	x1, [x29,#32]
    b880:	f9000fa2 	str	x2, [x29,#24]
    b884:	b90017a3 	str	w3, [x29,#20]
/home/optee/RPi3/optee_os/lib/libmpa/mpa_div.c:277
    b888:	f9400fa0 	ldr	x0, [x29,#24]
    b88c:	b9400400 	ldr	w0, [x0,#4]
    b890:	6b1f001f 	cmp	w0, wzr
    b894:	5a80a400 	cneg	w0, w0, lt
    b898:	7100041f 	cmp	w0, #0x1
    b89c:	54000261 	b.ne	b8e8 <__mpa_div_q_r_internal_word+0x78>
/home/optee/RPi3/optee_os/lib/libmpa/mpa_div.c:278
    b8a0:	f9400fa0 	ldr	x0, [x29,#24]
    b8a4:	b9400801 	ldr	w1, [x0,#8]
    b8a8:	b94017a0 	ldr	w0, [x29,#20]
    b8ac:	1ac00820 	udiv	w0, w1, w0
    b8b0:	2a0003e1 	mov	w1, w0
    b8b4:	f94017a0 	ldr	x0, [x29,#40]
    b8b8:	97fffd1b 	bl	ad24 <mpa_set_word>
/home/optee/RPi3/optee_os/lib/libmpa/mpa_div.c:279
    b8bc:	f9400fa0 	ldr	x0, [x29,#24]
    b8c0:	b9400800 	ldr	w0, [x0,#8]
    b8c4:	b94017a1 	ldr	w1, [x29,#20]
    b8c8:	1ac10802 	udiv	w2, w0, w1
    b8cc:	b94017a1 	ldr	w1, [x29,#20]
    b8d0:	1b017c41 	mul	w1, w2, w1
    b8d4:	4b010000 	sub	w0, w0, w1
    b8d8:	2a0003e1 	mov	w1, w0
    b8dc:	f94013a0 	ldr	x0, [x29,#32]
    b8e0:	97fffd11 	bl	ad24 <mpa_set_word>
    b8e4:	1400005a 	b	ba4c <__mpa_div_q_r_internal_word+0x1dc>
/home/optee/RPi3/optee_os/lib/libmpa/mpa_div.c:282
    b8e8:	f9400fa1 	ldr	x1, [x29,#24]
    b8ec:	f94013a0 	ldr	x0, [x29,#32]
    b8f0:	97fff925 	bl	9d84 <mpa_copy>
/home/optee/RPi3/optee_os/lib/libmpa/mpa_div.c:283
    b8f4:	52800001 	mov	w1, #0x0                   	// #0
    b8f8:	f94017a0 	ldr	x0, [x29,#40]
    b8fc:	97fffd0a 	bl	ad24 <mpa_set_word>
/home/optee/RPi3/optee_os/lib/libmpa/mpa_div.c:285
    b900:	f94013a0 	ldr	x0, [x29,#32]
    b904:	b9400400 	ldr	w0, [x0,#4]
    b908:	6b1f001f 	cmp	w0, wzr
    b90c:	5a80a400 	cneg	w0, w0, lt
    b910:	51000400 	sub	w0, w0, #0x1
    b914:	b9004fa0 	str	w0, [x29,#76]
/home/optee/RPi3/optee_os/lib/libmpa/mpa_div.c:286
    b918:	b9004bbf 	str	wzr, [x29,#72]
/home/optee/RPi3/optee_os/lib/libmpa/mpa_div.c:287
    b91c:	f94013a1 	ldr	x1, [x29,#32]
    b920:	b9804fa0 	ldrsw	x0, [x29,#76]
    b924:	d37ef400 	lsl	x0, x0, #2
    b928:	8b000020 	add	x0, x1, x0
    b92c:	b9400800 	ldr	w0, [x0,#8]
    b930:	b90047a0 	str	w0, [x29,#68]
/home/optee/RPi3/optee_os/lib/libmpa/mpa_div.c:288
    b934:	14000023 	b	b9c0 <__mpa_div_q_r_internal_word+0x150>
/home/optee/RPi3/optee_os/lib/libmpa/mpa_div.c:289
    b938:	9100e3a0 	add	x0, x29, #0x38
    b93c:	aa0003e3 	mov	x3, x0
    b940:	b94017a2 	ldr	w2, [x29,#20]
    b944:	b9404ba1 	ldr	w1, [x29,#72]
    b948:	b94047a0 	ldr	w0, [x29,#68]
    b94c:	97fffd49 	bl	ae70 <__mpa_div_dword>
    b950:	b9003fa0 	str	w0, [x29,#60]
/home/optee/RPi3/optee_os/lib/libmpa/mpa_div.c:290
    b954:	f94017a1 	ldr	x1, [x29,#40]
    b958:	b9804fa0 	ldrsw	x0, [x29,#76]
    b95c:	d37ef400 	lsl	x0, x0, #2
    b960:	8b000020 	add	x0, x1, x0
    b964:	b9403fa1 	ldr	w1, [x29,#60]
    b968:	b9000801 	str	w1, [x0,#8]
/home/optee/RPi3/optee_os/lib/libmpa/mpa_div.c:291
    b96c:	b9403ba1 	ldr	w1, [x29,#56]
    b970:	f94013a2 	ldr	x2, [x29,#32]
    b974:	b9804fa0 	ldrsw	x0, [x29,#76]
    b978:	d37ef400 	lsl	x0, x0, #2
    b97c:	8b000040 	add	x0, x2, x0
    b980:	b9000801 	str	w1, [x0,#8]
/home/optee/RPi3/optee_os/lib/libmpa/mpa_div.c:292
    b984:	f94013a1 	ldr	x1, [x29,#32]
    b988:	b9804fa0 	ldrsw	x0, [x29,#76]
    b98c:	d37ef400 	lsl	x0, x0, #2
    b990:	8b000020 	add	x0, x1, x0
    b994:	b9400800 	ldr	w0, [x0,#8]
    b998:	b9004ba0 	str	w0, [x29,#72]
/home/optee/RPi3/optee_os/lib/libmpa/mpa_div.c:293
    b99c:	b9404fa0 	ldr	w0, [x29,#76]
    b9a0:	51000400 	sub	w0, w0, #0x1
    b9a4:	b9004fa0 	str	w0, [x29,#76]
    b9a8:	f94013a1 	ldr	x1, [x29,#32]
    b9ac:	b9804fa0 	ldrsw	x0, [x29,#76]
    b9b0:	d37ef400 	lsl	x0, x0, #2
    b9b4:	8b000020 	add	x0, x1, x0
    b9b8:	b9400800 	ldr	w0, [x0,#8]
    b9bc:	b90047a0 	str	w0, [x29,#68]
/home/optee/RPi3/optee_os/lib/libmpa/mpa_div.c:288
    b9c0:	b9404fa0 	ldr	w0, [x29,#76]
    b9c4:	6b1f001f 	cmp	w0, wzr
    b9c8:	54fffb8a 	b.ge	b938 <__mpa_div_q_r_internal_word+0xc8>
/home/optee/RPi3/optee_os/lib/libmpa/mpa_div.c:296
    b9cc:	f94013a0 	ldr	x0, [x29,#32]
    b9d0:	b9400800 	ldr	w0, [x0,#8]
    b9d4:	6b1f001f 	cmp	w0, wzr
    b9d8:	1a9f07e0 	cset	w0, ne
    b9dc:	53001c00 	uxtb	w0, w0
    b9e0:	2a0003e1 	mov	w1, w0
    b9e4:	f94013a0 	ldr	x0, [x29,#32]
    b9e8:	b9000401 	str	w1, [x0,#4]
/home/optee/RPi3/optee_os/lib/libmpa/mpa_div.c:297
    b9ec:	f9400fa0 	ldr	x0, [x29,#24]
    b9f0:	b9400400 	ldr	w0, [x0,#4]
    b9f4:	6b1f001f 	cmp	w0, wzr
    b9f8:	5a80a400 	cneg	w0, w0, lt
    b9fc:	51000400 	sub	w0, w0, #0x1
    ba00:	b90043a0 	str	w0, [x29,#64]
/home/optee/RPi3/optee_os/lib/libmpa/mpa_div.c:298
    ba04:	14000004 	b	ba14 <__mpa_div_q_r_internal_word+0x1a4>
/home/optee/RPi3/optee_os/lib/libmpa/mpa_div.c:299
    ba08:	b94043a0 	ldr	w0, [x29,#64]
    ba0c:	51000400 	sub	w0, w0, #0x1
    ba10:	b90043a0 	str	w0, [x29,#64]
/home/optee/RPi3/optee_os/lib/libmpa/mpa_div.c:298
    ba14:	b94043a0 	ldr	w0, [x29,#64]
    ba18:	6b1f001f 	cmp	w0, wzr
    ba1c:	5400010b 	b.lt	ba3c <__mpa_div_q_r_internal_word+0x1cc>
/home/optee/RPi3/optee_os/lib/libmpa/mpa_div.c:298 (discriminator 1)
    ba20:	f94017a1 	ldr	x1, [x29,#40]
    ba24:	b98043a0 	ldrsw	x0, [x29,#64]
    ba28:	d37ef400 	lsl	x0, x0, #2
    ba2c:	8b000020 	add	x0, x1, x0
    ba30:	b9400800 	ldr	w0, [x0,#8]
    ba34:	6b1f001f 	cmp	w0, wzr
    ba38:	54fffe80 	b.eq	ba08 <__mpa_div_q_r_internal_word+0x198>
/home/optee/RPi3/optee_os/lib/libmpa/mpa_div.c:300
    ba3c:	b94043a0 	ldr	w0, [x29,#64]
    ba40:	11000401 	add	w1, w0, #0x1
    ba44:	f94017a0 	ldr	x0, [x29,#40]
    ba48:	b9000401 	str	w1, [x0,#4]
/home/optee/RPi3/optee_os/lib/libmpa/mpa_div.c:301
    ba4c:	a8c57bfd 	ldp	x29, x30, [sp],#80
    ba50:	d65f03c0 	ret

000000000000ba54 <__mpa_div_q_r>:
__mpa_div_q_r():
/home/optee/RPi3/optee_os/lib/libmpa/mpa_div.c:324
    ba54:	a9bb7bfd 	stp	x29, x30, [sp,#-80]!
    ba58:	910003fd 	mov	x29, sp
    ba5c:	f9001fa0 	str	x0, [x29,#56]
    ba60:	f9001ba1 	str	x1, [x29,#48]
    ba64:	f90017a2 	str	x2, [x29,#40]
    ba68:	f90013a3 	str	x3, [x29,#32]
    ba6c:	f9000fa4 	str	x4, [x29,#24]
/home/optee/RPi3/optee_os/lib/libmpa/mpa_div.c:328
    ba70:	f94017a0 	ldr	x0, [x29,#40]
    ba74:	b9400400 	ldr	w0, [x0,#4]
    ba78:	6b1f001f 	cmp	w0, wzr
    ba7c:	54000101 	b.ne	ba9c <__mpa_div_q_r+0x48>
/home/optee/RPi3/optee_os/lib/libmpa/mpa_div.c:329
    ba80:	52800001 	mov	w1, #0x0                   	// #0
    ba84:	f9401fa0 	ldr	x0, [x29,#56]
    ba88:	97fffca7 	bl	ad24 <mpa_set_word>
/home/optee/RPi3/optee_os/lib/libmpa/mpa_div.c:330
    ba8c:	52800001 	mov	w1, #0x0                   	// #0
    ba90:	f9401ba0 	ldr	x0, [x29,#48]
    ba94:	97fffca4 	bl	ad24 <mpa_set_word>
/home/optee/RPi3/optee_os/lib/libmpa/mpa_div.c:331
    ba98:	14000070 	b	bc58 <__mpa_div_q_r+0x204>
/home/optee/RPi3/optee_os/lib/libmpa/mpa_div.c:333
    ba9c:	f94013a0 	ldr	x0, [x29,#32]
    baa0:	b9400400 	ldr	w0, [x0,#4]
    baa4:	6b1f001f 	cmp	w0, wzr
    baa8:	540000e1 	b.ne	bac4 <__mpa_div_q_r+0x70>
/home/optee/RPi3/optee_os/lib/libmpa/mpa_div.c:335
    baac:	f94013a0 	ldr	x0, [x29,#32]
    bab0:	b9400400 	ldr	w0, [x0,#4]
    bab4:	52800541 	mov	w1, #0x2a                  	// #42
    bab8:	1ac00c20 	sdiv	w0, w1, w0
    babc:	b9004fa0 	str	w0, [x29,#76]
/home/optee/RPi3/optee_os/lib/libmpa/mpa_div.c:336
    bac0:	14000066 	b	bc58 <__mpa_div_q_r+0x204>
/home/optee/RPi3/optee_os/lib/libmpa/mpa_div.c:340
    bac4:	f94017a0 	ldr	x0, [x29,#40]
    bac8:	b9400400 	ldr	w0, [x0,#4]
    bacc:	6b1f001f 	cmp	w0, wzr
    bad0:	5400006b 	b.lt	badc <__mpa_div_q_r+0x88>
/home/optee/RPi3/optee_os/lib/libmpa/mpa_div.c:340 (discriminator 1)
    bad4:	52800021 	mov	w1, #0x1                   	// #1
    bad8:	14000002 	b	bae0 <__mpa_div_q_r+0x8c>
/home/optee/RPi3/optee_os/lib/libmpa/mpa_div.c:340 (discriminator 2)
    badc:	12800001 	mov	w1, #0xffffffff            	// #-1
/home/optee/RPi3/optee_os/lib/libmpa/mpa_div.c:341
    bae0:	f94013a0 	ldr	x0, [x29,#32]
    bae4:	b9400400 	ldr	w0, [x0,#4]
    bae8:	6b1f001f 	cmp	w0, wzr
    baec:	5400006b 	b.lt	baf8 <__mpa_div_q_r+0xa4>
/home/optee/RPi3/optee_os/lib/libmpa/mpa_div.c:341 (discriminator 1)
    baf0:	52800020 	mov	w0, #0x1                   	// #1
    baf4:	14000002 	b	bafc <__mpa_div_q_r+0xa8>
/home/optee/RPi3/optee_os/lib/libmpa/mpa_div.c:341 (discriminator 2)
    baf8:	12800000 	mov	w0, #0xffffffff            	// #-1
/home/optee/RPi3/optee_os/lib/libmpa/mpa_div.c:341 (discriminator 4)
    bafc:	6b00003f 	cmp	w1, w0
    bb00:	54000060 	b.eq	bb0c <__mpa_div_q_r+0xb8>
/home/optee/RPi3/optee_os/lib/libmpa/mpa_div.c:341 (discriminator 5)
    bb04:	12800000 	mov	w0, #0xffffffff            	// #-1
    bb08:	14000002 	b	bb10 <__mpa_div_q_r+0xbc>
/home/optee/RPi3/optee_os/lib/libmpa/mpa_div.c:341 (discriminator 6)
    bb0c:	52800020 	mov	w0, #0x1                   	// #1
/home/optee/RPi3/optee_os/lib/libmpa/mpa_div.c:339
    bb10:	b9004fa0 	str	w0, [x29,#76]
/home/optee/RPi3/optee_os/lib/libmpa/mpa_div.c:342
    bb14:	f94013a1 	ldr	x1, [x29,#32]
    bb18:	f94017a0 	ldr	x0, [x29,#40]
    bb1c:	94000ca9 	bl	edc0 <__mpa_abs_cmp>
    bb20:	b9004ba0 	str	w0, [x29,#72]
/home/optee/RPi3/optee_os/lib/libmpa/mpa_div.c:343
    bb24:	b9404ba0 	ldr	w0, [x29,#72]
    bb28:	6b1f001f 	cmp	w0, wzr
    bb2c:	54000101 	b.ne	bb4c <__mpa_div_q_r+0xf8>
/home/optee/RPi3/optee_os/lib/libmpa/mpa_div.c:344
    bb30:	52800021 	mov	w1, #0x1                   	// #1
    bb34:	f9401fa0 	ldr	x0, [x29,#56]
    bb38:	97fffc7b 	bl	ad24 <mpa_set_word>
/home/optee/RPi3/optee_os/lib/libmpa/mpa_div.c:345
    bb3c:	52800001 	mov	w1, #0x0                   	// #0
    bb40:	f9401ba0 	ldr	x0, [x29,#48]
    bb44:	97fffc78 	bl	ad24 <mpa_set_word>
/home/optee/RPi3/optee_os/lib/libmpa/mpa_div.c:346
    bb48:	14000044 	b	bc58 <__mpa_div_q_r+0x204>
/home/optee/RPi3/optee_os/lib/libmpa/mpa_div.c:348
    bb4c:	b9404ba0 	ldr	w0, [x29,#72]
    bb50:	6b1f001f 	cmp	w0, wzr
    bb54:	540002cd 	b.le	bbac <__mpa_div_q_r+0x158>
/home/optee/RPi3/optee_os/lib/libmpa/mpa_div.c:349
    bb58:	f94013a0 	ldr	x0, [x29,#32]
    bb5c:	b9400400 	ldr	w0, [x0,#4]
    bb60:	6b1f001f 	cmp	w0, wzr
    bb64:	5a80a400 	cneg	w0, w0, lt
    bb68:	7100041f 	cmp	w0, #0x1
    bb6c:	5400010d 	b.le	bb8c <__mpa_div_q_r+0x138>
/home/optee/RPi3/optee_os/lib/libmpa/mpa_div.c:350
    bb70:	f9400fa4 	ldr	x4, [x29,#24]
    bb74:	f94013a3 	ldr	x3, [x29,#32]
    bb78:	f94017a2 	ldr	x2, [x29,#40]
    bb7c:	f9401ba1 	ldr	x1, [x29,#48]
    bb80:	f9401fa0 	ldr	x0, [x29,#56]
    bb84:	97fffccc 	bl	aeb4 <__mpa_div_q_r_internal>
    bb88:	14000010 	b	bbc8 <__mpa_div_q_r+0x174>
/home/optee/RPi3/optee_os/lib/libmpa/mpa_div.c:352
    bb8c:	f94013a0 	ldr	x0, [x29,#32]
    bb90:	b9400800 	ldr	w0, [x0,#8]
    bb94:	2a0003e3 	mov	w3, w0
    bb98:	f94017a2 	ldr	x2, [x29,#40]
    bb9c:	f9401ba1 	ldr	x1, [x29,#48]
    bba0:	f9401fa0 	ldr	x0, [x29,#56]
    bba4:	97ffff33 	bl	b870 <__mpa_div_q_r_internal_word>
    bba8:	14000008 	b	bbc8 <__mpa_div_q_r+0x174>
/home/optee/RPi3/optee_os/lib/libmpa/mpa_div.c:354
    bbac:	52800001 	mov	w1, #0x0                   	// #0
    bbb0:	f9401fa0 	ldr	x0, [x29,#56]
    bbb4:	97fffc5c 	bl	ad24 <mpa_set_word>
/home/optee/RPi3/optee_os/lib/libmpa/mpa_div.c:355
    bbb8:	f94017a1 	ldr	x1, [x29,#40]
    bbbc:	f9401ba0 	ldr	x0, [x29,#48]
    bbc0:	97fff871 	bl	9d84 <mpa_copy>
/home/optee/RPi3/optee_os/lib/libmpa/mpa_div.c:356
    bbc4:	14000025 	b	bc58 <__mpa_div_q_r+0x204>
/home/optee/RPi3/optee_os/lib/libmpa/mpa_div.c:358
    bbc8:	f9401fa0 	ldr	x0, [x29,#56]
    bbcc:	b9400400 	ldr	w0, [x0,#4]
    bbd0:	6b1f001f 	cmp	w0, wzr
    bbd4:	5400006b 	b.lt	bbe0 <__mpa_div_q_r+0x18c>
/home/optee/RPi3/optee_os/lib/libmpa/mpa_div.c:358 (discriminator 1)
    bbd8:	52800020 	mov	w0, #0x1                   	// #1
    bbdc:	14000002 	b	bbe4 <__mpa_div_q_r+0x190>
/home/optee/RPi3/optee_os/lib/libmpa/mpa_div.c:358 (discriminator 2)
    bbe0:	12800000 	mov	w0, #0xffffffff            	// #-1
/home/optee/RPi3/optee_os/lib/libmpa/mpa_div.c:358 (discriminator 4)
    bbe4:	b9404fa1 	ldr	w1, [x29,#76]
    bbe8:	6b01001f 	cmp	w0, w1
    bbec:	540000c0 	b.eq	bc04 <__mpa_div_q_r+0x1b0>
/home/optee/RPi3/optee_os/lib/libmpa/mpa_div.c:358 (discriminator 5)
    bbf0:	f9401fa0 	ldr	x0, [x29,#56]
    bbf4:	b9400400 	ldr	w0, [x0,#4]
    bbf8:	4b0003e1 	neg	w1, w0
    bbfc:	f9401fa0 	ldr	x0, [x29,#56]
    bc00:	b9000401 	str	w1, [x0,#4]
/home/optee/RPi3/optee_os/lib/libmpa/mpa_div.c:359
    bc04:	f9401ba0 	ldr	x0, [x29,#48]
    bc08:	b9400400 	ldr	w0, [x0,#4]
    bc0c:	6b1f001f 	cmp	w0, wzr
    bc10:	5400006b 	b.lt	bc1c <__mpa_div_q_r+0x1c8>
/home/optee/RPi3/optee_os/lib/libmpa/mpa_div.c:359 (discriminator 1)
    bc14:	52800021 	mov	w1, #0x1                   	// #1
    bc18:	14000002 	b	bc20 <__mpa_div_q_r+0x1cc>
/home/optee/RPi3/optee_os/lib/libmpa/mpa_div.c:359 (discriminator 2)
    bc1c:	12800001 	mov	w1, #0xffffffff            	// #-1
/home/optee/RPi3/optee_os/lib/libmpa/mpa_div.c:359 (discriminator 4)
    bc20:	f94017a0 	ldr	x0, [x29,#40]
    bc24:	b9400400 	ldr	w0, [x0,#4]
    bc28:	6b1f001f 	cmp	w0, wzr
    bc2c:	5400006b 	b.lt	bc38 <__mpa_div_q_r+0x1e4>
/home/optee/RPi3/optee_os/lib/libmpa/mpa_div.c:359 (discriminator 5)
    bc30:	52800020 	mov	w0, #0x1                   	// #1
    bc34:	14000002 	b	bc3c <__mpa_div_q_r+0x1e8>
/home/optee/RPi3/optee_os/lib/libmpa/mpa_div.c:359 (discriminator 6)
    bc38:	12800000 	mov	w0, #0xffffffff            	// #-1
/home/optee/RPi3/optee_os/lib/libmpa/mpa_div.c:359 (discriminator 8)
    bc3c:	6b00003f 	cmp	w1, w0
    bc40:	540000c0 	b.eq	bc58 <__mpa_div_q_r+0x204>
/home/optee/RPi3/optee_os/lib/libmpa/mpa_div.c:359 (discriminator 9)
    bc44:	f9401ba0 	ldr	x0, [x29,#48]
    bc48:	b9400400 	ldr	w0, [x0,#4]
    bc4c:	4b0003e1 	neg	w1, w0
    bc50:	f9401ba0 	ldr	x0, [x29,#48]
    bc54:	b9000401 	str	w1, [x0,#4]
/home/optee/RPi3/optee_os/lib/libmpa/mpa_div.c:360
    bc58:	a8c57bfd 	ldp	x29, x30, [sp],#80
    bc5c:	d65f03c0 	ret

000000000000bc60 <mpa_div>:
mpa_div():
/home/optee/RPi3/optee_os/lib/libmpa/mpa_div.c:379
    bc60:	a9ba7bfd 	stp	x29, x30, [sp,#-96]!
    bc64:	910003fd 	mov	x29, sp
    bc68:	f9001fa0 	str	x0, [x29,#56]
    bc6c:	f9001ba1 	str	x1, [x29,#48]
    bc70:	f90017a2 	str	x2, [x29,#40]
    bc74:	f90013a3 	str	x3, [x29,#32]
    bc78:	f9000fa4 	str	x4, [x29,#24]
/home/optee/RPi3/optee_os/lib/libmpa/mpa_div.c:386
    bc7c:	f9401fa1 	ldr	x1, [x29,#56]
    bc80:	f94017a0 	ldr	x0, [x29,#40]
    bc84:	eb00003f 	cmp	x1, x0
    bc88:	54000100 	b.eq	bca8 <mpa_div+0x48>
/home/optee/RPi3/optee_os/lib/libmpa/mpa_div.c:386 (discriminator 1)
    bc8c:	f9401fa1 	ldr	x1, [x29,#56]
    bc90:	f94013a0 	ldr	x0, [x29,#32]
    bc94:	eb00003f 	cmp	x1, x0
    bc98:	54000080 	b.eq	bca8 <mpa_div+0x48>
/home/optee/RPi3/optee_os/lib/libmpa/mpa_div.c:386 (discriminator 2)
    bc9c:	f9401fa0 	ldr	x0, [x29,#56]
    bca0:	eb1f001f 	cmp	x0, xzr
    bca4:	540000e1 	b.ne	bcc0 <mpa_div+0x60>
/home/optee/RPi3/optee_os/lib/libmpa/mpa_div.c:387
    bca8:	910143a0 	add	x0, x29, #0x50
    bcac:	f9400fa1 	ldr	x1, [x29,#24]
    bcb0:	940003c0 	bl	cbb0 <mpa_alloc_static_temp_var>
/home/optee/RPi3/optee_os/lib/libmpa/mpa_div.c:388
    bcb4:	52800020 	mov	w0, #0x1                   	// #1
    bcb8:	39017fa0 	strb	w0, [x29,#95]
    bcbc:	14000004 	b	bccc <mpa_div+0x6c>
/home/optee/RPi3/optee_os/lib/libmpa/mpa_div.c:390
    bcc0:	f9401fa0 	ldr	x0, [x29,#56]
    bcc4:	f9002ba0 	str	x0, [x29,#80]
/home/optee/RPi3/optee_os/lib/libmpa/mpa_div.c:391
    bcc8:	39017fbf 	strb	wzr, [x29,#95]
/home/optee/RPi3/optee_os/lib/libmpa/mpa_div.c:395
    bccc:	f9401ba1 	ldr	x1, [x29,#48]
    bcd0:	f94017a0 	ldr	x0, [x29,#40]
    bcd4:	eb00003f 	cmp	x1, x0
    bcd8:	54000100 	b.eq	bcf8 <mpa_div+0x98>
/home/optee/RPi3/optee_os/lib/libmpa/mpa_div.c:395 (discriminator 1)
    bcdc:	f9401ba1 	ldr	x1, [x29,#48]
    bce0:	f94013a0 	ldr	x0, [x29,#32]
    bce4:	eb00003f 	cmp	x1, x0
    bce8:	54000080 	b.eq	bcf8 <mpa_div+0x98>
/home/optee/RPi3/optee_os/lib/libmpa/mpa_div.c:395 (discriminator 2)
    bcec:	f9401ba0 	ldr	x0, [x29,#48]
    bcf0:	eb1f001f 	cmp	x0, xzr
    bcf4:	540000e1 	b.ne	bd10 <mpa_div+0xb0>
/home/optee/RPi3/optee_os/lib/libmpa/mpa_div.c:396
    bcf8:	910123a0 	add	x0, x29, #0x48
    bcfc:	f9400fa1 	ldr	x1, [x29,#24]
    bd00:	940003ac 	bl	cbb0 <mpa_alloc_static_temp_var>
/home/optee/RPi3/optee_os/lib/libmpa/mpa_div.c:397
    bd04:	52800020 	mov	w0, #0x1                   	// #1
    bd08:	39017ba0 	strb	w0, [x29,#94]
    bd0c:	14000004 	b	bd1c <mpa_div+0xbc>
/home/optee/RPi3/optee_os/lib/libmpa/mpa_div.c:399
    bd10:	f9401ba0 	ldr	x0, [x29,#48]
    bd14:	f90027a0 	str	x0, [x29,#72]
/home/optee/RPi3/optee_os/lib/libmpa/mpa_div.c:400
    bd18:	39017bbf 	strb	wzr, [x29,#94]
/home/optee/RPi3/optee_os/lib/libmpa/mpa_div.c:403
    bd1c:	f9402ba0 	ldr	x0, [x29,#80]
    bd20:	f94027a1 	ldr	x1, [x29,#72]
    bd24:	f9400fa4 	ldr	x4, [x29,#24]
    bd28:	f94013a3 	ldr	x3, [x29,#32]
    bd2c:	f94017a2 	ldr	x2, [x29,#40]
    bd30:	97ffff49 	bl	ba54 <__mpa_div_q_r>
/home/optee/RPi3/optee_os/lib/libmpa/mpa_div.c:405
    bd34:	f9401fa0 	ldr	x0, [x29,#56]
    bd38:	eb1f001f 	cmp	x0, xzr
    bd3c:	540000a0 	b.eq	bd50 <mpa_div+0xf0>
/home/optee/RPi3/optee_os/lib/libmpa/mpa_div.c:406
    bd40:	f9402ba0 	ldr	x0, [x29,#80]
    bd44:	aa0003e1 	mov	x1, x0
    bd48:	f9401fa0 	ldr	x0, [x29,#56]
    bd4c:	97fff80e 	bl	9d84 <mpa_copy>
/home/optee/RPi3/optee_os/lib/libmpa/mpa_div.c:407
    bd50:	39417fa0 	ldrb	w0, [x29,#95]
    bd54:	6b1f001f 	cmp	w0, wzr
    bd58:	54000080 	b.eq	bd68 <mpa_div+0x108>
/home/optee/RPi3/optee_os/lib/libmpa/mpa_div.c:408
    bd5c:	910143a0 	add	x0, x29, #0x50
    bd60:	f9400fa1 	ldr	x1, [x29,#24]
    bd64:	9400039e 	bl	cbdc <mpa_free_static_temp_var>
/home/optee/RPi3/optee_os/lib/libmpa/mpa_div.c:409
    bd68:	f9401ba0 	ldr	x0, [x29,#48]
    bd6c:	eb1f001f 	cmp	x0, xzr
    bd70:	540000a0 	b.eq	bd84 <mpa_div+0x124>
/home/optee/RPi3/optee_os/lib/libmpa/mpa_div.c:410
    bd74:	f94027a0 	ldr	x0, [x29,#72]
    bd78:	aa0003e1 	mov	x1, x0
    bd7c:	f9401ba0 	ldr	x0, [x29,#48]
    bd80:	97fff801 	bl	9d84 <mpa_copy>
/home/optee/RPi3/optee_os/lib/libmpa/mpa_div.c:411
    bd84:	39417ba0 	ldrb	w0, [x29,#94]
    bd88:	6b1f001f 	cmp	w0, wzr
    bd8c:	54000080 	b.eq	bd9c <mpa_div+0x13c>
/home/optee/RPi3/optee_os/lib/libmpa/mpa_div.c:412
    bd90:	910123a0 	add	x0, x29, #0x48
    bd94:	f9400fa1 	ldr	x1, [x29,#24]
    bd98:	94000391 	bl	cbdc <mpa_free_static_temp_var>
/home/optee/RPi3/optee_os/lib/libmpa/mpa_div.c:413
    bd9c:	d503201f 	nop
    bda0:	a8c67bfd 	ldp	x29, x30, [sp],#96
    bda4:	d65f03c0 	ret

000000000000bda8 <__mpa_divby2>:
__mpa_divby2():
/home/optee/RPi3/optee_os/lib/libmpa/mpa_gcd.c:41
    bda8:	d10083ff 	sub	sp, sp, #0x20
    bdac:	f90007e0 	str	x0, [sp,#8]
/home/optee/RPi3/optee_os/lib/libmpa/mpa_gcd.c:47
    bdb0:	f94007e0 	ldr	x0, [sp,#8]
    bdb4:	b9400400 	ldr	w0, [x0,#4]
    bdb8:	6b1f001f 	cmp	w0, wzr
    bdbc:	54000b00 	b.eq	bf1c <__mpa_divby2+0x174>
/home/optee/RPi3/optee_os/lib/libmpa/mpa_gcd.c:50
    bdc0:	f94007e0 	ldr	x0, [sp,#8]
    bdc4:	b9400400 	ldr	w0, [x0,#4]
    bdc8:	6b1f001f 	cmp	w0, wzr
    bdcc:	5a80a400 	cneg	w0, w0, lt
    bdd0:	51000400 	sub	w0, w0, #0x1
    bdd4:	f94007e1 	ldr	x1, [sp,#8]
    bdd8:	93407c00 	sxtw	x0, w0
    bddc:	d37ef400 	lsl	x0, x0, #2
    bde0:	8b000020 	add	x0, x1, x0
    bde4:	b9400800 	ldr	w0, [x0,#8]
    bde8:	53017c00 	lsr	w0, w0, #1
    bdec:	6b1f001f 	cmp	w0, wzr
    bdf0:	1a9f17e0 	cset	w0, eq
    bdf4:	53001c00 	uxtb	w0, w0
    bdf8:	b9001be0 	str	w0, [sp,#24]
/home/optee/RPi3/optee_os/lib/libmpa/mpa_gcd.c:52
    bdfc:	f94007e0 	ldr	x0, [sp,#8]
    be00:	b9400800 	ldr	w0, [x0,#8]
    be04:	53017c01 	lsr	w1, w0, #1
    be08:	f94007e0 	ldr	x0, [sp,#8]
    be0c:	b9000801 	str	w1, [x0,#8]
/home/optee/RPi3/optee_os/lib/libmpa/mpa_gcd.c:53
    be10:	52800020 	mov	w0, #0x1                   	// #1
    be14:	b9001fe0 	str	w0, [sp,#28]
    be18:	14000027 	b	beb4 <__mpa_divby2+0x10c>
/home/optee/RPi3/optee_os/lib/libmpa/mpa_gcd.c:54 (discriminator 3)
    be1c:	f94007e1 	ldr	x1, [sp,#8]
    be20:	b9401fe0 	ldr	w0, [sp,#28]
    be24:	d37ef400 	lsl	x0, x0, #2
    be28:	8b000020 	add	x0, x1, x0
    be2c:	b9400800 	ldr	w0, [x0,#8]
    be30:	12000000 	and	w0, w0, #0x1
    be34:	b90017e0 	str	w0, [sp,#20]
/home/optee/RPi3/optee_os/lib/libmpa/mpa_gcd.c:55 (discriminator 3)
    be38:	f94007e1 	ldr	x1, [sp,#8]
    be3c:	b9401fe0 	ldr	w0, [sp,#28]
    be40:	d37ef400 	lsl	x0, x0, #2
    be44:	8b000020 	add	x0, x1, x0
    be48:	b9400800 	ldr	w0, [x0,#8]
    be4c:	53017c01 	lsr	w1, w0, #1
    be50:	f94007e2 	ldr	x2, [sp,#8]
    be54:	b9401fe0 	ldr	w0, [sp,#28]
    be58:	d37ef400 	lsl	x0, x0, #2
    be5c:	8b000040 	add	x0, x2, x0
    be60:	b9000801 	str	w1, [x0,#8]
/home/optee/RPi3/optee_os/lib/libmpa/mpa_gcd.c:56 (discriminator 3)
    be64:	b9401fe0 	ldr	w0, [sp,#28]
    be68:	51000403 	sub	w3, w0, #0x1
    be6c:	b9401fe0 	ldr	w0, [sp,#28]
    be70:	51000400 	sub	w0, w0, #0x1
    be74:	f94007e1 	ldr	x1, [sp,#8]
    be78:	2a0003e0 	mov	w0, w0
    be7c:	d37ef400 	lsl	x0, x0, #2
    be80:	8b000020 	add	x0, x1, x0
    be84:	b9400801 	ldr	w1, [x0,#8]
    be88:	b94017e0 	ldr	w0, [sp,#20]
    be8c:	53010000 	lsl	w0, w0, #31
    be90:	4a000021 	eor	w1, w1, w0
    be94:	f94007e2 	ldr	x2, [sp,#8]
    be98:	2a0303e0 	mov	w0, w3
    be9c:	d37ef400 	lsl	x0, x0, #2
    bea0:	8b000040 	add	x0, x2, x0
    bea4:	b9000801 	str	w1, [x0,#8]
/home/optee/RPi3/optee_os/lib/libmpa/mpa_gcd.c:53 (discriminator 3)
    bea8:	b9401fe0 	ldr	w0, [sp,#28]
    beac:	11000400 	add	w0, w0, #0x1
    beb0:	b9001fe0 	str	w0, [sp,#28]
/home/optee/RPi3/optee_os/lib/libmpa/mpa_gcd.c:53 (discriminator 1)
    beb4:	f94007e0 	ldr	x0, [sp,#8]
    beb8:	b9400400 	ldr	w0, [x0,#4]
    bebc:	6b1f001f 	cmp	w0, wzr
    bec0:	5a80a400 	cneg	w0, w0, lt
    bec4:	2a0003e1 	mov	w1, w0
    bec8:	b9401fe0 	ldr	w0, [sp,#28]
    becc:	6b00003f 	cmp	w1, w0
    bed0:	54fffa68 	b.hi	be1c <__mpa_divby2+0x74>
/home/optee/RPi3/optee_os/lib/libmpa/mpa_gcd.c:59
    bed4:	f94007e0 	ldr	x0, [sp,#8]
    bed8:	b9400400 	ldr	w0, [x0,#4]
    bedc:	6b1f001f 	cmp	w0, wzr
    bee0:	5400010a 	b.ge	bf00 <__mpa_divby2+0x158>
/home/optee/RPi3/optee_os/lib/libmpa/mpa_gcd.c:60
    bee4:	f94007e0 	ldr	x0, [sp,#8]
    bee8:	b9400401 	ldr	w1, [x0,#4]
    beec:	b9401be0 	ldr	w0, [sp,#24]
    bef0:	0b000021 	add	w1, w1, w0
    bef4:	f94007e0 	ldr	x0, [sp,#8]
    bef8:	b9000401 	str	w1, [x0,#4]
    befc:	14000009 	b	bf20 <__mpa_divby2+0x178>
/home/optee/RPi3/optee_os/lib/libmpa/mpa_gcd.c:62
    bf00:	f94007e0 	ldr	x0, [sp,#8]
    bf04:	b9400401 	ldr	w1, [x0,#4]
    bf08:	b9401be0 	ldr	w0, [sp,#24]
    bf0c:	4b000021 	sub	w1, w1, w0
    bf10:	f94007e0 	ldr	x0, [sp,#8]
    bf14:	b9000401 	str	w1, [x0,#4]
    bf18:	14000002 	b	bf20 <__mpa_divby2+0x178>
/home/optee/RPi3/optee_os/lib/libmpa/mpa_gcd.c:48
    bf1c:	d503201f 	nop
/home/optee/RPi3/optee_os/lib/libmpa/mpa_gcd.c:63
    bf20:	910083ff 	add	sp, sp, #0x20
    bf24:	d65f03c0 	ret

000000000000bf28 <__mpa_egcd>:
__mpa_egcd():
/home/optee/RPi3/optee_os/lib/libmpa/mpa_gcd.c:116
    bf28:	a9b87bfd 	stp	x29, x30, [sp,#-128]!
    bf2c:	910003fd 	mov	x29, sp
    bf30:	f9001fa0 	str	x0, [x29,#56]
    bf34:	f9001ba1 	str	x1, [x29,#48]
    bf38:	f90017a2 	str	x2, [x29,#40]
    bf3c:	f90013a3 	str	x3, [x29,#32]
    bf40:	f9000fa4 	str	x4, [x29,#24]
    bf44:	f9000ba5 	str	x5, [x29,#16]
/home/optee/RPi3/optee_os/lib/libmpa/mpa_gcd.c:127
    bf48:	f9400fa0 	ldr	x0, [x29,#24]
    bf4c:	b9400400 	ldr	w0, [x0,#4]
    bf50:	6b1f001f 	cmp	w0, wzr
    bf54:	54000221 	b.ne	bf98 <__mpa_egcd+0x70>
/home/optee/RPi3/optee_os/lib/libmpa/mpa_gcd.c:128
    bf58:	f9401ba0 	ldr	x0, [x29,#48]
    bf5c:	eb1f001f 	cmp	x0, xzr
    bf60:	54000080 	b.eq	bf70 <__mpa_egcd+0x48>
/home/optee/RPi3/optee_os/lib/libmpa/mpa_gcd.c:129
    bf64:	52800021 	mov	w1, #0x1                   	// #1
    bf68:	f9401ba0 	ldr	x0, [x29,#48]
    bf6c:	97fffb6e 	bl	ad24 <mpa_set_word>
/home/optee/RPi3/optee_os/lib/libmpa/mpa_gcd.c:130
    bf70:	f94017a0 	ldr	x0, [x29,#40]
    bf74:	eb1f001f 	cmp	x0, xzr
    bf78:	54000080 	b.eq	bf88 <__mpa_egcd+0x60>
/home/optee/RPi3/optee_os/lib/libmpa/mpa_gcd.c:131
    bf7c:	52800001 	mov	w1, #0x0                   	// #0
    bf80:	f94017a0 	ldr	x0, [x29,#40]
    bf84:	97fffb68 	bl	ad24 <mpa_set_word>
/home/optee/RPi3/optee_os/lib/libmpa/mpa_gcd.c:132
    bf88:	f94013a1 	ldr	x1, [x29,#32]
    bf8c:	f9401fa0 	ldr	x0, [x29,#56]
    bf90:	97fff77d 	bl	9d84 <mpa_copy>
    bf94:	140000ca 	b	c2bc <__mpa_egcd+0x394>
/home/optee/RPi3/optee_os/lib/libmpa/mpa_gcd.c:135
    bf98:	910143a0 	add	x0, x29, #0x50
    bf9c:	f9400ba1 	ldr	x1, [x29,#16]
    bfa0:	94000304 	bl	cbb0 <mpa_alloc_static_temp_var>
/home/optee/RPi3/optee_os/lib/libmpa/mpa_gcd.c:136
    bfa4:	f9402ba0 	ldr	x0, [x29,#80]
    bfa8:	f94013a1 	ldr	x1, [x29,#32]
    bfac:	97fff776 	bl	9d84 <mpa_copy>
/home/optee/RPi3/optee_os/lib/libmpa/mpa_gcd.c:137
    bfb0:	910123a0 	add	x0, x29, #0x48
    bfb4:	f9400ba1 	ldr	x1, [x29,#16]
    bfb8:	940002fe 	bl	cbb0 <mpa_alloc_static_temp_var>
/home/optee/RPi3/optee_os/lib/libmpa/mpa_gcd.c:138
    bfbc:	f94027a0 	ldr	x0, [x29,#72]
    bfc0:	f9400fa1 	ldr	x1, [x29,#24]
    bfc4:	97fff770 	bl	9d84 <mpa_copy>
/home/optee/RPi3/optee_os/lib/libmpa/mpa_gcd.c:140
    bfc8:	b9007fbf 	str	wzr, [x29,#124]
/home/optee/RPi3/optee_os/lib/libmpa/mpa_gcd.c:141
    bfcc:	14000008 	b	bfec <__mpa_egcd+0xc4>
/home/optee/RPi3/optee_os/lib/libmpa/mpa_gcd.c:142
    bfd0:	b9407fa0 	ldr	w0, [x29,#124]
    bfd4:	11000400 	add	w0, w0, #0x1
    bfd8:	b9007fa0 	str	w0, [x29,#124]
/home/optee/RPi3/optee_os/lib/libmpa/mpa_gcd.c:143
    bfdc:	f9402ba0 	ldr	x0, [x29,#80]
    bfe0:	97ffff72 	bl	bda8 <__mpa_divby2>
/home/optee/RPi3/optee_os/lib/libmpa/mpa_gcd.c:144
    bfe4:	f94027a0 	ldr	x0, [x29,#72]
    bfe8:	97ffff70 	bl	bda8 <__mpa_divby2>
/home/optee/RPi3/optee_os/lib/libmpa/mpa_gcd.c:141
    bfec:	f9402ba0 	ldr	x0, [x29,#80]
    bff0:	97fff7f6 	bl	9fc8 <mpa_parity>
    bff4:	6b1f001f 	cmp	w0, wzr
    bff8:	540000a1 	b.ne	c00c <__mpa_egcd+0xe4>
/home/optee/RPi3/optee_os/lib/libmpa/mpa_gcd.c:141 (discriminator 1)
    bffc:	f94027a0 	ldr	x0, [x29,#72]
    c000:	97fff7f2 	bl	9fc8 <mpa_parity>
    c004:	6b1f001f 	cmp	w0, wzr
    c008:	54fffe40 	b.eq	bfd0 <__mpa_egcd+0xa8>
/home/optee/RPi3/optee_os/lib/libmpa/mpa_gcd.c:147
    c00c:	910103a0 	add	x0, x29, #0x40
    c010:	f9400ba1 	ldr	x1, [x29,#16]
    c014:	940002e7 	bl	cbb0 <mpa_alloc_static_temp_var>
/home/optee/RPi3/optee_os/lib/libmpa/mpa_gcd.c:148
    c018:	f94023a0 	ldr	x0, [x29,#64]
    c01c:	f9402ba1 	ldr	x1, [x29,#80]
    c020:	97fff759 	bl	9d84 <mpa_copy>
/home/optee/RPi3/optee_os/lib/libmpa/mpa_gcd.c:149
    c024:	f94027a0 	ldr	x0, [x29,#72]
    c028:	aa0003e1 	mov	x1, x0
    c02c:	f9401fa0 	ldr	x0, [x29,#56]
    c030:	97fff755 	bl	9d84 <mpa_copy>
/home/optee/RPi3/optee_os/lib/libmpa/mpa_gcd.c:150
    c034:	9101c3a0 	add	x0, x29, #0x70
    c038:	f9400ba1 	ldr	x1, [x29,#16]
    c03c:	940002dd 	bl	cbb0 <mpa_alloc_static_temp_var>
/home/optee/RPi3/optee_os/lib/libmpa/mpa_gcd.c:151
    c040:	f9403ba0 	ldr	x0, [x29,#112]
    c044:	52800021 	mov	w1, #0x1                   	// #1
    c048:	97fffb37 	bl	ad24 <mpa_set_word>
/home/optee/RPi3/optee_os/lib/libmpa/mpa_gcd.c:152
    c04c:	9101a3a0 	add	x0, x29, #0x68
    c050:	f9400ba1 	ldr	x1, [x29,#16]
    c054:	940002d7 	bl	cbb0 <mpa_alloc_static_temp_var>
/home/optee/RPi3/optee_os/lib/libmpa/mpa_gcd.c:153
    c058:	f94037a0 	ldr	x0, [x29,#104]
    c05c:	52800001 	mov	w1, #0x0                   	// #0
    c060:	97fffb31 	bl	ad24 <mpa_set_word>
/home/optee/RPi3/optee_os/lib/libmpa/mpa_gcd.c:154
    c064:	910183a0 	add	x0, x29, #0x60
    c068:	f9400ba1 	ldr	x1, [x29,#16]
    c06c:	940002d1 	bl	cbb0 <mpa_alloc_static_temp_var>
/home/optee/RPi3/optee_os/lib/libmpa/mpa_gcd.c:155
    c070:	f94033a0 	ldr	x0, [x29,#96]
    c074:	52800001 	mov	w1, #0x0                   	// #0
    c078:	97fffb2b 	bl	ad24 <mpa_set_word>
/home/optee/RPi3/optee_os/lib/libmpa/mpa_gcd.c:156
    c07c:	910163a0 	add	x0, x29, #0x58
    c080:	f9400ba1 	ldr	x1, [x29,#16]
    c084:	940002cb 	bl	cbb0 <mpa_alloc_static_temp_var>
/home/optee/RPi3/optee_os/lib/libmpa/mpa_gcd.c:157
    c088:	f9402fa0 	ldr	x0, [x29,#88]
    c08c:	52800021 	mov	w1, #0x1                   	// #1
    c090:	97fffb25 	bl	ad24 <mpa_set_word>
/home/optee/RPi3/optee_os/lib/libmpa/mpa_gcd.c:159
    c094:	1400005f 	b	c210 <__mpa_egcd+0x2e8>
/home/optee/RPi3/optee_os/lib/libmpa/mpa_gcd.c:161
    c098:	f94023a0 	ldr	x0, [x29,#64]
    c09c:	97ffff43 	bl	bda8 <__mpa_divby2>
/home/optee/RPi3/optee_os/lib/libmpa/mpa_gcd.c:162
    c0a0:	f9403ba0 	ldr	x0, [x29,#112]
    c0a4:	97fff7c9 	bl	9fc8 <mpa_parity>
    c0a8:	7100041f 	cmp	w0, #0x1
    c0ac:	540000a0 	b.eq	c0c0 <__mpa_egcd+0x198>
/home/optee/RPi3/optee_os/lib/libmpa/mpa_gcd.c:162 (discriminator 1)
    c0b0:	f94037a0 	ldr	x0, [x29,#104]
    c0b4:	97fff7c5 	bl	9fc8 <mpa_parity>
    c0b8:	7100041f 	cmp	w0, #0x1
    c0bc:	54000161 	b.ne	c0e8 <__mpa_egcd+0x1c0>
/home/optee/RPi3/optee_os/lib/libmpa/mpa_gcd.c:163
    c0c0:	f9403ba0 	ldr	x0, [x29,#112]
    c0c4:	f9403ba1 	ldr	x1, [x29,#112]
    c0c8:	f94027a2 	ldr	x2, [x29,#72]
    c0cc:	f9400ba3 	ldr	x3, [x29,#16]
    c0d0:	940008c2 	bl	e3d8 <mpa_add>
/home/optee/RPi3/optee_os/lib/libmpa/mpa_gcd.c:164
    c0d4:	f94037a0 	ldr	x0, [x29,#104]
    c0d8:	f94037a1 	ldr	x1, [x29,#104]
    c0dc:	f9402ba2 	ldr	x2, [x29,#80]
    c0e0:	f9400ba3 	ldr	x3, [x29,#16]
    c0e4:	9400096c 	bl	e694 <mpa_sub>
/home/optee/RPi3/optee_os/lib/libmpa/mpa_gcd.c:166
    c0e8:	f9403ba0 	ldr	x0, [x29,#112]
    c0ec:	97ffff2f 	bl	bda8 <__mpa_divby2>
/home/optee/RPi3/optee_os/lib/libmpa/mpa_gcd.c:167
    c0f0:	f94037a0 	ldr	x0, [x29,#104]
    c0f4:	97ffff2d 	bl	bda8 <__mpa_divby2>
/home/optee/RPi3/optee_os/lib/libmpa/mpa_gcd.c:160
    c0f8:	f94023a0 	ldr	x0, [x29,#64]
    c0fc:	97fff7b3 	bl	9fc8 <mpa_parity>
    c100:	6b1f001f 	cmp	w0, wzr
    c104:	54fffca0 	b.eq	c098 <__mpa_egcd+0x170>
/home/optee/RPi3/optee_os/lib/libmpa/mpa_gcd.c:170
    c108:	14000019 	b	c16c <__mpa_egcd+0x244>
/home/optee/RPi3/optee_os/lib/libmpa/mpa_gcd.c:171
    c10c:	f9401fa0 	ldr	x0, [x29,#56]
    c110:	97ffff26 	bl	bda8 <__mpa_divby2>
/home/optee/RPi3/optee_os/lib/libmpa/mpa_gcd.c:172
    c114:	f94033a0 	ldr	x0, [x29,#96]
    c118:	97fff7ac 	bl	9fc8 <mpa_parity>
    c11c:	7100041f 	cmp	w0, #0x1
    c120:	540000a0 	b.eq	c134 <__mpa_egcd+0x20c>
/home/optee/RPi3/optee_os/lib/libmpa/mpa_gcd.c:172 (discriminator 1)
    c124:	f9402fa0 	ldr	x0, [x29,#88]
    c128:	97fff7a8 	bl	9fc8 <mpa_parity>
    c12c:	7100041f 	cmp	w0, #0x1
    c130:	54000161 	b.ne	c15c <__mpa_egcd+0x234>
/home/optee/RPi3/optee_os/lib/libmpa/mpa_gcd.c:173
    c134:	f94033a0 	ldr	x0, [x29,#96]
    c138:	f94033a1 	ldr	x1, [x29,#96]
    c13c:	f94027a2 	ldr	x2, [x29,#72]
    c140:	f9400ba3 	ldr	x3, [x29,#16]
    c144:	940008a5 	bl	e3d8 <mpa_add>
/home/optee/RPi3/optee_os/lib/libmpa/mpa_gcd.c:174
    c148:	f9402fa0 	ldr	x0, [x29,#88]
    c14c:	f9402fa1 	ldr	x1, [x29,#88]
    c150:	f9402ba2 	ldr	x2, [x29,#80]
    c154:	f9400ba3 	ldr	x3, [x29,#16]
    c158:	9400094f 	bl	e694 <mpa_sub>
/home/optee/RPi3/optee_os/lib/libmpa/mpa_gcd.c:176
    c15c:	f94033a0 	ldr	x0, [x29,#96]
    c160:	97ffff12 	bl	bda8 <__mpa_divby2>
/home/optee/RPi3/optee_os/lib/libmpa/mpa_gcd.c:177
    c164:	f9402fa0 	ldr	x0, [x29,#88]
    c168:	97ffff10 	bl	bda8 <__mpa_divby2>
/home/optee/RPi3/optee_os/lib/libmpa/mpa_gcd.c:170
    c16c:	f9401fa0 	ldr	x0, [x29,#56]
    c170:	97fff796 	bl	9fc8 <mpa_parity>
    c174:	6b1f001f 	cmp	w0, wzr
    c178:	54fffca0 	b.eq	c10c <__mpa_egcd+0x1e4>
/home/optee/RPi3/optee_os/lib/libmpa/mpa_gcd.c:180
    c17c:	f94023a0 	ldr	x0, [x29,#64]
    c180:	f9401fa1 	ldr	x1, [x29,#56]
    c184:	94000b87 	bl	efa0 <mpa_cmp>
    c188:	6b1f001f 	cmp	w0, wzr
    c18c:	5400022b 	b.lt	c1d0 <__mpa_egcd+0x2a8>
/home/optee/RPi3/optee_os/lib/libmpa/mpa_gcd.c:181
    c190:	f94023a0 	ldr	x0, [x29,#64]
    c194:	f94023a1 	ldr	x1, [x29,#64]
    c198:	f9400ba3 	ldr	x3, [x29,#16]
    c19c:	f9401fa2 	ldr	x2, [x29,#56]
    c1a0:	9400093d 	bl	e694 <mpa_sub>
/home/optee/RPi3/optee_os/lib/libmpa/mpa_gcd.c:182
    c1a4:	f9403ba0 	ldr	x0, [x29,#112]
    c1a8:	f9403ba1 	ldr	x1, [x29,#112]
    c1ac:	f94033a2 	ldr	x2, [x29,#96]
    c1b0:	f9400ba3 	ldr	x3, [x29,#16]
    c1b4:	94000938 	bl	e694 <mpa_sub>
/home/optee/RPi3/optee_os/lib/libmpa/mpa_gcd.c:183
    c1b8:	f94037a0 	ldr	x0, [x29,#104]
    c1bc:	f94037a1 	ldr	x1, [x29,#104]
    c1c0:	f9402fa2 	ldr	x2, [x29,#88]
    c1c4:	f9400ba3 	ldr	x3, [x29,#16]
    c1c8:	94000933 	bl	e694 <mpa_sub>
    c1cc:	14000011 	b	c210 <__mpa_egcd+0x2e8>
/home/optee/RPi3/optee_os/lib/libmpa/mpa_gcd.c:185
    c1d0:	f94023a0 	ldr	x0, [x29,#64]
    c1d4:	f9400ba3 	ldr	x3, [x29,#16]
    c1d8:	aa0003e2 	mov	x2, x0
    c1dc:	f9401fa1 	ldr	x1, [x29,#56]
    c1e0:	f9401fa0 	ldr	x0, [x29,#56]
    c1e4:	9400092c 	bl	e694 <mpa_sub>
/home/optee/RPi3/optee_os/lib/libmpa/mpa_gcd.c:186
    c1e8:	f94033a0 	ldr	x0, [x29,#96]
    c1ec:	f94033a1 	ldr	x1, [x29,#96]
    c1f0:	f9403ba2 	ldr	x2, [x29,#112]
    c1f4:	f9400ba3 	ldr	x3, [x29,#16]
    c1f8:	94000927 	bl	e694 <mpa_sub>
/home/optee/RPi3/optee_os/lib/libmpa/mpa_gcd.c:187
    c1fc:	f9402fa0 	ldr	x0, [x29,#88]
    c200:	f9402fa1 	ldr	x1, [x29,#88]
    c204:	f94037a2 	ldr	x2, [x29,#104]
    c208:	f9400ba3 	ldr	x3, [x29,#16]
    c20c:	94000922 	bl	e694 <mpa_sub>
/home/optee/RPi3/optee_os/lib/libmpa/mpa_gcd.c:159
    c210:	f94023a0 	ldr	x0, [x29,#64]
    c214:	b9400400 	ldr	w0, [x0,#4]
    c218:	6b1f001f 	cmp	w0, wzr
    c21c:	54fff6e1 	b.ne	c0f8 <__mpa_egcd+0x1d0>
/home/optee/RPi3/optee_os/lib/libmpa/mpa_gcd.c:192
    c220:	f9401ba0 	ldr	x0, [x29,#48]
    c224:	eb1f001f 	cmp	x0, xzr
    c228:	540000a0 	b.eq	c23c <__mpa_egcd+0x314>
/home/optee/RPi3/optee_os/lib/libmpa/mpa_gcd.c:193
    c22c:	f94033a0 	ldr	x0, [x29,#96]
    c230:	aa0003e1 	mov	x1, x0
    c234:	f9401ba0 	ldr	x0, [x29,#48]
    c238:	97fff6d3 	bl	9d84 <mpa_copy>
/home/optee/RPi3/optee_os/lib/libmpa/mpa_gcd.c:194
    c23c:	f94017a0 	ldr	x0, [x29,#40]
    c240:	eb1f001f 	cmp	x0, xzr
    c244:	540000a0 	b.eq	c258 <__mpa_egcd+0x330>
/home/optee/RPi3/optee_os/lib/libmpa/mpa_gcd.c:195
    c248:	f9402fa0 	ldr	x0, [x29,#88]
    c24c:	aa0003e1 	mov	x1, x0
    c250:	f94017a0 	ldr	x0, [x29,#40]
    c254:	97fff6cc 	bl	9d84 <mpa_copy>
/home/optee/RPi3/optee_os/lib/libmpa/mpa_gcd.c:196
    c258:	b9407fa2 	ldr	w2, [x29,#124]
    c25c:	f9401fa1 	ldr	x1, [x29,#56]
    c260:	f9401fa0 	ldr	x0, [x29,#56]
    c264:	94000534 	bl	d734 <mpa_shift_left>
/home/optee/RPi3/optee_os/lib/libmpa/mpa_gcd.c:198
    c268:	9101c3a0 	add	x0, x29, #0x70
    c26c:	f9400ba1 	ldr	x1, [x29,#16]
    c270:	9400025b 	bl	cbdc <mpa_free_static_temp_var>
/home/optee/RPi3/optee_os/lib/libmpa/mpa_gcd.c:199
    c274:	9101a3a0 	add	x0, x29, #0x68
    c278:	f9400ba1 	ldr	x1, [x29,#16]
    c27c:	94000258 	bl	cbdc <mpa_free_static_temp_var>
/home/optee/RPi3/optee_os/lib/libmpa/mpa_gcd.c:200
    c280:	910183a0 	add	x0, x29, #0x60
    c284:	f9400ba1 	ldr	x1, [x29,#16]
    c288:	94000255 	bl	cbdc <mpa_free_static_temp_var>
/home/optee/RPi3/optee_os/lib/libmpa/mpa_gcd.c:201
    c28c:	910163a0 	add	x0, x29, #0x58
    c290:	f9400ba1 	ldr	x1, [x29,#16]
    c294:	94000252 	bl	cbdc <mpa_free_static_temp_var>
/home/optee/RPi3/optee_os/lib/libmpa/mpa_gcd.c:202
    c298:	910143a0 	add	x0, x29, #0x50
    c29c:	f9400ba1 	ldr	x1, [x29,#16]
    c2a0:	9400024f 	bl	cbdc <mpa_free_static_temp_var>
/home/optee/RPi3/optee_os/lib/libmpa/mpa_gcd.c:203
    c2a4:	910123a0 	add	x0, x29, #0x48
    c2a8:	f9400ba1 	ldr	x1, [x29,#16]
    c2ac:	9400024c 	bl	cbdc <mpa_free_static_temp_var>
/home/optee/RPi3/optee_os/lib/libmpa/mpa_gcd.c:204
    c2b0:	910103a0 	add	x0, x29, #0x40
    c2b4:	f9400ba1 	ldr	x1, [x29,#16]
    c2b8:	94000249 	bl	cbdc <mpa_free_static_temp_var>
/home/optee/RPi3/optee_os/lib/libmpa/mpa_gcd.c:205
    c2bc:	a8c87bfd 	ldp	x29, x30, [sp],#128
    c2c0:	d65f03c0 	ret

000000000000c2c4 <__mpa_gcd>:
__mpa_gcd():
/home/optee/RPi3/optee_os/lib/libmpa/mpa_gcd.c:215
    c2c4:	a9bb7bfd 	stp	x29, x30, [sp,#-80]!
    c2c8:	910003fd 	mov	x29, sp
    c2cc:	f90017a0 	str	x0, [x29,#40]
    c2d0:	f90013a1 	str	x1, [x29,#32]
    c2d4:	f9000fa2 	str	x2, [x29,#24]
    c2d8:	f9000ba3 	str	x3, [x29,#16]
/home/optee/RPi3/optee_os/lib/libmpa/mpa_gcd.c:222
    c2dc:	f9400fa0 	ldr	x0, [x29,#24]
    c2e0:	b9400400 	ldr	w0, [x0,#4]
    c2e4:	6b1f001f 	cmp	w0, wzr
    c2e8:	540000a1 	b.ne	c2fc <__mpa_gcd+0x38>
/home/optee/RPi3/optee_os/lib/libmpa/mpa_gcd.c:223
    c2ec:	f94013a1 	ldr	x1, [x29,#32]
    c2f0:	f94017a0 	ldr	x0, [x29,#40]
    c2f4:	97fff6a4 	bl	9d84 <mpa_copy>
    c2f8:	1400005d 	b	c46c <__mpa_gcd+0x1a8>
/home/optee/RPi3/optee_os/lib/libmpa/mpa_gcd.c:226
    c2fc:	910103a0 	add	x0, x29, #0x40
    c300:	f9400ba1 	ldr	x1, [x29,#16]
    c304:	9400022b 	bl	cbb0 <mpa_alloc_static_temp_var>
/home/optee/RPi3/optee_os/lib/libmpa/mpa_gcd.c:227
    c308:	f94023a0 	ldr	x0, [x29,#64]
    c30c:	f94013a1 	ldr	x1, [x29,#32]
    c310:	97fff69d 	bl	9d84 <mpa_copy>
/home/optee/RPi3/optee_os/lib/libmpa/mpa_gcd.c:228
    c314:	9100e3a0 	add	x0, x29, #0x38
    c318:	f9400ba1 	ldr	x1, [x29,#16]
    c31c:	94000225 	bl	cbb0 <mpa_alloc_static_temp_var>
/home/optee/RPi3/optee_os/lib/libmpa/mpa_gcd.c:229
    c320:	f9401fa0 	ldr	x0, [x29,#56]
    c324:	f9400fa1 	ldr	x1, [x29,#24]
    c328:	97fff697 	bl	9d84 <mpa_copy>
/home/optee/RPi3/optee_os/lib/libmpa/mpa_gcd.c:231
    c32c:	b9004fbf 	str	wzr, [x29,#76]
/home/optee/RPi3/optee_os/lib/libmpa/mpa_gcd.c:232
    c330:	14000008 	b	c350 <__mpa_gcd+0x8c>
/home/optee/RPi3/optee_os/lib/libmpa/mpa_gcd.c:233
    c334:	b9404fa0 	ldr	w0, [x29,#76]
    c338:	11000400 	add	w0, w0, #0x1
    c33c:	b9004fa0 	str	w0, [x29,#76]
/home/optee/RPi3/optee_os/lib/libmpa/mpa_gcd.c:234
    c340:	f94023a0 	ldr	x0, [x29,#64]
    c344:	97fffe99 	bl	bda8 <__mpa_divby2>
/home/optee/RPi3/optee_os/lib/libmpa/mpa_gcd.c:235
    c348:	f9401fa0 	ldr	x0, [x29,#56]
    c34c:	97fffe97 	bl	bda8 <__mpa_divby2>
/home/optee/RPi3/optee_os/lib/libmpa/mpa_gcd.c:232
    c350:	f94023a0 	ldr	x0, [x29,#64]
    c354:	97fff71d 	bl	9fc8 <mpa_parity>
    c358:	6b1f001f 	cmp	w0, wzr
    c35c:	540000a1 	b.ne	c370 <__mpa_gcd+0xac>
/home/optee/RPi3/optee_os/lib/libmpa/mpa_gcd.c:232 (discriminator 1)
    c360:	f9401fa0 	ldr	x0, [x29,#56]
    c364:	97fff719 	bl	9fc8 <mpa_parity>
    c368:	6b1f001f 	cmp	w0, wzr
    c36c:	54fffe40 	b.eq	c334 <__mpa_gcd+0x70>
/home/optee/RPi3/optee_os/lib/libmpa/mpa_gcd.c:238
    c370:	9100c3a0 	add	x0, x29, #0x30
    c374:	f9400ba1 	ldr	x1, [x29,#16]
    c378:	9400020e 	bl	cbb0 <mpa_alloc_static_temp_var>
/home/optee/RPi3/optee_os/lib/libmpa/mpa_gcd.c:239
    c37c:	1400002a 	b	c424 <__mpa_gcd+0x160>
/home/optee/RPi3/optee_os/lib/libmpa/mpa_gcd.c:241
    c380:	f94023a0 	ldr	x0, [x29,#64]
    c384:	97fffe89 	bl	bda8 <__mpa_divby2>
/home/optee/RPi3/optee_os/lib/libmpa/mpa_gcd.c:240
    c388:	f94023a0 	ldr	x0, [x29,#64]
    c38c:	97fff70f 	bl	9fc8 <mpa_parity>
    c390:	6b1f001f 	cmp	w0, wzr
    c394:	54ffff60 	b.eq	c380 <__mpa_gcd+0xbc>
/home/optee/RPi3/optee_os/lib/libmpa/mpa_gcd.c:243
    c398:	14000003 	b	c3a4 <__mpa_gcd+0xe0>
/home/optee/RPi3/optee_os/lib/libmpa/mpa_gcd.c:244
    c39c:	f9401fa0 	ldr	x0, [x29,#56]
    c3a0:	97fffe82 	bl	bda8 <__mpa_divby2>
/home/optee/RPi3/optee_os/lib/libmpa/mpa_gcd.c:243
    c3a4:	f9401fa0 	ldr	x0, [x29,#56]
    c3a8:	97fff708 	bl	9fc8 <mpa_parity>
    c3ac:	6b1f001f 	cmp	w0, wzr
    c3b0:	54ffff60 	b.eq	c39c <__mpa_gcd+0xd8>
/home/optee/RPi3/optee_os/lib/libmpa/mpa_gcd.c:246
    c3b4:	f9401ba0 	ldr	x0, [x29,#48]
    c3b8:	f94023a1 	ldr	x1, [x29,#64]
    c3bc:	f9401fa2 	ldr	x2, [x29,#56]
    c3c0:	f9400ba3 	ldr	x3, [x29,#16]
    c3c4:	940008b4 	bl	e694 <mpa_sub>
/home/optee/RPi3/optee_os/lib/libmpa/mpa_gcd.c:248
    c3c8:	f9401ba0 	ldr	x0, [x29,#48]
    c3cc:	b9400400 	ldr	w0, [x0,#4]
    c3d0:	6b1f001f 	cmp	w0, wzr
    c3d4:	540000ca 	b.ge	c3ec <__mpa_gcd+0x128>
/home/optee/RPi3/optee_os/lib/libmpa/mpa_gcd.c:248 (discriminator 1)
    c3d8:	f9401ba0 	ldr	x0, [x29,#48]
    c3dc:	f9401ba1 	ldr	x1, [x29,#48]
    c3e0:	b9400421 	ldr	w1, [x1,#4]
    c3e4:	4b0103e1 	neg	w1, w1
    c3e8:	b9000401 	str	w1, [x0,#4]
/home/optee/RPi3/optee_os/lib/libmpa/mpa_gcd.c:249
    c3ec:	f9401ba0 	ldr	x0, [x29,#48]
    c3f0:	97fffe6e 	bl	bda8 <__mpa_divby2>
/home/optee/RPi3/optee_os/lib/libmpa/mpa_gcd.c:250
    c3f4:	f94023a0 	ldr	x0, [x29,#64]
    c3f8:	f9401fa1 	ldr	x1, [x29,#56]
    c3fc:	94000ae9 	bl	efa0 <mpa_cmp>
    c400:	6b1f001f 	cmp	w0, wzr
    c404:	540000ab 	b.lt	c418 <__mpa_gcd+0x154>
/home/optee/RPi3/optee_os/lib/libmpa/mpa_gcd.c:251
    c408:	f94023a0 	ldr	x0, [x29,#64]
    c40c:	f9401ba1 	ldr	x1, [x29,#48]
    c410:	97fff65d 	bl	9d84 <mpa_copy>
    c414:	14000004 	b	c424 <__mpa_gcd+0x160>
/home/optee/RPi3/optee_os/lib/libmpa/mpa_gcd.c:253
    c418:	f9401fa0 	ldr	x0, [x29,#56]
    c41c:	f9401ba1 	ldr	x1, [x29,#48]
    c420:	97fff659 	bl	9d84 <mpa_copy>
/home/optee/RPi3/optee_os/lib/libmpa/mpa_gcd.c:239
    c424:	f94023a0 	ldr	x0, [x29,#64]
    c428:	b9400400 	ldr	w0, [x0,#4]
    c42c:	6b1f001f 	cmp	w0, wzr
    c430:	54fffac1 	b.ne	c388 <__mpa_gcd+0xc4>
/home/optee/RPi3/optee_os/lib/libmpa/mpa_gcd.c:256
    c434:	f9401fa0 	ldr	x0, [x29,#56]
    c438:	b9404fa2 	ldr	w2, [x29,#76]
    c43c:	aa0003e1 	mov	x1, x0
    c440:	f94017a0 	ldr	x0, [x29,#40]
    c444:	940004bc 	bl	d734 <mpa_shift_left>
/home/optee/RPi3/optee_os/lib/libmpa/mpa_gcd.c:257
    c448:	9100c3a0 	add	x0, x29, #0x30
    c44c:	f9400ba1 	ldr	x1, [x29,#16]
    c450:	940001e3 	bl	cbdc <mpa_free_static_temp_var>
/home/optee/RPi3/optee_os/lib/libmpa/mpa_gcd.c:258
    c454:	910103a0 	add	x0, x29, #0x40
    c458:	f9400ba1 	ldr	x1, [x29,#16]
    c45c:	940001e0 	bl	cbdc <mpa_free_static_temp_var>
/home/optee/RPi3/optee_os/lib/libmpa/mpa_gcd.c:259
    c460:	9100e3a0 	add	x0, x29, #0x38
    c464:	f9400ba1 	ldr	x1, [x29,#16]
    c468:	940001dd 	bl	cbdc <mpa_free_static_temp_var>
/home/optee/RPi3/optee_os/lib/libmpa/mpa_gcd.c:260
    c46c:	a8c57bfd 	ldp	x29, x30, [sp],#80
    c470:	d65f03c0 	ret

000000000000c474 <mpa_gcd>:
mpa_gcd():
/home/optee/RPi3/optee_os/lib/libmpa/mpa_gcd.c:275
    c474:	a9bc7bfd 	stp	x29, x30, [sp,#-64]!
    c478:	910003fd 	mov	x29, sp
    c47c:	f90017a0 	str	x0, [x29,#40]
    c480:	f90013a1 	str	x1, [x29,#32]
    c484:	f9000fa2 	str	x2, [x29,#24]
    c488:	f9000ba3 	str	x3, [x29,#16]
/home/optee/RPi3/optee_os/lib/libmpa/mpa_gcd.c:281
    c48c:	f94013a0 	ldr	x0, [x29,#32]
    c490:	b9400400 	ldr	w0, [x0,#4]
    c494:	6b1f001f 	cmp	w0, wzr
    c498:	5400006b 	b.lt	c4a4 <mpa_gcd+0x30>
/home/optee/RPi3/optee_os/lib/libmpa/mpa_gcd.c:281 (discriminator 1)
    c49c:	52800020 	mov	w0, #0x1                   	// #1
    c4a0:	14000002 	b	c4a8 <mpa_gcd+0x34>
/home/optee/RPi3/optee_os/lib/libmpa/mpa_gcd.c:281 (discriminator 2)
    c4a4:	12800000 	mov	w0, #0xffffffff            	// #-1
/home/optee/RPi3/optee_os/lib/libmpa/mpa_gcd.c:281 (discriminator 4)
    c4a8:	b9003fa0 	str	w0, [x29,#60]
/home/optee/RPi3/optee_os/lib/libmpa/mpa_gcd.c:282 (discriminator 4)
    c4ac:	f9400fa0 	ldr	x0, [x29,#24]
    c4b0:	b9400400 	ldr	w0, [x0,#4]
    c4b4:	6b1f001f 	cmp	w0, wzr
    c4b8:	5400006b 	b.lt	c4c4 <mpa_gcd+0x50>
/home/optee/RPi3/optee_os/lib/libmpa/mpa_gcd.c:282 (discriminator 1)
    c4bc:	52800020 	mov	w0, #0x1                   	// #1
    c4c0:	14000002 	b	c4c8 <mpa_gcd+0x54>
/home/optee/RPi3/optee_os/lib/libmpa/mpa_gcd.c:282 (discriminator 2)
    c4c4:	12800000 	mov	w0, #0xffffffff            	// #-1
/home/optee/RPi3/optee_os/lib/libmpa/mpa_gcd.c:282 (discriminator 4)
    c4c8:	b9003ba0 	str	w0, [x29,#56]
/home/optee/RPi3/optee_os/lib/libmpa/mpa_gcd.c:283 (discriminator 4)
    c4cc:	f94013a0 	ldr	x0, [x29,#32]
    c4d0:	b9400400 	ldr	w0, [x0,#4]
    c4d4:	6b1f001f 	cmp	w0, wzr
    c4d8:	540000ca 	b.ge	c4f0 <mpa_gcd+0x7c>
/home/optee/RPi3/optee_os/lib/libmpa/mpa_gcd.c:283 (discriminator 1)
    c4dc:	f94013a0 	ldr	x0, [x29,#32]
    c4e0:	b9400400 	ldr	w0, [x0,#4]
    c4e4:	4b0003e1 	neg	w1, w0
    c4e8:	f94013a0 	ldr	x0, [x29,#32]
    c4ec:	b9000401 	str	w1, [x0,#4]
/home/optee/RPi3/optee_os/lib/libmpa/mpa_gcd.c:284
    c4f0:	f9400fa0 	ldr	x0, [x29,#24]
    c4f4:	b9400400 	ldr	w0, [x0,#4]
    c4f8:	6b1f001f 	cmp	w0, wzr
    c4fc:	540000ca 	b.ge	c514 <mpa_gcd+0xa0>
/home/optee/RPi3/optee_os/lib/libmpa/mpa_gcd.c:284 (discriminator 1)
    c500:	f9400fa0 	ldr	x0, [x29,#24]
    c504:	b9400400 	ldr	w0, [x0,#4]
    c508:	4b0003e1 	neg	w1, w0
    c50c:	f9400fa0 	ldr	x0, [x29,#24]
    c510:	b9000401 	str	w1, [x0,#4]
/home/optee/RPi3/optee_os/lib/libmpa/mpa_gcd.c:286
    c514:	f9400fa1 	ldr	x1, [x29,#24]
    c518:	f94013a0 	ldr	x0, [x29,#32]
    c51c:	94000aa1 	bl	efa0 <mpa_cmp>
    c520:	b90037a0 	str	w0, [x29,#52]
/home/optee/RPi3/optee_os/lib/libmpa/mpa_gcd.c:287
    c524:	b94037a0 	ldr	w0, [x29,#52]
    c528:	6b1f001f 	cmp	w0, wzr
    c52c:	540000a1 	b.ne	c540 <mpa_gcd+0xcc>
/home/optee/RPi3/optee_os/lib/libmpa/mpa_gcd.c:288
    c530:	f94013a1 	ldr	x1, [x29,#32]
    c534:	f94017a0 	ldr	x0, [x29,#40]
    c538:	97fff613 	bl	9d84 <mpa_copy>
/home/optee/RPi3/optee_os/lib/libmpa/mpa_gcd.c:289
    c53c:	1400000f 	b	c578 <mpa_gcd+0x104>
/home/optee/RPi3/optee_os/lib/libmpa/mpa_gcd.c:291
    c540:	b94037a0 	ldr	w0, [x29,#52]
    c544:	6b1f001f 	cmp	w0, wzr
    c548:	540000ea 	b.ge	c564 <mpa_gcd+0xf0>
/home/optee/RPi3/optee_os/lib/libmpa/mpa_gcd.c:292
    c54c:	f9400ba3 	ldr	x3, [x29,#16]
    c550:	f94013a2 	ldr	x2, [x29,#32]
    c554:	f9400fa1 	ldr	x1, [x29,#24]
    c558:	f94017a0 	ldr	x0, [x29,#40]
    c55c:	97ffff5a 	bl	c2c4 <__mpa_gcd>
    c560:	14000006 	b	c578 <mpa_gcd+0x104>
/home/optee/RPi3/optee_os/lib/libmpa/mpa_gcd.c:294
    c564:	f9400ba3 	ldr	x3, [x29,#16]
    c568:	f9400fa2 	ldr	x2, [x29,#24]
    c56c:	f94013a1 	ldr	x1, [x29,#32]
    c570:	f94017a0 	ldr	x0, [x29,#40]
    c574:	97ffff54 	bl	c2c4 <__mpa_gcd>
/home/optee/RPi3/optee_os/lib/libmpa/mpa_gcd.c:299
    c578:	f94013a0 	ldr	x0, [x29,#32]
    c57c:	b9400400 	ldr	w0, [x0,#4]
    c580:	6b1f001f 	cmp	w0, wzr
    c584:	5400006b 	b.lt	c590 <mpa_gcd+0x11c>
/home/optee/RPi3/optee_os/lib/libmpa/mpa_gcd.c:299 (discriminator 1)
    c588:	52800020 	mov	w0, #0x1                   	// #1
    c58c:	14000002 	b	c594 <mpa_gcd+0x120>
/home/optee/RPi3/optee_os/lib/libmpa/mpa_gcd.c:299 (discriminator 2)
    c590:	12800000 	mov	w0, #0xffffffff            	// #-1
/home/optee/RPi3/optee_os/lib/libmpa/mpa_gcd.c:299 (discriminator 4)
    c594:	b9403fa1 	ldr	w1, [x29,#60]
    c598:	6b01001f 	cmp	w0, w1
    c59c:	540000c0 	b.eq	c5b4 <mpa_gcd+0x140>
/home/optee/RPi3/optee_os/lib/libmpa/mpa_gcd.c:299 (discriminator 5)
    c5a0:	f94013a0 	ldr	x0, [x29,#32]
    c5a4:	b9400400 	ldr	w0, [x0,#4]
    c5a8:	4b0003e1 	neg	w1, w0
    c5ac:	f94013a0 	ldr	x0, [x29,#32]
    c5b0:	b9000401 	str	w1, [x0,#4]
/home/optee/RPi3/optee_os/lib/libmpa/mpa_gcd.c:300
    c5b4:	f9400fa0 	ldr	x0, [x29,#24]
    c5b8:	b9400400 	ldr	w0, [x0,#4]
    c5bc:	6b1f001f 	cmp	w0, wzr
    c5c0:	5400006b 	b.lt	c5cc <mpa_gcd+0x158>
/home/optee/RPi3/optee_os/lib/libmpa/mpa_gcd.c:300 (discriminator 1)
    c5c4:	52800020 	mov	w0, #0x1                   	// #1
    c5c8:	14000002 	b	c5d0 <mpa_gcd+0x15c>
/home/optee/RPi3/optee_os/lib/libmpa/mpa_gcd.c:300 (discriminator 2)
    c5cc:	12800000 	mov	w0, #0xffffffff            	// #-1
/home/optee/RPi3/optee_os/lib/libmpa/mpa_gcd.c:300 (discriminator 4)
    c5d0:	b9403ba1 	ldr	w1, [x29,#56]
    c5d4:	6b01001f 	cmp	w0, w1
    c5d8:	540000c0 	b.eq	c5f0 <mpa_gcd+0x17c>
/home/optee/RPi3/optee_os/lib/libmpa/mpa_gcd.c:300 (discriminator 5)
    c5dc:	f9400fa0 	ldr	x0, [x29,#24]
    c5e0:	b9400400 	ldr	w0, [x0,#4]
    c5e4:	4b0003e1 	neg	w1, w0
    c5e8:	f9400fa0 	ldr	x0, [x29,#24]
    c5ec:	b9000401 	str	w1, [x0,#4]
/home/optee/RPi3/optee_os/lib/libmpa/mpa_gcd.c:301
    c5f0:	d503201f 	nop
    c5f4:	a8c47bfd 	ldp	x29, x30, [sp],#64
    c5f8:	d65f03c0 	ret

000000000000c5fc <mpa_extended_gcd>:
mpa_extended_gcd():
/home/optee/RPi3/optee_os/lib/libmpa/mpa_gcd.c:317
    c5fc:	a9ba7bfd 	stp	x29, x30, [sp,#-96]!
    c600:	910003fd 	mov	x29, sp
    c604:	f9001fa0 	str	x0, [x29,#56]
    c608:	f9001ba1 	str	x1, [x29,#48]
    c60c:	f90017a2 	str	x2, [x29,#40]
    c610:	f90013a3 	str	x3, [x29,#32]
    c614:	f9000fa4 	str	x4, [x29,#24]
    c618:	f9000ba5 	str	x5, [x29,#16]
/home/optee/RPi3/optee_os/lib/libmpa/mpa_gcd.c:324
    c61c:	f9401ba0 	ldr	x0, [x29,#48]
    c620:	eb1f001f 	cmp	x0, xzr
    c624:	540001a1 	b.ne	c658 <mpa_extended_gcd+0x5c>
/home/optee/RPi3/optee_os/lib/libmpa/mpa_gcd.c:324 (discriminator 1)
    c628:	f94017a0 	ldr	x0, [x29,#40]
    c62c:	eb1f001f 	cmp	x0, xzr
    c630:	54000141 	b.ne	c658 <mpa_extended_gcd+0x5c>
/home/optee/RPi3/optee_os/lib/libmpa/mpa_gcd.c:325
    c634:	f9401fa0 	ldr	x0, [x29,#56]
    c638:	eb1f001f 	cmp	x0, xzr
    c63c:	54001620 	b.eq	c900 <mpa_extended_gcd+0x304>
/home/optee/RPi3/optee_os/lib/libmpa/mpa_gcd.c:326
    c640:	f9400ba3 	ldr	x3, [x29,#16]
    c644:	f9400fa2 	ldr	x2, [x29,#24]
    c648:	f94013a1 	ldr	x1, [x29,#32]
    c64c:	f9401fa0 	ldr	x0, [x29,#56]
    c650:	97ffff89 	bl	c474 <mpa_gcd>
    c654:	140000ac 	b	c904 <mpa_extended_gcd+0x308>
/home/optee/RPi3/optee_os/lib/libmpa/mpa_gcd.c:331
    c658:	f94013a0 	ldr	x0, [x29,#32]
    c65c:	b9400400 	ldr	w0, [x0,#4]
    c660:	6b1f001f 	cmp	w0, wzr
    c664:	5400006b 	b.lt	c670 <mpa_extended_gcd+0x74>
/home/optee/RPi3/optee_os/lib/libmpa/mpa_gcd.c:331 (discriminator 1)
    c668:	52800020 	mov	w0, #0x1                   	// #1
    c66c:	14000002 	b	c674 <mpa_extended_gcd+0x78>
/home/optee/RPi3/optee_os/lib/libmpa/mpa_gcd.c:331 (discriminator 2)
    c670:	12800000 	mov	w0, #0xffffffff            	// #-1
/home/optee/RPi3/optee_os/lib/libmpa/mpa_gcd.c:331 (discriminator 4)
    c674:	b9005fa0 	str	w0, [x29,#92]
/home/optee/RPi3/optee_os/lib/libmpa/mpa_gcd.c:332 (discriminator 4)
    c678:	f9400fa0 	ldr	x0, [x29,#24]
    c67c:	b9400400 	ldr	w0, [x0,#4]
    c680:	6b1f001f 	cmp	w0, wzr
    c684:	5400006b 	b.lt	c690 <mpa_extended_gcd+0x94>
/home/optee/RPi3/optee_os/lib/libmpa/mpa_gcd.c:332 (discriminator 1)
    c688:	52800020 	mov	w0, #0x1                   	// #1
    c68c:	14000002 	b	c694 <mpa_extended_gcd+0x98>
/home/optee/RPi3/optee_os/lib/libmpa/mpa_gcd.c:332 (discriminator 2)
    c690:	12800000 	mov	w0, #0xffffffff            	// #-1
/home/optee/RPi3/optee_os/lib/libmpa/mpa_gcd.c:332 (discriminator 4)
    c694:	b9005ba0 	str	w0, [x29,#88]
/home/optee/RPi3/optee_os/lib/libmpa/mpa_gcd.c:333 (discriminator 4)
    c698:	f94013a0 	ldr	x0, [x29,#32]
    c69c:	b9400400 	ldr	w0, [x0,#4]
    c6a0:	6b1f001f 	cmp	w0, wzr
    c6a4:	540000ca 	b.ge	c6bc <mpa_extended_gcd+0xc0>
/home/optee/RPi3/optee_os/lib/libmpa/mpa_gcd.c:333 (discriminator 1)
    c6a8:	f94013a0 	ldr	x0, [x29,#32]
    c6ac:	b9400400 	ldr	w0, [x0,#4]
    c6b0:	4b0003e1 	neg	w1, w0
    c6b4:	f94013a0 	ldr	x0, [x29,#32]
    c6b8:	b9000401 	str	w1, [x0,#4]
/home/optee/RPi3/optee_os/lib/libmpa/mpa_gcd.c:334
    c6bc:	f9400fa0 	ldr	x0, [x29,#24]
    c6c0:	b9400400 	ldr	w0, [x0,#4]
    c6c4:	6b1f001f 	cmp	w0, wzr
    c6c8:	540000ca 	b.ge	c6e0 <mpa_extended_gcd+0xe4>
/home/optee/RPi3/optee_os/lib/libmpa/mpa_gcd.c:334 (discriminator 1)
    c6cc:	f9400fa0 	ldr	x0, [x29,#24]
    c6d0:	b9400400 	ldr	w0, [x0,#4]
    c6d4:	4b0003e1 	neg	w1, w0
    c6d8:	f9400fa0 	ldr	x0, [x29,#24]
    c6dc:	b9000401 	str	w1, [x0,#4]
/home/optee/RPi3/optee_os/lib/libmpa/mpa_gcd.c:336
    c6e0:	f9400fa1 	ldr	x1, [x29,#24]
    c6e4:	f94013a0 	ldr	x0, [x29,#32]
    c6e8:	94000a2e 	bl	efa0 <mpa_cmp>
    c6ec:	b90057a0 	str	w0, [x29,#84]
/home/optee/RPi3/optee_os/lib/libmpa/mpa_gcd.c:337
    c6f0:	b94057a0 	ldr	w0, [x29,#84]
    c6f4:	6b1f001f 	cmp	w0, wzr
    c6f8:	54000281 	b.ne	c748 <mpa_extended_gcd+0x14c>
/home/optee/RPi3/optee_os/lib/libmpa/mpa_gcd.c:338
    c6fc:	f9401fa0 	ldr	x0, [x29,#56]
    c700:	eb1f001f 	cmp	x0, xzr
    c704:	54000080 	b.eq	c714 <mpa_extended_gcd+0x118>
/home/optee/RPi3/optee_os/lib/libmpa/mpa_gcd.c:339
    c708:	f94013a1 	ldr	x1, [x29,#32]
    c70c:	f9401fa0 	ldr	x0, [x29,#56]
    c710:	97fff59d 	bl	9d84 <mpa_copy>
/home/optee/RPi3/optee_os/lib/libmpa/mpa_gcd.c:340
    c714:	f9401ba0 	ldr	x0, [x29,#48]
    c718:	eb1f001f 	cmp	x0, xzr
    c71c:	54000080 	b.eq	c72c <mpa_extended_gcd+0x130>
/home/optee/RPi3/optee_os/lib/libmpa/mpa_gcd.c:341
    c720:	52800021 	mov	w1, #0x1                   	// #1
    c724:	f9401ba0 	ldr	x0, [x29,#48]
    c728:	97fff97f 	bl	ad24 <mpa_set_word>
/home/optee/RPi3/optee_os/lib/libmpa/mpa_gcd.c:342
    c72c:	f94017a0 	ldr	x0, [x29,#40]
    c730:	eb1f001f 	cmp	x0, xzr
    c734:	540007a0 	b.eq	c828 <mpa_extended_gcd+0x22c>
/home/optee/RPi3/optee_os/lib/libmpa/mpa_gcd.c:343
    c738:	52800001 	mov	w1, #0x0                   	// #0
    c73c:	f94017a0 	ldr	x0, [x29,#40]
    c740:	97fff979 	bl	ad24 <mpa_set_word>
/home/optee/RPi3/optee_os/lib/libmpa/mpa_gcd.c:344
    c744:	14000039 	b	c828 <mpa_extended_gcd+0x22c>
/home/optee/RPi3/optee_os/lib/libmpa/mpa_gcd.c:347
    c748:	f9401fa0 	ldr	x0, [x29,#56]
    c74c:	eb1f001f 	cmp	x0, xzr
    c750:	54000120 	b.eq	c774 <mpa_extended_gcd+0x178>
/home/optee/RPi3/optee_os/lib/libmpa/mpa_gcd.c:347 (discriminator 2)
    c754:	f9401fa1 	ldr	x1, [x29,#56]
    c758:	f94013a0 	ldr	x0, [x29,#32]
    c75c:	eb00003f 	cmp	x1, x0
    c760:	540000a0 	b.eq	c774 <mpa_extended_gcd+0x178>
/home/optee/RPi3/optee_os/lib/libmpa/mpa_gcd.c:347 (discriminator 4)
    c764:	f9401fa1 	ldr	x1, [x29,#56]
    c768:	f9400fa0 	ldr	x0, [x29,#24]
    c76c:	eb00003f 	cmp	x1, x0
    c770:	54000061 	b.ne	c77c <mpa_extended_gcd+0x180>
/home/optee/RPi3/optee_os/lib/libmpa/mpa_gcd.c:347 (discriminator 5)
    c774:	52800020 	mov	w0, #0x1                   	// #1
    c778:	14000002 	b	c780 <mpa_extended_gcd+0x184>
/home/optee/RPi3/optee_os/lib/libmpa/mpa_gcd.c:347 (discriminator 6)
    c77c:	52800000 	mov	w0, #0x0                   	// #0
/home/optee/RPi3/optee_os/lib/libmpa/mpa_gcd.c:347 (discriminator 8)
    c780:	b90053a0 	str	w0, [x29,#80]
/home/optee/RPi3/optee_os/lib/libmpa/mpa_gcd.c:348 (discriminator 8)
    c784:	b94053a0 	ldr	w0, [x29,#80]
    c788:	6b1f001f 	cmp	w0, wzr
    c78c:	540000a0 	b.eq	c7a0 <mpa_extended_gcd+0x1a4>
/home/optee/RPi3/optee_os/lib/libmpa/mpa_gcd.c:349
    c790:	910123a0 	add	x0, x29, #0x48
    c794:	f9400ba1 	ldr	x1, [x29,#16]
    c798:	94000106 	bl	cbb0 <mpa_alloc_static_temp_var>
    c79c:	14000003 	b	c7a8 <mpa_extended_gcd+0x1ac>
/home/optee/RPi3/optee_os/lib/libmpa/mpa_gcd.c:351
    c7a0:	f9401fa0 	ldr	x0, [x29,#56]
    c7a4:	f90027a0 	str	x0, [x29,#72]
/home/optee/RPi3/optee_os/lib/libmpa/mpa_gcd.c:353
    c7a8:	b94057a0 	ldr	w0, [x29,#84]
    c7ac:	6b1f001f 	cmp	w0, wzr
    c7b0:	5400012a 	b.ge	c7d4 <mpa_extended_gcd+0x1d8>
/home/optee/RPi3/optee_os/lib/libmpa/mpa_gcd.c:354
    c7b4:	f94027a0 	ldr	x0, [x29,#72]
    c7b8:	f9400ba5 	ldr	x5, [x29,#16]
    c7bc:	f94013a4 	ldr	x4, [x29,#32]
    c7c0:	f9400fa3 	ldr	x3, [x29,#24]
    c7c4:	f9401ba2 	ldr	x2, [x29,#48]
    c7c8:	f94017a1 	ldr	x1, [x29,#40]
    c7cc:	97fffdd7 	bl	bf28 <__mpa_egcd>
    c7d0:	14000008 	b	c7f0 <mpa_extended_gcd+0x1f4>
/home/optee/RPi3/optee_os/lib/libmpa/mpa_gcd.c:356
    c7d4:	f94027a0 	ldr	x0, [x29,#72]
    c7d8:	f9400ba5 	ldr	x5, [x29,#16]
    c7dc:	f9400fa4 	ldr	x4, [x29,#24]
    c7e0:	f94013a3 	ldr	x3, [x29,#32]
    c7e4:	f94017a2 	ldr	x2, [x29,#40]
    c7e8:	f9401ba1 	ldr	x1, [x29,#48]
    c7ec:	97fffdcf 	bl	bf28 <__mpa_egcd>
/home/optee/RPi3/optee_os/lib/libmpa/mpa_gcd.c:358
    c7f0:	f9401fa0 	ldr	x0, [x29,#56]
    c7f4:	eb1f001f 	cmp	x0, xzr
    c7f8:	540000a0 	b.eq	c80c <mpa_extended_gcd+0x210>
/home/optee/RPi3/optee_os/lib/libmpa/mpa_gcd.c:359
    c7fc:	f94027a0 	ldr	x0, [x29,#72]
    c800:	aa0003e1 	mov	x1, x0
    c804:	f9401fa0 	ldr	x0, [x29,#56]
    c808:	97fff55f 	bl	9d84 <mpa_copy>
/home/optee/RPi3/optee_os/lib/libmpa/mpa_gcd.c:360
    c80c:	b94053a0 	ldr	w0, [x29,#80]
    c810:	6b1f001f 	cmp	w0, wzr
    c814:	540000c0 	b.eq	c82c <mpa_extended_gcd+0x230>
/home/optee/RPi3/optee_os/lib/libmpa/mpa_gcd.c:361
    c818:	910123a0 	add	x0, x29, #0x48
    c81c:	f9400ba1 	ldr	x1, [x29,#16]
    c820:	940000ef 	bl	cbdc <mpa_free_static_temp_var>
    c824:	14000002 	b	c82c <mpa_extended_gcd+0x230>
/home/optee/RPi3/optee_os/lib/libmpa/mpa_gcd.c:344
    c828:	d503201f 	nop
/home/optee/RPi3/optee_os/lib/libmpa/mpa_gcd.c:365
    c82c:	f94013a0 	ldr	x0, [x29,#32]
    c830:	b9400400 	ldr	w0, [x0,#4]
    c834:	6b1f001f 	cmp	w0, wzr
    c838:	5400006b 	b.lt	c844 <mpa_extended_gcd+0x248>
/home/optee/RPi3/optee_os/lib/libmpa/mpa_gcd.c:365 (discriminator 1)
    c83c:	52800020 	mov	w0, #0x1                   	// #1
    c840:	14000002 	b	c848 <mpa_extended_gcd+0x24c>
/home/optee/RPi3/optee_os/lib/libmpa/mpa_gcd.c:365 (discriminator 2)
    c844:	12800000 	mov	w0, #0xffffffff            	// #-1
/home/optee/RPi3/optee_os/lib/libmpa/mpa_gcd.c:365 (discriminator 4)
    c848:	b9405fa1 	ldr	w1, [x29,#92]
    c84c:	6b01001f 	cmp	w0, w1
    c850:	540000c0 	b.eq	c868 <mpa_extended_gcd+0x26c>
/home/optee/RPi3/optee_os/lib/libmpa/mpa_gcd.c:365 (discriminator 5)
    c854:	f94013a0 	ldr	x0, [x29,#32]
    c858:	b9400400 	ldr	w0, [x0,#4]
    c85c:	4b0003e1 	neg	w1, w0
    c860:	f94013a0 	ldr	x0, [x29,#32]
    c864:	b9000401 	str	w1, [x0,#4]
/home/optee/RPi3/optee_os/lib/libmpa/mpa_gcd.c:366
    c868:	f9400fa0 	ldr	x0, [x29,#24]
    c86c:	b9400400 	ldr	w0, [x0,#4]
    c870:	6b1f001f 	cmp	w0, wzr
    c874:	5400006b 	b.lt	c880 <mpa_extended_gcd+0x284>
/home/optee/RPi3/optee_os/lib/libmpa/mpa_gcd.c:366 (discriminator 1)
    c878:	52800020 	mov	w0, #0x1                   	// #1
    c87c:	14000002 	b	c884 <mpa_extended_gcd+0x288>
/home/optee/RPi3/optee_os/lib/libmpa/mpa_gcd.c:366 (discriminator 2)
    c880:	12800000 	mov	w0, #0xffffffff            	// #-1
/home/optee/RPi3/optee_os/lib/libmpa/mpa_gcd.c:366 (discriminator 4)
    c884:	b9405ba1 	ldr	w1, [x29,#88]
    c888:	6b01001f 	cmp	w0, w1
    c88c:	540000c0 	b.eq	c8a4 <mpa_extended_gcd+0x2a8>
/home/optee/RPi3/optee_os/lib/libmpa/mpa_gcd.c:366 (discriminator 5)
    c890:	f9400fa0 	ldr	x0, [x29,#24]
    c894:	b9400400 	ldr	w0, [x0,#4]
    c898:	4b0003e1 	neg	w1, w0
    c89c:	f9400fa0 	ldr	x0, [x29,#24]
    c8a0:	b9000401 	str	w1, [x0,#4]
/home/optee/RPi3/optee_os/lib/libmpa/mpa_gcd.c:368
    c8a4:	b9405fa0 	ldr	w0, [x29,#92]
    c8a8:	3100041f 	cmn	w0, #0x1
    c8ac:	54000121 	b.ne	c8d0 <mpa_extended_gcd+0x2d4>
/home/optee/RPi3/optee_os/lib/libmpa/mpa_gcd.c:368 (discriminator 1)
    c8b0:	f9401ba0 	ldr	x0, [x29,#48]
    c8b4:	eb1f001f 	cmp	x0, xzr
    c8b8:	540000c0 	b.eq	c8d0 <mpa_extended_gcd+0x2d4>
/home/optee/RPi3/optee_os/lib/libmpa/mpa_gcd.c:369
    c8bc:	f9401ba0 	ldr	x0, [x29,#48]
    c8c0:	b9400400 	ldr	w0, [x0,#4]
    c8c4:	4b0003e1 	neg	w1, w0
    c8c8:	f9401ba0 	ldr	x0, [x29,#48]
    c8cc:	b9000401 	str	w1, [x0,#4]
/home/optee/RPi3/optee_os/lib/libmpa/mpa_gcd.c:370
    c8d0:	b9405ba0 	ldr	w0, [x29,#88]
    c8d4:	3100041f 	cmn	w0, #0x1
    c8d8:	54000161 	b.ne	c904 <mpa_extended_gcd+0x308>
/home/optee/RPi3/optee_os/lib/libmpa/mpa_gcd.c:370 (discriminator 1)
    c8dc:	f94017a0 	ldr	x0, [x29,#40]
    c8e0:	eb1f001f 	cmp	x0, xzr
    c8e4:	54000100 	b.eq	c904 <mpa_extended_gcd+0x308>
/home/optee/RPi3/optee_os/lib/libmpa/mpa_gcd.c:371
    c8e8:	f94017a0 	ldr	x0, [x29,#40]
    c8ec:	b9400400 	ldr	w0, [x0,#4]
    c8f0:	4b0003e1 	neg	w1, w0
    c8f4:	f94017a0 	ldr	x0, [x29,#40]
    c8f8:	b9000401 	str	w1, [x0,#4]
    c8fc:	14000002 	b	c904 <mpa_extended_gcd+0x308>
/home/optee/RPi3/optee_os/lib/libmpa/mpa_gcd.c:327
    c900:	d503201f 	nop
/home/optee/RPi3/optee_os/lib/libmpa/mpa_gcd.c:372
    c904:	a8c67bfd 	ldp	x29, x30, [sp],#96
    c908:	d65f03c0 	ret

000000000000c90c <mpa_init_scratch_mem_sync>:
mpa_init_scratch_mem_sync():
/home/optee/RPi3/optee_os/lib/libmpa/mpa_mem_static.c:38
    c90c:	d100c3ff 	sub	sp, sp, #0x30
    c910:	f90017e0 	str	x0, [sp,#40]
    c914:	f90013e1 	str	x1, [sp,#32]
    c918:	b9001fe2 	str	w2, [sp,#28]
    c91c:	f9000be3 	str	x3, [sp,#16]
    c920:	f90007e4 	str	x4, [sp,#8]
    c924:	f90003e5 	str	x5, [sp]
/home/optee/RPi3/optee_os/lib/libmpa/mpa_mem_static.c:39
    c928:	f94013e0 	ldr	x0, [sp,#32]
    c92c:	2a0003e1 	mov	w1, w0
    c930:	f94017e0 	ldr	x0, [sp,#40]
    c934:	b9000001 	str	w1, [x0]
/home/optee/RPi3/optee_os/lib/libmpa/mpa_mem_static.c:40
    c938:	f94017e0 	ldr	x0, [sp,#40]
    c93c:	b900081f 	str	wzr, [x0,#8]
/home/optee/RPi3/optee_os/lib/libmpa/mpa_mem_static.c:41
    c940:	b9401fe0 	ldr	w0, [sp,#28]
    c944:	531f7801 	lsl	w1, w0, #1
    c948:	f94017e0 	ldr	x0, [sp,#40]
    c94c:	b9000401 	str	w1, [x0,#4]
/home/optee/RPi3/optee_os/lib/libmpa/mpa_mem_static.c:42
    c950:	f94017e0 	ldr	x0, [sp,#40]
    c954:	f9400be1 	ldr	x1, [sp,#16]
    c958:	f9000801 	str	x1, [x0,#16]
/home/optee/RPi3/optee_os/lib/libmpa/mpa_mem_static.c:43
    c95c:	f94017e0 	ldr	x0, [sp,#40]
    c960:	f94007e1 	ldr	x1, [sp,#8]
    c964:	f9000c01 	str	x1, [x0,#24]
/home/optee/RPi3/optee_os/lib/libmpa/mpa_mem_static.c:44
    c968:	f94017e0 	ldr	x0, [sp,#40]
    c96c:	f94003e1 	ldr	x1, [sp]
    c970:	f9001001 	str	x1, [x0,#32]
/home/optee/RPi3/optee_os/lib/libmpa/mpa_mem_static.c:45
    c974:	d503201f 	nop
    c978:	9100c3ff 	add	sp, sp, #0x30
    c97c:	d65f03c0 	ret

000000000000c980 <mpa_init_scratch_mem>:
mpa_init_scratch_mem():
/home/optee/RPi3/optee_os/lib/libmpa/mpa_mem_static.c:48
    c980:	a9bd7bfd 	stp	x29, x30, [sp,#-48]!
    c984:	910003fd 	mov	x29, sp
    c988:	f90017a0 	str	x0, [x29,#40]
    c98c:	f90013a1 	str	x1, [x29,#32]
    c990:	b9001fa2 	str	w2, [x29,#28]
/home/optee/RPi3/optee_os/lib/libmpa/mpa_mem_static.c:49
    c994:	d2800005 	mov	x5, #0x0                   	// #0
    c998:	d2800004 	mov	x4, #0x0                   	// #0
    c99c:	d2800003 	mov	x3, #0x0                   	// #0
    c9a0:	b9401fa2 	ldr	w2, [x29,#28]
    c9a4:	f94013a1 	ldr	x1, [x29,#32]
    c9a8:	f94017a0 	ldr	x0, [x29,#40]
    c9ac:	97ffffd8 	bl	c90c <mpa_init_scratch_mem_sync>
/home/optee/RPi3/optee_os/lib/libmpa/mpa_mem_static.c:50
    c9b0:	d503201f 	nop
    c9b4:	a8c37bfd 	ldp	x29, x30, [sp],#48
    c9b8:	d65f03c0 	ret

000000000000c9bc <mpa_alloc_static_temp_var_size>:
mpa_alloc_static_temp_var_size():
/home/optee/RPi3/optee_os/lib/libmpa/mpa_mem_static.c:89
    c9bc:	a9bb7bfd 	stp	x29, x30, [sp,#-80]!
    c9c0:	910003fd 	mov	x29, sp
    c9c4:	b9002fa0 	str	w0, [x29,#44]
    c9c8:	f90013a1 	str	x1, [x29,#32]
    c9cc:	f9000fa2 	str	x2, [x29,#24]
/home/optee/RPi3/optee_os/lib/libmpa/mpa_mem_static.c:93
    c9d0:	f90023bf 	str	xzr, [x29,#64]
/home/optee/RPi3/optee_os/lib/libmpa/mpa_mem_static.c:95
    c9d4:	f9400fa0 	ldr	x0, [x29,#24]
    c9d8:	f9400800 	ldr	x0, [x0,#16]
    c9dc:	eb1f001f 	cmp	x0, xzr
    c9e0:	540000c0 	b.eq	c9f8 <mpa_alloc_static_temp_var_size+0x3c>
/home/optee/RPi3/optee_os/lib/libmpa/mpa_mem_static.c:96
    c9e4:	f9400fa0 	ldr	x0, [x29,#24]
    c9e8:	f9400801 	ldr	x1, [x0,#16]
    c9ec:	f9400fa0 	ldr	x0, [x29,#24]
    c9f0:	f9401000 	ldr	x0, [x0,#32]
    c9f4:	d63f0020 	blr	x1
/home/optee/RPi3/optee_os/lib/libmpa/mpa_mem_static.c:98
    c9f8:	f9400fa0 	ldr	x0, [x29,#24]
    c9fc:	b9400800 	ldr	w0, [x0,#8]
    ca00:	6b1f001f 	cmp	w0, wzr
    ca04:	54000081 	b.ne	ca14 <mpa_alloc_static_temp_var_size+0x58>
/home/optee/RPi3/optee_os/lib/libmpa/mpa_mem_static.c:99
    ca08:	52800500 	mov	w0, #0x28                  	// #40
    ca0c:	b9004fa0 	str	w0, [x29,#76]
    ca10:	1400000d 	b	ca44 <mpa_alloc_static_temp_var_size+0x88>
/home/optee/RPi3/optee_os/lib/libmpa/mpa_mem_static.c:101
    ca14:	f9400fa0 	ldr	x0, [x29,#24]
    ca18:	b9400800 	ldr	w0, [x0,#8]
    ca1c:	b9004fa0 	str	w0, [x29,#76]
/home/optee/RPi3/optee_os/lib/libmpa/mpa_mem_static.c:103
    ca20:	b9404fa1 	ldr	w1, [x29,#76]
    ca24:	f9400fa0 	ldr	x0, [x29,#24]
    ca28:	8b000020 	add	x0, x1, x0
/home/optee/RPi3/optee_os/lib/libmpa/mpa_mem_static.c:102
    ca2c:	f90023a0 	str	x0, [x29,#64]
/home/optee/RPi3/optee_os/lib/libmpa/mpa_mem_static.c:104
    ca30:	f94023a0 	ldr	x0, [x29,#64]
    ca34:	b9400000 	ldr	w0, [x0]
    ca38:	b9404fa1 	ldr	w1, [x29,#76]
    ca3c:	0b000020 	add	w0, w1, w0
    ca40:	b9004fa0 	str	w0, [x29,#76]
/home/optee/RPi3/optee_os/lib/libmpa/mpa_mem_static.c:107
    ca44:	b9404fa0 	ldr	w0, [x29,#76]
    ca48:	11000c00 	add	w0, w0, #0x3
    ca4c:	121e7400 	and	w0, w0, #0xfffffffc
    ca50:	b9004fa0 	str	w0, [x29,#76]
/home/optee/RPi3/optee_os/lib/libmpa/mpa_mem_static.c:108
    ca54:	f9400fa0 	ldr	x0, [x29,#24]
    ca58:	b9400001 	ldr	w1, [x0]
    ca5c:	b9404fa0 	ldr	w0, [x29,#76]
    ca60:	6b00003f 	cmp	w1, w0
    ca64:	54000843 	b.cc	cb6c <mpa_alloc_static_temp_var_size+0x1b0>
/home/optee/RPi3/optee_os/lib/libmpa/mpa_mem_static.c:112
    ca68:	b9402fa0 	ldr	w0, [x29,#44]
    ca6c:	11007c00 	add	w0, w0, #0x1f
    ca70:	11007c01 	add	w1, w0, #0x1f
    ca74:	6b1f001f 	cmp	w0, wzr
    ca78:	1a80b020 	csel	w0, w1, w0, lt
    ca7c:	13057c00 	asr	w0, w0, #5
    ca80:	11000800 	add	w0, w0, #0x2
/home/optee/RPi3/optee_os/lib/libmpa/mpa_mem_static.c:111
    ca84:	93407c00 	sxtw	x0, w0
    ca88:	91000c00 	add	x0, x0, #0x3
    ca8c:	d37ef400 	lsl	x0, x0, #2
    ca90:	f9001fa0 	str	x0, [x29,#56]
/home/optee/RPi3/optee_os/lib/libmpa/mpa_mem_static.c:113
    ca94:	f9401fa0 	ldr	x0, [x29,#56]
    ca98:	91000c00 	add	x0, x0, #0x3
    ca9c:	927ef400 	and	x0, x0, #0xfffffffffffffffc
    caa0:	f9001fa0 	str	x0, [x29,#56]
/home/optee/RPi3/optee_os/lib/libmpa/mpa_mem_static.c:114
    caa4:	b9404fa1 	ldr	w1, [x29,#76]
    caa8:	f9401fa0 	ldr	x0, [x29,#56]
    caac:	8b000021 	add	x1, x1, x0
    cab0:	f9400fa0 	ldr	x0, [x29,#24]
    cab4:	b9400000 	ldr	w0, [x0]
    cab8:	2a0003e0 	mov	w0, w0
    cabc:	eb00003f 	cmp	x1, x0
    cac0:	540005a8 	b.hi	cb74 <mpa_alloc_static_temp_var_size+0x1b8>
/home/optee/RPi3/optee_os/lib/libmpa/mpa_mem_static.c:117
    cac4:	b9404fa1 	ldr	w1, [x29,#76]
    cac8:	f9400fa0 	ldr	x0, [x29,#24]
    cacc:	8b000020 	add	x0, x1, x0
    cad0:	f9001ba0 	str	x0, [x29,#48]
/home/optee/RPi3/optee_os/lib/libmpa/mpa_mem_static.c:118
    cad4:	f9401fa0 	ldr	x0, [x29,#56]
    cad8:	2a0003e1 	mov	w1, w0
    cadc:	f9401ba0 	ldr	x0, [x29,#48]
    cae0:	b9000001 	str	w1, [x0]
/home/optee/RPi3/optee_os/lib/libmpa/mpa_mem_static.c:119
    cae4:	f9400fa0 	ldr	x0, [x29,#24]
    cae8:	b9400801 	ldr	w1, [x0,#8]
    caec:	f9401ba0 	ldr	x0, [x29,#48]
    caf0:	b9000401 	str	w1, [x0,#4]
/home/optee/RPi3/optee_os/lib/libmpa/mpa_mem_static.c:120
    caf4:	f94023a0 	ldr	x0, [x29,#64]
    caf8:	eb1f001f 	cmp	x0, xzr
    cafc:	54000080 	b.eq	cb0c <mpa_alloc_static_temp_var_size+0x150>
/home/optee/RPi3/optee_os/lib/libmpa/mpa_mem_static.c:121
    cb00:	f94023a0 	ldr	x0, [x29,#64]
    cb04:	b9404fa1 	ldr	w1, [x29,#76]
    cb08:	b9000801 	str	w1, [x0,#8]
/home/optee/RPi3/optee_os/lib/libmpa/mpa_mem_static.c:122
    cb0c:	f9401ba0 	ldr	x0, [x29,#48]
    cb10:	b900081f 	str	wzr, [x0,#8]
/home/optee/RPi3/optee_os/lib/libmpa/mpa_mem_static.c:123
    cb14:	f9400fa0 	ldr	x0, [x29,#24]
    cb18:	b9404fa1 	ldr	w1, [x29,#76]
    cb1c:	b9000801 	str	w1, [x0,#8]
/home/optee/RPi3/optee_os/lib/libmpa/mpa_mem_static.c:125
    cb20:	f9401ba0 	ldr	x0, [x29,#48]
    cb24:	91003001 	add	x1, x0, #0xc
    cb28:	f94013a0 	ldr	x0, [x29,#32]
    cb2c:	f9000001 	str	x1, [x0]
/home/optee/RPi3/optee_os/lib/libmpa/mpa_mem_static.c:126
    cb30:	f94013a0 	ldr	x0, [x29,#32]
    cb34:	f9400002 	ldr	x2, [x0]
    cb38:	b9402fa0 	ldr	w0, [x29,#44]
    cb3c:	11007c00 	add	w0, w0, #0x1f
    cb40:	11007c01 	add	w1, w0, #0x1f
    cb44:	6b1f001f 	cmp	w0, wzr
    cb48:	1a80b020 	csel	w0, w1, w0, lt
    cb4c:	13057c00 	asr	w0, w0, #5
    cb50:	11000800 	add	w0, w0, #0x2
    cb54:	2a0003e1 	mov	w1, w0
    cb58:	aa0203e0 	mov	x0, x2
    cb5c:	940009f9 	bl	f340 <mpa_init_static>
/home/optee/RPi3/optee_os/lib/libmpa/mpa_mem_static.c:127
    cb60:	f94013a0 	ldr	x0, [x29,#32]
    cb64:	f9400000 	ldr	x0, [x0]
    cb68:	14000010 	b	cba8 <mpa_alloc_static_temp_var_size+0x1ec>
/home/optee/RPi3/optee_os/lib/libmpa/mpa_mem_static.c:109
    cb6c:	d503201f 	nop
    cb70:	14000002 	b	cb78 <mpa_alloc_static_temp_var_size+0x1bc>
/home/optee/RPi3/optee_os/lib/libmpa/mpa_mem_static.c:115
    cb74:	d503201f 	nop
/home/optee/RPi3/optee_os/lib/libmpa/mpa_mem_static.c:130
    cb78:	f94013a0 	ldr	x0, [x29,#32]
    cb7c:	f900001f 	str	xzr, [x0]
/home/optee/RPi3/optee_os/lib/libmpa/mpa_mem_static.c:131
    cb80:	f9400fa0 	ldr	x0, [x29,#24]
    cb84:	f9400c00 	ldr	x0, [x0,#24]
    cb88:	eb1f001f 	cmp	x0, xzr
    cb8c:	540000c0 	b.eq	cba4 <mpa_alloc_static_temp_var_size+0x1e8>
/home/optee/RPi3/optee_os/lib/libmpa/mpa_mem_static.c:132
    cb90:	f9400fa0 	ldr	x0, [x29,#24]
    cb94:	f9400c01 	ldr	x1, [x0,#24]
    cb98:	f9400fa0 	ldr	x0, [x29,#24]
    cb9c:	f9401000 	ldr	x0, [x0,#32]
    cba0:	d63f0020 	blr	x1
/home/optee/RPi3/optee_os/lib/libmpa/mpa_mem_static.c:133
    cba4:	d2800000 	mov	x0, #0x0                   	// #0
/home/optee/RPi3/optee_os/lib/libmpa/mpa_mem_static.c:134
    cba8:	a8c57bfd 	ldp	x29, x30, [sp],#80
    cbac:	d65f03c0 	ret

000000000000cbb0 <mpa_alloc_static_temp_var>:
mpa_alloc_static_temp_var():
/home/optee/RPi3/optee_os/lib/libmpa/mpa_mem_static.c:138
    cbb0:	a9be7bfd 	stp	x29, x30, [sp,#-32]!
    cbb4:	910003fd 	mov	x29, sp
    cbb8:	f9000fa0 	str	x0, [x29,#24]
    cbbc:	f9000ba1 	str	x1, [x29,#16]
/home/optee/RPi3/optee_os/lib/libmpa/mpa_mem_static.c:139
    cbc0:	f9400ba0 	ldr	x0, [x29,#16]
    cbc4:	b9400400 	ldr	w0, [x0,#4]
    cbc8:	f9400ba2 	ldr	x2, [x29,#16]
    cbcc:	f9400fa1 	ldr	x1, [x29,#24]
    cbd0:	97ffff7b 	bl	c9bc <mpa_alloc_static_temp_var_size>
/home/optee/RPi3/optee_os/lib/libmpa/mpa_mem_static.c:140
    cbd4:	a8c27bfd 	ldp	x29, x30, [sp],#32
    cbd8:	d65f03c0 	ret

000000000000cbdc <mpa_free_static_temp_var>:
mpa_free_static_temp_var():
/home/optee/RPi3/optee_os/lib/libmpa/mpa_mem_static.c:148
    cbdc:	a9bc7bfd 	stp	x29, x30, [sp,#-64]!
    cbe0:	910003fd 	mov	x29, sp
    cbe4:	f9000fa0 	str	x0, [x29,#24]
    cbe8:	f9000ba1 	str	x1, [x29,#16]
/home/optee/RPi3/optee_os/lib/libmpa/mpa_mem_static.c:152
    cbec:	b9003fbf 	str	wzr, [x29,#60]
/home/optee/RPi3/optee_os/lib/libmpa/mpa_mem_static.c:154
    cbf0:	f9400fa0 	ldr	x0, [x29,#24]
    cbf4:	eb1f001f 	cmp	x0, xzr
    cbf8:	54000700 	b.eq	ccd8 <mpa_free_static_temp_var+0xfc>
/home/optee/RPi3/optee_os/lib/libmpa/mpa_mem_static.c:154 (discriminator 1)
    cbfc:	f9400fa0 	ldr	x0, [x29,#24]
    cc00:	f9400000 	ldr	x0, [x0]
    cc04:	eb1f001f 	cmp	x0, xzr
    cc08:	54000680 	b.eq	ccd8 <mpa_free_static_temp_var+0xfc>
/home/optee/RPi3/optee_os/lib/libmpa/mpa_mem_static.c:157
    cc0c:	f9400fa0 	ldr	x0, [x29,#24]
    cc10:	f9400000 	ldr	x0, [x0]
    cc14:	d1003000 	sub	x0, x0, #0xc
    cc18:	f9001ba0 	str	x0, [x29,#48]
/home/optee/RPi3/optee_os/lib/libmpa/mpa_mem_static.c:159
    cc1c:	f9401ba0 	ldr	x0, [x29,#48]
    cc20:	b9400400 	ldr	w0, [x0,#4]
    cc24:	6b1f001f 	cmp	w0, wzr
    cc28:	540001c0 	b.eq	cc60 <mpa_free_static_temp_var+0x84>
/home/optee/RPi3/optee_os/lib/libmpa/mpa_mem_static.c:161
    cc2c:	f9401ba0 	ldr	x0, [x29,#48]
    cc30:	b9400400 	ldr	w0, [x0,#4]
/home/optee/RPi3/optee_os/lib/libmpa/mpa_mem_static.c:160
    cc34:	2a0003e1 	mov	w1, w0
    cc38:	f9400ba0 	ldr	x0, [x29,#16]
    cc3c:	8b000020 	add	x0, x1, x0
    cc40:	f90017a0 	str	x0, [x29,#40]
/home/optee/RPi3/optee_os/lib/libmpa/mpa_mem_static.c:162
    cc44:	f9401ba0 	ldr	x0, [x29,#48]
    cc48:	b9400801 	ldr	w1, [x0,#8]
    cc4c:	f94017a0 	ldr	x0, [x29,#40]
    cc50:	b9000801 	str	w1, [x0,#8]
/home/optee/RPi3/optee_os/lib/libmpa/mpa_mem_static.c:163
    cc54:	f9401ba0 	ldr	x0, [x29,#48]
    cc58:	b9400400 	ldr	w0, [x0,#4]
    cc5c:	b9003fa0 	str	w0, [x29,#60]
/home/optee/RPi3/optee_os/lib/libmpa/mpa_mem_static.c:166
    cc60:	f9401ba0 	ldr	x0, [x29,#48]
    cc64:	b9400800 	ldr	w0, [x0,#8]
    cc68:	6b1f001f 	cmp	w0, wzr
    cc6c:	540001c0 	b.eq	cca4 <mpa_free_static_temp_var+0xc8>
/home/optee/RPi3/optee_os/lib/libmpa/mpa_mem_static.c:168
    cc70:	f9401ba0 	ldr	x0, [x29,#48]
    cc74:	b9400800 	ldr	w0, [x0,#8]
/home/optee/RPi3/optee_os/lib/libmpa/mpa_mem_static.c:167
    cc78:	2a0003e1 	mov	w1, w0
    cc7c:	f9400ba0 	ldr	x0, [x29,#16]
    cc80:	8b000020 	add	x0, x1, x0
    cc84:	f90013a0 	str	x0, [x29,#32]
/home/optee/RPi3/optee_os/lib/libmpa/mpa_mem_static.c:169
    cc88:	f9401ba0 	ldr	x0, [x29,#48]
    cc8c:	b9400401 	ldr	w1, [x0,#4]
    cc90:	f94013a0 	ldr	x0, [x29,#32]
    cc94:	b9000401 	str	w1, [x0,#4]
/home/optee/RPi3/optee_os/lib/libmpa/mpa_mem_static.c:170
    cc98:	f9400ba0 	ldr	x0, [x29,#16]
    cc9c:	b9400800 	ldr	w0, [x0,#8]
    cca0:	b9003fa0 	str	w0, [x29,#60]
/home/optee/RPi3/optee_os/lib/libmpa/mpa_mem_static.c:173
    cca4:	f9400ba0 	ldr	x0, [x29,#16]
    cca8:	b9403fa1 	ldr	w1, [x29,#60]
    ccac:	b9000801 	str	w1, [x0,#8]
/home/optee/RPi3/optee_os/lib/libmpa/mpa_mem_static.c:174
    ccb0:	f9400ba0 	ldr	x0, [x29,#16]
    ccb4:	f9400c00 	ldr	x0, [x0,#24]
    ccb8:	eb1f001f 	cmp	x0, xzr
    ccbc:	54000100 	b.eq	ccdc <mpa_free_static_temp_var+0x100>
/home/optee/RPi3/optee_os/lib/libmpa/mpa_mem_static.c:175
    ccc0:	f9400ba0 	ldr	x0, [x29,#16]
    ccc4:	f9400c01 	ldr	x1, [x0,#24]
    ccc8:	f9400ba0 	ldr	x0, [x29,#16]
    cccc:	f9401000 	ldr	x0, [x0,#32]
    ccd0:	d63f0020 	blr	x1
    ccd4:	14000002 	b	ccdc <mpa_free_static_temp_var+0x100>
/home/optee/RPi3/optee_os/lib/libmpa/mpa_mem_static.c:155
    ccd8:	d503201f 	nop
/home/optee/RPi3/optee_os/lib/libmpa/mpa_mem_static.c:176
    ccdc:	a8c47bfd 	ldp	x29, x30, [sp],#64
    cce0:	d65f03c0 	ret

000000000000cce4 <__mpa_mul_add_word>:
__mpa_mul_add_word():
/home/optee/RPi3/optee_os/lib/libmpa/mpa_mul.c:50
    cce4:	d100c3ff 	sub	sp, sp, #0x30
    cce8:	b9001fe0 	str	w0, [sp,#28]
    ccec:	b9001be1 	str	w1, [sp,#24]
    ccf0:	f9000be2 	str	x2, [sp,#16]
    ccf4:	f90007e3 	str	x3, [sp,#8]
/home/optee/RPi3/optee_os/lib/libmpa/mpa_mul.c:54
    ccf8:	b9401fe1 	ldr	w1, [sp,#28]
    ccfc:	b9401be0 	ldr	w0, [sp,#24]
    cd00:	9b007c21 	mul	x1, x1, x0
    cd04:	f94007e0 	ldr	x0, [sp,#8]
    cd08:	b9400000 	ldr	w0, [x0]
    cd0c:	2a0003e0 	mov	w0, w0
    cd10:	8b000020 	add	x0, x1, x0
    cd14:	f90017e0 	str	x0, [sp,#40]
/home/optee/RPi3/optee_os/lib/libmpa/mpa_mul.c:55
    cd18:	f94017e0 	ldr	x0, [sp,#40]
    cd1c:	2a0003e1 	mov	w1, w0
    cd20:	f9400be0 	ldr	x0, [sp,#16]
    cd24:	b9000001 	str	w1, [x0]
/home/optee/RPi3/optee_os/lib/libmpa/mpa_mul.c:56
    cd28:	f94017e0 	ldr	x0, [sp,#40]
    cd2c:	d360fc00 	lsr	x0, x0, #32
    cd30:	2a0003e1 	mov	w1, w0
    cd34:	f94007e0 	ldr	x0, [sp,#8]
    cd38:	b9000001 	str	w1, [x0]
/home/optee/RPi3/optee_os/lib/libmpa/mpa_mul.c:60
    cd3c:	d503201f 	nop
    cd40:	9100c3ff 	add	sp, sp, #0x30
    cd44:	d65f03c0 	ret

000000000000cd48 <__mpa_mul_add_word_cum>:
__mpa_mul_add_word_cum():
/home/optee/RPi3/optee_os/lib/libmpa/mpa_mul.c:71
    cd48:	d100c3ff 	sub	sp, sp, #0x30
    cd4c:	b9001fe0 	str	w0, [sp,#28]
    cd50:	b9001be1 	str	w1, [sp,#24]
    cd54:	f9000be2 	str	x2, [sp,#16]
    cd58:	f90007e3 	str	x3, [sp,#8]
/home/optee/RPi3/optee_os/lib/libmpa/mpa_mul.c:76
    cd5c:	b9401fe1 	ldr	w1, [sp,#28]
    cd60:	b9401be0 	ldr	w0, [sp,#24]
    cd64:	9b007c21 	mul	x1, x1, x0
    cd68:	f9400be0 	ldr	x0, [sp,#16]
    cd6c:	b9400000 	ldr	w0, [x0]
    cd70:	2a0003e0 	mov	w0, w0
    cd74:	8b000021 	add	x1, x1, x0
/home/optee/RPi3/optee_os/lib/libmpa/mpa_mul.c:77
    cd78:	f94007e0 	ldr	x0, [sp,#8]
    cd7c:	b9400000 	ldr	w0, [x0]
    cd80:	2a0003e0 	mov	w0, w0
/home/optee/RPi3/optee_os/lib/libmpa/mpa_mul.c:75
    cd84:	8b000020 	add	x0, x1, x0
    cd88:	f90017e0 	str	x0, [sp,#40]
/home/optee/RPi3/optee_os/lib/libmpa/mpa_mul.c:78
    cd8c:	f94017e0 	ldr	x0, [sp,#40]
    cd90:	2a0003e1 	mov	w1, w0
    cd94:	f9400be0 	ldr	x0, [sp,#16]
    cd98:	b9000001 	str	w1, [x0]
/home/optee/RPi3/optee_os/lib/libmpa/mpa_mul.c:79
    cd9c:	f94017e0 	ldr	x0, [sp,#40]
    cda0:	d360fc00 	lsr	x0, x0, #32
    cda4:	2a0003e1 	mov	w1, w0
    cda8:	f94007e0 	ldr	x0, [sp,#8]
    cdac:	b9000001 	str	w1, [x0]
/home/optee/RPi3/optee_os/lib/libmpa/mpa_mul.c:83
    cdb0:	d503201f 	nop
    cdb4:	9100c3ff 	add	sp, sp, #0x30
    cdb8:	d65f03c0 	ret

000000000000cdbc <__mpa_abs_mul_word>:
__mpa_abs_mul_word():
/home/optee/RPi3/optee_os/lib/libmpa/mpa_mul.c:95
    cdbc:	a9bb7bfd 	stp	x29, x30, [sp,#-80]!
    cdc0:	910003fd 	mov	x29, sp
    cdc4:	f90017a0 	str	x0, [x29,#40]
    cdc8:	f90013a1 	str	x1, [x29,#32]
    cdcc:	b9001fa2 	str	w2, [x29,#28]
/home/optee/RPi3/optee_os/lib/libmpa/mpa_mul.c:102
    cdd0:	f94017a0 	ldr	x0, [x29,#40]
    cdd4:	91002003 	add	x3, x0, #0x8
    cdd8:	f94017a0 	ldr	x0, [x29,#40]
    cddc:	b9400000 	ldr	w0, [x0]
    cde0:	531e7400 	lsl	w0, w0, #2
    cde4:	2a0003e0 	mov	w0, w0
    cde8:	aa0003e2 	mov	x2, x0
    cdec:	52800001 	mov	w1, #0x0                   	// #0
    cdf0:	aa0303e0 	mov	x0, x3
    cdf4:	97ffe8d2 	bl	713c <memset>
/home/optee/RPi3/optee_os/lib/libmpa/mpa_mul.c:104
    cdf8:	f94013a0 	ldr	x0, [x29,#32]
    cdfc:	91002000 	add	x0, x0, #0x8
    ce00:	f90023a0 	str	x0, [x29,#64]
/home/optee/RPi3/optee_os/lib/libmpa/mpa_mul.c:105
    ce04:	f94017a0 	ldr	x0, [x29,#40]
    ce08:	91002000 	add	x0, x0, #0x8
    ce0c:	f9001fa0 	str	x0, [x29,#56]
/home/optee/RPi3/optee_os/lib/libmpa/mpa_mul.c:106
    ce10:	b90037bf 	str	wzr, [x29,#52]
/home/optee/RPi3/optee_os/lib/libmpa/mpa_mul.c:107
    ce14:	b9004fbf 	str	wzr, [x29,#76]
    ce18:	14000013 	b	ce64 <__mpa_abs_mul_word+0xa8>
/home/optee/RPi3/optee_os/lib/libmpa/mpa_mul.c:108 (discriminator 3)
    ce1c:	f94023a0 	ldr	x0, [x29,#64]
    ce20:	b9400004 	ldr	w4, [x0]
    ce24:	b9404fa0 	ldr	w0, [x29,#76]
    ce28:	d37ef400 	lsl	x0, x0, #2
    ce2c:	f9401fa1 	ldr	x1, [x29,#56]
    ce30:	8b000020 	add	x0, x1, x0
    ce34:	9100d3a1 	add	x1, x29, #0x34
    ce38:	aa0103e3 	mov	x3, x1
    ce3c:	aa0003e2 	mov	x2, x0
    ce40:	b9401fa1 	ldr	w1, [x29,#28]
    ce44:	2a0403e0 	mov	w0, w4
    ce48:	97ffffa7 	bl	cce4 <__mpa_mul_add_word>
/home/optee/RPi3/optee_os/lib/libmpa/mpa_mul.c:109 (discriminator 3)
    ce4c:	f94023a0 	ldr	x0, [x29,#64]
    ce50:	91001000 	add	x0, x0, #0x4
    ce54:	f90023a0 	str	x0, [x29,#64]
/home/optee/RPi3/optee_os/lib/libmpa/mpa_mul.c:107 (discriminator 3)
    ce58:	b9404fa0 	ldr	w0, [x29,#76]
    ce5c:	11000400 	add	w0, w0, #0x1
    ce60:	b9004fa0 	str	w0, [x29,#76]
/home/optee/RPi3/optee_os/lib/libmpa/mpa_mul.c:107 (discriminator 1)
    ce64:	f94013a0 	ldr	x0, [x29,#32]
    ce68:	b9400400 	ldr	w0, [x0,#4]
    ce6c:	6b1f001f 	cmp	w0, wzr
    ce70:	5a80a400 	cneg	w0, w0, lt
    ce74:	2a0003e1 	mov	w1, w0
    ce78:	b9404fa0 	ldr	w0, [x29,#76]
    ce7c:	6b00003f 	cmp	w1, w0
    ce80:	54fffce8 	b.hi	ce1c <__mpa_abs_mul_word+0x60>
/home/optee/RPi3/optee_os/lib/libmpa/mpa_mul.c:111
    ce84:	b9404fa1 	ldr	w1, [x29,#76]
    ce88:	f94017a0 	ldr	x0, [x29,#40]
    ce8c:	b9000401 	str	w1, [x0,#4]
/home/optee/RPi3/optee_os/lib/libmpa/mpa_mul.c:112
    ce90:	b94037a0 	ldr	w0, [x29,#52]
    ce94:	6b1f001f 	cmp	w0, wzr
    ce98:	54000180 	b.eq	cec8 <__mpa_abs_mul_word+0x10c>
/home/optee/RPi3/optee_os/lib/libmpa/mpa_mul.c:113
    ce9c:	b9404fa0 	ldr	w0, [x29,#76]
    cea0:	d37ef400 	lsl	x0, x0, #2
    cea4:	f9401fa1 	ldr	x1, [x29,#56]
    cea8:	8b000020 	add	x0, x1, x0
    ceac:	b94037a1 	ldr	w1, [x29,#52]
    ceb0:	b9000001 	str	w1, [x0]
/home/optee/RPi3/optee_os/lib/libmpa/mpa_mul.c:114
    ceb4:	f94017a0 	ldr	x0, [x29,#40]
    ceb8:	b9400400 	ldr	w0, [x0,#4]
    cebc:	11000401 	add	w1, w0, #0x1
    cec0:	f94017a0 	ldr	x0, [x29,#40]
    cec4:	b9000401 	str	w1, [x0,#4]
/home/optee/RPi3/optee_os/lib/libmpa/mpa_mul.c:116
    cec8:	d503201f 	nop
    cecc:	a8c57bfd 	ldp	x29, x30, [sp],#80
    ced0:	d65f03c0 	ret

000000000000ced4 <__mpa_abs_mul>:
__mpa_abs_mul():
/home/optee/RPi3/optee_os/lib/libmpa/mpa_mul.c:126
    ced4:	a9ba7bfd 	stp	x29, x30, [sp,#-96]!
    ced8:	910003fd 	mov	x29, sp
    cedc:	f90017a0 	str	x0, [x29,#40]
    cee0:	f90013a1 	str	x1, [x29,#32]
    cee4:	f9000fa2 	str	x2, [x29,#24]
/home/optee/RPi3/optee_os/lib/libmpa/mpa_mul.c:127
    cee8:	b9005fbf 	str	wzr, [x29,#92]
/home/optee/RPi3/optee_os/lib/libmpa/mpa_mul.c:128
    ceec:	b9005bbf 	str	wzr, [x29,#88]
/home/optee/RPi3/optee_os/lib/libmpa/mpa_mul.c:129
    cef0:	b9003fbf 	str	wzr, [x29,#60]
/home/optee/RPi3/optee_os/lib/libmpa/mpa_mul.c:135
    cef4:	f94017a0 	ldr	x0, [x29,#40]
    cef8:	91002003 	add	x3, x0, #0x8
    cefc:	f94017a0 	ldr	x0, [x29,#40]
    cf00:	b9400000 	ldr	w0, [x0]
    cf04:	531e7400 	lsl	w0, w0, #2
    cf08:	2a0003e0 	mov	w0, w0
    cf0c:	aa0003e2 	mov	x2, x0
    cf10:	52800001 	mov	w1, #0x0                   	// #0
    cf14:	aa0303e0 	mov	x0, x3
    cf18:	97ffe889 	bl	713c <memset>
/home/optee/RPi3/optee_os/lib/libmpa/mpa_mul.c:137
    cf1c:	f94013a0 	ldr	x0, [x29,#32]
    cf20:	91002000 	add	x0, x0, #0x8
    cf24:	f90027a0 	str	x0, [x29,#72]
/home/optee/RPi3/optee_os/lib/libmpa/mpa_mul.c:138
    cf28:	f94017a0 	ldr	x0, [x29,#40]
    cf2c:	91002000 	add	x0, x0, #0x8
    cf30:	f9002ba0 	str	x0, [x29,#80]
/home/optee/RPi3/optee_os/lib/libmpa/mpa_mul.c:139
    cf34:	b9005fbf 	str	wzr, [x29,#92]
    cf38:	14000035 	b	d00c <__mpa_abs_mul+0x138>
/home/optee/RPi3/optee_os/lib/libmpa/mpa_mul.c:140
    cf3c:	f9400fa0 	ldr	x0, [x29,#24]
    cf40:	91002000 	add	x0, x0, #0x8
    cf44:	f90023a0 	str	x0, [x29,#64]
/home/optee/RPi3/optee_os/lib/libmpa/mpa_mul.c:141
    cf48:	b9003fbf 	str	wzr, [x29,#60]
/home/optee/RPi3/optee_os/lib/libmpa/mpa_mul.c:142
    cf4c:	b9005bbf 	str	wzr, [x29,#88]
    cf50:	14000015 	b	cfa4 <__mpa_abs_mul+0xd0>
/home/optee/RPi3/optee_os/lib/libmpa/mpa_mul.c:143 (discriminator 3)
    cf54:	f94027a0 	ldr	x0, [x29,#72]
    cf58:	b9400004 	ldr	w4, [x0]
    cf5c:	f94023a0 	ldr	x0, [x29,#64]
    cf60:	b9400005 	ldr	w5, [x0]
    cf64:	b9405ba0 	ldr	w0, [x29,#88]
    cf68:	d37ef400 	lsl	x0, x0, #2
    cf6c:	f9402ba1 	ldr	x1, [x29,#80]
    cf70:	8b000020 	add	x0, x1, x0
    cf74:	9100f3a1 	add	x1, x29, #0x3c
    cf78:	aa0103e3 	mov	x3, x1
    cf7c:	aa0003e2 	mov	x2, x0
    cf80:	2a0503e1 	mov	w1, w5
    cf84:	2a0403e0 	mov	w0, w4
    cf88:	97ffff70 	bl	cd48 <__mpa_mul_add_word_cum>
/home/optee/RPi3/optee_os/lib/libmpa/mpa_mul.c:144 (discriminator 3)
    cf8c:	f94023a0 	ldr	x0, [x29,#64]
    cf90:	91001000 	add	x0, x0, #0x4
    cf94:	f90023a0 	str	x0, [x29,#64]
/home/optee/RPi3/optee_os/lib/libmpa/mpa_mul.c:142 (discriminator 3)
    cf98:	b9405ba0 	ldr	w0, [x29,#88]
    cf9c:	11000400 	add	w0, w0, #0x1
    cfa0:	b9005ba0 	str	w0, [x29,#88]
/home/optee/RPi3/optee_os/lib/libmpa/mpa_mul.c:142 (discriminator 1)
    cfa4:	f9400fa0 	ldr	x0, [x29,#24]
    cfa8:	b9400400 	ldr	w0, [x0,#4]
    cfac:	6b1f001f 	cmp	w0, wzr
    cfb0:	5a80a400 	cneg	w0, w0, lt
    cfb4:	2a0003e1 	mov	w1, w0
    cfb8:	b9405ba0 	ldr	w0, [x29,#88]
    cfbc:	6b00003f 	cmp	w1, w0
    cfc0:	54fffca8 	b.hi	cf54 <__mpa_abs_mul+0x80>
/home/optee/RPi3/optee_os/lib/libmpa/mpa_mul.c:146
    cfc4:	b9403fa0 	ldr	w0, [x29,#60]
    cfc8:	6b1f001f 	cmp	w0, wzr
    cfcc:	540000e0 	b.eq	cfe8 <__mpa_abs_mul+0x114>
/home/optee/RPi3/optee_os/lib/libmpa/mpa_mul.c:147
    cfd0:	b9405ba0 	ldr	w0, [x29,#88]
    cfd4:	d37ef400 	lsl	x0, x0, #2
    cfd8:	f9402ba1 	ldr	x1, [x29,#80]
    cfdc:	8b000020 	add	x0, x1, x0
    cfe0:	b9403fa1 	ldr	w1, [x29,#60]
    cfe4:	b9000001 	str	w1, [x0]
/home/optee/RPi3/optee_os/lib/libmpa/mpa_mul.c:148 (discriminator 2)
    cfe8:	f94027a0 	ldr	x0, [x29,#72]
    cfec:	91001000 	add	x0, x0, #0x4
    cff0:	f90027a0 	str	x0, [x29,#72]
/home/optee/RPi3/optee_os/lib/libmpa/mpa_mul.c:149 (discriminator 2)
    cff4:	f9402ba0 	ldr	x0, [x29,#80]
    cff8:	91001000 	add	x0, x0, #0x4
    cffc:	f9002ba0 	str	x0, [x29,#80]
/home/optee/RPi3/optee_os/lib/libmpa/mpa_mul.c:139 (discriminator 2)
    d000:	b9405fa0 	ldr	w0, [x29,#92]
    d004:	11000400 	add	w0, w0, #0x1
    d008:	b9005fa0 	str	w0, [x29,#92]
/home/optee/RPi3/optee_os/lib/libmpa/mpa_mul.c:139 (discriminator 1)
    d00c:	f94013a0 	ldr	x0, [x29,#32]
    d010:	b9400400 	ldr	w0, [x0,#4]
    d014:	6b1f001f 	cmp	w0, wzr
    d018:	5a80a400 	cneg	w0, w0, lt
    d01c:	2a0003e1 	mov	w1, w0
    d020:	b9405fa0 	ldr	w0, [x29,#92]
    d024:	6b00003f 	cmp	w1, w0
    d028:	54fff8a8 	b.hi	cf3c <__mpa_abs_mul+0x68>
/home/optee/RPi3/optee_os/lib/libmpa/mpa_mul.c:151
    d02c:	b9405fa1 	ldr	w1, [x29,#92]
    d030:	b9405ba0 	ldr	w0, [x29,#88]
    d034:	0b000020 	add	w0, w1, w0
    d038:	51000400 	sub	w0, w0, #0x1
    d03c:	2a0003e1 	mov	w1, w0
    d040:	f94017a0 	ldr	x0, [x29,#40]
    d044:	b9000401 	str	w1, [x0,#4]
/home/optee/RPi3/optee_os/lib/libmpa/mpa_mul.c:152
    d048:	b9403fa0 	ldr	w0, [x29,#60]
    d04c:	6b1f001f 	cmp	w0, wzr
    d050:	540000c0 	b.eq	d068 <__mpa_abs_mul+0x194>
/home/optee/RPi3/optee_os/lib/libmpa/mpa_mul.c:153
    d054:	f94017a0 	ldr	x0, [x29,#40]
    d058:	b9400400 	ldr	w0, [x0,#4]
    d05c:	11000401 	add	w1, w0, #0x1
    d060:	f94017a0 	ldr	x0, [x29,#40]
    d064:	b9000401 	str	w1, [x0,#4]
/home/optee/RPi3/optee_os/lib/libmpa/mpa_mul.c:154
    d068:	d503201f 	nop
    d06c:	a8c67bfd 	ldp	x29, x30, [sp],#96
    d070:	d65f03c0 	ret

000000000000d074 <mpa_mul>:
mpa_mul():
/home/optee/RPi3/optee_os/lib/libmpa/mpa_mul.c:169
    d074:	a9bc7bfd 	stp	x29, x30, [sp,#-64]!
    d078:	910003fd 	mov	x29, sp
    d07c:	f90017a0 	str	x0, [x29,#40]
    d080:	f90013a1 	str	x1, [x29,#32]
    d084:	f9000fa2 	str	x2, [x29,#24]
    d088:	f9000ba3 	str	x3, [x29,#16]
/home/optee/RPi3/optee_os/lib/libmpa/mpa_mul.c:173
    d08c:	f94013a0 	ldr	x0, [x29,#32]
    d090:	b9400400 	ldr	w0, [x0,#4]
    d094:	6b1f001f 	cmp	w0, wzr
    d098:	540000a0 	b.eq	d0ac <mpa_mul+0x38>
/home/optee/RPi3/optee_os/lib/libmpa/mpa_mul.c:173 (discriminator 1)
    d09c:	f9400fa0 	ldr	x0, [x29,#24]
    d0a0:	b9400400 	ldr	w0, [x0,#4]
    d0a4:	6b1f001f 	cmp	w0, wzr
    d0a8:	540000a1 	b.ne	d0bc <mpa_mul+0x48>
/home/optee/RPi3/optee_os/lib/libmpa/mpa_mul.c:174
    d0ac:	52800001 	mov	w1, #0x0                   	// #0
    d0b0:	f94017a0 	ldr	x0, [x29,#40]
    d0b4:	97fff71c 	bl	ad24 <mpa_set_word>
    d0b8:	14000039 	b	d19c <mpa_mul+0x128>
/home/optee/RPi3/optee_os/lib/libmpa/mpa_mul.c:179
    d0bc:	f94017a1 	ldr	x1, [x29,#40]
    d0c0:	f94013a0 	ldr	x0, [x29,#32]
    d0c4:	eb00003f 	cmp	x1, x0
    d0c8:	540000a0 	b.eq	d0dc <mpa_mul+0x68>
/home/optee/RPi3/optee_os/lib/libmpa/mpa_mul.c:179 (discriminator 2)
    d0cc:	f94017a1 	ldr	x1, [x29,#40]
    d0d0:	f9400fa0 	ldr	x0, [x29,#24]
    d0d4:	eb00003f 	cmp	x1, x0
    d0d8:	54000061 	b.ne	d0e4 <mpa_mul+0x70>
/home/optee/RPi3/optee_os/lib/libmpa/mpa_mul.c:179 (discriminator 3)
    d0dc:	52800020 	mov	w0, #0x1                   	// #1
    d0e0:	14000002 	b	d0e8 <mpa_mul+0x74>
/home/optee/RPi3/optee_os/lib/libmpa/mpa_mul.c:179 (discriminator 4)
    d0e4:	52800000 	mov	w0, #0x0                   	// #0
/home/optee/RPi3/optee_os/lib/libmpa/mpa_mul.c:179 (discriminator 6)
    d0e8:	3900ffa0 	strb	w0, [x29,#63]
/home/optee/RPi3/optee_os/lib/libmpa/mpa_mul.c:180 (discriminator 6)
    d0ec:	3940ffa0 	ldrb	w0, [x29,#63]
    d0f0:	6b1f001f 	cmp	w0, wzr
    d0f4:	540000a0 	b.eq	d108 <mpa_mul+0x94>
/home/optee/RPi3/optee_os/lib/libmpa/mpa_mul.c:181
    d0f8:	9100c3a0 	add	x0, x29, #0x30
    d0fc:	f9400ba1 	ldr	x1, [x29,#16]
    d100:	97fffeac 	bl	cbb0 <mpa_alloc_static_temp_var>
    d104:	14000003 	b	d110 <mpa_mul+0x9c>
/home/optee/RPi3/optee_os/lib/libmpa/mpa_mul.c:183
    d108:	f94017a0 	ldr	x0, [x29,#40]
    d10c:	f9001ba0 	str	x0, [x29,#48]
/home/optee/RPi3/optee_os/lib/libmpa/mpa_mul.c:185
    d110:	f9401ba0 	ldr	x0, [x29,#48]
    d114:	f9400fa2 	ldr	x2, [x29,#24]
    d118:	f94013a1 	ldr	x1, [x29,#32]
    d11c:	97ffff6e 	bl	ced4 <__mpa_abs_mul>
/home/optee/RPi3/optee_os/lib/libmpa/mpa_mul.c:187
    d120:	f94013a0 	ldr	x0, [x29,#32]
    d124:	b9400400 	ldr	w0, [x0,#4]
    d128:	6b1f001f 	cmp	w0, wzr
    d12c:	5400006b 	b.lt	d138 <mpa_mul+0xc4>
/home/optee/RPi3/optee_os/lib/libmpa/mpa_mul.c:187 (discriminator 1)
    d130:	52800021 	mov	w1, #0x1                   	// #1
    d134:	14000002 	b	d13c <mpa_mul+0xc8>
/home/optee/RPi3/optee_os/lib/libmpa/mpa_mul.c:187 (discriminator 2)
    d138:	12800001 	mov	w1, #0xffffffff            	// #-1
/home/optee/RPi3/optee_os/lib/libmpa/mpa_mul.c:187 (discriminator 4)
    d13c:	f9400fa0 	ldr	x0, [x29,#24]
    d140:	b9400400 	ldr	w0, [x0,#4]
    d144:	6b1f001f 	cmp	w0, wzr
    d148:	5400006b 	b.lt	d154 <mpa_mul+0xe0>
/home/optee/RPi3/optee_os/lib/libmpa/mpa_mul.c:187 (discriminator 5)
    d14c:	52800020 	mov	w0, #0x1                   	// #1
    d150:	14000002 	b	d158 <mpa_mul+0xe4>
/home/optee/RPi3/optee_os/lib/libmpa/mpa_mul.c:187 (discriminator 6)
    d154:	12800000 	mov	w0, #0xffffffff            	// #-1
/home/optee/RPi3/optee_os/lib/libmpa/mpa_mul.c:187 (discriminator 8)
    d158:	6b00003f 	cmp	w1, w0
    d15c:	540000c0 	b.eq	d174 <mpa_mul+0x100>
/home/optee/RPi3/optee_os/lib/libmpa/mpa_mul.c:188
    d160:	f9401ba0 	ldr	x0, [x29,#48]
    d164:	f9401ba1 	ldr	x1, [x29,#48]
    d168:	b9400421 	ldr	w1, [x1,#4]
    d16c:	4b0103e1 	neg	w1, w1
    d170:	b9000401 	str	w1, [x0,#4]
/home/optee/RPi3/optee_os/lib/libmpa/mpa_mul.c:190
    d174:	f9401ba0 	ldr	x0, [x29,#48]
    d178:	aa0003e1 	mov	x1, x0
    d17c:	f94017a0 	ldr	x0, [x29,#40]
    d180:	97fff301 	bl	9d84 <mpa_copy>
/home/optee/RPi3/optee_os/lib/libmpa/mpa_mul.c:191
    d184:	3940ffa0 	ldrb	w0, [x29,#63]
    d188:	6b1f001f 	cmp	w0, wzr
    d18c:	54000080 	b.eq	d19c <mpa_mul+0x128>
/home/optee/RPi3/optee_os/lib/libmpa/mpa_mul.c:192
    d190:	9100c3a0 	add	x0, x29, #0x30
    d194:	f9400ba1 	ldr	x1, [x29,#16]
    d198:	97fffe91 	bl	cbdc <mpa_free_static_temp_var>
/home/optee/RPi3/optee_os/lib/libmpa/mpa_mul.c:193
    d19c:	a8c47bfd 	ldp	x29, x30, [sp],#64
    d1a0:	d65f03c0 	ret

000000000000d1a4 <mpa_mul_word>:
mpa_mul_word():
/home/optee/RPi3/optee_os/lib/libmpa/mpa_mul.c:202
    d1a4:	a9bc7bfd 	stp	x29, x30, [sp,#-64]!
    d1a8:	910003fd 	mov	x29, sp
    d1ac:	f90017a0 	str	x0, [x29,#40]
    d1b0:	f90013a1 	str	x1, [x29,#32]
    d1b4:	b9001fa2 	str	w2, [x29,#28]
    d1b8:	f9000ba3 	str	x3, [x29,#16]
/home/optee/RPi3/optee_os/lib/libmpa/mpa_mul.c:207
    d1bc:	f94013a0 	ldr	x0, [x29,#32]
    d1c0:	b9400400 	ldr	w0, [x0,#4]
    d1c4:	6b1f001f 	cmp	w0, wzr
    d1c8:	54000080 	b.eq	d1d8 <mpa_mul_word+0x34>
/home/optee/RPi3/optee_os/lib/libmpa/mpa_mul.c:207 (discriminator 1)
    d1cc:	b9401fa0 	ldr	w0, [x29,#28]
    d1d0:	6b1f001f 	cmp	w0, wzr
    d1d4:	540000a1 	b.ne	d1e8 <mpa_mul_word+0x44>
/home/optee/RPi3/optee_os/lib/libmpa/mpa_mul.c:208
    d1d8:	52800001 	mov	w1, #0x0                   	// #0
    d1dc:	f94017a0 	ldr	x0, [x29,#40]
    d1e0:	97fff6d1 	bl	ad24 <mpa_set_word>
    d1e4:	1400002e 	b	d29c <mpa_mul_word+0xf8>
/home/optee/RPi3/optee_os/lib/libmpa/mpa_mul.c:212
    d1e8:	f94013a0 	ldr	x0, [x29,#32]
    d1ec:	b9400400 	ldr	w0, [x0,#4]
    d1f0:	6b1f001f 	cmp	w0, wzr
    d1f4:	5400006b 	b.lt	d200 <mpa_mul_word+0x5c>
/home/optee/RPi3/optee_os/lib/libmpa/mpa_mul.c:212 (discriminator 1)
    d1f8:	52800020 	mov	w0, #0x1                   	// #1
    d1fc:	14000002 	b	d204 <mpa_mul_word+0x60>
/home/optee/RPi3/optee_os/lib/libmpa/mpa_mul.c:212 (discriminator 2)
    d200:	12800000 	mov	w0, #0xffffffff            	// #-1
/home/optee/RPi3/optee_os/lib/libmpa/mpa_mul.c:212 (discriminator 4)
    d204:	b9003fa0 	str	w0, [x29,#60]
/home/optee/RPi3/optee_os/lib/libmpa/mpa_mul.c:215 (discriminator 4)
    d208:	f94017a1 	ldr	x1, [x29,#40]
    d20c:	f94013a0 	ldr	x0, [x29,#32]
    d210:	eb00003f 	cmp	x1, x0
    d214:	1a9f17e0 	cset	w0, eq
    d218:	53001c00 	uxtb	w0, w0
    d21c:	3900efa0 	strb	w0, [x29,#59]
/home/optee/RPi3/optee_os/lib/libmpa/mpa_mul.c:216 (discriminator 4)
    d220:	3940efa0 	ldrb	w0, [x29,#59]
    d224:	6b1f001f 	cmp	w0, wzr
    d228:	540000a0 	b.eq	d23c <mpa_mul_word+0x98>
/home/optee/RPi3/optee_os/lib/libmpa/mpa_mul.c:217
    d22c:	9100c3a0 	add	x0, x29, #0x30
    d230:	f9400ba1 	ldr	x1, [x29,#16]
    d234:	97fffe5f 	bl	cbb0 <mpa_alloc_static_temp_var>
    d238:	14000003 	b	d244 <mpa_mul_word+0xa0>
/home/optee/RPi3/optee_os/lib/libmpa/mpa_mul.c:219
    d23c:	f94017a0 	ldr	x0, [x29,#40]
    d240:	f9001ba0 	str	x0, [x29,#48]
/home/optee/RPi3/optee_os/lib/libmpa/mpa_mul.c:221
    d244:	f9401ba0 	ldr	x0, [x29,#48]
    d248:	b9401fa2 	ldr	w2, [x29,#28]
    d24c:	f94013a1 	ldr	x1, [x29,#32]
    d250:	97fffedb 	bl	cdbc <__mpa_abs_mul_word>
/home/optee/RPi3/optee_os/lib/libmpa/mpa_mul.c:223
    d254:	b9403fa0 	ldr	w0, [x29,#60]
    d258:	3100041f 	cmn	w0, #0x1
    d25c:	540000c1 	b.ne	d274 <mpa_mul_word+0xd0>
/home/optee/RPi3/optee_os/lib/libmpa/mpa_mul.c:224
    d260:	f9401ba0 	ldr	x0, [x29,#48]
    d264:	f9401ba1 	ldr	x1, [x29,#48]
    d268:	b9400421 	ldr	w1, [x1,#4]
    d26c:	4b0103e1 	neg	w1, w1
    d270:	b9000401 	str	w1, [x0,#4]
/home/optee/RPi3/optee_os/lib/libmpa/mpa_mul.c:225
    d274:	f9401ba0 	ldr	x0, [x29,#48]
    d278:	aa0003e1 	mov	x1, x0
    d27c:	f94017a0 	ldr	x0, [x29,#40]
    d280:	97fff2c1 	bl	9d84 <mpa_copy>
/home/optee/RPi3/optee_os/lib/libmpa/mpa_mul.c:226
    d284:	3940efa0 	ldrb	w0, [x29,#59]
    d288:	6b1f001f 	cmp	w0, wzr
    d28c:	54000080 	b.eq	d29c <mpa_mul_word+0xf8>
/home/optee/RPi3/optee_os/lib/libmpa/mpa_mul.c:227
    d290:	9100c3a0 	add	x0, x29, #0x30
    d294:	f9400ba1 	ldr	x1, [x29,#16]
    d298:	97fffe51 	bl	cbdc <mpa_free_static_temp_var>
/home/optee/RPi3/optee_os/lib/libmpa/mpa_mul.c:228
    d29c:	a8c47bfd 	ldp	x29, x30, [sp],#64
    d2a0:	d65f03c0 	ret

000000000000d2a4 <mpa_set_random_generator>:
mpa_set_random_generator():
/home/optee/RPi3/optee_os/lib/libmpa/mpa_random.c:33
    d2a4:	d10043ff 	sub	sp, sp, #0x10
    d2a8:	f90007e0 	str	x0, [sp,#8]
/home/optee/RPi3/optee_os/lib/libmpa/mpa_random.c:34
    d2ac:	f0000060 	adrp	x0, 1c000 <mempool_u32+0xe80>
    d2b0:	91344000 	add	x0, x0, #0xd10
    d2b4:	f94007e1 	ldr	x1, [sp,#8]
    d2b8:	f9000001 	str	x1, [x0]
/home/optee/RPi3/optee_os/lib/libmpa/mpa_random.c:35
    d2bc:	d503201f 	nop
    d2c0:	910043ff 	add	sp, sp, #0x10
    d2c4:	d65f03c0 	ret

000000000000d2c8 <get_random_byte>:
get_random_byte():
/home/optee/RPi3/optee_os/lib/libmpa/mpa_random.c:38
    d2c8:	a9be7bfd 	stp	x29, x30, [sp,#-32]!
    d2cc:	910003fd 	mov	x29, sp
/home/optee/RPi3/optee_os/lib/libmpa/mpa_random.c:40
    d2d0:	d503201f 	nop
/home/optee/RPi3/optee_os/lib/libmpa/mpa_random.c:40 (discriminator 1)
    d2d4:	f0000060 	adrp	x0, 1c000 <mempool_u32+0xe80>
    d2d8:	91344000 	add	x0, x0, #0xd10
    d2dc:	f9400002 	ldr	x2, [x0]
    d2e0:	91007fa0 	add	x0, x29, #0x1f
    d2e4:	d2800021 	mov	x1, #0x1                   	// #1
    d2e8:	d63f0040 	blr	x2
    d2ec:	6b1f001f 	cmp	w0, wzr
    d2f0:	54ffff21 	b.ne	d2d4 <get_random_byte+0xc>
/home/optee/RPi3/optee_os/lib/libmpa/mpa_random.c:43
    d2f4:	39407fa0 	ldrb	w0, [x29,#31]
/home/optee/RPi3/optee_os/lib/libmpa/mpa_random.c:44
    d2f8:	a8c27bfd 	ldp	x29, x30, [sp],#32
    d2fc:	d65f03c0 	ret

000000000000d300 <mpa_get_random>:
mpa_get_random():
/home/optee/RPi3/optee_os/lib/libmpa/mpa_random.c:52
    d300:	a9bb7bfd 	stp	x29, x30, [sp,#-80]!
    d304:	910003fd 	mov	x29, sp
    d308:	f9000bf3 	str	x19, [sp,#16]
    d30c:	f90017a0 	str	x0, [x29,#40]
    d310:	f90013a1 	str	x1, [x29,#32]
/home/optee/RPi3/optee_os/lib/libmpa/mpa_random.c:53
    d314:	b9004fbf 	str	wzr, [x29,#76]
/home/optee/RPi3/optee_os/lib/libmpa/mpa_random.c:55
    d318:	f94017a0 	ldr	x0, [x29,#40]
    d31c:	97fff288 	bl	9d3c <mpa_wipe>
/home/optee/RPi3/optee_os/lib/libmpa/mpa_random.c:56
    d320:	f94017a0 	ldr	x0, [x29,#40]
    d324:	b9400001 	ldr	w1, [x0]
    d328:	f94013a0 	ldr	x0, [x29,#32]
    d32c:	b9400400 	ldr	w0, [x0,#4]
    d330:	6b1f001f 	cmp	w0, wzr
    d334:	5a80a400 	cneg	w0, w0, lt
    d338:	6b00003f 	cmp	w1, w0
    d33c:	540000e2 	b.cs	d358 <mpa_get_random+0x58>
/home/optee/RPi3/optee_os/lib/libmpa/mpa_random.c:57
    d340:	f94017a0 	ldr	x0, [x29,#40]
    d344:	b9400000 	ldr	w0, [x0]
    d348:	2a0003e1 	mov	w1, w0
    d34c:	f94017a0 	ldr	x0, [x29,#40]
    d350:	b9000401 	str	w1, [x0,#4]
    d354:	14000059 	b	d4b8 <mpa_get_random+0x1b8>
/home/optee/RPi3/optee_os/lib/libmpa/mpa_random.c:59
    d358:	f94013a0 	ldr	x0, [x29,#32]
    d35c:	b9400400 	ldr	w0, [x0,#4]
    d360:	6b1f001f 	cmp	w0, wzr
    d364:	5a80a401 	cneg	w1, w0, lt
    d368:	f94017a0 	ldr	x0, [x29,#40]
    d36c:	b9000401 	str	w1, [x0,#4]
/home/optee/RPi3/optee_os/lib/libmpa/mpa_random.c:60
    d370:	14000052 	b	d4b8 <mpa_get_random+0x1b8>
/home/optee/RPi3/optee_os/lib/libmpa/mpa_random.c:61
    d374:	b9004bbf 	str	wzr, [x29,#72]
    d378:	14000019 	b	d3dc <mpa_get_random+0xdc>
/home/optee/RPi3/optee_os/lib/libmpa/mpa_random.c:62
    d37c:	b90047bf 	str	wzr, [x29,#68]
/home/optee/RPi3/optee_os/lib/libmpa/mpa_random.c:63
    d380:	b90043bf 	str	wzr, [x29,#64]
    d384:	1400000a 	b	d3ac <mpa_get_random+0xac>
/home/optee/RPi3/optee_os/lib/libmpa/mpa_random.c:64 (discriminator 3)
    d388:	b94047a0 	ldr	w0, [x29,#68]
    d38c:	53185c13 	lsl	w19, w0, #8
    d390:	97ffffce 	bl	d2c8 <get_random_byte>
    d394:	53001c00 	uxtb	w0, w0
    d398:	4a000260 	eor	w0, w19, w0
    d39c:	b90047a0 	str	w0, [x29,#68]
/home/optee/RPi3/optee_os/lib/libmpa/mpa_random.c:63 (discriminator 3)
    d3a0:	b94043a0 	ldr	w0, [x29,#64]
    d3a4:	11000400 	add	w0, w0, #0x1
    d3a8:	b90043a0 	str	w0, [x29,#64]
/home/optee/RPi3/optee_os/lib/libmpa/mpa_random.c:63 (discriminator 1)
    d3ac:	b94043a0 	ldr	w0, [x29,#64]
    d3b0:	71000c1f 	cmp	w0, #0x3
    d3b4:	54fffead 	b.le	d388 <mpa_get_random+0x88>
/home/optee/RPi3/optee_os/lib/libmpa/mpa_random.c:65 (discriminator 2)
    d3b8:	f94017a1 	ldr	x1, [x29,#40]
    d3bc:	b9804ba0 	ldrsw	x0, [x29,#72]
    d3c0:	d37ef400 	lsl	x0, x0, #2
    d3c4:	8b000020 	add	x0, x1, x0
    d3c8:	b94047a1 	ldr	w1, [x29,#68]
    d3cc:	b9000801 	str	w1, [x0,#8]
/home/optee/RPi3/optee_os/lib/libmpa/mpa_random.c:61 (discriminator 2)
    d3d0:	b9404ba0 	ldr	w0, [x29,#72]
    d3d4:	11000400 	add	w0, w0, #0x1
    d3d8:	b9004ba0 	str	w0, [x29,#72]
/home/optee/RPi3/optee_os/lib/libmpa/mpa_random.c:61 (discriminator 1)
    d3dc:	f94017a0 	ldr	x0, [x29,#40]
    d3e0:	b9400401 	ldr	w1, [x0,#4]
    d3e4:	b9404ba0 	ldr	w0, [x29,#72]
    d3e8:	6b00003f 	cmp	w1, w0
    d3ec:	54fffc8c 	b.gt	d37c <mpa_get_random+0x7c>
/home/optee/RPi3/optee_os/lib/libmpa/mpa_random.c:67
    d3f0:	f94017a0 	ldr	x0, [x29,#40]
    d3f4:	b9400401 	ldr	w1, [x0,#4]
    d3f8:	f94013a0 	ldr	x0, [x29,#32]
    d3fc:	b9400400 	ldr	w0, [x0,#4]
    d400:	6b1f001f 	cmp	w0, wzr
    d404:	5a80a400 	cneg	w0, w0, lt
    d408:	6b00003f 	cmp	w1, w0
    d40c:	5400008a 	b.ge	d41c <mpa_get_random+0x11c>
/home/optee/RPi3/optee_os/lib/libmpa/mpa_random.c:68
    d410:	52800020 	mov	w0, #0x1                   	// #1
    d414:	b9004fa0 	str	w0, [x29,#76]
    d418:	14000028 	b	d4b8 <mpa_get_random+0x1b8>
/home/optee/RPi3/optee_os/lib/libmpa/mpa_random.c:71
    d41c:	f94013a0 	ldr	x0, [x29,#32]
    d420:	97fff289 	bl	9e44 <mpa_highest_bit_index>
/home/optee/RPi3/optee_os/lib/libmpa/mpa_random.c:70
    d424:	b9003fa0 	str	w0, [x29,#60]
/home/optee/RPi3/optee_os/lib/libmpa/mpa_random.c:73
    d428:	b9403fa0 	ldr	w0, [x29,#60]
    d42c:	12001000 	and	w0, w0, #0x1f
    d430:	11000400 	add	w0, w0, #0x1
    d434:	b9003fa0 	str	w0, [x29,#60]
/home/optee/RPi3/optee_os/lib/libmpa/mpa_random.c:74
    d438:	b9403fa0 	ldr	w0, [x29,#60]
    d43c:	71007c1f 	cmp	w0, #0x1f
    d440:	54000308 	b.hi	d4a0 <mpa_get_random+0x1a0>
/home/optee/RPi3/optee_os/lib/libmpa/mpa_random.c:75
    d444:	b9403fa0 	ldr	w0, [x29,#60]
    d448:	52800021 	mov	w1, #0x1                   	// #1
    d44c:	1ac02020 	lsl	w0, w1, w0
    d450:	51000400 	sub	w0, w0, #0x1
    d454:	b9003fa0 	str	w0, [x29,#60]
/home/optee/RPi3/optee_os/lib/libmpa/mpa_random.c:76
    d458:	f94017a0 	ldr	x0, [x29,#40]
    d45c:	b9400400 	ldr	w0, [x0,#4]
    d460:	51000403 	sub	w3, w0, #0x1
    d464:	f94017a0 	ldr	x0, [x29,#40]
    d468:	b9400400 	ldr	w0, [x0,#4]
    d46c:	51000400 	sub	w0, w0, #0x1
    d470:	f94017a1 	ldr	x1, [x29,#40]
    d474:	93407c00 	sxtw	x0, w0
    d478:	d37ef400 	lsl	x0, x0, #2
    d47c:	8b000020 	add	x0, x1, x0
    d480:	b9400801 	ldr	w1, [x0,#8]
    d484:	b9403fa0 	ldr	w0, [x29,#60]
    d488:	0a000021 	and	w1, w1, w0
    d48c:	f94017a2 	ldr	x2, [x29,#40]
    d490:	93407c60 	sxtw	x0, w3
    d494:	d37ef400 	lsl	x0, x0, #2
    d498:	8b000040 	add	x0, x2, x0
    d49c:	b9000801 	str	w1, [x0,#8]
/home/optee/RPi3/optee_os/lib/libmpa/mpa_random.c:78
    d4a0:	f94013a1 	ldr	x1, [x29,#32]
    d4a4:	f94017a0 	ldr	x0, [x29,#40]
    d4a8:	940006be 	bl	efa0 <mpa_cmp>
    d4ac:	531f7c00 	lsr	w0, w0, #31
    d4b0:	53001c00 	uxtb	w0, w0
    d4b4:	b9004fa0 	str	w0, [x29,#76]
/home/optee/RPi3/optee_os/lib/libmpa/mpa_random.c:60
    d4b8:	b9404fa0 	ldr	w0, [x29,#76]
    d4bc:	6b1f001f 	cmp	w0, wzr
    d4c0:	54fff5a0 	b.eq	d374 <mpa_get_random+0x74>
/home/optee/RPi3/optee_os/lib/libmpa/mpa_random.c:81
    d4c4:	d503201f 	nop
    d4c8:	f9400bf3 	ldr	x19, [sp,#16]
    d4cc:	a8c57bfd 	ldp	x29, x30, [sp],#80
    d4d0:	d65f03c0 	ret

000000000000d4d4 <__mpa_shift_words_left>:
__mpa_shift_words_left():
/home/optee/RPi3/optee_os/lib/libmpa/mpa_shift.c:41
    d4d4:	a9bd7bfd 	stp	x29, x30, [sp,#-48]!
    d4d8:	910003fd 	mov	x29, sp
    d4dc:	f9000fa0 	str	x0, [x29,#24]
    d4e0:	b90017a1 	str	w1, [x29,#20]
/home/optee/RPi3/optee_os/lib/libmpa/mpa_shift.c:44
    d4e4:	b94017a0 	ldr	w0, [x29,#20]
    d4e8:	6b1f001f 	cmp	w0, wzr
    d4ec:	54000860 	b.eq	d5f8 <__mpa_shift_words_left+0x124>
/home/optee/RPi3/optee_os/lib/libmpa/mpa_shift.c:44 (discriminator 1)
    d4f0:	f9400fa0 	ldr	x0, [x29,#24]
    d4f4:	b9400400 	ldr	w0, [x0,#4]
    d4f8:	6b1f001f 	cmp	w0, wzr
    d4fc:	540007e0 	b.eq	d5f8 <__mpa_shift_words_left+0x124>
/home/optee/RPi3/optee_os/lib/libmpa/mpa_shift.c:46
    d500:	f9400fa0 	ldr	x0, [x29,#24]
    d504:	b9400400 	ldr	w0, [x0,#4]
    d508:	6b1f001f 	cmp	w0, wzr
    d50c:	5a80a400 	cneg	w0, w0, lt
    d510:	2a0003e1 	mov	w1, w0
    d514:	b94017a0 	ldr	w0, [x29,#20]
    d518:	0b000020 	add	w0, w1, w0
    d51c:	51000400 	sub	w0, w0, #0x1
    d520:	b9002fa0 	str	w0, [x29,#44]
    d524:	14000011 	b	d568 <__mpa_shift_words_left+0x94>
/home/optee/RPi3/optee_os/lib/libmpa/mpa_shift.c:47 (discriminator 3)
    d528:	b9402fa1 	ldr	w1, [x29,#44]
    d52c:	b94017a0 	ldr	w0, [x29,#20]
    d530:	4b000020 	sub	w0, w1, w0
    d534:	f9400fa1 	ldr	x1, [x29,#24]
    d538:	2a0003e0 	mov	w0, w0
    d53c:	d37ef400 	lsl	x0, x0, #2
    d540:	8b000020 	add	x0, x1, x0
    d544:	b9400801 	ldr	w1, [x0,#8]
    d548:	f9400fa2 	ldr	x2, [x29,#24]
    d54c:	b9402fa0 	ldr	w0, [x29,#44]
    d550:	d37ef400 	lsl	x0, x0, #2
    d554:	8b000040 	add	x0, x2, x0
    d558:	b9000801 	str	w1, [x0,#8]
/home/optee/RPi3/optee_os/lib/libmpa/mpa_shift.c:46 (discriminator 3)
    d55c:	b9402fa0 	ldr	w0, [x29,#44]
    d560:	51000400 	sub	w0, w0, #0x1
    d564:	b9002fa0 	str	w0, [x29,#44]
/home/optee/RPi3/optee_os/lib/libmpa/mpa_shift.c:46 (discriminator 1)
    d568:	b94017a0 	ldr	w0, [x29,#20]
    d56c:	51000401 	sub	w1, w0, #0x1
    d570:	b9402fa0 	ldr	w0, [x29,#44]
    d574:	6b00003f 	cmp	w1, w0
    d578:	54fffd83 	b.cc	d528 <__mpa_shift_words_left+0x54>
/home/optee/RPi3/optee_os/lib/libmpa/mpa_shift.c:49
    d57c:	f9400fa0 	ldr	x0, [x29,#24]
    d580:	91002003 	add	x3, x0, #0x8
    d584:	b94017a0 	ldr	w0, [x29,#20]
    d588:	531e7400 	lsl	w0, w0, #2
    d58c:	2a0003e0 	mov	w0, w0
    d590:	aa0003e2 	mov	x2, x0
    d594:	52800001 	mov	w1, #0x0                   	// #0
    d598:	aa0303e0 	mov	x0, x3
    d59c:	97ffe6e8 	bl	713c <memset>
/home/optee/RPi3/optee_os/lib/libmpa/mpa_shift.c:52
    d5a0:	f9400fa0 	ldr	x0, [x29,#24]
    d5a4:	b9400400 	ldr	w0, [x0,#4]
    d5a8:	6b1f001f 	cmp	w0, wzr
    d5ac:	5400014d 	b.le	d5d4 <__mpa_shift_words_left+0x100>
/home/optee/RPi3/optee_os/lib/libmpa/mpa_shift.c:53
    d5b0:	f9400fa0 	ldr	x0, [x29,#24]
    d5b4:	b9400400 	ldr	w0, [x0,#4]
    d5b8:	2a0003e1 	mov	w1, w0
    d5bc:	b94017a0 	ldr	w0, [x29,#20]
    d5c0:	0b000020 	add	w0, w1, w0
    d5c4:	2a0003e1 	mov	w1, w0
    d5c8:	f9400fa0 	ldr	x0, [x29,#24]
    d5cc:	b9000401 	str	w1, [x0,#4]
    d5d0:	1400000b 	b	d5fc <__mpa_shift_words_left+0x128>
/home/optee/RPi3/optee_os/lib/libmpa/mpa_shift.c:55
    d5d4:	f9400fa0 	ldr	x0, [x29,#24]
    d5d8:	b9400400 	ldr	w0, [x0,#4]
    d5dc:	2a0003e1 	mov	w1, w0
    d5e0:	b94017a0 	ldr	w0, [x29,#20]
    d5e4:	4b000020 	sub	w0, w1, w0
    d5e8:	2a0003e1 	mov	w1, w0
    d5ec:	f9400fa0 	ldr	x0, [x29,#24]
    d5f0:	b9000401 	str	w1, [x0,#4]
    d5f4:	14000002 	b	d5fc <__mpa_shift_words_left+0x128>
/home/optee/RPi3/optee_os/lib/libmpa/mpa_shift.c:45
    d5f8:	d503201f 	nop
/home/optee/RPi3/optee_os/lib/libmpa/mpa_shift.c:56
    d5fc:	a8c37bfd 	ldp	x29, x30, [sp],#48
    d600:	d65f03c0 	ret

000000000000d604 <__mpa_shift_words_right>:
__mpa_shift_words_right():
/home/optee/RPi3/optee_os/lib/libmpa/mpa_shift.c:64
    d604:	a9bd7bfd 	stp	x29, x30, [sp,#-48]!
    d608:	910003fd 	mov	x29, sp
    d60c:	f9000fa0 	str	x0, [x29,#24]
    d610:	b90017a1 	str	w1, [x29,#20]
/home/optee/RPi3/optee_os/lib/libmpa/mpa_shift.c:67
    d614:	b94017a0 	ldr	w0, [x29,#20]
    d618:	6b1f001f 	cmp	w0, wzr
    d61c:	54000860 	b.eq	d728 <__mpa_shift_words_right+0x124>
/home/optee/RPi3/optee_os/lib/libmpa/mpa_shift.c:67 (discriminator 1)
    d620:	f9400fa0 	ldr	x0, [x29,#24]
    d624:	b9400400 	ldr	w0, [x0,#4]
    d628:	6b1f001f 	cmp	w0, wzr
    d62c:	540007e0 	b.eq	d728 <__mpa_shift_words_right+0x124>
/home/optee/RPi3/optee_os/lib/libmpa/mpa_shift.c:70
    d630:	f9400fa0 	ldr	x0, [x29,#24]
    d634:	b9400400 	ldr	w0, [x0,#4]
    d638:	6b1f001f 	cmp	w0, wzr
    d63c:	5a80a400 	cneg	w0, w0, lt
    d640:	2a0003e1 	mov	w1, w0
    d644:	b94017a0 	ldr	w0, [x29,#20]
    d648:	6b00003f 	cmp	w1, w0
    d64c:	540000a8 	b.hi	d660 <__mpa_shift_words_right+0x5c>
/home/optee/RPi3/optee_os/lib/libmpa/mpa_shift.c:71
    d650:	52800001 	mov	w1, #0x0                   	// #0
    d654:	f9400fa0 	ldr	x0, [x29,#24]
    d658:	97fff5b3 	bl	ad24 <mpa_set_word>
/home/optee/RPi3/optee_os/lib/libmpa/mpa_shift.c:72
    d65c:	14000034 	b	d72c <__mpa_shift_words_right+0x128>
/home/optee/RPi3/optee_os/lib/libmpa/mpa_shift.c:75
    d660:	b9002fbf 	str	wzr, [x29,#44]
    d664:	14000011 	b	d6a8 <__mpa_shift_words_right+0xa4>
/home/optee/RPi3/optee_os/lib/libmpa/mpa_shift.c:76 (discriminator 3)
    d668:	b9402fa1 	ldr	w1, [x29,#44]
    d66c:	b94017a0 	ldr	w0, [x29,#20]
    d670:	0b000020 	add	w0, w1, w0
    d674:	f9400fa1 	ldr	x1, [x29,#24]
    d678:	2a0003e0 	mov	w0, w0
    d67c:	d37ef400 	lsl	x0, x0, #2
    d680:	8b000020 	add	x0, x1, x0
    d684:	b9400801 	ldr	w1, [x0,#8]
    d688:	f9400fa2 	ldr	x2, [x29,#24]
    d68c:	b9402fa0 	ldr	w0, [x29,#44]
    d690:	d37ef400 	lsl	x0, x0, #2
    d694:	8b000040 	add	x0, x2, x0
    d698:	b9000801 	str	w1, [x0,#8]
/home/optee/RPi3/optee_os/lib/libmpa/mpa_shift.c:75 (discriminator 3)
    d69c:	b9402fa0 	ldr	w0, [x29,#44]
    d6a0:	11000400 	add	w0, w0, #0x1
    d6a4:	b9002fa0 	str	w0, [x29,#44]
/home/optee/RPi3/optee_os/lib/libmpa/mpa_shift.c:75 (discriminator 1)
    d6a8:	f9400fa0 	ldr	x0, [x29,#24]
    d6ac:	b9400400 	ldr	w0, [x0,#4]
    d6b0:	6b1f001f 	cmp	w0, wzr
    d6b4:	5a80a400 	cneg	w0, w0, lt
    d6b8:	2a0003e1 	mov	w1, w0
    d6bc:	b94017a0 	ldr	w0, [x29,#20]
    d6c0:	4b000021 	sub	w1, w1, w0
    d6c4:	b9402fa0 	ldr	w0, [x29,#44]
    d6c8:	6b00003f 	cmp	w1, w0
    d6cc:	54fffce8 	b.hi	d668 <__mpa_shift_words_right+0x64>
/home/optee/RPi3/optee_os/lib/libmpa/mpa_shift.c:79
    d6d0:	f9400fa0 	ldr	x0, [x29,#24]
    d6d4:	b9400400 	ldr	w0, [x0,#4]
    d6d8:	6b1f001f 	cmp	w0, wzr
    d6dc:	5400014d 	b.le	d704 <__mpa_shift_words_right+0x100>
/home/optee/RPi3/optee_os/lib/libmpa/mpa_shift.c:80
    d6e0:	f9400fa0 	ldr	x0, [x29,#24]
    d6e4:	b9400400 	ldr	w0, [x0,#4]
    d6e8:	2a0003e1 	mov	w1, w0
    d6ec:	b94017a0 	ldr	w0, [x29,#20]
    d6f0:	4b000020 	sub	w0, w1, w0
    d6f4:	2a0003e1 	mov	w1, w0
    d6f8:	f9400fa0 	ldr	x0, [x29,#24]
    d6fc:	b9000401 	str	w1, [x0,#4]
    d700:	1400000b 	b	d72c <__mpa_shift_words_right+0x128>
/home/optee/RPi3/optee_os/lib/libmpa/mpa_shift.c:82
    d704:	f9400fa0 	ldr	x0, [x29,#24]
    d708:	b9400400 	ldr	w0, [x0,#4]
    d70c:	2a0003e1 	mov	w1, w0
    d710:	b94017a0 	ldr	w0, [x29,#20]
    d714:	0b000020 	add	w0, w1, w0
    d718:	2a0003e1 	mov	w1, w0
    d71c:	f9400fa0 	ldr	x0, [x29,#24]
    d720:	b9000401 	str	w1, [x0,#4]
    d724:	14000002 	b	d72c <__mpa_shift_words_right+0x128>
/home/optee/RPi3/optee_os/lib/libmpa/mpa_shift.c:68
    d728:	d503201f 	nop
/home/optee/RPi3/optee_os/lib/libmpa/mpa_shift.c:83
    d72c:	a8c37bfd 	ldp	x29, x30, [sp],#48
    d730:	d65f03c0 	ret

000000000000d734 <mpa_shift_left>:
mpa_shift_left():
/home/optee/RPi3/optee_os/lib/libmpa/mpa_shift.c:98
    d734:	a9bb7bfd 	stp	x29, x30, [sp,#-80]!
    d738:	910003fd 	mov	x29, sp
    d73c:	f90017a0 	str	x0, [x29,#40]
    d740:	f90013a1 	str	x1, [x29,#32]
    d744:	b9001fa2 	str	w2, [x29,#28]
/home/optee/RPi3/optee_os/lib/libmpa/mpa_shift.c:110
    d748:	f94013a1 	ldr	x1, [x29,#32]
    d74c:	f94017a0 	ldr	x0, [x29,#40]
    d750:	97fff18d 	bl	9d84 <mpa_copy>
/home/optee/RPi3/optee_os/lib/libmpa/mpa_shift.c:111
    d754:	f94017a0 	ldr	x0, [x29,#40]
    d758:	97fff15f 	bl	9cd4 <__mpa_set_unused_digits_to_zero>
/home/optee/RPi3/optee_os/lib/libmpa/mpa_shift.c:112
    d75c:	b9401fa0 	ldr	w0, [x29,#28]
    d760:	6b1f001f 	cmp	w0, wzr
    d764:	54001a60 	b.eq	dab0 <mpa_shift_left+0x37c>
/home/optee/RPi3/optee_os/lib/libmpa/mpa_shift.c:112 (discriminator 1)
    d768:	f94017a0 	ldr	x0, [x29,#40]
    d76c:	b9400400 	ldr	w0, [x0,#4]
    d770:	6b1f001f 	cmp	w0, wzr
    d774:	540019e0 	b.eq	dab0 <mpa_shift_left+0x37c>
/home/optee/RPi3/optee_os/lib/libmpa/mpa_shift.c:115
    d778:	b9401fa0 	ldr	w0, [x29,#28]
    d77c:	12001000 	and	w0, w0, #0x1f
    d780:	b90047a0 	str	w0, [x29,#68]
/home/optee/RPi3/optee_os/lib/libmpa/mpa_shift.c:116
    d784:	b9401fa0 	ldr	w0, [x29,#28]
    d788:	53057c00 	lsr	w0, w0, #5
    d78c:	b90043a0 	str	w0, [x29,#64]
/home/optee/RPi3/optee_os/lib/libmpa/mpa_shift.c:130
    d790:	b9004bbf 	str	wzr, [x29,#72]
/home/optee/RPi3/optee_os/lib/libmpa/mpa_shift.c:132
    d794:	b94047a0 	ldr	w0, [x29,#68]
    d798:	6b1f001f 	cmp	w0, wzr
    d79c:	54000421 	b.ne	d820 <mpa_shift_left+0xec>
/home/optee/RPi3/optee_os/lib/libmpa/mpa_shift.c:136
    d7a0:	f94017a0 	ldr	x0, [x29,#40]
    d7a4:	b9400400 	ldr	w0, [x0,#4]
    d7a8:	6b1f001f 	cmp	w0, wzr
    d7ac:	5a80a400 	cneg	w0, w0, lt
    d7b0:	2a0003e1 	mov	w1, w0
    d7b4:	b94043a0 	ldr	w0, [x29,#64]
    d7b8:	0b000020 	add	w0, w1, w0
    d7bc:	51000400 	sub	w0, w0, #0x1
    d7c0:	b9004fa0 	str	w0, [x29,#76]
    d7c4:	14000011 	b	d808 <mpa_shift_left+0xd4>
/home/optee/RPi3/optee_os/lib/libmpa/mpa_shift.c:137 (discriminator 3)
    d7c8:	b9404fa1 	ldr	w1, [x29,#76]
    d7cc:	b94043a0 	ldr	w0, [x29,#64]
    d7d0:	4b000020 	sub	w0, w1, w0
    d7d4:	f94017a1 	ldr	x1, [x29,#40]
    d7d8:	2a0003e0 	mov	w0, w0
    d7dc:	d37ef400 	lsl	x0, x0, #2
    d7e0:	8b000020 	add	x0, x1, x0
    d7e4:	b9400801 	ldr	w1, [x0,#8]
    d7e8:	f94017a2 	ldr	x2, [x29,#40]
    d7ec:	b9404fa0 	ldr	w0, [x29,#76]
    d7f0:	d37ef400 	lsl	x0, x0, #2
    d7f4:	8b000040 	add	x0, x2, x0
    d7f8:	b9000801 	str	w1, [x0,#8]
/home/optee/RPi3/optee_os/lib/libmpa/mpa_shift.c:136 (discriminator 3)
    d7fc:	b9404fa0 	ldr	w0, [x29,#76]
    d800:	51000400 	sub	w0, w0, #0x1
    d804:	b9004fa0 	str	w0, [x29,#76]
/home/optee/RPi3/optee_os/lib/libmpa/mpa_shift.c:136 (discriminator 1)
    d808:	b94043a0 	ldr	w0, [x29,#64]
    d80c:	51000401 	sub	w1, w0, #0x1
    d810:	b9404fa0 	ldr	w0, [x29,#76]
    d814:	6b00003f 	cmp	w1, w0
    d818:	54fffd83 	b.cc	d7c8 <mpa_shift_left+0x94>
    d81c:	14000082 	b	da24 <mpa_shift_left+0x2f0>
/home/optee/RPi3/optee_os/lib/libmpa/mpa_shift.c:139
    d820:	f94017a0 	ldr	x0, [x29,#40]
    d824:	b9400400 	ldr	w0, [x0,#4]
    d828:	6b1f001f 	cmp	w0, wzr
    d82c:	5a80a400 	cneg	w0, w0, lt
    d830:	51000400 	sub	w0, w0, #0x1
    d834:	f94017a1 	ldr	x1, [x29,#40]
    d838:	93407c00 	sxtw	x0, w0
    d83c:	d37ef400 	lsl	x0, x0, #2
    d840:	8b000020 	add	x0, x1, x0
    d844:	b9400801 	ldr	w1, [x0,#8]
/home/optee/RPi3/optee_os/lib/libmpa/mpa_shift.c:140
    d848:	b94047a0 	ldr	w0, [x29,#68]
    d84c:	52800022 	mov	w2, #0x1                   	// #1
    d850:	1ac02040 	lsl	w0, w2, w0
    d854:	51000402 	sub	w2, w0, #0x1
    d858:	52800403 	mov	w3, #0x20                  	// #32
    d85c:	b94047a0 	ldr	w0, [x29,#68]
    d860:	4b000060 	sub	w0, w3, w0
    d864:	1ac02040 	lsl	w0, w2, w0
/home/optee/RPi3/optee_os/lib/libmpa/mpa_shift.c:139
    d868:	0a000020 	and	w0, w1, w0
    d86c:	6b1f001f 	cmp	w0, wzr
    d870:	54000060 	b.eq	d87c <mpa_shift_left+0x148>
/home/optee/RPi3/optee_os/lib/libmpa/mpa_shift.c:141
    d874:	52800020 	mov	w0, #0x1                   	// #1
    d878:	b9004ba0 	str	w0, [x29,#72]
/home/optee/RPi3/optee_os/lib/libmpa/mpa_shift.c:148
    d87c:	f94017a0 	ldr	x0, [x29,#40]
    d880:	b9400400 	ldr	w0, [x0,#4]
    d884:	6b1f001f 	cmp	w0, wzr
    d888:	5a80a400 	cneg	w0, w0, lt
    d88c:	2a0003e1 	mov	w1, w0
    d890:	b94043a0 	ldr	w0, [x29,#64]
    d894:	0b000021 	add	w1, w1, w0
    d898:	b9404ba0 	ldr	w0, [x29,#72]
    d89c:	0b000020 	add	w0, w1, w0
    d8a0:	b9004fa0 	str	w0, [x29,#76]
/home/optee/RPi3/optee_os/lib/libmpa/mpa_shift.c:149
    d8a4:	b9404ba0 	ldr	w0, [x29,#72]
    d8a8:	6b1f001f 	cmp	w0, wzr
    d8ac:	54000360 	b.eq	d918 <mpa_shift_left+0x1e4>
/home/optee/RPi3/optee_os/lib/libmpa/mpa_shift.c:150
    d8b0:	b9404fa1 	ldr	w1, [x29,#76]
    d8b4:	b94043a0 	ldr	w0, [x29,#64]
    d8b8:	4b000020 	sub	w0, w1, w0
    d8bc:	51000400 	sub	w0, w0, #0x1
    d8c0:	f94017a1 	ldr	x1, [x29,#40]
    d8c4:	2a0003e0 	mov	w0, w0
    d8c8:	d37ef400 	lsl	x0, x0, #2
    d8cc:	8b000020 	add	x0, x1, x0
    d8d0:	b9400801 	ldr	w1, [x0,#8]
    d8d4:	52800402 	mov	w2, #0x20                  	// #32
    d8d8:	b94047a0 	ldr	w0, [x29,#68]
    d8dc:	4b000040 	sub	w0, w2, w0
    d8e0:	1ac02420 	lsr	w0, w1, w0
    d8e4:	b9003fa0 	str	w0, [x29,#60]
/home/optee/RPi3/optee_os/lib/libmpa/mpa_shift.c:151
    d8e8:	f94017a1 	ldr	x1, [x29,#40]
    d8ec:	b9404fa0 	ldr	w0, [x29,#76]
    d8f0:	d37ef400 	lsl	x0, x0, #2
    d8f4:	8b000020 	add	x0, x1, x0
    d8f8:	b9400801 	ldr	w1, [x0,#8]
    d8fc:	b9403fa0 	ldr	w0, [x29,#60]
    d900:	4a000021 	eor	w1, w1, w0
    d904:	f94017a2 	ldr	x2, [x29,#40]
    d908:	b9404fa0 	ldr	w0, [x29,#76]
    d90c:	d37ef400 	lsl	x0, x0, #2
    d910:	8b000040 	add	x0, x2, x0
    d914:	b9000801 	str	w1, [x0,#8]
/home/optee/RPi3/optee_os/lib/libmpa/mpa_shift.c:153
    d918:	b9404fa0 	ldr	w0, [x29,#76]
    d91c:	51000400 	sub	w0, w0, #0x1
    d920:	b9004fa0 	str	w0, [x29,#76]
/home/optee/RPi3/optee_os/lib/libmpa/mpa_shift.c:154
    d924:	b9404fa1 	ldr	w1, [x29,#76]
    d928:	b94043a0 	ldr	w0, [x29,#64]
    d92c:	4b000020 	sub	w0, w1, w0
    d930:	f94017a1 	ldr	x1, [x29,#40]
    d934:	2a0003e0 	mov	w0, w0
    d938:	d37ef400 	lsl	x0, x0, #2
    d93c:	8b000020 	add	x0, x1, x0
    d940:	b9400801 	ldr	w1, [x0,#8]
    d944:	b94047a0 	ldr	w0, [x29,#68]
    d948:	1ac02021 	lsl	w1, w1, w0
    d94c:	f94017a2 	ldr	x2, [x29,#40]
    d950:	b9404fa0 	ldr	w0, [x29,#76]
    d954:	d37ef400 	lsl	x0, x0, #2
    d958:	8b000040 	add	x0, x2, x0
    d95c:	b9000801 	str	w1, [x0,#8]
/home/optee/RPi3/optee_os/lib/libmpa/mpa_shift.c:155
    d960:	1400002d 	b	da14 <mpa_shift_left+0x2e0>
/home/optee/RPi3/optee_os/lib/libmpa/mpa_shift.c:156
    d964:	b9404fa1 	ldr	w1, [x29,#76]
    d968:	b94043a0 	ldr	w0, [x29,#64]
    d96c:	4b000020 	sub	w0, w1, w0
    d970:	51000400 	sub	w0, w0, #0x1
    d974:	f94017a1 	ldr	x1, [x29,#40]
    d978:	2a0003e0 	mov	w0, w0
    d97c:	d37ef400 	lsl	x0, x0, #2
    d980:	8b000020 	add	x0, x1, x0
    d984:	b9400801 	ldr	w1, [x0,#8]
    d988:	52800402 	mov	w2, #0x20                  	// #32
    d98c:	b94047a0 	ldr	w0, [x29,#68]
    d990:	4b000040 	sub	w0, w2, w0
    d994:	1ac02420 	lsr	w0, w1, w0
    d998:	b9003fa0 	str	w0, [x29,#60]
/home/optee/RPi3/optee_os/lib/libmpa/mpa_shift.c:157
    d99c:	f94017a1 	ldr	x1, [x29,#40]
    d9a0:	b9404fa0 	ldr	w0, [x29,#76]
    d9a4:	d37ef400 	lsl	x0, x0, #2
    d9a8:	8b000020 	add	x0, x1, x0
    d9ac:	b9400801 	ldr	w1, [x0,#8]
    d9b0:	b9403fa0 	ldr	w0, [x29,#60]
    d9b4:	4a000021 	eor	w1, w1, w0
    d9b8:	f94017a2 	ldr	x2, [x29,#40]
    d9bc:	b9404fa0 	ldr	w0, [x29,#76]
    d9c0:	d37ef400 	lsl	x0, x0, #2
    d9c4:	8b000040 	add	x0, x2, x0
    d9c8:	b9000801 	str	w1, [x0,#8]
/home/optee/RPi3/optee_os/lib/libmpa/mpa_shift.c:158
    d9cc:	b9404fa0 	ldr	w0, [x29,#76]
    d9d0:	51000400 	sub	w0, w0, #0x1
    d9d4:	b9004fa0 	str	w0, [x29,#76]
/home/optee/RPi3/optee_os/lib/libmpa/mpa_shift.c:159
    d9d8:	b9404fa1 	ldr	w1, [x29,#76]
    d9dc:	b94043a0 	ldr	w0, [x29,#64]
    d9e0:	4b000020 	sub	w0, w1, w0
    d9e4:	f94017a1 	ldr	x1, [x29,#40]
    d9e8:	2a0003e0 	mov	w0, w0
    d9ec:	d37ef400 	lsl	x0, x0, #2
    d9f0:	8b000020 	add	x0, x1, x0
    d9f4:	b9400801 	ldr	w1, [x0,#8]
    d9f8:	b94047a0 	ldr	w0, [x29,#68]
    d9fc:	1ac02021 	lsl	w1, w1, w0
    da00:	f94017a2 	ldr	x2, [x29,#40]
    da04:	b9404fa0 	ldr	w0, [x29,#76]
    da08:	d37ef400 	lsl	x0, x0, #2
    da0c:	8b000040 	add	x0, x2, x0
    da10:	b9000801 	str	w1, [x0,#8]
/home/optee/RPi3/optee_os/lib/libmpa/mpa_shift.c:155
    da14:	b9404fa1 	ldr	w1, [x29,#76]
    da18:	b94043a0 	ldr	w0, [x29,#64]
    da1c:	6b00003f 	cmp	w1, w0
    da20:	54fffa28 	b.hi	d964 <mpa_shift_left+0x230>
/home/optee/RPi3/optee_os/lib/libmpa/mpa_shift.c:162
    da24:	f94017a0 	ldr	x0, [x29,#40]
    da28:	91002003 	add	x3, x0, #0x8
    da2c:	b94043a0 	ldr	w0, [x29,#64]
    da30:	531e7400 	lsl	w0, w0, #2
    da34:	2a0003e0 	mov	w0, w0
    da38:	aa0003e2 	mov	x2, x0
    da3c:	52800001 	mov	w1, #0x0                   	// #0
    da40:	aa0303e0 	mov	x0, x3
    da44:	97ffe5be 	bl	713c <memset>
/home/optee/RPi3/optee_os/lib/libmpa/mpa_shift.c:164
    da48:	f94017a0 	ldr	x0, [x29,#40]
    da4c:	b9400400 	ldr	w0, [x0,#4]
    da50:	6b1f001f 	cmp	w0, wzr
    da54:	5400018d 	b.le	da84 <mpa_shift_left+0x350>
/home/optee/RPi3/optee_os/lib/libmpa/mpa_shift.c:165
    da58:	f94017a0 	ldr	x0, [x29,#40]
    da5c:	b9400400 	ldr	w0, [x0,#4]
    da60:	2a0003e2 	mov	w2, w0
    da64:	b94043a1 	ldr	w1, [x29,#64]
    da68:	b9404ba0 	ldr	w0, [x29,#72]
    da6c:	0b000020 	add	w0, w1, w0
    da70:	0b000040 	add	w0, w2, w0
    da74:	2a0003e1 	mov	w1, w0
    da78:	f94017a0 	ldr	x0, [x29,#40]
    da7c:	b9000401 	str	w1, [x0,#4]
    da80:	1400000d 	b	dab4 <mpa_shift_left+0x380>
/home/optee/RPi3/optee_os/lib/libmpa/mpa_shift.c:167
    da84:	f94017a0 	ldr	x0, [x29,#40]
    da88:	b9400400 	ldr	w0, [x0,#4]
    da8c:	2a0003e2 	mov	w2, w0
    da90:	b94043a1 	ldr	w1, [x29,#64]
    da94:	b9404ba0 	ldr	w0, [x29,#72]
    da98:	0b000020 	add	w0, w1, w0
    da9c:	4b000040 	sub	w0, w2, w0
    daa0:	2a0003e1 	mov	w1, w0
    daa4:	f94017a0 	ldr	x0, [x29,#40]
    daa8:	b9000401 	str	w1, [x0,#4]
    daac:	14000002 	b	dab4 <mpa_shift_left+0x380>
/home/optee/RPi3/optee_os/lib/libmpa/mpa_shift.c:113
    dab0:	d503201f 	nop
/home/optee/RPi3/optee_os/lib/libmpa/mpa_shift.c:168
    dab4:	a8c57bfd 	ldp	x29, x30, [sp],#80
    dab8:	d65f03c0 	ret

000000000000dabc <mpa_shift_right>:
mpa_shift_right():
/home/optee/RPi3/optee_os/lib/libmpa/mpa_shift.c:179
    dabc:	a9bc7bfd 	stp	x29, x30, [sp,#-64]!
    dac0:	910003fd 	mov	x29, sp
    dac4:	f90017a0 	str	x0, [x29,#40]
    dac8:	f90013a1 	str	x1, [x29,#32]
    dacc:	b9001fa2 	str	w2, [x29,#28]
/home/optee/RPi3/optee_os/lib/libmpa/mpa_shift.c:190
    dad0:	f94013a1 	ldr	x1, [x29,#32]
    dad4:	f94017a0 	ldr	x0, [x29,#40]
    dad8:	97fff0ab 	bl	9d84 <mpa_copy>
/home/optee/RPi3/optee_os/lib/libmpa/mpa_shift.c:191
    dadc:	f94017a0 	ldr	x0, [x29,#40]
    dae0:	97fff07d 	bl	9cd4 <__mpa_set_unused_digits_to_zero>
/home/optee/RPi3/optee_os/lib/libmpa/mpa_shift.c:192
    dae4:	b9401fa0 	ldr	w0, [x29,#28]
    dae8:	6b1f001f 	cmp	w0, wzr
    daec:	540016a0 	b.eq	ddc0 <mpa_shift_right+0x304>
/home/optee/RPi3/optee_os/lib/libmpa/mpa_shift.c:192 (discriminator 1)
    daf0:	f94017a0 	ldr	x0, [x29,#40]
    daf4:	b9400400 	ldr	w0, [x0,#4]
    daf8:	6b1f001f 	cmp	w0, wzr
    dafc:	54001620 	b.eq	ddc0 <mpa_shift_right+0x304>
/home/optee/RPi3/optee_os/lib/libmpa/mpa_shift.c:195
    db00:	b9401fa0 	ldr	w0, [x29,#28]
    db04:	12001000 	and	w0, w0, #0x1f
    db08:	b9003ba0 	str	w0, [x29,#56]
/home/optee/RPi3/optee_os/lib/libmpa/mpa_shift.c:196
    db0c:	b9401fa0 	ldr	w0, [x29,#28]
    db10:	53057c00 	lsr	w0, w0, #5
    db14:	b90037a0 	str	w0, [x29,#52]
/home/optee/RPi3/optee_os/lib/libmpa/mpa_shift.c:198
    db18:	f94017a0 	ldr	x0, [x29,#40]
    db1c:	b9400400 	ldr	w0, [x0,#4]
    db20:	6b1f001f 	cmp	w0, wzr
    db24:	5a80a400 	cneg	w0, w0, lt
    db28:	2a0003e1 	mov	w1, w0
    db2c:	b94037a0 	ldr	w0, [x29,#52]
    db30:	6b00003f 	cmp	w1, w0
    db34:	540000a8 	b.hi	db48 <mpa_shift_right+0x8c>
/home/optee/RPi3/optee_os/lib/libmpa/mpa_shift.c:199
    db38:	52800001 	mov	w1, #0x0                   	// #0
    db3c:	f94017a0 	ldr	x0, [x29,#40]
    db40:	97fff479 	bl	ad24 <mpa_set_word>
/home/optee/RPi3/optee_os/lib/libmpa/mpa_shift.c:200
    db44:	140000a0 	b	ddc4 <mpa_shift_right+0x308>
/home/optee/RPi3/optee_os/lib/libmpa/mpa_shift.c:208
    db48:	b9403ba0 	ldr	w0, [x29,#56]
    db4c:	6b1f001f 	cmp	w0, wzr
    db50:	540003c1 	b.ne	dbc8 <mpa_shift_right+0x10c>
/home/optee/RPi3/optee_os/lib/libmpa/mpa_shift.c:210
    db54:	b9003fbf 	str	wzr, [x29,#60]
    db58:	14000011 	b	db9c <mpa_shift_right+0xe0>
/home/optee/RPi3/optee_os/lib/libmpa/mpa_shift.c:211 (discriminator 3)
    db5c:	b9403fa1 	ldr	w1, [x29,#60]
    db60:	b94037a0 	ldr	w0, [x29,#52]
    db64:	0b000020 	add	w0, w1, w0
    db68:	f94017a1 	ldr	x1, [x29,#40]
    db6c:	2a0003e0 	mov	w0, w0
    db70:	d37ef400 	lsl	x0, x0, #2
    db74:	8b000020 	add	x0, x1, x0
    db78:	b9400801 	ldr	w1, [x0,#8]
    db7c:	f94017a2 	ldr	x2, [x29,#40]
    db80:	b9403fa0 	ldr	w0, [x29,#60]
    db84:	d37ef400 	lsl	x0, x0, #2
    db88:	8b000040 	add	x0, x2, x0
    db8c:	b9000801 	str	w1, [x0,#8]
/home/optee/RPi3/optee_os/lib/libmpa/mpa_shift.c:210 (discriminator 3)
    db90:	b9403fa0 	ldr	w0, [x29,#60]
    db94:	11000400 	add	w0, w0, #0x1
    db98:	b9003fa0 	str	w0, [x29,#60]
/home/optee/RPi3/optee_os/lib/libmpa/mpa_shift.c:210 (discriminator 1)
    db9c:	f94017a0 	ldr	x0, [x29,#40]
    dba0:	b9400400 	ldr	w0, [x0,#4]
    dba4:	6b1f001f 	cmp	w0, wzr
    dba8:	5a80a400 	cneg	w0, w0, lt
    dbac:	2a0003e1 	mov	w1, w0
    dbb0:	b94037a0 	ldr	w0, [x29,#52]
    dbb4:	4b000021 	sub	w1, w1, w0
    dbb8:	b9403fa0 	ldr	w0, [x29,#60]
    dbbc:	6b00003f 	cmp	w1, w0
    dbc0:	54fffce8 	b.hi	db5c <mpa_shift_right+0xa0>
    dbc4:	1400004e 	b	dcfc <mpa_shift_right+0x240>
/home/optee/RPi3/optee_os/lib/libmpa/mpa_shift.c:214
    dbc8:	b9003fbf 	str	wzr, [x29,#60]
    dbcc:	14000032 	b	dc94 <mpa_shift_right+0x1d8>
/home/optee/RPi3/optee_os/lib/libmpa/mpa_shift.c:215 (discriminator 3)
    dbd0:	b9403fa1 	ldr	w1, [x29,#60]
    dbd4:	b94037a0 	ldr	w0, [x29,#52]
    dbd8:	0b000020 	add	w0, w1, w0
    dbdc:	f94017a1 	ldr	x1, [x29,#40]
    dbe0:	2a0003e0 	mov	w0, w0
    dbe4:	d37ef400 	lsl	x0, x0, #2
    dbe8:	8b000020 	add	x0, x1, x0
    dbec:	b9400801 	ldr	w1, [x0,#8]
    dbf0:	f94017a2 	ldr	x2, [x29,#40]
    dbf4:	b9403fa0 	ldr	w0, [x29,#60]
    dbf8:	d37ef400 	lsl	x0, x0, #2
    dbfc:	8b000040 	add	x0, x2, x0
    dc00:	b9000801 	str	w1, [x0,#8]
/home/optee/RPi3/optee_os/lib/libmpa/mpa_shift.c:216 (discriminator 3)
    dc04:	b9403fa1 	ldr	w1, [x29,#60]
    dc08:	b94037a0 	ldr	w0, [x29,#52]
    dc0c:	0b000020 	add	w0, w1, w0
    dc10:	11000400 	add	w0, w0, #0x1
    dc14:	f94017a1 	ldr	x1, [x29,#40]
    dc18:	2a0003e0 	mov	w0, w0
    dc1c:	d37ef400 	lsl	x0, x0, #2
    dc20:	8b000020 	add	x0, x1, x0
    dc24:	b9400800 	ldr	w0, [x0,#8]
    dc28:	b9403ba1 	ldr	w1, [x29,#56]
    dc2c:	52800022 	mov	w2, #0x1                   	// #1
    dc30:	1ac12041 	lsl	w1, w2, w1
    dc34:	51000421 	sub	w1, w1, #0x1
    dc38:	0a010000 	and	w0, w0, w1
    dc3c:	b90033a0 	str	w0, [x29,#48]
/home/optee/RPi3/optee_os/lib/libmpa/mpa_shift.c:218 (discriminator 3)
    dc40:	f94017a1 	ldr	x1, [x29,#40]
    dc44:	b9403fa0 	ldr	w0, [x29,#60]
    dc48:	d37ef400 	lsl	x0, x0, #2
    dc4c:	8b000020 	add	x0, x1, x0
    dc50:	b9400801 	ldr	w1, [x0,#8]
    dc54:	b9403ba0 	ldr	w0, [x29,#56]
    dc58:	1ac02421 	lsr	w1, w1, w0
    dc5c:	52800402 	mov	w2, #0x20                  	// #32
    dc60:	b9403ba0 	ldr	w0, [x29,#56]
    dc64:	4b000040 	sub	w0, w2, w0
    dc68:	b94033a2 	ldr	w2, [x29,#48]
    dc6c:	1ac02040 	lsl	w0, w2, w0
    dc70:	4a000021 	eor	w1, w1, w0
/home/optee/RPi3/optee_os/lib/libmpa/mpa_shift.c:217 (discriminator 3)
    dc74:	f94017a2 	ldr	x2, [x29,#40]
    dc78:	b9403fa0 	ldr	w0, [x29,#60]
    dc7c:	d37ef400 	lsl	x0, x0, #2
    dc80:	8b000040 	add	x0, x2, x0
    dc84:	b9000801 	str	w1, [x0,#8]
/home/optee/RPi3/optee_os/lib/libmpa/mpa_shift.c:214 (discriminator 3)
    dc88:	b9403fa0 	ldr	w0, [x29,#60]
    dc8c:	11000400 	add	w0, w0, #0x1
    dc90:	b9003fa0 	str	w0, [x29,#60]
/home/optee/RPi3/optee_os/lib/libmpa/mpa_shift.c:214 (discriminator 1)
    dc94:	f94017a0 	ldr	x0, [x29,#40]
    dc98:	b9400400 	ldr	w0, [x0,#4]
    dc9c:	6b1f001f 	cmp	w0, wzr
    dca0:	5a80a400 	cneg	w0, w0, lt
    dca4:	2a0003e1 	mov	w1, w0
    dca8:	b94037a0 	ldr	w0, [x29,#52]
    dcac:	4b000020 	sub	w0, w1, w0
    dcb0:	51000401 	sub	w1, w0, #0x1
    dcb4:	b9403fa0 	ldr	w0, [x29,#60]
    dcb8:	6b00003f 	cmp	w1, w0
    dcbc:	54fff8a8 	b.hi	dbd0 <mpa_shift_right+0x114>
/home/optee/RPi3/optee_os/lib/libmpa/mpa_shift.c:221
    dcc0:	b9403fa1 	ldr	w1, [x29,#60]
    dcc4:	b94037a0 	ldr	w0, [x29,#52]
    dcc8:	0b000020 	add	w0, w1, w0
    dccc:	f94017a1 	ldr	x1, [x29,#40]
    dcd0:	2a0003e0 	mov	w0, w0
    dcd4:	d37ef400 	lsl	x0, x0, #2
    dcd8:	8b000020 	add	x0, x1, x0
    dcdc:	b9400801 	ldr	w1, [x0,#8]
    dce0:	b9403ba0 	ldr	w0, [x29,#56]
    dce4:	1ac02421 	lsr	w1, w1, w0
    dce8:	f94017a2 	ldr	x2, [x29,#40]
    dcec:	b9403fa0 	ldr	w0, [x29,#60]
    dcf0:	d37ef400 	lsl	x0, x0, #2
    dcf4:	8b000040 	add	x0, x2, x0
    dcf8:	b9000801 	str	w1, [x0,#8]
/home/optee/RPi3/optee_os/lib/libmpa/mpa_shift.c:225
    dcfc:	f94017a0 	ldr	x0, [x29,#40]
    dd00:	b9400400 	ldr	w0, [x0,#4]
    dd04:	6b1f001f 	cmp	w0, wzr
    dd08:	5400014d 	b.le	dd30 <mpa_shift_right+0x274>
/home/optee/RPi3/optee_os/lib/libmpa/mpa_shift.c:226
    dd0c:	f94017a0 	ldr	x0, [x29,#40]
    dd10:	b9400400 	ldr	w0, [x0,#4]
    dd14:	2a0003e1 	mov	w1, w0
    dd18:	b94037a0 	ldr	w0, [x29,#52]
    dd1c:	4b000020 	sub	w0, w1, w0
    dd20:	2a0003e1 	mov	w1, w0
    dd24:	f94017a0 	ldr	x0, [x29,#40]
    dd28:	b9000401 	str	w1, [x0,#4]
    dd2c:	14000009 	b	dd50 <mpa_shift_right+0x294>
/home/optee/RPi3/optee_os/lib/libmpa/mpa_shift.c:228
    dd30:	f94017a0 	ldr	x0, [x29,#40]
    dd34:	b9400400 	ldr	w0, [x0,#4]
    dd38:	2a0003e1 	mov	w1, w0
    dd3c:	b94037a0 	ldr	w0, [x29,#52]
    dd40:	0b000020 	add	w0, w1, w0
    dd44:	2a0003e1 	mov	w1, w0
    dd48:	f94017a0 	ldr	x0, [x29,#40]
    dd4c:	b9000401 	str	w1, [x0,#4]
/home/optee/RPi3/optee_os/lib/libmpa/mpa_shift.c:231
    dd50:	f94017a0 	ldr	x0, [x29,#40]
    dd54:	b9400400 	ldr	w0, [x0,#4]
    dd58:	6b1f001f 	cmp	w0, wzr
    dd5c:	5a80a400 	cneg	w0, w0, lt
    dd60:	51000400 	sub	w0, w0, #0x1
    dd64:	f94017a1 	ldr	x1, [x29,#40]
    dd68:	93407c00 	sxtw	x0, w0
    dd6c:	d37ef400 	lsl	x0, x0, #2
    dd70:	8b000020 	add	x0, x1, x0
    dd74:	b9400800 	ldr	w0, [x0,#8]
    dd78:	6b1f001f 	cmp	w0, wzr
    dd7c:	54000241 	b.ne	ddc4 <mpa_shift_right+0x308>
/home/optee/RPi3/optee_os/lib/libmpa/mpa_shift.c:232
    dd80:	f94017a0 	ldr	x0, [x29,#40]
    dd84:	b9400400 	ldr	w0, [x0,#4]
    dd88:	6b1f001f 	cmp	w0, wzr
    dd8c:	540000ed 	b.le	dda8 <mpa_shift_right+0x2ec>
/home/optee/RPi3/optee_os/lib/libmpa/mpa_shift.c:233
    dd90:	f94017a0 	ldr	x0, [x29,#40]
    dd94:	b9400400 	ldr	w0, [x0,#4]
    dd98:	51000401 	sub	w1, w0, #0x1
    dd9c:	f94017a0 	ldr	x0, [x29,#40]
    dda0:	b9000401 	str	w1, [x0,#4]
    dda4:	14000008 	b	ddc4 <mpa_shift_right+0x308>
/home/optee/RPi3/optee_os/lib/libmpa/mpa_shift.c:235
    dda8:	f94017a0 	ldr	x0, [x29,#40]
    ddac:	b9400400 	ldr	w0, [x0,#4]
    ddb0:	11000401 	add	w1, w0, #0x1
    ddb4:	f94017a0 	ldr	x0, [x29,#40]
    ddb8:	b9000401 	str	w1, [x0,#4]
    ddbc:	14000002 	b	ddc4 <mpa_shift_right+0x308>
/home/optee/RPi3/optee_os/lib/libmpa/mpa_shift.c:193
    ddc0:	d503201f 	nop
/home/optee/RPi3/optee_os/lib/libmpa/mpa_shift.c:237
    ddc4:	a8c47bfd 	ldp	x29, x30, [sp],#64
    ddc8:	d65f03c0 	ret

000000000000ddcc <__mpa_full_adder>:
__mpa_full_adder():
/home/optee/RPi3/optee_os/lib/libmpa/mpa_addsub.c:51
    ddcc:	d100c3ff 	sub	sp, sp, #0x30
    ddd0:	b9001fe0 	str	w0, [sp,#28]
    ddd4:	b9001be1 	str	w1, [sp,#24]
    ddd8:	f9000be2 	str	x2, [sp,#16]
    dddc:	f90007e3 	str	x3, [sp,#8]
/home/optee/RPi3/optee_os/lib/libmpa/mpa_addsub.c:54
    dde0:	b9401fe1 	ldr	w1, [sp,#28]
    dde4:	b9401be0 	ldr	w0, [sp,#24]
    dde8:	8b000021 	add	x1, x1, x0
    ddec:	f94007e0 	ldr	x0, [sp,#8]
    ddf0:	b9400000 	ldr	w0, [x0]
    ddf4:	2a0003e0 	mov	w0, w0
    ddf8:	8b000020 	add	x0, x1, x0
    ddfc:	f90017e0 	str	x0, [sp,#40]
/home/optee/RPi3/optee_os/lib/libmpa/mpa_addsub.c:55
    de00:	f94017e0 	ldr	x0, [sp,#40]
    de04:	2a0003e1 	mov	w1, w0
    de08:	f9400be0 	ldr	x0, [sp,#16]
    de0c:	b9000001 	str	w1, [x0]
/home/optee/RPi3/optee_os/lib/libmpa/mpa_addsub.c:56
    de10:	f94017e0 	ldr	x0, [sp,#40]
    de14:	d360fc00 	lsr	x0, x0, #32
    de18:	2a0003e1 	mov	w1, w0
    de1c:	f94007e0 	ldr	x0, [sp,#8]
    de20:	b9000001 	str	w1, [x0]
/home/optee/RPi3/optee_os/lib/libmpa/mpa_addsub.c:63
    de24:	d503201f 	nop
    de28:	9100c3ff 	add	sp, sp, #0x30
    de2c:	d65f03c0 	ret

000000000000de30 <__mpa_full_sub>:
__mpa_full_sub():
/home/optee/RPi3/optee_os/lib/libmpa/mpa_addsub.c:74
    de30:	d100c3ff 	sub	sp, sp, #0x30
    de34:	b9001fe0 	str	w0, [sp,#28]
    de38:	b9001be1 	str	w1, [sp,#24]
    de3c:	f9000be2 	str	x2, [sp,#16]
    de40:	f90007e3 	str	x3, [sp,#8]
/home/optee/RPi3/optee_os/lib/libmpa/mpa_addsub.c:77
    de44:	b9401fe1 	ldr	w1, [sp,#28]
    de48:	b9401be0 	ldr	w0, [sp,#24]
    de4c:	cb000021 	sub	x1, x1, x0
    de50:	f94007e0 	ldr	x0, [sp,#8]
    de54:	b9400000 	ldr	w0, [x0]
    de58:	2a0003e0 	mov	w0, w0
    de5c:	cb000020 	sub	x0, x1, x0
    de60:	f90017e0 	str	x0, [sp,#40]
/home/optee/RPi3/optee_os/lib/libmpa/mpa_addsub.c:78
    de64:	f94017e0 	ldr	x0, [sp,#40]
    de68:	2a0003e1 	mov	w1, w0
    de6c:	f9400be0 	ldr	x0, [sp,#16]
    de70:	b9000001 	str	w1, [x0]
/home/optee/RPi3/optee_os/lib/libmpa/mpa_addsub.c:79
    de74:	f94017e0 	ldr	x0, [sp,#40]
    de78:	d360fc00 	lsr	x0, x0, #32
    de7c:	4b0003e1 	neg	w1, w0
    de80:	f94007e0 	ldr	x0, [sp,#8]
    de84:	b9000001 	str	w1, [x0]
/home/optee/RPi3/optee_os/lib/libmpa/mpa_addsub.c:88
    de88:	d503201f 	nop
    de8c:	9100c3ff 	add	sp, sp, #0x30
    de90:	d65f03c0 	ret

000000000000de94 <__mpa_full_adder_ackum>:
__mpa_full_adder_ackum():
/home/optee/RPi3/optee_os/lib/libmpa/mpa_addsub.c:98
    de94:	d100c3ff 	sub	sp, sp, #0x30
    de98:	f9000fe0 	str	x0, [sp,#24]
    de9c:	b90017e1 	str	w1, [sp,#20]
    dea0:	f90007e2 	str	x2, [sp,#8]
/home/optee/RPi3/optee_os/lib/libmpa/mpa_addsub.c:101
    dea4:	f9400fe0 	ldr	x0, [sp,#24]
    dea8:	b9400000 	ldr	w0, [x0]
    deac:	2a0003e1 	mov	w1, w0
    deb0:	b94017e0 	ldr	w0, [sp,#20]
    deb4:	8b000021 	add	x1, x1, x0
    deb8:	f94007e0 	ldr	x0, [sp,#8]
    debc:	b9400000 	ldr	w0, [x0]
    dec0:	2a0003e0 	mov	w0, w0
    dec4:	8b000020 	add	x0, x1, x0
    dec8:	f90017e0 	str	x0, [sp,#40]
/home/optee/RPi3/optee_os/lib/libmpa/mpa_addsub.c:102
    decc:	f94017e0 	ldr	x0, [sp,#40]
    ded0:	2a0003e1 	mov	w1, w0
    ded4:	f9400fe0 	ldr	x0, [sp,#24]
    ded8:	b9000001 	str	w1, [x0]
/home/optee/RPi3/optee_os/lib/libmpa/mpa_addsub.c:103
    dedc:	f94017e0 	ldr	x0, [sp,#40]
    dee0:	d360fc00 	lsr	x0, x0, #32
    dee4:	2a0003e1 	mov	w1, w0
    dee8:	f94007e0 	ldr	x0, [sp,#8]
    deec:	b9000001 	str	w1, [x0]
/home/optee/RPi3/optee_os/lib/libmpa/mpa_addsub.c:111
    def0:	d503201f 	nop
    def4:	9100c3ff 	add	sp, sp, #0x30
    def8:	d65f03c0 	ret

000000000000defc <__mpa_abs_add>:
__mpa_abs_add():
/home/optee/RPi3/optee_os/lib/libmpa/mpa_addsub.c:127
    defc:	a9b97bfd 	stp	x29, x30, [sp,#-112]!
    df00:	910003fd 	mov	x29, sp
    df04:	f9001fa0 	str	x0, [x29,#56]
    df08:	f9001ba1 	str	x1, [x29,#48]
    df0c:	f90017a2 	str	x2, [x29,#40]
    df10:	b90027a3 	str	w3, [x29,#36]
    df14:	f9000fa4 	str	x4, [x29,#24]
    df18:	b90023a5 	str	w5, [x29,#32]
/home/optee/RPi3/optee_os/lib/libmpa/mpa_addsub.c:137
    df1c:	b94027a1 	ldr	w1, [x29,#36]
    df20:	b94023a0 	ldr	w0, [x29,#32]
    df24:	6b00003f 	cmp	w1, w0
    df28:	5400014d 	b.le	df50 <__mpa_abs_add+0x54>
/home/optee/RPi3/optee_os/lib/libmpa/mpa_addsub.c:138
    df2c:	f94017a0 	ldr	x0, [x29,#40]
    df30:	f90033a0 	str	x0, [x29,#96]
/home/optee/RPi3/optee_os/lib/libmpa/mpa_addsub.c:139
    df34:	f9400fa0 	ldr	x0, [x29,#24]
    df38:	f90037a0 	str	x0, [x29,#104]
/home/optee/RPi3/optee_os/lib/libmpa/mpa_addsub.c:140
    df3c:	b94027a0 	ldr	w0, [x29,#36]
    df40:	b9005ba0 	str	w0, [x29,#88]
/home/optee/RPi3/optee_os/lib/libmpa/mpa_addsub.c:141
    df44:	b94023a0 	ldr	w0, [x29,#32]
    df48:	b9005fa0 	str	w0, [x29,#92]
    df4c:	14000009 	b	df70 <__mpa_abs_add+0x74>
/home/optee/RPi3/optee_os/lib/libmpa/mpa_addsub.c:143
    df50:	f9400fa0 	ldr	x0, [x29,#24]
    df54:	f90033a0 	str	x0, [x29,#96]
/home/optee/RPi3/optee_os/lib/libmpa/mpa_addsub.c:144
    df58:	f94017a0 	ldr	x0, [x29,#40]
    df5c:	f90037a0 	str	x0, [x29,#104]
/home/optee/RPi3/optee_os/lib/libmpa/mpa_addsub.c:145
    df60:	b94023a0 	ldr	w0, [x29,#32]
    df64:	b9005ba0 	str	w0, [x29,#88]
/home/optee/RPi3/optee_os/lib/libmpa/mpa_addsub.c:146
    df68:	b94027a0 	ldr	w0, [x29,#36]
    df6c:	b9005fa0 	str	w0, [x29,#92]
/home/optee/RPi3/optee_os/lib/libmpa/mpa_addsub.c:149
    df70:	f9401fa0 	ldr	x0, [x29,#56]
    df74:	f90027a0 	str	x0, [x29,#72]
/home/optee/RPi3/optee_os/lib/libmpa/mpa_addsub.c:150
    df78:	b90047bf 	str	wzr, [x29,#68]
/home/optee/RPi3/optee_os/lib/libmpa/mpa_addsub.c:151
    df7c:	b90057bf 	str	wzr, [x29,#84]
/home/optee/RPi3/optee_os/lib/libmpa/mpa_addsub.c:152
    df80:	14000015 	b	dfd4 <__mpa_abs_add+0xd8>
/home/optee/RPi3/optee_os/lib/libmpa/mpa_addsub.c:153
    df84:	f94037a0 	ldr	x0, [x29,#104]
    df88:	91001001 	add	x1, x0, #0x4
    df8c:	f90037a1 	str	x1, [x29,#104]
    df90:	b9400004 	ldr	w4, [x0]
    df94:	f94033a0 	ldr	x0, [x29,#96]
    df98:	91001001 	add	x1, x0, #0x4
    df9c:	f90033a1 	str	x1, [x29,#96]
    dfa0:	b9400005 	ldr	w5, [x0]
    dfa4:	f9401fa0 	ldr	x0, [x29,#56]
    dfa8:	91001001 	add	x1, x0, #0x4
    dfac:	f9001fa1 	str	x1, [x29,#56]
    dfb0:	910113a1 	add	x1, x29, #0x44
    dfb4:	aa0103e3 	mov	x3, x1
    dfb8:	aa0003e2 	mov	x2, x0
    dfbc:	2a0503e1 	mov	w1, w5
    dfc0:	2a0403e0 	mov	w0, w4
    dfc4:	97ffff82 	bl	ddcc <__mpa_full_adder>
/home/optee/RPi3/optee_os/lib/libmpa/mpa_addsub.c:154
    dfc8:	b94057a0 	ldr	w0, [x29,#84]
    dfcc:	11000400 	add	w0, w0, #0x1
    dfd0:	b90057a0 	str	w0, [x29,#84]
/home/optee/RPi3/optee_os/lib/libmpa/mpa_addsub.c:152
    dfd4:	b94057a1 	ldr	w1, [x29,#84]
    dfd8:	b9405fa0 	ldr	w0, [x29,#92]
    dfdc:	6b00003f 	cmp	w1, w0
    dfe0:	54fffd2b 	b.lt	df84 <__mpa_abs_add+0x88>
/home/optee/RPi3/optee_os/lib/libmpa/mpa_addsub.c:156
    dfe4:	14000011 	b	e028 <__mpa_abs_add+0x12c>
/home/optee/RPi3/optee_os/lib/libmpa/mpa_addsub.c:157
    dfe8:	f94033a0 	ldr	x0, [x29,#96]
    dfec:	91001001 	add	x1, x0, #0x4
    dff0:	f90033a1 	str	x1, [x29,#96]
    dff4:	b9400004 	ldr	w4, [x0]
    dff8:	f9401fa0 	ldr	x0, [x29,#56]
    dffc:	91001001 	add	x1, x0, #0x4
    e000:	f9001fa1 	str	x1, [x29,#56]
    e004:	910113a1 	add	x1, x29, #0x44
    e008:	aa0103e3 	mov	x3, x1
    e00c:	aa0003e2 	mov	x2, x0
    e010:	2a0403e1 	mov	w1, w4
    e014:	52800000 	mov	w0, #0x0                   	// #0
    e018:	97ffff6d 	bl	ddcc <__mpa_full_adder>
/home/optee/RPi3/optee_os/lib/libmpa/mpa_addsub.c:158
    e01c:	b94057a0 	ldr	w0, [x29,#84]
    e020:	11000400 	add	w0, w0, #0x1
    e024:	b90057a0 	str	w0, [x29,#84]
/home/optee/RPi3/optee_os/lib/libmpa/mpa_addsub.c:156
    e028:	b94047a0 	ldr	w0, [x29,#68]
    e02c:	6b1f001f 	cmp	w0, wzr
    e030:	540000a0 	b.eq	e044 <__mpa_abs_add+0x148>
/home/optee/RPi3/optee_os/lib/libmpa/mpa_addsub.c:156 (discriminator 1)
    e034:	b94057a1 	ldr	w1, [x29,#84]
    e038:	b9405ba0 	ldr	w0, [x29,#88]
    e03c:	6b00003f 	cmp	w1, w0
    e040:	54fffd4b 	b.lt	dfe8 <__mpa_abs_add+0xec>
/home/optee/RPi3/optee_os/lib/libmpa/mpa_addsub.c:161
    e044:	b94057a1 	ldr	w1, [x29,#84]
    e048:	b9405ba0 	ldr	w0, [x29,#88]
    e04c:	6b00003f 	cmp	w1, w0
    e050:	5400024a 	b.ge	e098 <__mpa_abs_add+0x19c>
/home/optee/RPi3/optee_os/lib/libmpa/mpa_addsub.c:163
    e054:	b9405ba1 	ldr	w1, [x29,#88]
    e058:	b94057a0 	ldr	w0, [x29,#84]
    e05c:	4b000020 	sub	w0, w1, w0
    e060:	531e7400 	lsl	w0, w0, #2
    e064:	93407c00 	sxtw	x0, w0
    e068:	aa0003e2 	mov	x2, x0
    e06c:	f94033a1 	ldr	x1, [x29,#96]
    e070:	f9401fa0 	ldr	x0, [x29,#56]
    e074:	97ffe34f 	bl	6db0 <memcpy>
/home/optee/RPi3/optee_os/lib/libmpa/mpa_addsub.c:164
    e078:	b9405ba1 	ldr	w1, [x29,#88]
    e07c:	b94057a0 	ldr	w0, [x29,#84]
    e080:	4b000020 	sub	w0, w1, w0
    e084:	93407c00 	sxtw	x0, w0
    e088:	d37ef400 	lsl	x0, x0, #2
    e08c:	f9401fa1 	ldr	x1, [x29,#56]
    e090:	8b000020 	add	x0, x1, x0
    e094:	f9001fa0 	str	x0, [x29,#56]
/home/optee/RPi3/optee_os/lib/libmpa/mpa_addsub.c:167
    e098:	b94047a0 	ldr	w0, [x29,#68]
    e09c:	6b1f001f 	cmp	w0, wzr
    e0a0:	540000c0 	b.eq	e0b8 <__mpa_abs_add+0x1bc>
/home/optee/RPi3/optee_os/lib/libmpa/mpa_addsub.c:168
    e0a4:	f9401fa0 	ldr	x0, [x29,#56]
    e0a8:	91001001 	add	x1, x0, #0x4
    e0ac:	f9001fa1 	str	x1, [x29,#56]
    e0b0:	b94047a1 	ldr	w1, [x29,#68]
    e0b4:	b9000001 	str	w1, [x0]
/home/optee/RPi3/optee_os/lib/libmpa/mpa_addsub.c:169
    e0b8:	f9401fa1 	ldr	x1, [x29,#56]
    e0bc:	f94027a0 	ldr	x0, [x29,#72]
    e0c0:	cb000020 	sub	x0, x1, x0
    e0c4:	9342fc00 	asr	x0, x0, #2
    e0c8:	2a0003e1 	mov	w1, w0
    e0cc:	f9401ba0 	ldr	x0, [x29,#48]
    e0d0:	b9000001 	str	w1, [x0]
/home/optee/RPi3/optee_os/lib/libmpa/mpa_addsub.c:170
    e0d4:	d503201f 	nop
    e0d8:	a8c77bfd 	ldp	x29, x30, [sp],#112
    e0dc:	d65f03c0 	ret

000000000000e0e0 <__mpa_abs_add_ackum>:
__mpa_abs_add_ackum():
/home/optee/RPi3/optee_os/lib/libmpa/mpa_addsub.c:179
    e0e0:	a9bb7bfd 	stp	x29, x30, [sp,#-80]!
    e0e4:	910003fd 	mov	x29, sp
    e0e8:	f9000fa0 	str	x0, [x29,#24]
    e0ec:	f9000ba1 	str	x1, [x29,#16]
/home/optee/RPi3/optee_os/lib/libmpa/mpa_addsub.c:187
    e0f0:	f9400ba0 	ldr	x0, [x29,#16]
    e0f4:	b9400401 	ldr	w1, [x0,#4]
    e0f8:	f9400fa0 	ldr	x0, [x29,#24]
    e0fc:	b9400400 	ldr	w0, [x0,#4]
    e100:	4b000020 	sub	w0, w1, w0
    e104:	b9003fa0 	str	w0, [x29,#60]
/home/optee/RPi3/optee_os/lib/libmpa/mpa_addsub.c:188
    e108:	b9403fa0 	ldr	w0, [x29,#60]
    e10c:	6b1f001f 	cmp	w0, wzr
    e110:	5400004c 	b.gt	e118 <__mpa_abs_add_ackum+0x38>
/home/optee/RPi3/optee_os/lib/libmpa/mpa_addsub.c:189
    e114:	b9003fbf 	str	wzr, [x29,#60]
/home/optee/RPi3/optee_os/lib/libmpa/mpa_addsub.c:190
    e118:	f9400fa0 	ldr	x0, [x29,#24]
    e11c:	91002001 	add	x1, x0, #0x8
    e120:	f9400fa0 	ldr	x0, [x29,#24]
    e124:	b9400400 	ldr	w0, [x0,#4]
    e128:	93407c00 	sxtw	x0, w0
    e12c:	d37ef400 	lsl	x0, x0, #2
    e130:	8b000023 	add	x3, x1, x0
    e134:	b9403fa0 	ldr	w0, [x29,#60]
    e138:	11000400 	add	w0, w0, #0x1
    e13c:	531e7400 	lsl	w0, w0, #2
    e140:	93407c00 	sxtw	x0, w0
    e144:	aa0003e2 	mov	x2, x0
    e148:	52800001 	mov	w1, #0x0                   	// #0
    e14c:	aa0303e0 	mov	x0, x3
    e150:	97ffe3fb 	bl	713c <memset>
/home/optee/RPi3/optee_os/lib/libmpa/mpa_addsub.c:192
    e154:	f9400fa0 	ldr	x0, [x29,#24]
    e158:	91002000 	add	x0, x0, #0x8
    e15c:	f9001ba0 	str	x0, [x29,#48]
/home/optee/RPi3/optee_os/lib/libmpa/mpa_addsub.c:193
    e160:	f9400ba0 	ldr	x0, [x29,#16]
    e164:	91002000 	add	x0, x0, #0x8
    e168:	f90027a0 	str	x0, [x29,#72]
/home/optee/RPi3/optee_os/lib/libmpa/mpa_addsub.c:194
    e16c:	f9400fa0 	ldr	x0, [x29,#24]
    e170:	91002000 	add	x0, x0, #0x8
    e174:	f90023a0 	str	x0, [x29,#64]
/home/optee/RPi3/optee_os/lib/libmpa/mpa_addsub.c:195
    e178:	b9003fbf 	str	wzr, [x29,#60]
/home/optee/RPi3/optee_os/lib/libmpa/mpa_addsub.c:196
    e17c:	b9002fbf 	str	wzr, [x29,#44]
/home/optee/RPi3/optee_os/lib/libmpa/mpa_addsub.c:197
    e180:	14000010 	b	e1c0 <__mpa_abs_add_ackum+0xe0>
/home/optee/RPi3/optee_os/lib/libmpa/mpa_addsub.c:198
    e184:	f94023a3 	ldr	x3, [x29,#64]
    e188:	91001060 	add	x0, x3, #0x4
    e18c:	f90023a0 	str	x0, [x29,#64]
    e190:	f94027a0 	ldr	x0, [x29,#72]
    e194:	91001001 	add	x1, x0, #0x4
    e198:	f90027a1 	str	x1, [x29,#72]
    e19c:	b9400000 	ldr	w0, [x0]
    e1a0:	9100b3a1 	add	x1, x29, #0x2c
    e1a4:	aa0103e2 	mov	x2, x1
    e1a8:	2a0003e1 	mov	w1, w0
    e1ac:	aa0303e0 	mov	x0, x3
    e1b0:	97ffff39 	bl	de94 <__mpa_full_adder_ackum>
/home/optee/RPi3/optee_os/lib/libmpa/mpa_addsub.c:205
    e1b4:	b9403fa0 	ldr	w0, [x29,#60]
    e1b8:	11000400 	add	w0, w0, #0x1
    e1bc:	b9003fa0 	str	w0, [x29,#60]
/home/optee/RPi3/optee_os/lib/libmpa/mpa_addsub.c:197
    e1c0:	f9400ba0 	ldr	x0, [x29,#16]
    e1c4:	b9400401 	ldr	w1, [x0,#4]
    e1c8:	b9403fa0 	ldr	w0, [x29,#60]
    e1cc:	6b00003f 	cmp	w1, w0
    e1d0:	54fffdac 	b.gt	e184 <__mpa_abs_add_ackum+0xa4>
/home/optee/RPi3/optee_os/lib/libmpa/mpa_addsub.c:207
    e1d4:	14000008 	b	e1f4 <__mpa_abs_add_ackum+0x114>
/home/optee/RPi3/optee_os/lib/libmpa/mpa_addsub.c:208
    e1d8:	f94023a0 	ldr	x0, [x29,#64]
    e1dc:	91001001 	add	x1, x0, #0x4
    e1e0:	f90023a1 	str	x1, [x29,#64]
    e1e4:	9100b3a1 	add	x1, x29, #0x2c
    e1e8:	aa0103e2 	mov	x2, x1
    e1ec:	52800001 	mov	w1, #0x0                   	// #0
    e1f0:	97ffff29 	bl	de94 <__mpa_full_adder_ackum>
/home/optee/RPi3/optee_os/lib/libmpa/mpa_addsub.c:207
    e1f4:	b9402fa0 	ldr	w0, [x29,#44]
    e1f8:	6b1f001f 	cmp	w0, wzr
    e1fc:	54fffee1 	b.ne	e1d8 <__mpa_abs_add_ackum+0xf8>
/home/optee/RPi3/optee_os/lib/libmpa/mpa_addsub.c:215
    e200:	f94023a1 	ldr	x1, [x29,#64]
    e204:	f9401ba0 	ldr	x0, [x29,#48]
    e208:	cb000020 	sub	x0, x1, x0
    e20c:	9342fc00 	asr	x0, x0, #2
    e210:	b9003fa0 	str	w0, [x29,#60]
/home/optee/RPi3/optee_os/lib/libmpa/mpa_addsub.c:216
    e214:	f9400fa0 	ldr	x0, [x29,#24]
    e218:	b9400401 	ldr	w1, [x0,#4]
    e21c:	b9403fa0 	ldr	w0, [x29,#60]
    e220:	6b00003f 	cmp	w1, w0
    e224:	5400008a 	b.ge	e234 <__mpa_abs_add_ackum+0x154>
/home/optee/RPi3/optee_os/lib/libmpa/mpa_addsub.c:217
    e228:	f9400fa0 	ldr	x0, [x29,#24]
    e22c:	b9403fa1 	ldr	w1, [x29,#60]
    e230:	b9000401 	str	w1, [x0,#4]
/home/optee/RPi3/optee_os/lib/libmpa/mpa_addsub.c:218
    e234:	d503201f 	nop
    e238:	a8c57bfd 	ldp	x29, x30, [sp],#80
    e23c:	d65f03c0 	ret

000000000000e240 <__mpa_abs_sub>:
__mpa_abs_sub():
/home/optee/RPi3/optee_os/lib/libmpa/mpa_addsub.c:233
    e240:	a9bb7bfd 	stp	x29, x30, [sp,#-80]!
    e244:	910003fd 	mov	x29, sp
    e248:	f9001fa0 	str	x0, [x29,#56]
    e24c:	f9001ba1 	str	x1, [x29,#48]
    e250:	f90017a2 	str	x2, [x29,#40]
    e254:	b90027a3 	str	w3, [x29,#36]
    e258:	f9000fa4 	str	x4, [x29,#24]
    e25c:	b90023a5 	str	w5, [x29,#32]
/home/optee/RPi3/optee_os/lib/libmpa/mpa_addsub.c:237
    e260:	b9004bbf 	str	wzr, [x29,#72]
/home/optee/RPi3/optee_os/lib/libmpa/mpa_addsub.c:238
    e264:	b9004fbf 	str	wzr, [x29,#76]
/home/optee/RPi3/optee_os/lib/libmpa/mpa_addsub.c:239
    e268:	14000015 	b	e2bc <__mpa_abs_sub+0x7c>
/home/optee/RPi3/optee_os/lib/libmpa/mpa_addsub.c:240
    e26c:	f94017a0 	ldr	x0, [x29,#40]
    e270:	91001001 	add	x1, x0, #0x4
    e274:	f90017a1 	str	x1, [x29,#40]
    e278:	b9400004 	ldr	w4, [x0]
    e27c:	f9400fa0 	ldr	x0, [x29,#24]
    e280:	91001001 	add	x1, x0, #0x4
    e284:	f9000fa1 	str	x1, [x29,#24]
    e288:	b9400005 	ldr	w5, [x0]
    e28c:	f9401fa0 	ldr	x0, [x29,#56]
    e290:	91001001 	add	x1, x0, #0x4
    e294:	f9001fa1 	str	x1, [x29,#56]
    e298:	910123a1 	add	x1, x29, #0x48
    e29c:	aa0103e3 	mov	x3, x1
    e2a0:	aa0003e2 	mov	x2, x0
    e2a4:	2a0503e1 	mov	w1, w5
    e2a8:	2a0403e0 	mov	w0, w4
    e2ac:	97fffee1 	bl	de30 <__mpa_full_sub>
/home/optee/RPi3/optee_os/lib/libmpa/mpa_addsub.c:241
    e2b0:	b9404fa0 	ldr	w0, [x29,#76]
    e2b4:	11000400 	add	w0, w0, #0x1
    e2b8:	b9004fa0 	str	w0, [x29,#76]
/home/optee/RPi3/optee_os/lib/libmpa/mpa_addsub.c:239
    e2bc:	b9404fa1 	ldr	w1, [x29,#76]
    e2c0:	b94023a0 	ldr	w0, [x29,#32]
    e2c4:	6b00003f 	cmp	w1, w0
    e2c8:	54fffd2b 	b.lt	e26c <__mpa_abs_sub+0x2c>
/home/optee/RPi3/optee_os/lib/libmpa/mpa_addsub.c:247
    e2cc:	14000011 	b	e310 <__mpa_abs_sub+0xd0>
/home/optee/RPi3/optee_os/lib/libmpa/mpa_addsub.c:248
    e2d0:	f94017a0 	ldr	x0, [x29,#40]
    e2d4:	91001001 	add	x1, x0, #0x4
    e2d8:	f90017a1 	str	x1, [x29,#40]
    e2dc:	b9400004 	ldr	w4, [x0]
    e2e0:	f9401fa0 	ldr	x0, [x29,#56]
    e2e4:	91001001 	add	x1, x0, #0x4
    e2e8:	f9001fa1 	str	x1, [x29,#56]
    e2ec:	910123a1 	add	x1, x29, #0x48
    e2f0:	aa0103e3 	mov	x3, x1
    e2f4:	aa0003e2 	mov	x2, x0
    e2f8:	52800001 	mov	w1, #0x0                   	// #0
    e2fc:	2a0403e0 	mov	w0, w4
    e300:	97fffecc 	bl	de30 <__mpa_full_sub>
/home/optee/RPi3/optee_os/lib/libmpa/mpa_addsub.c:249
    e304:	b9404fa0 	ldr	w0, [x29,#76]
    e308:	11000400 	add	w0, w0, #0x1
    e30c:	b9004fa0 	str	w0, [x29,#76]
/home/optee/RPi3/optee_os/lib/libmpa/mpa_addsub.c:247
    e310:	b9404ba0 	ldr	w0, [x29,#72]
    e314:	6b1f001f 	cmp	w0, wzr
    e318:	540000a0 	b.eq	e32c <__mpa_abs_sub+0xec>
/home/optee/RPi3/optee_os/lib/libmpa/mpa_addsub.c:247 (discriminator 1)
    e31c:	b9404fa1 	ldr	w1, [x29,#76]
    e320:	b94027a0 	ldr	w0, [x29,#36]
    e324:	6b00003f 	cmp	w1, w0
    e328:	54fffd4b 	b.lt	e2d0 <__mpa_abs_sub+0x90>
/home/optee/RPi3/optee_os/lib/libmpa/mpa_addsub.c:252
    e32c:	b9404fa1 	ldr	w1, [x29,#76]
    e330:	b94027a0 	ldr	w0, [x29,#36]
    e334:	6b00003f 	cmp	w1, w0
    e338:	5400024a 	b.ge	e380 <__mpa_abs_sub+0x140>
/home/optee/RPi3/optee_os/lib/libmpa/mpa_addsub.c:257
    e33c:	b94027a1 	ldr	w1, [x29,#36]
    e340:	b9404fa0 	ldr	w0, [x29,#76]
    e344:	4b000020 	sub	w0, w1, w0
    e348:	531e7400 	lsl	w0, w0, #2
    e34c:	93407c00 	sxtw	x0, w0
    e350:	aa0003e2 	mov	x2, x0
    e354:	f94017a1 	ldr	x1, [x29,#40]
    e358:	f9401fa0 	ldr	x0, [x29,#56]
    e35c:	97ffe295 	bl	6db0 <memcpy>
/home/optee/RPi3/optee_os/lib/libmpa/mpa_addsub.c:258
    e360:	b94027a1 	ldr	w1, [x29,#36]
    e364:	b9404fa0 	ldr	w0, [x29,#76]
    e368:	4b000020 	sub	w0, w1, w0
    e36c:	93407c00 	sxtw	x0, w0
    e370:	d37ef400 	lsl	x0, x0, #2
    e374:	f9401fa1 	ldr	x1, [x29,#56]
    e378:	8b000020 	add	x0, x1, x0
    e37c:	f9001fa0 	str	x0, [x29,#56]
/home/optee/RPi3/optee_os/lib/libmpa/mpa_addsub.c:261
    e380:	b94027a0 	ldr	w0, [x29,#36]
    e384:	b9004fa0 	str	w0, [x29,#76]
/home/optee/RPi3/optee_os/lib/libmpa/mpa_addsub.c:262
    e388:	14000004 	b	e398 <__mpa_abs_sub+0x158>
/home/optee/RPi3/optee_os/lib/libmpa/mpa_addsub.c:263
    e38c:	b9404fa0 	ldr	w0, [x29,#76]
    e390:	51000400 	sub	w0, w0, #0x1
    e394:	b9004fa0 	str	w0, [x29,#76]
/home/optee/RPi3/optee_os/lib/libmpa/mpa_addsub.c:262
    e398:	b9404fa0 	ldr	w0, [x29,#76]
    e39c:	6b1f001f 	cmp	w0, wzr
    e3a0:	5400010d 	b.le	e3c0 <__mpa_abs_sub+0x180>
/home/optee/RPi3/optee_os/lib/libmpa/mpa_addsub.c:262 (discriminator 1)
    e3a4:	f9401fa0 	ldr	x0, [x29,#56]
    e3a8:	d1001000 	sub	x0, x0, #0x4
    e3ac:	f9001fa0 	str	x0, [x29,#56]
    e3b0:	f9401fa0 	ldr	x0, [x29,#56]
    e3b4:	b9400000 	ldr	w0, [x0]
    e3b8:	6b1f001f 	cmp	w0, wzr
    e3bc:	54fffe80 	b.eq	e38c <__mpa_abs_sub+0x14c>
/home/optee/RPi3/optee_os/lib/libmpa/mpa_addsub.c:264
    e3c0:	f9401ba0 	ldr	x0, [x29,#48]
    e3c4:	b9404fa1 	ldr	w1, [x29,#76]
    e3c8:	b9000001 	str	w1, [x0]
/home/optee/RPi3/optee_os/lib/libmpa/mpa_addsub.c:265
    e3cc:	d503201f 	nop
    e3d0:	a8c57bfd 	ldp	x29, x30, [sp],#80
    e3d4:	d65f03c0 	ret

000000000000e3d8 <mpa_add>:
mpa_add():
/home/optee/RPi3/optee_os/lib/libmpa/mpa_addsub.c:281
    e3d8:	a9bb7bfd 	stp	x29, x30, [sp,#-80]!
    e3dc:	910003fd 	mov	x29, sp
    e3e0:	f90017a0 	str	x0, [x29,#40]
    e3e4:	f90013a1 	str	x1, [x29,#32]
    e3e8:	f9000fa2 	str	x2, [x29,#24]
    e3ec:	f9000ba3 	str	x3, [x29,#16]
/home/optee/RPi3/optee_os/lib/libmpa/mpa_addsub.c:289
    e3f0:	f94013a0 	ldr	x0, [x29,#32]
    e3f4:	b9400400 	ldr	w0, [x0,#4]
    e3f8:	6b1f001f 	cmp	w0, wzr
    e3fc:	5a80a400 	cneg	w0, w0, lt
    e400:	b9004fa0 	str	w0, [x29,#76]
/home/optee/RPi3/optee_os/lib/libmpa/mpa_addsub.c:290
    e404:	f9400fa0 	ldr	x0, [x29,#24]
    e408:	b9400400 	ldr	w0, [x0,#4]
    e40c:	6b1f001f 	cmp	w0, wzr
    e410:	5a80a400 	cneg	w0, w0, lt
    e414:	b9004ba0 	str	w0, [x29,#72]
/home/optee/RPi3/optee_os/lib/libmpa/mpa_addsub.c:292
    e418:	f94013a0 	ldr	x0, [x29,#32]
    e41c:	b9400400 	ldr	w0, [x0,#4]
    e420:	6b1f001f 	cmp	w0, wzr
    e424:	5400006b 	b.lt	e430 <mpa_add+0x58>
/home/optee/RPi3/optee_os/lib/libmpa/mpa_addsub.c:292 (discriminator 1)
    e428:	52800020 	mov	w0, #0x1                   	// #1
    e42c:	14000002 	b	e434 <mpa_add+0x5c>
/home/optee/RPi3/optee_os/lib/libmpa/mpa_addsub.c:292 (discriminator 2)
    e430:	12800000 	mov	w0, #0xffffffff            	// #-1
/home/optee/RPi3/optee_os/lib/libmpa/mpa_addsub.c:292 (discriminator 4)
    e434:	b90047a0 	str	w0, [x29,#68]
/home/optee/RPi3/optee_os/lib/libmpa/mpa_addsub.c:293 (discriminator 4)
    e438:	f9400fa0 	ldr	x0, [x29,#24]
    e43c:	b9400400 	ldr	w0, [x0,#4]
    e440:	6b1f001f 	cmp	w0, wzr
    e444:	5400006b 	b.lt	e450 <mpa_add+0x78>
/home/optee/RPi3/optee_os/lib/libmpa/mpa_addsub.c:293 (discriminator 1)
    e448:	52800020 	mov	w0, #0x1                   	// #1
    e44c:	14000002 	b	e454 <mpa_add+0x7c>
/home/optee/RPi3/optee_os/lib/libmpa/mpa_addsub.c:293 (discriminator 2)
    e450:	12800000 	mov	w0, #0xffffffff            	// #-1
/home/optee/RPi3/optee_os/lib/libmpa/mpa_addsub.c:293 (discriminator 4)
    e454:	b90043a0 	str	w0, [x29,#64]
/home/optee/RPi3/optee_os/lib/libmpa/mpa_addsub.c:296 (discriminator 4)
    e458:	f94017a1 	ldr	x1, [x29,#40]
    e45c:	f94013a0 	ldr	x0, [x29,#32]
    e460:	eb00003f 	cmp	x1, x0
    e464:	540000a0 	b.eq	e478 <mpa_add+0xa0>
/home/optee/RPi3/optee_os/lib/libmpa/mpa_addsub.c:296 (discriminator 2)
    e468:	f94017a1 	ldr	x1, [x29,#40]
    e46c:	f9400fa0 	ldr	x0, [x29,#24]
    e470:	eb00003f 	cmp	x1, x0
    e474:	54000061 	b.ne	e480 <mpa_add+0xa8>
/home/optee/RPi3/optee_os/lib/libmpa/mpa_addsub.c:296 (discriminator 3)
    e478:	52800020 	mov	w0, #0x1                   	// #1
    e47c:	14000002 	b	e484 <mpa_add+0xac>
/home/optee/RPi3/optee_os/lib/libmpa/mpa_addsub.c:296 (discriminator 4)
    e480:	52800000 	mov	w0, #0x0                   	// #0
/home/optee/RPi3/optee_os/lib/libmpa/mpa_addsub.c:296 (discriminator 6)
    e484:	b9003fa0 	str	w0, [x29,#60]
/home/optee/RPi3/optee_os/lib/libmpa/mpa_addsub.c:297 (discriminator 6)
    e488:	b9403fa0 	ldr	w0, [x29,#60]
    e48c:	6b1f001f 	cmp	w0, wzr
    e490:	540000a0 	b.eq	e4a4 <mpa_add+0xcc>
/home/optee/RPi3/optee_os/lib/libmpa/mpa_addsub.c:298
    e494:	9100c3a0 	add	x0, x29, #0x30
    e498:	f9400ba1 	ldr	x1, [x29,#16]
    e49c:	97fff9c5 	bl	cbb0 <mpa_alloc_static_temp_var>
    e4a0:	14000003 	b	e4ac <mpa_add+0xd4>
/home/optee/RPi3/optee_os/lib/libmpa/mpa_addsub.c:300
    e4a4:	f94017a0 	ldr	x0, [x29,#40]
    e4a8:	f9001ba0 	str	x0, [x29,#48]
/home/optee/RPi3/optee_os/lib/libmpa/mpa_addsub.c:306
    e4ac:	b94047a1 	ldr	w1, [x29,#68]
    e4b0:	b94043a0 	ldr	w0, [x29,#64]
    e4b4:	6b00003f 	cmp	w1, w0
    e4b8:	54000301 	b.ne	e518 <mpa_add+0x140>
/home/optee/RPi3/optee_os/lib/libmpa/mpa_addsub.c:308
    e4bc:	f9401ba0 	ldr	x0, [x29,#48]
    e4c0:	91002006 	add	x6, x0, #0x8
    e4c4:	f9401ba0 	ldr	x0, [x29,#48]
    e4c8:	91001001 	add	x1, x0, #0x4
    e4cc:	f94013a0 	ldr	x0, [x29,#32]
    e4d0:	91002002 	add	x2, x0, #0x8
    e4d4:	b9404fa3 	ldr	w3, [x29,#76]
/home/optee/RPi3/optee_os/lib/libmpa/mpa_addsub.c:309
    e4d8:	f9400fa0 	ldr	x0, [x29,#24]
    e4dc:	91002000 	add	x0, x0, #0x8
/home/optee/RPi3/optee_os/lib/libmpa/mpa_addsub.c:308
    e4e0:	b9404ba4 	ldr	w4, [x29,#72]
    e4e4:	2a0403e5 	mov	w5, w4
    e4e8:	aa0003e4 	mov	x4, x0
    e4ec:	aa0603e0 	mov	x0, x6
    e4f0:	97fffe83 	bl	defc <__mpa_abs_add>
/home/optee/RPi3/optee_os/lib/libmpa/mpa_addsub.c:311
    e4f4:	b94047a0 	ldr	w0, [x29,#68]
    e4f8:	3100041f 	cmn	w0, #0x1
    e4fc:	54000b21 	b.ne	e660 <mpa_add+0x288>
/home/optee/RPi3/optee_os/lib/libmpa/mpa_addsub.c:312
    e500:	f9401ba0 	ldr	x0, [x29,#48]
    e504:	f9401ba1 	ldr	x1, [x29,#48]
    e508:	b9400421 	ldr	w1, [x1,#4]
    e50c:	4b0103e1 	neg	w1, w1
    e510:	b9000401 	str	w1, [x0,#4]
    e514:	14000053 	b	e660 <mpa_add+0x288>
/home/optee/RPi3/optee_os/lib/libmpa/mpa_addsub.c:315
    e518:	b94047a0 	ldr	w0, [x29,#68]
    e51c:	7100041f 	cmp	w0, #0x1
    e520:	54000521 	b.ne	e5c4 <mpa_add+0x1ec>
/home/optee/RPi3/optee_os/lib/libmpa/mpa_addsub.c:316
    e524:	f9400fa1 	ldr	x1, [x29,#24]
    e528:	f94013a0 	ldr	x0, [x29,#32]
    e52c:	94000286 	bl	ef44 <__mpa_abs_greater_than>
    e530:	6b1f001f 	cmp	w0, wzr
    e534:	54000200 	b.eq	e574 <mpa_add+0x19c>
/home/optee/RPi3/optee_os/lib/libmpa/mpa_addsub.c:320
    e538:	f9401ba0 	ldr	x0, [x29,#48]
    e53c:	91002006 	add	x6, x0, #0x8
    e540:	f9401ba0 	ldr	x0, [x29,#48]
    e544:	91001001 	add	x1, x0, #0x4
/home/optee/RPi3/optee_os/lib/libmpa/mpa_addsub.c:321
    e548:	f94013a0 	ldr	x0, [x29,#32]
    e54c:	91002002 	add	x2, x0, #0x8
/home/optee/RPi3/optee_os/lib/libmpa/mpa_addsub.c:320
    e550:	b9404fa3 	ldr	w3, [x29,#76]
/home/optee/RPi3/optee_os/lib/libmpa/mpa_addsub.c:321
    e554:	f9400fa0 	ldr	x0, [x29,#24]
    e558:	91002000 	add	x0, x0, #0x8
/home/optee/RPi3/optee_os/lib/libmpa/mpa_addsub.c:320
    e55c:	b9404ba4 	ldr	w4, [x29,#72]
    e560:	2a0403e5 	mov	w5, w4
    e564:	aa0003e4 	mov	x4, x0
    e568:	aa0603e0 	mov	x0, x6
    e56c:	97ffff35 	bl	e240 <__mpa_abs_sub>
    e570:	1400003c 	b	e660 <mpa_add+0x288>
/home/optee/RPi3/optee_os/lib/libmpa/mpa_addsub.c:325
    e574:	f9401ba0 	ldr	x0, [x29,#48]
    e578:	91002006 	add	x6, x0, #0x8
    e57c:	f9401ba0 	ldr	x0, [x29,#48]
    e580:	91001001 	add	x1, x0, #0x4
/home/optee/RPi3/optee_os/lib/libmpa/mpa_addsub.c:326
    e584:	f9400fa0 	ldr	x0, [x29,#24]
    e588:	91002002 	add	x2, x0, #0x8
/home/optee/RPi3/optee_os/lib/libmpa/mpa_addsub.c:325
    e58c:	b9404ba3 	ldr	w3, [x29,#72]
/home/optee/RPi3/optee_os/lib/libmpa/mpa_addsub.c:326
    e590:	f94013a0 	ldr	x0, [x29,#32]
    e594:	91002000 	add	x0, x0, #0x8
/home/optee/RPi3/optee_os/lib/libmpa/mpa_addsub.c:325
    e598:	b9404fa4 	ldr	w4, [x29,#76]
    e59c:	2a0403e5 	mov	w5, w4
    e5a0:	aa0003e4 	mov	x4, x0
    e5a4:	aa0603e0 	mov	x0, x6
    e5a8:	97ffff26 	bl	e240 <__mpa_abs_sub>
/home/optee/RPi3/optee_os/lib/libmpa/mpa_addsub.c:327
    e5ac:	f9401ba0 	ldr	x0, [x29,#48]
    e5b0:	f9401ba1 	ldr	x1, [x29,#48]
    e5b4:	b9400421 	ldr	w1, [x1,#4]
    e5b8:	4b0103e1 	neg	w1, w1
    e5bc:	b9000401 	str	w1, [x0,#4]
    e5c0:	14000028 	b	e660 <mpa_add+0x288>
/home/optee/RPi3/optee_os/lib/libmpa/mpa_addsub.c:331
    e5c4:	f9400fa1 	ldr	x1, [x29,#24]
    e5c8:	f94013a0 	ldr	x0, [x29,#32]
    e5cc:	9400025e 	bl	ef44 <__mpa_abs_greater_than>
    e5d0:	6b1f001f 	cmp	w0, wzr
    e5d4:	540002a0 	b.eq	e628 <mpa_add+0x250>
/home/optee/RPi3/optee_os/lib/libmpa/mpa_addsub.c:335
    e5d8:	f9401ba0 	ldr	x0, [x29,#48]
    e5dc:	91002006 	add	x6, x0, #0x8
    e5e0:	f9401ba0 	ldr	x0, [x29,#48]
    e5e4:	91001001 	add	x1, x0, #0x4
/home/optee/RPi3/optee_os/lib/libmpa/mpa_addsub.c:336
    e5e8:	f94013a0 	ldr	x0, [x29,#32]
    e5ec:	91002002 	add	x2, x0, #0x8
/home/optee/RPi3/optee_os/lib/libmpa/mpa_addsub.c:335
    e5f0:	b9404fa3 	ldr	w3, [x29,#76]
/home/optee/RPi3/optee_os/lib/libmpa/mpa_addsub.c:336
    e5f4:	f9400fa0 	ldr	x0, [x29,#24]
    e5f8:	91002000 	add	x0, x0, #0x8
/home/optee/RPi3/optee_os/lib/libmpa/mpa_addsub.c:335
    e5fc:	b9404ba4 	ldr	w4, [x29,#72]
    e600:	2a0403e5 	mov	w5, w4
    e604:	aa0003e4 	mov	x4, x0
    e608:	aa0603e0 	mov	x0, x6
    e60c:	97ffff0d 	bl	e240 <__mpa_abs_sub>
/home/optee/RPi3/optee_os/lib/libmpa/mpa_addsub.c:337
    e610:	f9401ba0 	ldr	x0, [x29,#48]
    e614:	f9401ba1 	ldr	x1, [x29,#48]
    e618:	b9400421 	ldr	w1, [x1,#4]
    e61c:	4b0103e1 	neg	w1, w1
    e620:	b9000401 	str	w1, [x0,#4]
    e624:	1400000f 	b	e660 <mpa_add+0x288>
/home/optee/RPi3/optee_os/lib/libmpa/mpa_addsub.c:340
    e628:	f9401ba0 	ldr	x0, [x29,#48]
    e62c:	91002006 	add	x6, x0, #0x8
    e630:	f9401ba0 	ldr	x0, [x29,#48]
    e634:	91001001 	add	x1, x0, #0x4
/home/optee/RPi3/optee_os/lib/libmpa/mpa_addsub.c:341
    e638:	f9400fa0 	ldr	x0, [x29,#24]
    e63c:	91002002 	add	x2, x0, #0x8
/home/optee/RPi3/optee_os/lib/libmpa/mpa_addsub.c:340
    e640:	b9404ba3 	ldr	w3, [x29,#72]
/home/optee/RPi3/optee_os/lib/libmpa/mpa_addsub.c:341
    e644:	f94013a0 	ldr	x0, [x29,#32]
    e648:	91002000 	add	x0, x0, #0x8
/home/optee/RPi3/optee_os/lib/libmpa/mpa_addsub.c:340
    e64c:	b9404fa4 	ldr	w4, [x29,#76]
    e650:	2a0403e5 	mov	w5, w4
    e654:	aa0003e4 	mov	x4, x0
    e658:	aa0603e0 	mov	x0, x6
    e65c:	97fffef9 	bl	e240 <__mpa_abs_sub>
/home/optee/RPi3/optee_os/lib/libmpa/mpa_addsub.c:346
    e660:	f9401ba0 	ldr	x0, [x29,#48]
    e664:	aa0003e1 	mov	x1, x0
    e668:	f94017a0 	ldr	x0, [x29,#40]
    e66c:	97ffedc6 	bl	9d84 <mpa_copy>
/home/optee/RPi3/optee_os/lib/libmpa/mpa_addsub.c:347
    e670:	b9403fa0 	ldr	w0, [x29,#60]
    e674:	6b1f001f 	cmp	w0, wzr
    e678:	54000080 	b.eq	e688 <mpa_add+0x2b0>
/home/optee/RPi3/optee_os/lib/libmpa/mpa_addsub.c:348
    e67c:	9100c3a0 	add	x0, x29, #0x30
    e680:	f9400ba1 	ldr	x1, [x29,#16]
    e684:	97fff956 	bl	cbdc <mpa_free_static_temp_var>
/home/optee/RPi3/optee_os/lib/libmpa/mpa_addsub.c:349
    e688:	d503201f 	nop
    e68c:	a8c57bfd 	ldp	x29, x30, [sp],#80
    e690:	d65f03c0 	ret

000000000000e694 <mpa_sub>:
mpa_sub():
/home/optee/RPi3/optee_os/lib/libmpa/mpa_addsub.c:359
    e694:	a9bb7bfd 	stp	x29, x30, [sp,#-80]!
    e698:	910003fd 	mov	x29, sp
    e69c:	f90017a0 	str	x0, [x29,#40]
    e6a0:	f90013a1 	str	x1, [x29,#32]
    e6a4:	f9000fa2 	str	x2, [x29,#24]
    e6a8:	f9000ba3 	str	x3, [x29,#16]
/home/optee/RPi3/optee_os/lib/libmpa/mpa_addsub.c:367
    e6ac:	f94013a0 	ldr	x0, [x29,#32]
    e6b0:	b9400400 	ldr	w0, [x0,#4]
    e6b4:	6b1f001f 	cmp	w0, wzr
    e6b8:	5a80a400 	cneg	w0, w0, lt
    e6bc:	b9004fa0 	str	w0, [x29,#76]
/home/optee/RPi3/optee_os/lib/libmpa/mpa_addsub.c:368
    e6c0:	f9400fa0 	ldr	x0, [x29,#24]
    e6c4:	b9400400 	ldr	w0, [x0,#4]
    e6c8:	6b1f001f 	cmp	w0, wzr
    e6cc:	5a80a400 	cneg	w0, w0, lt
    e6d0:	b9004ba0 	str	w0, [x29,#72]
/home/optee/RPi3/optee_os/lib/libmpa/mpa_addsub.c:370
    e6d4:	f94013a0 	ldr	x0, [x29,#32]
    e6d8:	b9400400 	ldr	w0, [x0,#4]
    e6dc:	6b1f001f 	cmp	w0, wzr
    e6e0:	5400006b 	b.lt	e6ec <mpa_sub+0x58>
/home/optee/RPi3/optee_os/lib/libmpa/mpa_addsub.c:370 (discriminator 1)
    e6e4:	52800020 	mov	w0, #0x1                   	// #1
    e6e8:	14000002 	b	e6f0 <mpa_sub+0x5c>
/home/optee/RPi3/optee_os/lib/libmpa/mpa_addsub.c:370 (discriminator 2)
    e6ec:	12800000 	mov	w0, #0xffffffff            	// #-1
/home/optee/RPi3/optee_os/lib/libmpa/mpa_addsub.c:370 (discriminator 4)
    e6f0:	b90047a0 	str	w0, [x29,#68]
/home/optee/RPi3/optee_os/lib/libmpa/mpa_addsub.c:371 (discriminator 4)
    e6f4:	f9400fa0 	ldr	x0, [x29,#24]
    e6f8:	b9400400 	ldr	w0, [x0,#4]
    e6fc:	6b1f001f 	cmp	w0, wzr
    e700:	5400006b 	b.lt	e70c <mpa_sub+0x78>
/home/optee/RPi3/optee_os/lib/libmpa/mpa_addsub.c:371 (discriminator 1)
    e704:	52800020 	mov	w0, #0x1                   	// #1
    e708:	14000002 	b	e710 <mpa_sub+0x7c>
/home/optee/RPi3/optee_os/lib/libmpa/mpa_addsub.c:371 (discriminator 2)
    e70c:	12800000 	mov	w0, #0xffffffff            	// #-1
/home/optee/RPi3/optee_os/lib/libmpa/mpa_addsub.c:371 (discriminator 4)
    e710:	b90043a0 	str	w0, [x29,#64]
/home/optee/RPi3/optee_os/lib/libmpa/mpa_addsub.c:374 (discriminator 4)
    e714:	f94017a1 	ldr	x1, [x29,#40]
    e718:	f94013a0 	ldr	x0, [x29,#32]
    e71c:	eb00003f 	cmp	x1, x0
    e720:	540000a0 	b.eq	e734 <mpa_sub+0xa0>
/home/optee/RPi3/optee_os/lib/libmpa/mpa_addsub.c:374 (discriminator 2)
    e724:	f94017a1 	ldr	x1, [x29,#40]
    e728:	f9400fa0 	ldr	x0, [x29,#24]
    e72c:	eb00003f 	cmp	x1, x0
    e730:	54000061 	b.ne	e73c <mpa_sub+0xa8>
/home/optee/RPi3/optee_os/lib/libmpa/mpa_addsub.c:374 (discriminator 3)
    e734:	52800020 	mov	w0, #0x1                   	// #1
    e738:	14000002 	b	e740 <mpa_sub+0xac>
/home/optee/RPi3/optee_os/lib/libmpa/mpa_addsub.c:374 (discriminator 4)
    e73c:	52800000 	mov	w0, #0x0                   	// #0
/home/optee/RPi3/optee_os/lib/libmpa/mpa_addsub.c:374 (discriminator 6)
    e740:	b9003fa0 	str	w0, [x29,#60]
/home/optee/RPi3/optee_os/lib/libmpa/mpa_addsub.c:375 (discriminator 6)
    e744:	b9403fa0 	ldr	w0, [x29,#60]
    e748:	6b1f001f 	cmp	w0, wzr
    e74c:	540000a0 	b.eq	e760 <mpa_sub+0xcc>
/home/optee/RPi3/optee_os/lib/libmpa/mpa_addsub.c:376
    e750:	9100c3a0 	add	x0, x29, #0x30
    e754:	f9400ba1 	ldr	x1, [x29,#16]
    e758:	97fff916 	bl	cbb0 <mpa_alloc_static_temp_var>
    e75c:	14000003 	b	e768 <mpa_sub+0xd4>
/home/optee/RPi3/optee_os/lib/libmpa/mpa_addsub.c:378
    e760:	f94017a0 	ldr	x0, [x29,#40]
    e764:	f9001ba0 	str	x0, [x29,#48]
/home/optee/RPi3/optee_os/lib/libmpa/mpa_addsub.c:384
    e768:	b94047a1 	ldr	w1, [x29,#68]
    e76c:	b94043a0 	ldr	w0, [x29,#64]
    e770:	6b00003f 	cmp	w1, w0
    e774:	54000a81 	b.ne	e8c4 <mpa_sub+0x230>
/home/optee/RPi3/optee_os/lib/libmpa/mpa_addsub.c:385
    e778:	b94047a0 	ldr	w0, [x29,#68]
    e77c:	7100041f 	cmp	w0, #0x1
    e780:	54000521 	b.ne	e824 <mpa_sub+0x190>
/home/optee/RPi3/optee_os/lib/libmpa/mpa_addsub.c:386
    e784:	f9400fa1 	ldr	x1, [x29,#24]
    e788:	f94013a0 	ldr	x0, [x29,#32]
    e78c:	940001ee 	bl	ef44 <__mpa_abs_greater_than>
    e790:	6b1f001f 	cmp	w0, wzr
    e794:	54000200 	b.eq	e7d4 <mpa_sub+0x140>
/home/optee/RPi3/optee_os/lib/libmpa/mpa_addsub.c:389
    e798:	f9401ba0 	ldr	x0, [x29,#48]
    e79c:	91002006 	add	x6, x0, #0x8
    e7a0:	f9401ba0 	ldr	x0, [x29,#48]
    e7a4:	91001001 	add	x1, x0, #0x4
/home/optee/RPi3/optee_os/lib/libmpa/mpa_addsub.c:390
    e7a8:	f94013a0 	ldr	x0, [x29,#32]
    e7ac:	91002002 	add	x2, x0, #0x8
/home/optee/RPi3/optee_os/lib/libmpa/mpa_addsub.c:389
    e7b0:	b9404fa3 	ldr	w3, [x29,#76]
/home/optee/RPi3/optee_os/lib/libmpa/mpa_addsub.c:390
    e7b4:	f9400fa0 	ldr	x0, [x29,#24]
    e7b8:	91002000 	add	x0, x0, #0x8
/home/optee/RPi3/optee_os/lib/libmpa/mpa_addsub.c:389
    e7bc:	b9404ba4 	ldr	w4, [x29,#72]
    e7c0:	2a0403e5 	mov	w5, w4
    e7c4:	aa0003e4 	mov	x4, x0
    e7c8:	aa0603e0 	mov	x0, x6
    e7cc:	97fffe9d 	bl	e240 <__mpa_abs_sub>
    e7d0:	14000062 	b	e958 <mpa_sub+0x2c4>
/home/optee/RPi3/optee_os/lib/libmpa/mpa_addsub.c:393
    e7d4:	f9401ba0 	ldr	x0, [x29,#48]
    e7d8:	91002006 	add	x6, x0, #0x8
    e7dc:	f9401ba0 	ldr	x0, [x29,#48]
    e7e0:	91001001 	add	x1, x0, #0x4
/home/optee/RPi3/optee_os/lib/libmpa/mpa_addsub.c:394
    e7e4:	f9400fa0 	ldr	x0, [x29,#24]
    e7e8:	91002002 	add	x2, x0, #0x8
/home/optee/RPi3/optee_os/lib/libmpa/mpa_addsub.c:393
    e7ec:	b9404ba3 	ldr	w3, [x29,#72]
/home/optee/RPi3/optee_os/lib/libmpa/mpa_addsub.c:394
    e7f0:	f94013a0 	ldr	x0, [x29,#32]
    e7f4:	91002000 	add	x0, x0, #0x8
/home/optee/RPi3/optee_os/lib/libmpa/mpa_addsub.c:393
    e7f8:	b9404fa4 	ldr	w4, [x29,#76]
    e7fc:	2a0403e5 	mov	w5, w4
    e800:	aa0003e4 	mov	x4, x0
    e804:	aa0603e0 	mov	x0, x6
    e808:	97fffe8e 	bl	e240 <__mpa_abs_sub>
/home/optee/RPi3/optee_os/lib/libmpa/mpa_addsub.c:395
    e80c:	f9401ba0 	ldr	x0, [x29,#48]
    e810:	f9401ba1 	ldr	x1, [x29,#48]
    e814:	b9400421 	ldr	w1, [x1,#4]
    e818:	4b0103e1 	neg	w1, w1
    e81c:	b9000401 	str	w1, [x0,#4]
    e820:	1400004e 	b	e958 <mpa_sub+0x2c4>
/home/optee/RPi3/optee_os/lib/libmpa/mpa_addsub.c:400
    e824:	f9400fa1 	ldr	x1, [x29,#24]
    e828:	f94013a0 	ldr	x0, [x29,#32]
    e82c:	940001c6 	bl	ef44 <__mpa_abs_greater_than>
    e830:	6b1f001f 	cmp	w0, wzr
    e834:	540002a0 	b.eq	e888 <mpa_sub+0x1f4>
/home/optee/RPi3/optee_os/lib/libmpa/mpa_addsub.c:404
    e838:	f9401ba0 	ldr	x0, [x29,#48]
    e83c:	91002006 	add	x6, x0, #0x8
    e840:	f9401ba0 	ldr	x0, [x29,#48]
    e844:	91001001 	add	x1, x0, #0x4
/home/optee/RPi3/optee_os/lib/libmpa/mpa_addsub.c:405
    e848:	f94013a0 	ldr	x0, [x29,#32]
    e84c:	91002002 	add	x2, x0, #0x8
/home/optee/RPi3/optee_os/lib/libmpa/mpa_addsub.c:404
    e850:	b9404fa3 	ldr	w3, [x29,#76]
/home/optee/RPi3/optee_os/lib/libmpa/mpa_addsub.c:405
    e854:	f9400fa0 	ldr	x0, [x29,#24]
    e858:	91002000 	add	x0, x0, #0x8
/home/optee/RPi3/optee_os/lib/libmpa/mpa_addsub.c:404
    e85c:	b9404ba4 	ldr	w4, [x29,#72]
    e860:	2a0403e5 	mov	w5, w4
    e864:	aa0003e4 	mov	x4, x0
    e868:	aa0603e0 	mov	x0, x6
    e86c:	97fffe75 	bl	e240 <__mpa_abs_sub>
/home/optee/RPi3/optee_os/lib/libmpa/mpa_addsub.c:406
    e870:	f9401ba0 	ldr	x0, [x29,#48]
    e874:	f9401ba1 	ldr	x1, [x29,#48]
    e878:	b9400421 	ldr	w1, [x1,#4]
    e87c:	4b0103e1 	neg	w1, w1
    e880:	b9000401 	str	w1, [x0,#4]
    e884:	14000035 	b	e958 <mpa_sub+0x2c4>
/home/optee/RPi3/optee_os/lib/libmpa/mpa_addsub.c:409
    e888:	f9401ba0 	ldr	x0, [x29,#48]
    e88c:	91002006 	add	x6, x0, #0x8
    e890:	f9401ba0 	ldr	x0, [x29,#48]
    e894:	91001001 	add	x1, x0, #0x4
/home/optee/RPi3/optee_os/lib/libmpa/mpa_addsub.c:410
    e898:	f9400fa0 	ldr	x0, [x29,#24]
    e89c:	91002002 	add	x2, x0, #0x8
/home/optee/RPi3/optee_os/lib/libmpa/mpa_addsub.c:409
    e8a0:	b9404ba3 	ldr	w3, [x29,#72]
/home/optee/RPi3/optee_os/lib/libmpa/mpa_addsub.c:410
    e8a4:	f94013a0 	ldr	x0, [x29,#32]
    e8a8:	91002000 	add	x0, x0, #0x8
/home/optee/RPi3/optee_os/lib/libmpa/mpa_addsub.c:409
    e8ac:	b9404fa4 	ldr	w4, [x29,#76]
    e8b0:	2a0403e5 	mov	w5, w4
    e8b4:	aa0003e4 	mov	x4, x0
    e8b8:	aa0603e0 	mov	x0, x6
    e8bc:	97fffe61 	bl	e240 <__mpa_abs_sub>
    e8c0:	14000026 	b	e958 <mpa_sub+0x2c4>
/home/optee/RPi3/optee_os/lib/libmpa/mpa_addsub.c:414
    e8c4:	b94047a0 	ldr	w0, [x29,#68]
    e8c8:	7100041f 	cmp	w0, #0x1
    e8cc:	54000201 	b.ne	e90c <mpa_sub+0x278>
/home/optee/RPi3/optee_os/lib/libmpa/mpa_addsub.c:416
    e8d0:	f9401ba0 	ldr	x0, [x29,#48]
    e8d4:	91002006 	add	x6, x0, #0x8
    e8d8:	f9401ba0 	ldr	x0, [x29,#48]
    e8dc:	91001001 	add	x1, x0, #0x4
    e8e0:	f94013a0 	ldr	x0, [x29,#32]
    e8e4:	91002002 	add	x2, x0, #0x8
    e8e8:	b9404fa3 	ldr	w3, [x29,#76]
/home/optee/RPi3/optee_os/lib/libmpa/mpa_addsub.c:417
    e8ec:	f9400fa0 	ldr	x0, [x29,#24]
    e8f0:	91002000 	add	x0, x0, #0x8
/home/optee/RPi3/optee_os/lib/libmpa/mpa_addsub.c:416
    e8f4:	b9404ba4 	ldr	w4, [x29,#72]
    e8f8:	2a0403e5 	mov	w5, w4
    e8fc:	aa0003e4 	mov	x4, x0
    e900:	aa0603e0 	mov	x0, x6
    e904:	97fffd7e 	bl	defc <__mpa_abs_add>
    e908:	14000014 	b	e958 <mpa_sub+0x2c4>
/home/optee/RPi3/optee_os/lib/libmpa/mpa_addsub.c:420
    e90c:	f9401ba0 	ldr	x0, [x29,#48]
    e910:	91002006 	add	x6, x0, #0x8
    e914:	f9401ba0 	ldr	x0, [x29,#48]
    e918:	91001001 	add	x1, x0, #0x4
    e91c:	f94013a0 	ldr	x0, [x29,#32]
    e920:	91002002 	add	x2, x0, #0x8
    e924:	b9404fa3 	ldr	w3, [x29,#76]
/home/optee/RPi3/optee_os/lib/libmpa/mpa_addsub.c:421
    e928:	f9400fa0 	ldr	x0, [x29,#24]
    e92c:	91002000 	add	x0, x0, #0x8
/home/optee/RPi3/optee_os/lib/libmpa/mpa_addsub.c:420
    e930:	b9404ba4 	ldr	w4, [x29,#72]
    e934:	2a0403e5 	mov	w5, w4
    e938:	aa0003e4 	mov	x4, x0
    e93c:	aa0603e0 	mov	x0, x6
    e940:	97fffd6f 	bl	defc <__mpa_abs_add>
/home/optee/RPi3/optee_os/lib/libmpa/mpa_addsub.c:422
    e944:	f9401ba0 	ldr	x0, [x29,#48]
    e948:	f9401ba1 	ldr	x1, [x29,#48]
    e94c:	b9400421 	ldr	w1, [x1,#4]
    e950:	4b0103e1 	neg	w1, w1
    e954:	b9000401 	str	w1, [x0,#4]
/home/optee/RPi3/optee_os/lib/libmpa/mpa_addsub.c:426
    e958:	f9401ba0 	ldr	x0, [x29,#48]
    e95c:	aa0003e1 	mov	x1, x0
    e960:	f94017a0 	ldr	x0, [x29,#40]
    e964:	97ffed08 	bl	9d84 <mpa_copy>
/home/optee/RPi3/optee_os/lib/libmpa/mpa_addsub.c:427
    e968:	b9403fa0 	ldr	w0, [x29,#60]
    e96c:	6b1f001f 	cmp	w0, wzr
    e970:	54000080 	b.eq	e980 <mpa_sub+0x2ec>
/home/optee/RPi3/optee_os/lib/libmpa/mpa_addsub.c:428
    e974:	9100c3a0 	add	x0, x29, #0x30
    e978:	f9400ba1 	ldr	x1, [x29,#16]
    e97c:	97fff898 	bl	cbdc <mpa_free_static_temp_var>
/home/optee/RPi3/optee_os/lib/libmpa/mpa_addsub.c:429
    e980:	d503201f 	nop
    e984:	a8c57bfd 	ldp	x29, x30, [sp],#80
    e988:	d65f03c0 	ret

000000000000e98c <mpa_neg>:
mpa_neg():
/home/optee/RPi3/optee_os/lib/libmpa/mpa_addsub.c:438
    e98c:	a9be7bfd 	stp	x29, x30, [sp,#-32]!
    e990:	910003fd 	mov	x29, sp
    e994:	f9000fa0 	str	x0, [x29,#24]
    e998:	f9000ba1 	str	x1, [x29,#16]
/home/optee/RPi3/optee_os/lib/libmpa/mpa_addsub.c:439
    e99c:	f9400ba1 	ldr	x1, [x29,#16]
    e9a0:	f9400fa0 	ldr	x0, [x29,#24]
    e9a4:	97ffecf8 	bl	9d84 <mpa_copy>
/home/optee/RPi3/optee_os/lib/libmpa/mpa_addsub.c:440
    e9a8:	f9400fa0 	ldr	x0, [x29,#24]
    e9ac:	b9400400 	ldr	w0, [x0,#4]
    e9b0:	4b0003e1 	neg	w1, w0
    e9b4:	f9400fa0 	ldr	x0, [x29,#24]
    e9b8:	b9000401 	str	w1, [x0,#4]
/home/optee/RPi3/optee_os/lib/libmpa/mpa_addsub.c:441
    e9bc:	d503201f 	nop
    e9c0:	a8c27bfd 	ldp	x29, x30, [sp],#32
    e9c4:	d65f03c0 	ret

000000000000e9c8 <mpa_add_word>:
mpa_add_word():
/home/optee/RPi3/optee_os/lib/libmpa/mpa_addsub.c:450
    e9c8:	a9bb7bfd 	stp	x29, x30, [sp,#-80]!
    e9cc:	910003fd 	mov	x29, sp
    e9d0:	f90017a0 	str	x0, [x29,#40]
    e9d4:	f90013a1 	str	x1, [x29,#32]
    e9d8:	b9001fa2 	str	w2, [x29,#28]
    e9dc:	f9000ba3 	str	x3, [x29,#16]
/home/optee/RPi3/optee_os/lib/libmpa/mpa_addsub.c:456
    e9e0:	b9401fa0 	ldr	w0, [x29,#28]
    e9e4:	6b1f001f 	cmp	w0, wzr
    e9e8:	540000a1 	b.ne	e9fc <mpa_add_word+0x34>
/home/optee/RPi3/optee_os/lib/libmpa/mpa_addsub.c:457
    e9ec:	f94013a1 	ldr	x1, [x29,#32]
    e9f0:	f94017a0 	ldr	x0, [x29,#40]
    e9f4:	97ffece4 	bl	9d84 <mpa_copy>
/home/optee/RPi3/optee_os/lib/libmpa/mpa_addsub.c:458
    e9f8:	14000070 	b	ebb8 <mpa_add_word+0x1f0>
/home/optee/RPi3/optee_os/lib/libmpa/mpa_addsub.c:461
    e9fc:	f94013a0 	ldr	x0, [x29,#32]
    ea00:	b9400400 	ldr	w0, [x0,#4]
    ea04:	6b1f001f 	cmp	w0, wzr
    ea08:	54000101 	b.ne	ea28 <mpa_add_word+0x60>
/home/optee/RPi3/optee_os/lib/libmpa/mpa_addsub.c:462
    ea0c:	f94017a0 	ldr	x0, [x29,#40]
    ea10:	52800021 	mov	w1, #0x1                   	// #1
    ea14:	b9000401 	str	w1, [x0,#4]
/home/optee/RPi3/optee_os/lib/libmpa/mpa_addsub.c:463
    ea18:	b9401fa1 	ldr	w1, [x29,#28]
    ea1c:	f94017a0 	ldr	x0, [x29,#40]
    ea20:	b9000801 	str	w1, [x0,#8]
/home/optee/RPi3/optee_os/lib/libmpa/mpa_addsub.c:464
    ea24:	14000065 	b	ebb8 <mpa_add_word+0x1f0>
/home/optee/RPi3/optee_os/lib/libmpa/mpa_addsub.c:467
    ea28:	f94013a0 	ldr	x0, [x29,#32]
    ea2c:	b9400400 	ldr	w0, [x0,#4]
    ea30:	6b1f001f 	cmp	w0, wzr
    ea34:	5400006b 	b.lt	ea40 <mpa_add_word+0x78>
/home/optee/RPi3/optee_os/lib/libmpa/mpa_addsub.c:467 (discriminator 1)
    ea38:	52800020 	mov	w0, #0x1                   	// #1
    ea3c:	14000002 	b	ea44 <mpa_add_word+0x7c>
/home/optee/RPi3/optee_os/lib/libmpa/mpa_addsub.c:467 (discriminator 2)
    ea40:	12800000 	mov	w0, #0xffffffff            	// #-1
/home/optee/RPi3/optee_os/lib/libmpa/mpa_addsub.c:467 (discriminator 4)
    ea44:	b9004fa0 	str	w0, [x29,#76]
/home/optee/RPi3/optee_os/lib/libmpa/mpa_addsub.c:468 (discriminator 4)
    ea48:	f94013a0 	ldr	x0, [x29,#32]
    ea4c:	b9400400 	ldr	w0, [x0,#4]
    ea50:	6b1f001f 	cmp	w0, wzr
    ea54:	5a80a400 	cneg	w0, w0, lt
    ea58:	b9004ba0 	str	w0, [x29,#72]
/home/optee/RPi3/optee_os/lib/libmpa/mpa_addsub.c:471 (discriminator 4)
    ea5c:	f94017a1 	ldr	x1, [x29,#40]
    ea60:	f94013a0 	ldr	x0, [x29,#32]
    ea64:	eb00003f 	cmp	x1, x0
    ea68:	1a9f17e0 	cset	w0, eq
    ea6c:	53001c00 	uxtb	w0, w0
    ea70:	b90047a0 	str	w0, [x29,#68]
/home/optee/RPi3/optee_os/lib/libmpa/mpa_addsub.c:472 (discriminator 4)
    ea74:	b94047a0 	ldr	w0, [x29,#68]
    ea78:	6b1f001f 	cmp	w0, wzr
    ea7c:	540000a0 	b.eq	ea90 <mpa_add_word+0xc8>
/home/optee/RPi3/optee_os/lib/libmpa/mpa_addsub.c:473
    ea80:	9100e3a0 	add	x0, x29, #0x38
    ea84:	f9400ba1 	ldr	x1, [x29,#16]
    ea88:	97fff84a 	bl	cbb0 <mpa_alloc_static_temp_var>
    ea8c:	14000003 	b	ea98 <mpa_add_word+0xd0>
/home/optee/RPi3/optee_os/lib/libmpa/mpa_addsub.c:475
    ea90:	f94017a0 	ldr	x0, [x29,#40]
    ea94:	f9001fa0 	str	x0, [x29,#56]
/home/optee/RPi3/optee_os/lib/libmpa/mpa_addsub.c:478
    ea98:	b9404fa0 	ldr	w0, [x29,#76]
    ea9c:	7100041f 	cmp	w0, #0x1
    eaa0:	54000201 	b.ne	eae0 <mpa_add_word+0x118>
/home/optee/RPi3/optee_os/lib/libmpa/mpa_addsub.c:480
    eaa4:	f9401fa0 	ldr	x0, [x29,#56]
    eaa8:	91002006 	add	x6, x0, #0x8
    eaac:	f9401fa0 	ldr	x0, [x29,#56]
    eab0:	91001001 	add	x1, x0, #0x4
    eab4:	f94013a0 	ldr	x0, [x29,#32]
    eab8:	91002000 	add	x0, x0, #0x8
    eabc:	b9404ba2 	ldr	w2, [x29,#72]
    eac0:	910073a3 	add	x3, x29, #0x1c
    eac4:	52800025 	mov	w5, #0x1                   	// #1
    eac8:	aa0303e4 	mov	x4, x3
    eacc:	2a0203e3 	mov	w3, w2
    ead0:	aa0003e2 	mov	x2, x0
    ead4:	aa0603e0 	mov	x0, x6
    ead8:	97fffd09 	bl	defc <__mpa_abs_add>
    eadc:	1400002d 	b	eb90 <mpa_add_word+0x1c8>
/home/optee/RPi3/optee_os/lib/libmpa/mpa_addsub.c:483
    eae0:	f94013a0 	ldr	x0, [x29,#32]
    eae4:	b9400400 	ldr	w0, [x0,#4]
    eae8:	6b1f001f 	cmp	w0, wzr
    eaec:	5a80a400 	cneg	w0, w0, lt
    eaf0:	7100041f 	cmp	w0, #0x1
    eaf4:	540000cc 	b.gt	eb0c <mpa_add_word+0x144>
/home/optee/RPi3/optee_os/lib/libmpa/mpa_addsub.c:483 (discriminator 1)
    eaf8:	f94013a0 	ldr	x0, [x29,#32]
    eafc:	b9400801 	ldr	w1, [x0,#8]
    eb00:	b9401fa0 	ldr	w0, [x29,#28]
    eb04:	6b00003f 	cmp	w1, w0
    eb08:	540002a9 	b.ls	eb5c <mpa_add_word+0x194>
/home/optee/RPi3/optee_os/lib/libmpa/mpa_addsub.c:487
    eb0c:	f9401fa0 	ldr	x0, [x29,#56]
    eb10:	91002006 	add	x6, x0, #0x8
    eb14:	f9401fa0 	ldr	x0, [x29,#56]
    eb18:	91001001 	add	x1, x0, #0x4
    eb1c:	f94013a0 	ldr	x0, [x29,#32]
    eb20:	91002000 	add	x0, x0, #0x8
    eb24:	b9404ba2 	ldr	w2, [x29,#72]
    eb28:	910073a3 	add	x3, x29, #0x1c
    eb2c:	52800025 	mov	w5, #0x1                   	// #1
    eb30:	aa0303e4 	mov	x4, x3
    eb34:	2a0203e3 	mov	w3, w2
    eb38:	aa0003e2 	mov	x2, x0
    eb3c:	aa0603e0 	mov	x0, x6
    eb40:	97fffdc0 	bl	e240 <__mpa_abs_sub>
/home/optee/RPi3/optee_os/lib/libmpa/mpa_addsub.c:489
    eb44:	f9401fa0 	ldr	x0, [x29,#56]
    eb48:	f9401fa1 	ldr	x1, [x29,#56]
    eb4c:	b9400421 	ldr	w1, [x1,#4]
    eb50:	4b0103e1 	neg	w1, w1
    eb54:	b9000401 	str	w1, [x0,#4]
    eb58:	1400000e 	b	eb90 <mpa_add_word+0x1c8>
/home/optee/RPi3/optee_os/lib/libmpa/mpa_addsub.c:492
    eb5c:	f9401fa0 	ldr	x0, [x29,#56]
    eb60:	b9401fa2 	ldr	w2, [x29,#28]
    eb64:	f94013a1 	ldr	x1, [x29,#32]
    eb68:	b9400821 	ldr	w1, [x1,#8]
    eb6c:	4b010041 	sub	w1, w2, w1
    eb70:	b9000801 	str	w1, [x0,#8]
/home/optee/RPi3/optee_os/lib/libmpa/mpa_addsub.c:493
    eb74:	f9401fa0 	ldr	x0, [x29,#56]
    eb78:	f9401fa1 	ldr	x1, [x29,#56]
    eb7c:	b9400821 	ldr	w1, [x1,#8]
    eb80:	6b1f003f 	cmp	w1, wzr
    eb84:	1a9f07e1 	cset	w1, ne
    eb88:	53001c21 	uxtb	w1, w1
    eb8c:	b9000401 	str	w1, [x0,#4]
/home/optee/RPi3/optee_os/lib/libmpa/mpa_addsub.c:497
    eb90:	f9401fa0 	ldr	x0, [x29,#56]
    eb94:	aa0003e1 	mov	x1, x0
    eb98:	f94017a0 	ldr	x0, [x29,#40]
    eb9c:	97ffec7a 	bl	9d84 <mpa_copy>
/home/optee/RPi3/optee_os/lib/libmpa/mpa_addsub.c:498
    eba0:	b94047a0 	ldr	w0, [x29,#68]
    eba4:	6b1f001f 	cmp	w0, wzr
    eba8:	54000080 	b.eq	ebb8 <mpa_add_word+0x1f0>
/home/optee/RPi3/optee_os/lib/libmpa/mpa_addsub.c:499
    ebac:	9100e3a0 	add	x0, x29, #0x38
    ebb0:	f9400ba1 	ldr	x1, [x29,#16]
    ebb4:	97fff80a 	bl	cbdc <mpa_free_static_temp_var>
/home/optee/RPi3/optee_os/lib/libmpa/mpa_addsub.c:500
    ebb8:	a8c57bfd 	ldp	x29, x30, [sp],#80
    ebbc:	d65f03c0 	ret

000000000000ebc0 <mpa_sub_word>:
mpa_sub_word():
/home/optee/RPi3/optee_os/lib/libmpa/mpa_addsub.c:509
    ebc0:	a9bb7bfd 	stp	x29, x30, [sp,#-80]!
    ebc4:	910003fd 	mov	x29, sp
    ebc8:	f90017a0 	str	x0, [x29,#40]
    ebcc:	f90013a1 	str	x1, [x29,#32]
    ebd0:	b9001fa2 	str	w2, [x29,#28]
    ebd4:	f9000ba3 	str	x3, [x29,#16]
/home/optee/RPi3/optee_os/lib/libmpa/mpa_addsub.c:515
    ebd8:	b9401fa0 	ldr	w0, [x29,#28]
    ebdc:	6b1f001f 	cmp	w0, wzr
    ebe0:	540000a1 	b.ne	ebf4 <mpa_sub_word+0x34>
/home/optee/RPi3/optee_os/lib/libmpa/mpa_addsub.c:516
    ebe4:	f94013a1 	ldr	x1, [x29,#32]
    ebe8:	f94017a0 	ldr	x0, [x29,#40]
    ebec:	97ffec66 	bl	9d84 <mpa_copy>
/home/optee/RPi3/optee_os/lib/libmpa/mpa_addsub.c:517
    ebf0:	14000072 	b	edb8 <mpa_sub_word+0x1f8>
/home/optee/RPi3/optee_os/lib/libmpa/mpa_addsub.c:520
    ebf4:	f94013a0 	ldr	x0, [x29,#32]
    ebf8:	b9400400 	ldr	w0, [x0,#4]
    ebfc:	6b1f001f 	cmp	w0, wzr
    ec00:	54000101 	b.ne	ec20 <mpa_sub_word+0x60>
/home/optee/RPi3/optee_os/lib/libmpa/mpa_addsub.c:521
    ec04:	f94017a0 	ldr	x0, [x29,#40]
    ec08:	12800001 	mov	w1, #0xffffffff            	// #-1
    ec0c:	b9000401 	str	w1, [x0,#4]
/home/optee/RPi3/optee_os/lib/libmpa/mpa_addsub.c:522
    ec10:	b9401fa1 	ldr	w1, [x29,#28]
    ec14:	f94017a0 	ldr	x0, [x29,#40]
    ec18:	b9000801 	str	w1, [x0,#8]
/home/optee/RPi3/optee_os/lib/libmpa/mpa_addsub.c:523
    ec1c:	14000067 	b	edb8 <mpa_sub_word+0x1f8>
/home/optee/RPi3/optee_os/lib/libmpa/mpa_addsub.c:526
    ec20:	f94013a0 	ldr	x0, [x29,#32]
    ec24:	b9400400 	ldr	w0, [x0,#4]
    ec28:	6b1f001f 	cmp	w0, wzr
    ec2c:	5400006b 	b.lt	ec38 <mpa_sub_word+0x78>
/home/optee/RPi3/optee_os/lib/libmpa/mpa_addsub.c:526 (discriminator 1)
    ec30:	52800020 	mov	w0, #0x1                   	// #1
    ec34:	14000002 	b	ec3c <mpa_sub_word+0x7c>
/home/optee/RPi3/optee_os/lib/libmpa/mpa_addsub.c:526 (discriminator 2)
    ec38:	12800000 	mov	w0, #0xffffffff            	// #-1
/home/optee/RPi3/optee_os/lib/libmpa/mpa_addsub.c:526 (discriminator 4)
    ec3c:	b9004fa0 	str	w0, [x29,#76]
/home/optee/RPi3/optee_os/lib/libmpa/mpa_addsub.c:527 (discriminator 4)
    ec40:	f94013a0 	ldr	x0, [x29,#32]
    ec44:	b9400400 	ldr	w0, [x0,#4]
    ec48:	6b1f001f 	cmp	w0, wzr
    ec4c:	5a80a400 	cneg	w0, w0, lt
    ec50:	b9004ba0 	str	w0, [x29,#72]
/home/optee/RPi3/optee_os/lib/libmpa/mpa_addsub.c:530 (discriminator 4)
    ec54:	f94017a1 	ldr	x1, [x29,#40]
    ec58:	f94013a0 	ldr	x0, [x29,#32]
    ec5c:	eb00003f 	cmp	x1, x0
    ec60:	1a9f17e0 	cset	w0, eq
    ec64:	53001c00 	uxtb	w0, w0
    ec68:	39011fa0 	strb	w0, [x29,#71]
/home/optee/RPi3/optee_os/lib/libmpa/mpa_addsub.c:531 (discriminator 4)
    ec6c:	39411fa0 	ldrb	w0, [x29,#71]
    ec70:	6b1f001f 	cmp	w0, wzr
    ec74:	540000a0 	b.eq	ec88 <mpa_sub_word+0xc8>
/home/optee/RPi3/optee_os/lib/libmpa/mpa_addsub.c:532
    ec78:	9100e3a0 	add	x0, x29, #0x38
    ec7c:	f9400ba1 	ldr	x1, [x29,#16]
    ec80:	97fff7cc 	bl	cbb0 <mpa_alloc_static_temp_var>
    ec84:	14000003 	b	ec90 <mpa_sub_word+0xd0>
/home/optee/RPi3/optee_os/lib/libmpa/mpa_addsub.c:534
    ec88:	f94017a0 	ldr	x0, [x29,#40]
    ec8c:	f9001fa0 	str	x0, [x29,#56]
/home/optee/RPi3/optee_os/lib/libmpa/mpa_addsub.c:544
    ec90:	b9404fa0 	ldr	w0, [x29,#76]
    ec94:	7100041f 	cmp	w0, #0x1
    ec98:	54000561 	b.ne	ed44 <mpa_sub_word+0x184>
/home/optee/RPi3/optee_os/lib/libmpa/mpa_addsub.c:545
    ec9c:	f94013a0 	ldr	x0, [x29,#32]
    eca0:	b9400400 	ldr	w0, [x0,#4]
    eca4:	6b1f001f 	cmp	w0, wzr
    eca8:	5a80a400 	cneg	w0, w0, lt
    ecac:	7100041f 	cmp	w0, #0x1
    ecb0:	540000cc 	b.gt	ecc8 <mpa_sub_word+0x108>
/home/optee/RPi3/optee_os/lib/libmpa/mpa_addsub.c:545 (discriminator 1)
    ecb4:	f94013a0 	ldr	x0, [x29,#32]
    ecb8:	b9400801 	ldr	w1, [x0,#8]
    ecbc:	b9401fa0 	ldr	w0, [x29,#28]
    ecc0:	6b00003f 	cmp	w1, w0
    ecc4:	54000209 	b.ls	ed04 <mpa_sub_word+0x144>
/home/optee/RPi3/optee_os/lib/libmpa/mpa_addsub.c:546
    ecc8:	f9401fa0 	ldr	x0, [x29,#56]
    eccc:	91002006 	add	x6, x0, #0x8
    ecd0:	f9401fa0 	ldr	x0, [x29,#56]
    ecd4:	91001001 	add	x1, x0, #0x4
    ecd8:	f94013a0 	ldr	x0, [x29,#32]
    ecdc:	91002000 	add	x0, x0, #0x8
    ece0:	b9404ba2 	ldr	w2, [x29,#72]
    ece4:	910073a3 	add	x3, x29, #0x1c
    ece8:	52800025 	mov	w5, #0x1                   	// #1
    ecec:	aa0303e4 	mov	x4, x3
    ecf0:	2a0203e3 	mov	w3, w2
    ecf4:	aa0003e2 	mov	x2, x0
    ecf8:	aa0603e0 	mov	x0, x6
    ecfc:	97fffd51 	bl	e240 <__mpa_abs_sub>
    ed00:	14000024 	b	ed90 <mpa_sub_word+0x1d0>
/home/optee/RPi3/optee_os/lib/libmpa/mpa_addsub.c:549
    ed04:	f9401fa0 	ldr	x0, [x29,#56]
    ed08:	b9401fa2 	ldr	w2, [x29,#28]
    ed0c:	f94013a1 	ldr	x1, [x29,#32]
    ed10:	b9400821 	ldr	w1, [x1,#8]
    ed14:	4b010041 	sub	w1, w2, w1
    ed18:	b9000801 	str	w1, [x0,#8]
/home/optee/RPi3/optee_os/lib/libmpa/mpa_addsub.c:550
    ed1c:	f9401fa1 	ldr	x1, [x29,#56]
    ed20:	f9401fa0 	ldr	x0, [x29,#56]
    ed24:	b9400800 	ldr	w0, [x0,#8]
    ed28:	6b1f001f 	cmp	w0, wzr
    ed2c:	54000061 	b.ne	ed38 <mpa_sub_word+0x178>
/home/optee/RPi3/optee_os/lib/libmpa/mpa_addsub.c:550 (discriminator 1)
    ed30:	52800000 	mov	w0, #0x0                   	// #0
    ed34:	14000002 	b	ed3c <mpa_sub_word+0x17c>
/home/optee/RPi3/optee_os/lib/libmpa/mpa_addsub.c:550 (discriminator 2)
    ed38:	12800000 	mov	w0, #0xffffffff            	// #-1
/home/optee/RPi3/optee_os/lib/libmpa/mpa_addsub.c:550 (discriminator 4)
    ed3c:	b9000420 	str	w0, [x1,#4]
    ed40:	14000014 	b	ed90 <mpa_sub_word+0x1d0>
/home/optee/RPi3/optee_os/lib/libmpa/mpa_addsub.c:553
    ed44:	f9401fa0 	ldr	x0, [x29,#56]
    ed48:	91002006 	add	x6, x0, #0x8
    ed4c:	f9401fa0 	ldr	x0, [x29,#56]
    ed50:	91001001 	add	x1, x0, #0x4
    ed54:	f94013a0 	ldr	x0, [x29,#32]
    ed58:	91002000 	add	x0, x0, #0x8
    ed5c:	b9404ba2 	ldr	w2, [x29,#72]
    ed60:	910073a3 	add	x3, x29, #0x1c
    ed64:	52800025 	mov	w5, #0x1                   	// #1
    ed68:	aa0303e4 	mov	x4, x3
    ed6c:	2a0203e3 	mov	w3, w2
    ed70:	aa0003e2 	mov	x2, x0
    ed74:	aa0603e0 	mov	x0, x6
    ed78:	97fffc61 	bl	defc <__mpa_abs_add>
/home/optee/RPi3/optee_os/lib/libmpa/mpa_addsub.c:555
    ed7c:	f9401fa0 	ldr	x0, [x29,#56]
    ed80:	f9401fa1 	ldr	x1, [x29,#56]
    ed84:	b9400421 	ldr	w1, [x1,#4]
    ed88:	4b0103e1 	neg	w1, w1
    ed8c:	b9000401 	str	w1, [x0,#4]
/home/optee/RPi3/optee_os/lib/libmpa/mpa_addsub.c:558
    ed90:	f9401fa0 	ldr	x0, [x29,#56]
    ed94:	aa0003e1 	mov	x1, x0
    ed98:	f94017a0 	ldr	x0, [x29,#40]
    ed9c:	97ffebfa 	bl	9d84 <mpa_copy>
/home/optee/RPi3/optee_os/lib/libmpa/mpa_addsub.c:559
    eda0:	39411fa0 	ldrb	w0, [x29,#71]
    eda4:	6b1f001f 	cmp	w0, wzr
    eda8:	54000080 	b.eq	edb8 <mpa_sub_word+0x1f8>
/home/optee/RPi3/optee_os/lib/libmpa/mpa_addsub.c:560
    edac:	9100e3a0 	add	x0, x29, #0x38
    edb0:	f9400ba1 	ldr	x1, [x29,#16]
    edb4:	97fff78a 	bl	cbdc <mpa_free_static_temp_var>
/home/optee/RPi3/optee_os/lib/libmpa/mpa_addsub.c:561
    edb8:	a8c57bfd 	ldp	x29, x30, [sp],#80
    edbc:	d65f03c0 	ret

000000000000edc0 <__mpa_abs_cmp>:
__mpa_abs_cmp():
/home/optee/RPi3/optee_os/lib/libmpa/mpa_cmp.c:43
    edc0:	d10083ff 	sub	sp, sp, #0x20
    edc4:	f90007e0 	str	x0, [sp,#8]
    edc8:	f90003e1 	str	x1, [sp]
/home/optee/RPi3/optee_os/lib/libmpa/mpa_cmp.c:48
    edcc:	f94007e1 	ldr	x1, [sp,#8]
    edd0:	f94003e0 	ldr	x0, [sp]
    edd4:	eb00003f 	cmp	x1, x0
    edd8:	54000061 	b.ne	ede4 <__mpa_abs_cmp+0x24>
/home/optee/RPi3/optee_os/lib/libmpa/mpa_cmp.c:49
    eddc:	52800000 	mov	w0, #0x0                   	// #0
    ede0:	14000057 	b	ef3c <__mpa_abs_cmp+0x17c>
/home/optee/RPi3/optee_os/lib/libmpa/mpa_cmp.c:52
    ede4:	f94007e0 	ldr	x0, [sp,#8]
    ede8:	b9400400 	ldr	w0, [x0,#4]
    edec:	6b1f001f 	cmp	w0, wzr
    edf0:	5a80a401 	cneg	w1, w0, lt
    edf4:	f94003e0 	ldr	x0, [sp]
    edf8:	b9400400 	ldr	w0, [x0,#4]
    edfc:	6b1f001f 	cmp	w0, wzr
    ee00:	5a80a400 	cneg	w0, w0, lt
    ee04:	6b00003f 	cmp	w1, w0
    ee08:	54000160 	b.eq	ee34 <__mpa_abs_cmp+0x74>
/home/optee/RPi3/optee_os/lib/libmpa/mpa_cmp.c:53
    ee0c:	f94007e0 	ldr	x0, [sp,#8]
    ee10:	b9400400 	ldr	w0, [x0,#4]
    ee14:	6b1f001f 	cmp	w0, wzr
    ee18:	5a80a401 	cneg	w1, w0, lt
    ee1c:	f94003e0 	ldr	x0, [sp]
    ee20:	b9400400 	ldr	w0, [x0,#4]
    ee24:	6b1f001f 	cmp	w0, wzr
    ee28:	5a80a400 	cneg	w0, w0, lt
    ee2c:	4b000020 	sub	w0, w1, w0
    ee30:	14000043 	b	ef3c <__mpa_abs_cmp+0x17c>
/home/optee/RPi3/optee_os/lib/libmpa/mpa_cmp.c:55
    ee34:	f94007e0 	ldr	x0, [sp,#8]
    ee38:	b9400400 	ldr	w0, [x0,#4]
    ee3c:	6b1f001f 	cmp	w0, wzr
    ee40:	540000e1 	b.ne	ee5c <__mpa_abs_cmp+0x9c>
/home/optee/RPi3/optee_os/lib/libmpa/mpa_cmp.c:55 (discriminator 1)
    ee44:	f94003e0 	ldr	x0, [sp]
    ee48:	b9400400 	ldr	w0, [x0,#4]
    ee4c:	6b1f001f 	cmp	w0, wzr
    ee50:	54000061 	b.ne	ee5c <__mpa_abs_cmp+0x9c>
/home/optee/RPi3/optee_os/lib/libmpa/mpa_cmp.c:56
    ee54:	52800000 	mov	w0, #0x0                   	// #0
    ee58:	14000039 	b	ef3c <__mpa_abs_cmp+0x17c>
/home/optee/RPi3/optee_os/lib/libmpa/mpa_cmp.c:59
    ee5c:	f94007e0 	ldr	x0, [sp,#8]
    ee60:	b9400400 	ldr	w0, [x0,#4]
    ee64:	6b1f001f 	cmp	w0, wzr
    ee68:	5a80a400 	cneg	w0, w0, lt
    ee6c:	51000400 	sub	w0, w0, #0x1
    ee70:	b9001fe0 	str	w0, [sp,#28]
/home/optee/RPi3/optee_os/lib/libmpa/mpa_cmp.c:60
    ee74:	52800020 	mov	w0, #0x1                   	// #1
    ee78:	39006fe0 	strb	w0, [sp,#27]
/home/optee/RPi3/optee_os/lib/libmpa/mpa_cmp.c:61
    ee7c:	14000012 	b	eec4 <__mpa_abs_cmp+0x104>
/home/optee/RPi3/optee_os/lib/libmpa/mpa_cmp.c:62
    ee80:	f94007e1 	ldr	x1, [sp,#8]
    ee84:	b9801fe0 	ldrsw	x0, [sp,#28]
    ee88:	d37ef400 	lsl	x0, x0, #2
    ee8c:	8b000020 	add	x0, x1, x0
    ee90:	b9400801 	ldr	w1, [x0,#8]
    ee94:	f94003e2 	ldr	x2, [sp]
    ee98:	b9801fe0 	ldrsw	x0, [sp,#28]
    ee9c:	d37ef400 	lsl	x0, x0, #2
    eea0:	8b000040 	add	x0, x2, x0
    eea4:	b9400800 	ldr	w0, [x0,#8]
    eea8:	6b00003f 	cmp	w1, w0
    eeac:	1a9f17e0 	cset	w0, eq
    eeb0:	53001c00 	uxtb	w0, w0
    eeb4:	39006fe0 	strb	w0, [sp,#27]
/home/optee/RPi3/optee_os/lib/libmpa/mpa_cmp.c:63
    eeb8:	b9401fe0 	ldr	w0, [sp,#28]
    eebc:	51000400 	sub	w0, w0, #0x1
    eec0:	b9001fe0 	str	w0, [sp,#28]
/home/optee/RPi3/optee_os/lib/libmpa/mpa_cmp.c:61
    eec4:	39406fe0 	ldrb	w0, [sp,#27]
    eec8:	6b1f001f 	cmp	w0, wzr
    eecc:	54000080 	b.eq	eedc <__mpa_abs_cmp+0x11c>
/home/optee/RPi3/optee_os/lib/libmpa/mpa_cmp.c:61 (discriminator 1)
    eed0:	b9401fe0 	ldr	w0, [sp,#28]
    eed4:	6b1f001f 	cmp	w0, wzr
    eed8:	54fffd4a 	b.ge	ee80 <__mpa_abs_cmp+0xc0>
/home/optee/RPi3/optee_os/lib/libmpa/mpa_cmp.c:65
    eedc:	39406fe0 	ldrb	w0, [sp,#27]
    eee0:	6b1f001f 	cmp	w0, wzr
    eee4:	54000060 	b.eq	eef0 <__mpa_abs_cmp+0x130>
/home/optee/RPi3/optee_os/lib/libmpa/mpa_cmp.c:66
    eee8:	52800000 	mov	w0, #0x0                   	// #0
    eeec:	14000014 	b	ef3c <__mpa_abs_cmp+0x17c>
/home/optee/RPi3/optee_os/lib/libmpa/mpa_cmp.c:67
    eef0:	b9401fe0 	ldr	w0, [sp,#28]
    eef4:	11000400 	add	w0, w0, #0x1
    eef8:	b9001fe0 	str	w0, [sp,#28]
/home/optee/RPi3/optee_os/lib/libmpa/mpa_cmp.c:68
    eefc:	f94007e1 	ldr	x1, [sp,#8]
    ef00:	b9801fe0 	ldrsw	x0, [sp,#28]
    ef04:	d37ef400 	lsl	x0, x0, #2
    ef08:	8b000020 	add	x0, x1, x0
    ef0c:	b9400801 	ldr	w1, [x0,#8]
    ef10:	f94003e2 	ldr	x2, [sp]
    ef14:	b9801fe0 	ldrsw	x0, [sp,#28]
    ef18:	d37ef400 	lsl	x0, x0, #2
    ef1c:	8b000040 	add	x0, x2, x0
    ef20:	b9400800 	ldr	w0, [x0,#8]
    ef24:	6b00003f 	cmp	w1, w0
    ef28:	54000069 	b.ls	ef34 <__mpa_abs_cmp+0x174>
/home/optee/RPi3/optee_os/lib/libmpa/mpa_cmp.c:68 (discriminator 1)
    ef2c:	52800020 	mov	w0, #0x1                   	// #1
    ef30:	14000002 	b	ef38 <__mpa_abs_cmp+0x178>
/home/optee/RPi3/optee_os/lib/libmpa/mpa_cmp.c:68 (discriminator 2)
    ef34:	12800000 	mov	w0, #0xffffffff            	// #-1
/home/optee/RPi3/optee_os/lib/libmpa/mpa_cmp.c:68
    ef38:	d503201f 	nop
/home/optee/RPi3/optee_os/lib/libmpa/mpa_cmp.c:69
    ef3c:	910083ff 	add	sp, sp, #0x20
    ef40:	d65f03c0 	ret

000000000000ef44 <__mpa_abs_greater_than>:
__mpa_abs_greater_than():
/home/optee/RPi3/optee_os/lib/libmpa/mpa_cmp.c:77
    ef44:	a9be7bfd 	stp	x29, x30, [sp,#-32]!
    ef48:	910003fd 	mov	x29, sp
    ef4c:	f9000fa0 	str	x0, [x29,#24]
    ef50:	f9000ba1 	str	x1, [x29,#16]
/home/optee/RPi3/optee_os/lib/libmpa/mpa_cmp.c:78
    ef54:	f9400ba1 	ldr	x1, [x29,#16]
    ef58:	f9400fa0 	ldr	x0, [x29,#24]
    ef5c:	97ffff99 	bl	edc0 <__mpa_abs_cmp>
    ef60:	6b1f001f 	cmp	w0, wzr
    ef64:	1a9fd7e0 	cset	w0, gt
    ef68:	53001c00 	uxtb	w0, w0
/home/optee/RPi3/optee_os/lib/libmpa/mpa_cmp.c:79
    ef6c:	a8c27bfd 	ldp	x29, x30, [sp],#32
    ef70:	d65f03c0 	ret

000000000000ef74 <__mpa_abs_less_than>:
__mpa_abs_less_than():
/home/optee/RPi3/optee_os/lib/libmpa/mpa_cmp.c:87
    ef74:	a9be7bfd 	stp	x29, x30, [sp,#-32]!
    ef78:	910003fd 	mov	x29, sp
    ef7c:	f9000fa0 	str	x0, [x29,#24]
    ef80:	f9000ba1 	str	x1, [x29,#16]
/home/optee/RPi3/optee_os/lib/libmpa/mpa_cmp.c:88
    ef84:	f9400ba1 	ldr	x1, [x29,#16]
    ef88:	f9400fa0 	ldr	x0, [x29,#24]
    ef8c:	97ffff8d 	bl	edc0 <__mpa_abs_cmp>
    ef90:	531f7c00 	lsr	w0, w0, #31
    ef94:	53001c00 	uxtb	w0, w0
/home/optee/RPi3/optee_os/lib/libmpa/mpa_cmp.c:89
    ef98:	a8c27bfd 	ldp	x29, x30, [sp],#32
    ef9c:	d65f03c0 	ret

000000000000efa0 <mpa_cmp>:
mpa_cmp():
/home/optee/RPi3/optee_os/lib/libmpa/mpa_cmp.c:105
    efa0:	a9bd7bfd 	stp	x29, x30, [sp,#-48]!
    efa4:	910003fd 	mov	x29, sp
    efa8:	f9000fa0 	str	x0, [x29,#24]
    efac:	f9000ba1 	str	x1, [x29,#16]
/home/optee/RPi3/optee_os/lib/libmpa/mpa_cmp.c:110
    efb0:	f9400fa0 	ldr	x0, [x29,#24]
    efb4:	b9400400 	ldr	w0, [x0,#4]
    efb8:	6b1f001f 	cmp	w0, wzr
    efbc:	5400006b 	b.lt	efc8 <mpa_cmp+0x28>
/home/optee/RPi3/optee_os/lib/libmpa/mpa_cmp.c:110 (discriminator 1)
    efc0:	52800020 	mov	w0, #0x1                   	// #1
    efc4:	14000002 	b	efcc <mpa_cmp+0x2c>
/home/optee/RPi3/optee_os/lib/libmpa/mpa_cmp.c:110 (discriminator 2)
    efc8:	12800000 	mov	w0, #0xffffffff            	// #-1
/home/optee/RPi3/optee_os/lib/libmpa/mpa_cmp.c:110 (discriminator 4)
    efcc:	b9002fa0 	str	w0, [x29,#44]
/home/optee/RPi3/optee_os/lib/libmpa/mpa_cmp.c:111 (discriminator 4)
    efd0:	f9400ba0 	ldr	x0, [x29,#16]
    efd4:	b9400400 	ldr	w0, [x0,#4]
    efd8:	6b1f001f 	cmp	w0, wzr
    efdc:	5400006b 	b.lt	efe8 <mpa_cmp+0x48>
/home/optee/RPi3/optee_os/lib/libmpa/mpa_cmp.c:111 (discriminator 1)
    efe0:	52800020 	mov	w0, #0x1                   	// #1
    efe4:	14000002 	b	efec <mpa_cmp+0x4c>
/home/optee/RPi3/optee_os/lib/libmpa/mpa_cmp.c:111 (discriminator 2)
    efe8:	12800000 	mov	w0, #0xffffffff            	// #-1
/home/optee/RPi3/optee_os/lib/libmpa/mpa_cmp.c:111 (discriminator 4)
    efec:	b9402fa1 	ldr	w1, [x29,#44]
    eff0:	6b01001f 	cmp	w0, w1
    eff4:	54000060 	b.eq	f000 <mpa_cmp+0x60>
/home/optee/RPi3/optee_os/lib/libmpa/mpa_cmp.c:112
    eff8:	b9402fa0 	ldr	w0, [x29,#44]
    effc:	1400001e 	b	f074 <mpa_cmp+0xd4>
/home/optee/RPi3/optee_os/lib/libmpa/mpa_cmp.c:115
    f000:	f9400fa0 	ldr	x0, [x29,#24]
    f004:	b9400400 	ldr	w0, [x0,#4]
    f008:	6b1f001f 	cmp	w0, wzr
    f00c:	540001e1 	b.ne	f048 <mpa_cmp+0xa8>
/home/optee/RPi3/optee_os/lib/libmpa/mpa_cmp.c:116
    f010:	f9400ba0 	ldr	x0, [x29,#16]
    f014:	b9400400 	ldr	w0, [x0,#4]
    f018:	6b1f001f 	cmp	w0, wzr
    f01c:	54000120 	b.eq	f040 <mpa_cmp+0xa0>
/home/optee/RPi3/optee_os/lib/libmpa/mpa_cmp.c:116 (discriminator 1)
    f020:	f9400ba0 	ldr	x0, [x29,#16]
    f024:	b9400400 	ldr	w0, [x0,#4]
    f028:	6b1f001f 	cmp	w0, wzr
    f02c:	5400006b 	b.lt	f038 <mpa_cmp+0x98>
/home/optee/RPi3/optee_os/lib/libmpa/mpa_cmp.c:116 (discriminator 3)
    f030:	12800000 	mov	w0, #0xffffffff            	// #-1
    f034:	14000010 	b	f074 <mpa_cmp+0xd4>
/home/optee/RPi3/optee_os/lib/libmpa/mpa_cmp.c:116 (discriminator 4)
    f038:	52800020 	mov	w0, #0x1                   	// #1
    f03c:	1400000e 	b	f074 <mpa_cmp+0xd4>
/home/optee/RPi3/optee_os/lib/libmpa/mpa_cmp.c:116 (discriminator 2)
    f040:	52800000 	mov	w0, #0x0                   	// #0
    f044:	1400000c 	b	f074 <mpa_cmp+0xd4>
/home/optee/RPi3/optee_os/lib/libmpa/mpa_cmp.c:122
    f048:	f9400ba1 	ldr	x1, [x29,#16]
    f04c:	f9400fa0 	ldr	x0, [x29,#24]
    f050:	97ffff5c 	bl	edc0 <__mpa_abs_cmp>
    f054:	b9002ba0 	str	w0, [x29,#40]
/home/optee/RPi3/optee_os/lib/libmpa/mpa_cmp.c:123
    f058:	b9402fa0 	ldr	w0, [x29,#44]
    f05c:	7100041f 	cmp	w0, #0x1
    f060:	54000080 	b.eq	f070 <mpa_cmp+0xd0>
/home/optee/RPi3/optee_os/lib/libmpa/mpa_cmp.c:124
    f064:	b9402ba0 	ldr	w0, [x29,#40]
    f068:	4b0003e0 	neg	w0, w0
    f06c:	14000002 	b	f074 <mpa_cmp+0xd4>
/home/optee/RPi3/optee_os/lib/libmpa/mpa_cmp.c:125
    f070:	b9402ba0 	ldr	w0, [x29,#40]
/home/optee/RPi3/optee_os/lib/libmpa/mpa_cmp.c:126
    f074:	a8c37bfd 	ldp	x29, x30, [sp],#48
    f078:	d65f03c0 	ret

000000000000f07c <mpa_cmp_short>:
mpa_cmp_short():
/home/optee/RPi3/optee_os/lib/libmpa/mpa_cmp.c:137
    f07c:	d10083ff 	sub	sp, sp, #0x20
    f080:	f90007e0 	str	x0, [sp,#8]
    f084:	b90007e1 	str	w1, [sp,#4]
/home/optee/RPi3/optee_os/lib/libmpa/mpa_cmp.c:144
    f088:	f94007e0 	ldr	x0, [sp,#8]
    f08c:	b9400400 	ldr	w0, [x0,#4]
    f090:	6b1f001f 	cmp	w0, wzr
    f094:	5400006b 	b.lt	f0a0 <mpa_cmp_short+0x24>
/home/optee/RPi3/optee_os/lib/libmpa/mpa_cmp.c:144 (discriminator 1)
    f098:	52800020 	mov	w0, #0x1                   	// #1
    f09c:	14000002 	b	f0a4 <mpa_cmp_short+0x28>
/home/optee/RPi3/optee_os/lib/libmpa/mpa_cmp.c:144 (discriminator 2)
    f0a0:	12800000 	mov	w0, #0xffffffff            	// #-1
/home/optee/RPi3/optee_os/lib/libmpa/mpa_cmp.c:144 (discriminator 4)
    f0a4:	b9001fe0 	str	w0, [sp,#28]
/home/optee/RPi3/optee_os/lib/libmpa/mpa_cmp.c:145 (discriminator 4)
    f0a8:	b94007e0 	ldr	w0, [sp,#4]
    f0ac:	6b1f001f 	cmp	w0, wzr
    f0b0:	5400006a 	b.ge	f0bc <mpa_cmp_short+0x40>
/home/optee/RPi3/optee_os/lib/libmpa/mpa_cmp.c:145 (discriminator 1)
    f0b4:	12800000 	mov	w0, #0xffffffff            	// #-1
    f0b8:	14000002 	b	f0c0 <mpa_cmp_short+0x44>
/home/optee/RPi3/optee_os/lib/libmpa/mpa_cmp.c:145 (discriminator 2)
    f0bc:	52800020 	mov	w0, #0x1                   	// #1
/home/optee/RPi3/optee_os/lib/libmpa/mpa_cmp.c:145 (discriminator 4)
    f0c0:	b9001be0 	str	w0, [sp,#24]
/home/optee/RPi3/optee_os/lib/libmpa/mpa_cmp.c:148 (discriminator 4)
    f0c4:	f94007e0 	ldr	x0, [sp,#8]
    f0c8:	b9400400 	ldr	w0, [x0,#4]
    f0cc:	6b1f001f 	cmp	w0, wzr
    f0d0:	54000121 	b.ne	f0f4 <mpa_cmp_short+0x78>
/home/optee/RPi3/optee_os/lib/libmpa/mpa_cmp.c:149
    f0d4:	b94007e0 	ldr	w0, [sp,#4]
    f0d8:	6b1f001f 	cmp	w0, wzr
    f0dc:	54000080 	b.eq	f0ec <mpa_cmp_short+0x70>
/home/optee/RPi3/optee_os/lib/libmpa/mpa_cmp.c:149 (discriminator 1)
    f0e0:	b9401be0 	ldr	w0, [sp,#24]
    f0e4:	4b0003e0 	neg	w0, w0
    f0e8:	14000026 	b	f180 <mpa_cmp_short+0x104>
/home/optee/RPi3/optee_os/lib/libmpa/mpa_cmp.c:149 (discriminator 2)
    f0ec:	52800000 	mov	w0, #0x0                   	// #0
    f0f0:	14000024 	b	f180 <mpa_cmp_short+0x104>
/home/optee/RPi3/optee_os/lib/libmpa/mpa_cmp.c:152
    f0f4:	f94007e0 	ldr	x0, [sp,#8]
    f0f8:	b9400400 	ldr	w0, [x0,#4]
    f0fc:	6b1f001f 	cmp	w0, wzr
    f100:	5a80a400 	cneg	w0, w0, lt
    f104:	7100041f 	cmp	w0, #0x1
    f108:	5400006d 	b.le	f114 <mpa_cmp_short+0x98>
/home/optee/RPi3/optee_os/lib/libmpa/mpa_cmp.c:153
    f10c:	b9401fe0 	ldr	w0, [sp,#28]
    f110:	1400001c 	b	f180 <mpa_cmp_short+0x104>
/home/optee/RPi3/optee_os/lib/libmpa/mpa_cmp.c:156
    f114:	b9401fe1 	ldr	w1, [sp,#28]
    f118:	b9401be0 	ldr	w0, [sp,#24]
    f11c:	6b00003f 	cmp	w1, w0
    f120:	54000060 	b.eq	f12c <mpa_cmp_short+0xb0>
/home/optee/RPi3/optee_os/lib/libmpa/mpa_cmp.c:157
    f124:	b9401fe0 	ldr	w0, [sp,#28]
    f128:	14000016 	b	f180 <mpa_cmp_short+0x104>
/home/optee/RPi3/optee_os/lib/libmpa/mpa_cmp.c:161
    f12c:	b94007e0 	ldr	w0, [sp,#4]
    f130:	6b1f001f 	cmp	w0, wzr
    f134:	5a80a400 	cneg	w0, w0, lt
    f138:	b90017e0 	str	w0, [sp,#20]
/home/optee/RPi3/optee_os/lib/libmpa/mpa_cmp.c:163
    f13c:	f94007e0 	ldr	x0, [sp,#8]
    f140:	b9400801 	ldr	w1, [x0,#8]
    f144:	b94017e0 	ldr	w0, [sp,#20]
    f148:	6b00003f 	cmp	w1, w0
    f14c:	54000061 	b.ne	f158 <mpa_cmp_short+0xdc>
/home/optee/RPi3/optee_os/lib/libmpa/mpa_cmp.c:164
    f150:	52800000 	mov	w0, #0x0                   	// #0
    f154:	1400000b 	b	f180 <mpa_cmp_short+0x104>
/home/optee/RPi3/optee_os/lib/libmpa/mpa_cmp.c:166
    f158:	f94007e0 	ldr	x0, [sp,#8]
    f15c:	b9400801 	ldr	w1, [x0,#8]
    f160:	b94017e0 	ldr	w0, [sp,#20]
    f164:	6b00003f 	cmp	w1, w0
    f168:	54000088 	b.hi	f178 <mpa_cmp_short+0xfc>
/home/optee/RPi3/optee_os/lib/libmpa/mpa_cmp.c:166 (discriminator 1)
    f16c:	b9401fe0 	ldr	w0, [sp,#28]
    f170:	4b0003e0 	neg	w0, w0
    f174:	14000002 	b	f17c <mpa_cmp_short+0x100>
/home/optee/RPi3/optee_os/lib/libmpa/mpa_cmp.c:166 (discriminator 2)
    f178:	b9401fe0 	ldr	w0, [sp,#28]
/home/optee/RPi3/optee_os/lib/libmpa/mpa_cmp.c:166
    f17c:	d503201f 	nop
/home/optee/RPi3/optee_os/lib/libmpa/mpa_cmp.c:171
    f180:	910083ff 	add	sp, sp, #0x20
    f184:	d65f03c0 	ret

000000000000f188 <mpa_exp_mod>:
mpa_exp_mod():
/home/optee/RPi3/optee_os/lib/libmpa/mpa_expmod.c:43
    f188:	a9b77bfd 	stp	x29, x30, [sp,#-144]!
    f18c:	910003fd 	mov	x29, sp
    f190:	f90027a0 	str	x0, [x29,#72]
    f194:	f90023a1 	str	x1, [x29,#64]
    f198:	f9001fa2 	str	x2, [x29,#56]
    f19c:	f9001ba3 	str	x3, [x29,#48]
    f1a0:	f90017a4 	str	x4, [x29,#40]
    f1a4:	f90013a5 	str	x5, [x29,#32]
    f1a8:	b9001fa6 	str	w6, [x29,#28]
    f1ac:	f9000ba7 	str	x7, [x29,#16]
/home/optee/RPi3/optee_os/lib/libmpa/mpa_expmod.c:52
    f1b0:	9101a3a0 	add	x0, x29, #0x68
    f1b4:	f9400ba1 	ldr	x1, [x29,#16]
    f1b8:	97fff67e 	bl	cbb0 <mpa_alloc_static_temp_var>
/home/optee/RPi3/optee_os/lib/libmpa/mpa_expmod.c:53
    f1bc:	910183a0 	add	x0, x29, #0x60
    f1c0:	f9400ba1 	ldr	x1, [x29,#16]
    f1c4:	97fff67b 	bl	cbb0 <mpa_alloc_static_temp_var>
/home/optee/RPi3/optee_os/lib/libmpa/mpa_expmod.c:54
    f1c8:	910163a0 	add	x0, x29, #0x58
    f1cc:	f9400ba1 	ldr	x1, [x29,#16]
    f1d0:	97fff678 	bl	cbb0 <mpa_alloc_static_temp_var>
/home/optee/RPi3/optee_os/lib/libmpa/mpa_expmod.c:58
    f1d4:	f9402fa0 	ldr	x0, [x29,#88]
    f1d8:	b9401fa4 	ldr	w4, [x29,#28]
    f1dc:	f9401ba3 	ldr	x3, [x29,#48]
    f1e0:	f94013a2 	ldr	x2, [x29,#32]
    f1e4:	f94023a1 	ldr	x1, [x29,#64]
    f1e8:	97ffec2d 	bl	a29c <__mpa_montgomery_mul>
/home/optee/RPi3/optee_os/lib/libmpa/mpa_expmod.c:60
    f1ec:	f94037a0 	ldr	x0, [x29,#104]
    f1f0:	f94017a1 	ldr	x1, [x29,#40]
    f1f4:	97ffeae4 	bl	9d84 <mpa_copy>
/home/optee/RPi3/optee_os/lib/libmpa/mpa_expmod.c:61
    f1f8:	9101a3a0 	add	x0, x29, #0x68
    f1fc:	f90047a0 	str	x0, [x29,#136]
/home/optee/RPi3/optee_os/lib/libmpa/mpa_expmod.c:62
    f200:	910183a0 	add	x0, x29, #0x60
    f204:	f90043a0 	str	x0, [x29,#128]
/home/optee/RPi3/optee_os/lib/libmpa/mpa_expmod.c:63
    f208:	f94037a0 	ldr	x0, [x29,#104]
    f20c:	97ffeab2 	bl	9cd4 <__mpa_set_unused_digits_to_zero>
/home/optee/RPi3/optee_os/lib/libmpa/mpa_expmod.c:64
    f210:	f94033a0 	ldr	x0, [x29,#96]
    f214:	97ffeab0 	bl	9cd4 <__mpa_set_unused_digits_to_zero>
/home/optee/RPi3/optee_os/lib/libmpa/mpa_expmod.c:65
    f218:	f9401fa0 	ldr	x0, [x29,#56]
    f21c:	97ffeb0a 	bl	9e44 <mpa_highest_bit_index>
    f220:	b9007fa0 	str	w0, [x29,#124]
    f224:	14000027 	b	f2c0 <mpa_exp_mod+0x138>
/home/optee/RPi3/optee_os/lib/libmpa/mpa_expmod.c:66
    f228:	f94043a0 	ldr	x0, [x29,#128]
    f22c:	f9400005 	ldr	x5, [x0]
    f230:	f94047a0 	ldr	x0, [x29,#136]
    f234:	f9400001 	ldr	x1, [x0]
    f238:	f94047a0 	ldr	x0, [x29,#136]
    f23c:	f9400000 	ldr	x0, [x0]
    f240:	b9401fa4 	ldr	w4, [x29,#28]
    f244:	f9401ba3 	ldr	x3, [x29,#48]
    f248:	aa0003e2 	mov	x2, x0
    f24c:	aa0503e0 	mov	x0, x5
    f250:	97ffec13 	bl	a29c <__mpa_montgomery_mul>
/home/optee/RPi3/optee_os/lib/libmpa/mpa_expmod.c:67
    f254:	b9407fa0 	ldr	w0, [x29,#124]
    f258:	2a0003e1 	mov	w1, w0
    f25c:	f9401fa0 	ldr	x0, [x29,#56]
    f260:	97ffeb27 	bl	9efc <mpa_get_bit>
    f264:	7100041f 	cmp	w0, #0x1
    f268:	540001a1 	b.ne	f29c <mpa_exp_mod+0x114>
/home/optee/RPi3/optee_os/lib/libmpa/mpa_expmod.c:68
    f26c:	f94047a0 	ldr	x0, [x29,#136]
    f270:	f9400005 	ldr	x5, [x0]
    f274:	f94043a0 	ldr	x0, [x29,#128]
    f278:	f9400000 	ldr	x0, [x0]
    f27c:	f9402fa1 	ldr	x1, [x29,#88]
    f280:	b9401fa4 	ldr	w4, [x29,#28]
    f284:	f9401ba3 	ldr	x3, [x29,#48]
    f288:	aa0103e2 	mov	x2, x1
    f28c:	aa0003e1 	mov	x1, x0
    f290:	aa0503e0 	mov	x0, x5
    f294:	97ffec02 	bl	a29c <__mpa_montgomery_mul>
    f298:	14000007 	b	f2b4 <mpa_exp_mod+0x12c>
/home/optee/RPi3/optee_os/lib/libmpa/mpa_expmod.c:70
    f29c:	f94047a0 	ldr	x0, [x29,#136]
    f2a0:	f9003ba0 	str	x0, [x29,#112]
/home/optee/RPi3/optee_os/lib/libmpa/mpa_expmod.c:71
    f2a4:	f94043a0 	ldr	x0, [x29,#128]
    f2a8:	f90047a0 	str	x0, [x29,#136]
/home/optee/RPi3/optee_os/lib/libmpa/mpa_expmod.c:72
    f2ac:	f9403ba0 	ldr	x0, [x29,#112]
    f2b0:	f90043a0 	str	x0, [x29,#128]
/home/optee/RPi3/optee_os/lib/libmpa/mpa_expmod.c:65 (discriminator 2)
    f2b4:	b9407fa0 	ldr	w0, [x29,#124]
    f2b8:	51000400 	sub	w0, w0, #0x1
    f2bc:	b9007fa0 	str	w0, [x29,#124]
/home/optee/RPi3/optee_os/lib/libmpa/mpa_expmod.c:65 (discriminator 1)
    f2c0:	b9407fa0 	ldr	w0, [x29,#124]
    f2c4:	6b1f001f 	cmp	w0, wzr
    f2c8:	54fffb0a 	b.ge	f228 <mpa_exp_mod+0xa0>
/home/optee/RPi3/optee_os/lib/libmpa/mpa_expmod.c:77
    f2cc:	f94043a0 	ldr	x0, [x29,#128]
    f2d0:	f9400005 	ldr	x5, [x0]
    f2d4:	f94047a0 	ldr	x0, [x29,#136]
    f2d8:	f9400001 	ldr	x1, [x0]
    f2dc:	f0000000 	adrp	x0, 12000 <PRIME_TABLE+0x5d0>
    f2e0:	f9453000 	ldr	x0, [x0,#2656]
    f2e4:	b9401fa4 	ldr	w4, [x29,#28]
    f2e8:	f9401ba3 	ldr	x3, [x29,#48]
    f2ec:	aa0103e2 	mov	x2, x1
    f2f0:	aa0003e1 	mov	x1, x0
    f2f4:	aa0503e0 	mov	x0, x5
    f2f8:	97ffebe9 	bl	a29c <__mpa_montgomery_mul>
/home/optee/RPi3/optee_os/lib/libmpa/mpa_expmod.c:80
    f2fc:	f94043a0 	ldr	x0, [x29,#128]
    f300:	f9400000 	ldr	x0, [x0]
    f304:	aa0003e1 	mov	x1, x0
    f308:	f94027a0 	ldr	x0, [x29,#72]
    f30c:	97ffea9e 	bl	9d84 <mpa_copy>
/home/optee/RPi3/optee_os/lib/libmpa/mpa_expmod.c:82
    f310:	9101a3a0 	add	x0, x29, #0x68
    f314:	f9400ba1 	ldr	x1, [x29,#16]
    f318:	97fff631 	bl	cbdc <mpa_free_static_temp_var>
/home/optee/RPi3/optee_os/lib/libmpa/mpa_expmod.c:83
    f31c:	910183a0 	add	x0, x29, #0x60
    f320:	f9400ba1 	ldr	x1, [x29,#16]
    f324:	97fff62e 	bl	cbdc <mpa_free_static_temp_var>
/home/optee/RPi3/optee_os/lib/libmpa/mpa_expmod.c:84
    f328:	910163a0 	add	x0, x29, #0x58
    f32c:	f9400ba1 	ldr	x1, [x29,#16]
    f330:	97fff62b 	bl	cbdc <mpa_free_static_temp_var>
/home/optee/RPi3/optee_os/lib/libmpa/mpa_expmod.c:85
    f334:	d503201f 	nop
    f338:	a8c97bfd 	ldp	x29, x30, [sp],#144
    f33c:	d65f03c0 	ret

000000000000f340 <mpa_init_static>:
mpa_init_static():
/home/optee/RPi3/optee_os/lib/libmpa/mpa_init.c:34
    f340:	d10043ff 	sub	sp, sp, #0x10
    f344:	f90007e0 	str	x0, [sp,#8]
    f348:	b90007e1 	str	w1, [sp,#4]
/home/optee/RPi3/optee_os/lib/libmpa/mpa_init.c:35
    f34c:	b94007e1 	ldr	w1, [sp,#4]
    f350:	321f73e0 	mov	w0, #0x3ffffffe            	// #1073741822
    f354:	0b000020 	add	w0, w1, w0
    f358:	531e7400 	lsl	w0, w0, #2
    f35c:	2a0003e0 	mov	w0, w0
    f360:	91000c00 	add	x0, x0, #0x3
    f364:	d342fc00 	lsr	x0, x0, #2
    f368:	2a0003e1 	mov	w1, w0
    f36c:	f94007e0 	ldr	x0, [sp,#8]
    f370:	b9000001 	str	w1, [x0]
/home/optee/RPi3/optee_os/lib/libmpa/mpa_init.c:36
    f374:	f94007e0 	ldr	x0, [sp,#8]
    f378:	b900041f 	str	wzr, [x0,#4]
/home/optee/RPi3/optee_os/lib/libmpa/mpa_init.c:37
    f37c:	f94007e0 	ldr	x0, [sp,#8]
    f380:	b9400000 	ldr	w0, [x0]
    f384:	6b1f001f 	cmp	w0, wzr
    f388:	54000060 	b.eq	f394 <mpa_init_static+0x54>
/home/optee/RPi3/optee_os/lib/libmpa/mpa_init.c:38
    f38c:	f94007e0 	ldr	x0, [sp,#8]
    f390:	b900081f 	str	wzr, [x0,#8]
/home/optee/RPi3/optee_os/lib/libmpa/mpa_init.c:39
    f394:	d503201f 	nop
    f398:	910043ff 	add	sp, sp, #0x10
    f39c:	d65f03c0 	ret

000000000000f3a0 <mpa_init_static_fmm_context>:
mpa_init_static_fmm_context():
/home/optee/RPi3/optee_os/lib/libmpa/mpa_init.c:47
    f3a0:	a9bd7bfd 	stp	x29, x30, [sp,#-48]!
    f3a4:	910003fd 	mov	x29, sp
    f3a8:	f9000fa0 	str	x0, [x29,#24]
    f3ac:	b90017a1 	str	w1, [x29,#20]
/home/optee/RPi3/optee_os/lib/libmpa/mpa_init.c:51
    f3b0:	b94017a1 	ldr	w1, [x29,#20]
    f3b4:	529fff40 	mov	w0, #0xfffa                	// #65530
    f3b8:	72a7ffe0 	movk	w0, #0x3fff, lsl #16
    f3bc:	0b000020 	add	w0, w1, w0
    f3c0:	531e7400 	lsl	w0, w0, #2
    f3c4:	2a0003e0 	mov	w0, w0
    f3c8:	91000c00 	add	x0, x0, #0x3
    f3cc:	d342fc00 	lsr	x0, x0, #2
/home/optee/RPi3/optee_os/lib/libmpa/mpa_init.c:50
    f3d0:	b9002fa0 	str	w0, [x29,#44]
/home/optee/RPi3/optee_os/lib/libmpa/mpa_init.c:54
    f3d4:	f9400fa0 	ldr	x0, [x29,#24]
    f3d8:	91005003 	add	x3, x0, #0x14
    f3dc:	b9402fa0 	ldr	w0, [x29,#44]
    f3e0:	531e7400 	lsl	w0, w0, #2
    f3e4:	2a0003e0 	mov	w0, w0
    f3e8:	aa0003e2 	mov	x2, x0
    f3ec:	52800001 	mov	w1, #0x0                   	// #0
    f3f0:	aa0303e0 	mov	x0, x3
    f3f4:	97ffdf52 	bl	713c <memset>
/home/optee/RPi3/optee_os/lib/libmpa/mpa_init.c:55
    f3f8:	b9402fa0 	ldr	w0, [x29,#44]
    f3fc:	53017c00 	lsr	w0, w0, #1
    f400:	b9002fa0 	str	w0, [x29,#44]
/home/optee/RPi3/optee_os/lib/libmpa/mpa_init.c:58
    f404:	f9400fa0 	ldr	x0, [x29,#24]
    f408:	b900101f 	str	wzr, [x0,#16]
/home/optee/RPi3/optee_os/lib/libmpa/mpa_init.c:60
    f40c:	f9400fa0 	ldr	x0, [x29,#24]
    f410:	91005001 	add	x1, x0, #0x14
    f414:	f9400fa0 	ldr	x0, [x29,#24]
    f418:	f9000001 	str	x1, [x0]
/home/optee/RPi3/optee_os/lib/libmpa/mpa_init.c:61
    f41c:	f9400fa0 	ldr	x0, [x29,#24]
    f420:	f9400000 	ldr	x0, [x0]
/home/optee/RPi3/optee_os/lib/libmpa/mpa_init.c:62
    f424:	b9402fa1 	ldr	w1, [x29,#44]
    f428:	51000821 	sub	w1, w1, #0x2
/home/optee/RPi3/optee_os/lib/libmpa/mpa_init.c:61
    f42c:	b9000001 	str	w1, [x0]
/home/optee/RPi3/optee_os/lib/libmpa/mpa_init.c:63
    f430:	f9400fa0 	ldr	x0, [x29,#24]
    f434:	f9400000 	ldr	x0, [x0]
    f438:	b900041f 	str	wzr, [x0,#4]
/home/optee/RPi3/optee_os/lib/libmpa/mpa_init.c:65
    f43c:	f9400fa0 	ldr	x0, [x29,#24]
    f440:	91005001 	add	x1, x0, #0x14
    f444:	b9402fa0 	ldr	w0, [x29,#44]
    f448:	d37ef400 	lsl	x0, x0, #2
    f44c:	8b000021 	add	x1, x1, x0
    f450:	f9400fa0 	ldr	x0, [x29,#24]
    f454:	f9000401 	str	x1, [x0,#8]
/home/optee/RPi3/optee_os/lib/libmpa/mpa_init.c:66
    f458:	f9400fa0 	ldr	x0, [x29,#24]
    f45c:	f9400400 	ldr	x0, [x0,#8]
/home/optee/RPi3/optee_os/lib/libmpa/mpa_init.c:67
    f460:	b9402fa1 	ldr	w1, [x29,#44]
    f464:	51000821 	sub	w1, w1, #0x2
/home/optee/RPi3/optee_os/lib/libmpa/mpa_init.c:66
    f468:	b9000001 	str	w1, [x0]
/home/optee/RPi3/optee_os/lib/libmpa/mpa_init.c:68
    f46c:	f9400fa0 	ldr	x0, [x29,#24]
    f470:	f9400400 	ldr	x0, [x0,#8]
    f474:	b900041f 	str	wzr, [x0,#4]
/home/optee/RPi3/optee_os/lib/libmpa/mpa_init.c:69
    f478:	d503201f 	nop
    f47c:	a8c37bfd 	ldp	x29, x30, [sp],#48
    f480:	d65f03c0 	ret

000000000000f484 <__mpa_isspace>:
__mpa_isspace():
/home/optee/RPi3/optee_os/lib/libmpa/mpa_io.c:47
    f484:	d10043ff 	sub	sp, sp, #0x10
    f488:	39003fe0 	strb	w0, [sp,#15]
/home/optee/RPi3/optee_os/lib/libmpa/mpa_io.c:52
    f48c:	39403fe0 	ldrb	w0, [sp,#15]
    f490:	71017c1f 	cmp	w0, #0x5f
    f494:	540001a0 	b.eq	f4c8 <__mpa_isspace+0x44>
/home/optee/RPi3/optee_os/lib/libmpa/mpa_io.c:48
    f498:	39403fe0 	ldrb	w0, [sp,#15]
    f49c:	7100801f 	cmp	w0, #0x20
    f4a0:	54000140 	b.eq	f4c8 <__mpa_isspace+0x44>
/home/optee/RPi3/optee_os/lib/libmpa/mpa_io.c:50
    f4a4:	39403fe0 	ldrb	w0, [sp,#15]
    f4a8:	7100281f 	cmp	w0, #0xa
    f4ac:	540000e0 	b.eq	f4c8 <__mpa_isspace+0x44>
/home/optee/RPi3/optee_os/lib/libmpa/mpa_io.c:51
    f4b0:	39403fe0 	ldrb	w0, [sp,#15]
    f4b4:	7100341f 	cmp	w0, #0xd
    f4b8:	54000080 	b.eq	f4c8 <__mpa_isspace+0x44>
/home/optee/RPi3/optee_os/lib/libmpa/mpa_io.c:52 (discriminator 2)
    f4bc:	39403fe0 	ldrb	w0, [sp,#15]
    f4c0:	7100241f 	cmp	w0, #0x9
    f4c4:	54000061 	b.ne	f4d0 <__mpa_isspace+0x4c>
/home/optee/RPi3/optee_os/lib/libmpa/mpa_io.c:52 (discriminator 1)
    f4c8:	52800020 	mov	w0, #0x1                   	// #1
    f4cc:	14000002 	b	f4d4 <__mpa_isspace+0x50>
/home/optee/RPi3/optee_os/lib/libmpa/mpa_io.c:52 (discriminator 3)
    f4d0:	52800000 	mov	w0, #0x0                   	// #0
/home/optee/RPi3/optee_os/lib/libmpa/mpa_io.c:54
    f4d4:	910043ff 	add	sp, sp, #0x10
    f4d8:	d65f03c0 	ret

000000000000f4dc <__mpa_is_char_in_base>:
__mpa_is_char_in_base():
/home/optee/RPi3/optee_os/lib/libmpa/mpa_io.c:63
    f4dc:	a9be7bfd 	stp	x29, x30, [sp,#-32]!
    f4e0:	910003fd 	mov	x29, sp
    f4e4:	b9001fa0 	str	w0, [x29,#28]
    f4e8:	b9001ba1 	str	w1, [x29,#24]
/home/optee/RPi3/optee_os/lib/libmpa/mpa_io.c:64
    f4ec:	b9401ba0 	ldr	w0, [x29,#24]
    f4f0:	53001c00 	uxtb	w0, w0
    f4f4:	97ffffe4 	bl	f484 <__mpa_isspace>
    f4f8:	6b1f001f 	cmp	w0, wzr
    f4fc:	54000060 	b.eq	f508 <__mpa_is_char_in_base+0x2c>
/home/optee/RPi3/optee_os/lib/libmpa/mpa_io.c:65
    f500:	52800020 	mov	w0, #0x1                   	// #1
    f504:	14000028 	b	f5a4 <__mpa_is_char_in_base+0xc8>
/home/optee/RPi3/optee_os/lib/libmpa/mpa_io.c:67
    f508:	b9401fa0 	ldr	w0, [x29,#28]
    f50c:	7100281f 	cmp	w0, #0xa
    f510:	54000080 	b.eq	f520 <__mpa_is_char_in_base+0x44>
    f514:	7100401f 	cmp	w0, #0x10
    f518:	54000180 	b.eq	f548 <__mpa_is_char_in_base+0x6c>
    f51c:	14000021 	b	f5a0 <__mpa_is_char_in_base+0xc4>
/home/optee/RPi3/optee_os/lib/libmpa/mpa_io.c:69
    f520:	b9401ba0 	ldr	w0, [x29,#24]
    f524:	7100bc1f 	cmp	w0, #0x2f
    f528:	540000cd 	b.le	f540 <__mpa_is_char_in_base+0x64>
/home/optee/RPi3/optee_os/lib/libmpa/mpa_io.c:69 (discriminator 1)
    f52c:	b9401ba0 	ldr	w0, [x29,#24]
    f530:	7100e41f 	cmp	w0, #0x39
    f534:	5400006c 	b.gt	f540 <__mpa_is_char_in_base+0x64>
/home/optee/RPi3/optee_os/lib/libmpa/mpa_io.c:69 (discriminator 3)
    f538:	52800020 	mov	w0, #0x1                   	// #1
    f53c:	1400001a 	b	f5a4 <__mpa_is_char_in_base+0xc8>
/home/optee/RPi3/optee_os/lib/libmpa/mpa_io.c:69 (discriminator 4)
    f540:	52800000 	mov	w0, #0x0                   	// #0
    f544:	14000018 	b	f5a4 <__mpa_is_char_in_base+0xc8>
/home/optee/RPi3/optee_os/lib/libmpa/mpa_io.c:72
    f548:	b9401ba0 	ldr	w0, [x29,#24]
    f54c:	7100bc1f 	cmp	w0, #0x2f
    f550:	5400008d 	b.le	f560 <__mpa_is_char_in_base+0x84>
/home/optee/RPi3/optee_os/lib/libmpa/mpa_io.c:71
    f554:	b9401ba0 	ldr	w0, [x29,#24]
    f558:	7100e41f 	cmp	w0, #0x39
    f55c:	540001ad 	b.le	f590 <__mpa_is_char_in_base+0xb4>
/home/optee/RPi3/optee_os/lib/libmpa/mpa_io.c:71 (discriminator 1)
    f560:	b9401ba0 	ldr	w0, [x29,#24]
    f564:	7101001f 	cmp	w0, #0x40
    f568:	5400008d 	b.le	f578 <__mpa_is_char_in_base+0x9c>
/home/optee/RPi3/optee_os/lib/libmpa/mpa_io.c:72
    f56c:	b9401ba0 	ldr	w0, [x29,#24]
    f570:	7101181f 	cmp	w0, #0x46
    f574:	540000ed 	b.le	f590 <__mpa_is_char_in_base+0xb4>
/home/optee/RPi3/optee_os/lib/libmpa/mpa_io.c:72 (discriminator 2)
    f578:	b9401ba0 	ldr	w0, [x29,#24]
    f57c:	7101801f 	cmp	w0, #0x60
    f580:	540000cd 	b.le	f598 <__mpa_is_char_in_base+0xbc>
/home/optee/RPi3/optee_os/lib/libmpa/mpa_io.c:73
    f584:	b9401ba0 	ldr	w0, [x29,#24]
    f588:	7101981f 	cmp	w0, #0x66
    f58c:	5400006c 	b.gt	f598 <__mpa_is_char_in_base+0xbc>
/home/optee/RPi3/optee_os/lib/libmpa/mpa_io.c:72 (discriminator 1)
    f590:	52800020 	mov	w0, #0x1                   	// #1
/home/optee/RPi3/optee_os/lib/libmpa/mpa_io.c:71 (discriminator 1)
    f594:	14000004 	b	f5a4 <__mpa_is_char_in_base+0xc8>
/home/optee/RPi3/optee_os/lib/libmpa/mpa_io.c:72 (discriminator 3)
    f598:	52800000 	mov	w0, #0x0                   	// #0
/home/optee/RPi3/optee_os/lib/libmpa/mpa_io.c:71 (discriminator 3)
    f59c:	14000002 	b	f5a4 <__mpa_is_char_in_base+0xc8>
/home/optee/RPi3/optee_os/lib/libmpa/mpa_io.c:75
    f5a0:	52800000 	mov	w0, #0x0                   	// #0
/home/optee/RPi3/optee_os/lib/libmpa/mpa_io.c:77
    f5a4:	a8c27bfd 	ldp	x29, x30, [sp],#32
    f5a8:	d65f03c0 	ret

000000000000f5ac <__mpa_digit_value>:
__mpa_digit_value():
/home/optee/RPi3/optee_os/lib/libmpa/mpa_io.c:85
    f5ac:	d10043ff 	sub	sp, sp, #0x10
    f5b0:	b9000fe0 	str	w0, [sp,#12]
/home/optee/RPi3/optee_os/lib/libmpa/mpa_io.c:86
    f5b4:	b9400fe0 	ldr	w0, [sp,#12]
    f5b8:	7100bc1f 	cmp	w0, #0x2f
    f5bc:	540000ed 	b.le	f5d8 <__mpa_digit_value+0x2c>
/home/optee/RPi3/optee_os/lib/libmpa/mpa_io.c:86 (discriminator 1)
    f5c0:	b9400fe0 	ldr	w0, [sp,#12]
    f5c4:	7100e41f 	cmp	w0, #0x39
    f5c8:	5400008c 	b.gt	f5d8 <__mpa_digit_value+0x2c>
/home/optee/RPi3/optee_os/lib/libmpa/mpa_io.c:87
    f5cc:	b9400fe0 	ldr	w0, [sp,#12]
    f5d0:	5100c000 	sub	w0, w0, #0x30
    f5d4:	14000014 	b	f624 <__mpa_digit_value+0x78>
/home/optee/RPi3/optee_os/lib/libmpa/mpa_io.c:88
    f5d8:	b9400fe0 	ldr	w0, [sp,#12]
    f5dc:	7101001f 	cmp	w0, #0x40
    f5e0:	540000ed 	b.le	f5fc <__mpa_digit_value+0x50>
/home/optee/RPi3/optee_os/lib/libmpa/mpa_io.c:88 (discriminator 1)
    f5e4:	b9400fe0 	ldr	w0, [sp,#12]
    f5e8:	7101181f 	cmp	w0, #0x46
    f5ec:	5400008c 	b.gt	f5fc <__mpa_digit_value+0x50>
/home/optee/RPi3/optee_os/lib/libmpa/mpa_io.c:89
    f5f0:	b9400fe0 	ldr	w0, [sp,#12]
    f5f4:	5100dc00 	sub	w0, w0, #0x37
    f5f8:	1400000b 	b	f624 <__mpa_digit_value+0x78>
/home/optee/RPi3/optee_os/lib/libmpa/mpa_io.c:90
    f5fc:	b9400fe0 	ldr	w0, [sp,#12]
    f600:	7101801f 	cmp	w0, #0x60
    f604:	540000ed 	b.le	f620 <__mpa_digit_value+0x74>
/home/optee/RPi3/optee_os/lib/libmpa/mpa_io.c:90 (discriminator 1)
    f608:	b9400fe0 	ldr	w0, [sp,#12]
    f60c:	7101981f 	cmp	w0, #0x66
    f610:	5400008c 	b.gt	f620 <__mpa_digit_value+0x74>
/home/optee/RPi3/optee_os/lib/libmpa/mpa_io.c:91
    f614:	b9400fe0 	ldr	w0, [sp,#12]
    f618:	51015c00 	sub	w0, w0, #0x57
    f61c:	14000002 	b	f624 <__mpa_digit_value+0x78>
/home/optee/RPi3/optee_os/lib/libmpa/mpa_io.c:94
    f620:	52800000 	mov	w0, #0x0                   	// #0
/home/optee/RPi3/optee_os/lib/libmpa/mpa_io.c:95
    f624:	910043ff 	add	sp, sp, #0x10
    f628:	d65f03c0 	ret

000000000000f62c <__mpa_digitstr_to_binary_wsize_base_16>:
__mpa_digitstr_to_binary_wsize_base_16():
/home/optee/RPi3/optee_os/lib/libmpa/mpa_io.c:104
    f62c:	d10043ff 	sub	sp, sp, #0x10
    f630:	b9000fe0 	str	w0, [sp,#12]
/home/optee/RPi3/optee_os/lib/libmpa/mpa_io.c:105
    f634:	b9400fe0 	ldr	w0, [sp,#12]
    f638:	11001c00 	add	w0, w0, #0x7
    f63c:	13037c00 	asr	w0, w0, #3
/home/optee/RPi3/optee_os/lib/libmpa/mpa_io.c:106
    f640:	910043ff 	add	sp, sp, #0x10
    f644:	d65f03c0 	ret

000000000000f648 <__mpa_nibble_to_char>:
__mpa_nibble_to_char():
/home/optee/RPi3/optee_os/lib/libmpa/mpa_io.c:114
    f648:	d10043ff 	sub	sp, sp, #0x10
    f64c:	b9000fe0 	str	w0, [sp,#12]
    f650:	b9000be1 	str	w1, [sp,#8]
/home/optee/RPi3/optee_os/lib/libmpa/mpa_io.c:115
    f654:	b9400fe0 	ldr	w0, [sp,#12]
    f658:	12000c00 	and	w0, w0, #0xf
    f65c:	b9000fe0 	str	w0, [sp,#12]
/home/optee/RPi3/optee_os/lib/libmpa/mpa_io.c:116
    f660:	b9400fe0 	ldr	w0, [sp,#12]
    f664:	7100241f 	cmp	w0, #0x9
    f668:	540000c8 	b.hi	f680 <__mpa_nibble_to_char+0x38>
/home/optee/RPi3/optee_os/lib/libmpa/mpa_io.c:117
    f66c:	b9400fe0 	ldr	w0, [sp,#12]
    f670:	53001c00 	uxtb	w0, w0
    f674:	1100c000 	add	w0, w0, #0x30
    f678:	53001c00 	uxtb	w0, w0
    f67c:	1400000d 	b	f6b0 <__mpa_nibble_to_char+0x68>
/home/optee/RPi3/optee_os/lib/libmpa/mpa_io.c:118
    f680:	b9400be0 	ldr	w0, [sp,#8]
    f684:	6b1f001f 	cmp	w0, wzr
    f688:	540000c1 	b.ne	f6a0 <__mpa_nibble_to_char+0x58>
/home/optee/RPi3/optee_os/lib/libmpa/mpa_io.c:118 (discriminator 1)
    f68c:	b9400fe0 	ldr	w0, [sp,#12]
    f690:	53001c00 	uxtb	w0, w0
    f694:	1100dc00 	add	w0, w0, #0x37
    f698:	53001c00 	uxtb	w0, w0
    f69c:	14000005 	b	f6b0 <__mpa_nibble_to_char+0x68>
/home/optee/RPi3/optee_os/lib/libmpa/mpa_io.c:118 (discriminator 2)
    f6a0:	b9400fe0 	ldr	w0, [sp,#12]
    f6a4:	53001c00 	uxtb	w0, w0
    f6a8:	11015c00 	add	w0, w0, #0x57
    f6ac:	53001c00 	uxtb	w0, w0
/home/optee/RPi3/optee_os/lib/libmpa/mpa_io.c:119
    f6b0:	910043ff 	add	sp, sp, #0x10
    f6b4:	d65f03c0 	ret

000000000000f6b8 <__mpa_word_to_hexstr>:
__mpa_word_to_hexstr():
/home/optee/RPi3/optee_os/lib/libmpa/mpa_io.c:127
    f6b8:	a9bc7bfd 	stp	x29, x30, [sp,#-64]!
    f6bc:	910003fd 	mov	x29, sp
    f6c0:	f9000bf3 	str	x19, [sp,#16]
    f6c4:	f90017a0 	str	x0, [x29,#40]
    f6c8:	b90027a1 	str	w1, [x29,#36]
    f6cc:	b90023a2 	str	w2, [x29,#32]
/home/optee/RPi3/optee_os/lib/libmpa/mpa_io.c:129
    f6d0:	52800100 	mov	w0, #0x8                   	// #8
    f6d4:	b9003fa0 	str	w0, [x29,#60]
    f6d8:	14000012 	b	f720 <__mpa_word_to_hexstr+0x68>
/home/optee/RPi3/optee_os/lib/libmpa/mpa_io.c:130 (discriminator 3)
    f6dc:	b9803fa0 	ldrsw	x0, [x29,#60]
    f6e0:	d1000400 	sub	x0, x0, #0x1
    f6e4:	f94017a1 	ldr	x1, [x29,#40]
    f6e8:	8b000033 	add	x19, x1, x0
/home/optee/RPi3/optee_os/lib/libmpa/mpa_io.c:131 (discriminator 3)
    f6ec:	b9403fa0 	ldr	w0, [x29,#60]
    f6f0:	51000400 	sub	w0, w0, #0x1
    f6f4:	531e7400 	lsl	w0, w0, #2
    f6f8:	b94027a1 	ldr	w1, [x29,#36]
    f6fc:	1ac02420 	lsr	w0, w1, w0
    f700:	12000c00 	and	w0, w0, #0xf
    f704:	b94023a1 	ldr	w1, [x29,#32]
    f708:	97ffffd0 	bl	f648 <__mpa_nibble_to_char>
    f70c:	53001c00 	uxtb	w0, w0
/home/optee/RPi3/optee_os/lib/libmpa/mpa_io.c:130 (discriminator 3)
    f710:	39000260 	strb	w0, [x19]
/home/optee/RPi3/optee_os/lib/libmpa/mpa_io.c:129 (discriminator 3)
    f714:	b9403fa0 	ldr	w0, [x29,#60]
    f718:	51000400 	sub	w0, w0, #0x1
    f71c:	b9003fa0 	str	w0, [x29,#60]
/home/optee/RPi3/optee_os/lib/libmpa/mpa_io.c:129 (discriminator 1)
    f720:	b9403fa0 	ldr	w0, [x29,#60]
    f724:	6b1f001f 	cmp	w0, wzr
    f728:	54fffdac 	b.gt	f6dc <__mpa_word_to_hexstr+0x24>
/home/optee/RPi3/optee_os/lib/libmpa/mpa_io.c:133
    f72c:	d503201f 	nop
    f730:	f9400bf3 	ldr	x19, [sp,#16]
    f734:	a8c47bfd 	ldp	x29, x30, [sp],#64
    f738:	d65f03c0 	ret

000000000000f73c <__mpa_mpanum_to_hexstr>:
__mpa_mpanum_to_hexstr():
/home/optee/RPi3/optee_os/lib/libmpa/mpa_io.c:141
    f73c:	a9bb7bfd 	stp	x29, x30, [sp,#-80]!
    f740:	910003fd 	mov	x29, sp
    f744:	f90017a0 	str	x0, [x29,#40]
    f748:	b90027a1 	str	w1, [x29,#36]
    f74c:	f9000fa2 	str	x2, [x29,#24]
/home/optee/RPi3/optee_os/lib/libmpa/mpa_io.c:149
    f750:	f9400fa0 	ldr	x0, [x29,#24]
    f754:	b9400400 	ldr	w0, [x0,#4]
    f758:	6b1f001f 	cmp	w0, wzr
    f75c:	5a80a400 	cneg	w0, w0, lt
    f760:	b9004fa0 	str	w0, [x29,#76]
/home/optee/RPi3/optee_os/lib/libmpa/mpa_io.c:150
    f764:	b9404fa0 	ldr	w0, [x29,#76]
    f768:	6b1f001f 	cmp	w0, wzr
    f76c:	54000141 	b.ne	f794 <__mpa_mpanum_to_hexstr+0x58>
/home/optee/RPi3/optee_os/lib/libmpa/mpa_io.c:151
    f770:	f94017a0 	ldr	x0, [x29,#40]
    f774:	91000401 	add	x1, x0, #0x1
    f778:	f90017a1 	str	x1, [x29,#40]
    f77c:	52800601 	mov	w1, #0x30                  	// #48
    f780:	39000001 	strb	w1, [x0]
/home/optee/RPi3/optee_os/lib/libmpa/mpa_io.c:152
    f784:	f94017a0 	ldr	x0, [x29,#40]
    f788:	3900001f 	strb	wzr, [x0]
/home/optee/RPi3/optee_os/lib/libmpa/mpa_io.c:153
    f78c:	52800020 	mov	w0, #0x1                   	// #1
    f790:	14000059 	b	f8f4 <__mpa_mpanum_to_hexstr+0x1b8>
/home/optee/RPi3/optee_os/lib/libmpa/mpa_io.c:155
    f794:	b9404fa0 	ldr	w0, [x29,#76]
    f798:	51000400 	sub	w0, w0, #0x1
    f79c:	b9004fa0 	str	w0, [x29,#76]
/home/optee/RPi3/optee_os/lib/libmpa/mpa_io.c:157
    f7a0:	f94017a0 	ldr	x0, [x29,#40]
    f7a4:	f90023a0 	str	x0, [x29,#64]
/home/optee/RPi3/optee_os/lib/libmpa/mpa_io.c:161
    f7a8:	f9400fa1 	ldr	x1, [x29,#24]
    f7ac:	b9804fa0 	ldrsw	x0, [x29,#76]
    f7b0:	d37ef400 	lsl	x0, x0, #2
    f7b4:	8b000020 	add	x0, x1, x0
    f7b8:	b9400801 	ldr	w1, [x0,#8]
    f7bc:	9100c3a0 	add	x0, x29, #0x30
    f7c0:	b94027a2 	ldr	w2, [x29,#36]
    f7c4:	97ffffbd 	bl	f6b8 <__mpa_word_to_hexstr>
/home/optee/RPi3/optee_os/lib/libmpa/mpa_io.c:164
    f7c8:	52800100 	mov	w0, #0x8                   	// #8
    f7cc:	b9004ba0 	str	w0, [x29,#72]
/home/optee/RPi3/optee_os/lib/libmpa/mpa_io.c:165
    f7d0:	14000007 	b	f7ec <__mpa_mpanum_to_hexstr+0xb0>
/home/optee/RPi3/optee_os/lib/libmpa/mpa_io.c:166
    f7d4:	b9804ba0 	ldrsw	x0, [x29,#72]
    f7d8:	d13ec3a1 	sub	x1, x29, #0xfb0
    f7dc:	8b000020 	add	x0, x1, x0
    f7e0:	397f8000 	ldrb	w0, [x0,#4064]
    f7e4:	7100c01f 	cmp	w0, #0x30
    f7e8:	540000e1 	b.ne	f804 <__mpa_mpanum_to_hexstr+0xc8>
/home/optee/RPi3/optee_os/lib/libmpa/mpa_io.c:165
    f7ec:	b9404ba0 	ldr	w0, [x29,#72]
    f7f0:	51000401 	sub	w1, w0, #0x1
    f7f4:	b9004ba1 	str	w1, [x29,#72]
    f7f8:	6b1f001f 	cmp	w0, wzr
    f7fc:	54fffecc 	b.gt	f7d4 <__mpa_mpanum_to_hexstr+0x98>
    f800:	1400000e 	b	f838 <__mpa_mpanum_to_hexstr+0xfc>
/home/optee/RPi3/optee_os/lib/libmpa/mpa_io.c:167
    f804:	d503201f 	nop
/home/optee/RPi3/optee_os/lib/libmpa/mpa_io.c:168
    f808:	1400000c 	b	f838 <__mpa_mpanum_to_hexstr+0xfc>
/home/optee/RPi3/optee_os/lib/libmpa/mpa_io.c:169
    f80c:	f94017a0 	ldr	x0, [x29,#40]
    f810:	91000401 	add	x1, x0, #0x1
    f814:	f90017a1 	str	x1, [x29,#40]
    f818:	b9404ba1 	ldr	w1, [x29,#72]
    f81c:	51000422 	sub	w2, w1, #0x1
    f820:	b9004ba2 	str	w2, [x29,#72]
    f824:	93407c21 	sxtw	x1, w1
    f828:	d13ec3a2 	sub	x2, x29, #0xfb0
    f82c:	8b010041 	add	x1, x2, x1
    f830:	397f8021 	ldrb	w1, [x1,#4064]
    f834:	39000001 	strb	w1, [x0]
/home/optee/RPi3/optee_os/lib/libmpa/mpa_io.c:168
    f838:	b9404ba0 	ldr	w0, [x29,#72]
    f83c:	6b1f001f 	cmp	w0, wzr
    f840:	54fffe6a 	b.ge	f80c <__mpa_mpanum_to_hexstr+0xd0>
/home/optee/RPi3/optee_os/lib/libmpa/mpa_io.c:172
    f844:	b9404fa0 	ldr	w0, [x29,#76]
    f848:	51000400 	sub	w0, w0, #0x1
    f84c:	b9004fa0 	str	w0, [x29,#76]
/home/optee/RPi3/optee_os/lib/libmpa/mpa_io.c:173
    f850:	1400001d 	b	f8c4 <__mpa_mpanum_to_hexstr+0x188>
/home/optee/RPi3/optee_os/lib/libmpa/mpa_io.c:174
    f854:	f9400fa1 	ldr	x1, [x29,#24]
    f858:	b9804fa0 	ldrsw	x0, [x29,#76]
    f85c:	d37ef400 	lsl	x0, x0, #2
    f860:	8b000020 	add	x0, x1, x0
    f864:	b9400801 	ldr	w1, [x0,#8]
    f868:	9100c3a0 	add	x0, x29, #0x30
    f86c:	b94027a2 	ldr	w2, [x29,#36]
    f870:	97ffff92 	bl	f6b8 <__mpa_word_to_hexstr>
/home/optee/RPi3/optee_os/lib/libmpa/mpa_io.c:175
    f874:	528000e0 	mov	w0, #0x7                   	// #7
    f878:	b9004ba0 	str	w0, [x29,#72]
/home/optee/RPi3/optee_os/lib/libmpa/mpa_io.c:176
    f87c:	1400000c 	b	f8ac <__mpa_mpanum_to_hexstr+0x170>
/home/optee/RPi3/optee_os/lib/libmpa/mpa_io.c:177
    f880:	f94017a0 	ldr	x0, [x29,#40]
    f884:	91000401 	add	x1, x0, #0x1
    f888:	f90017a1 	str	x1, [x29,#40]
    f88c:	b9404ba1 	ldr	w1, [x29,#72]
    f890:	51000422 	sub	w2, w1, #0x1
    f894:	b9004ba2 	str	w2, [x29,#72]
    f898:	93407c21 	sxtw	x1, w1
    f89c:	d13ec3a2 	sub	x2, x29, #0xfb0
    f8a0:	8b010041 	add	x1, x2, x1
    f8a4:	397f8021 	ldrb	w1, [x1,#4064]
    f8a8:	39000001 	strb	w1, [x0]
/home/optee/RPi3/optee_os/lib/libmpa/mpa_io.c:176
    f8ac:	b9404ba0 	ldr	w0, [x29,#72]
    f8b0:	6b1f001f 	cmp	w0, wzr
    f8b4:	54fffe6a 	b.ge	f880 <__mpa_mpanum_to_hexstr+0x144>
/home/optee/RPi3/optee_os/lib/libmpa/mpa_io.c:178
    f8b8:	b9404fa0 	ldr	w0, [x29,#76]
    f8bc:	51000400 	sub	w0, w0, #0x1
    f8c0:	b9004fa0 	str	w0, [x29,#76]
/home/optee/RPi3/optee_os/lib/libmpa/mpa_io.c:173
    f8c4:	b9404fa0 	ldr	w0, [x29,#76]
    f8c8:	6b1f001f 	cmp	w0, wzr
    f8cc:	54fffc4a 	b.ge	f854 <__mpa_mpanum_to_hexstr+0x118>
/home/optee/RPi3/optee_os/lib/libmpa/mpa_io.c:180
    f8d0:	f94017a1 	ldr	x1, [x29,#40]
    f8d4:	f94023a0 	ldr	x0, [x29,#64]
    f8d8:	cb000020 	sub	x0, x1, x0
    f8dc:	b9003fa0 	str	w0, [x29,#60]
/home/optee/RPi3/optee_os/lib/libmpa/mpa_io.c:181
    f8e0:	f94017a0 	ldr	x0, [x29,#40]
    f8e4:	91000401 	add	x1, x0, #0x1
    f8e8:	f90017a1 	str	x1, [x29,#40]
    f8ec:	3900001f 	strb	wzr, [x0]
/home/optee/RPi3/optee_os/lib/libmpa/mpa_io.c:182
    f8f0:	b9403fa0 	ldr	w0, [x29,#60]
/home/optee/RPi3/optee_os/lib/libmpa/mpa_io.c:183 (discriminator 2)
    f8f4:	a8c57bfd 	ldp	x29, x30, [sp],#80
    f8f8:	d65f03c0 	ret

000000000000f8fc <__mpa_count_leading_zero_bits>:
__mpa_count_leading_zero_bits():
/home/optee/RPi3/optee_os/lib/libmpa/mpa_io.c:191
    f8fc:	d10083ff 	sub	sp, sp, #0x20
    f900:	b9000fe0 	str	w0, [sp,#12]
/home/optee/RPi3/optee_os/lib/libmpa/mpa_io.c:195
    f904:	b9400fe0 	ldr	w0, [sp,#12]
    f908:	6b1f001f 	cmp	w0, wzr
    f90c:	54000061 	b.ne	f918 <__mpa_count_leading_zero_bits+0x1c>
/home/optee/RPi3/optee_os/lib/libmpa/mpa_io.c:196
    f910:	52800400 	mov	w0, #0x20                  	// #32
    f914:	14000011 	b	f958 <__mpa_count_leading_zero_bits+0x5c>
/home/optee/RPi3/optee_os/lib/libmpa/mpa_io.c:197
    f918:	52b00000 	mov	w0, #0x80000000            	// #-2147483648
    f91c:	b9001fe0 	str	w0, [sp,#28]
/home/optee/RPi3/optee_os/lib/libmpa/mpa_io.c:198
    f920:	b9001bff 	str	wzr, [sp,#24]
/home/optee/RPi3/optee_os/lib/libmpa/mpa_io.c:199
    f924:	14000007 	b	f940 <__mpa_count_leading_zero_bits+0x44>
/home/optee/RPi3/optee_os/lib/libmpa/mpa_io.c:200
    f928:	b9401be0 	ldr	w0, [sp,#24]
    f92c:	11000400 	add	w0, w0, #0x1
    f930:	b9001be0 	str	w0, [sp,#24]
/home/optee/RPi3/optee_os/lib/libmpa/mpa_io.c:201
    f934:	b9401fe0 	ldr	w0, [sp,#28]
    f938:	53017c00 	lsr	w0, w0, #1
    f93c:	b9001fe0 	str	w0, [sp,#28]
/home/optee/RPi3/optee_os/lib/libmpa/mpa_io.c:199
    f940:	b9400fe1 	ldr	w1, [sp,#12]
    f944:	b9401fe0 	ldr	w0, [sp,#28]
    f948:	0a000020 	and	w0, w1, w0
    f94c:	6b1f001f 	cmp	w0, wzr
    f950:	54fffec0 	b.eq	f928 <__mpa_count_leading_zero_bits+0x2c>
/home/optee/RPi3/optee_os/lib/libmpa/mpa_io.c:203
    f954:	b9401be0 	ldr	w0, [sp,#24]
/home/optee/RPi3/optee_os/lib/libmpa/mpa_io.c:204
    f958:	910083ff 	add	sp, sp, #0x20
    f95c:	d65f03c0 	ret

000000000000f960 <__mpa_size_in_base_255>:
__mpa_size_in_base_255():
/home/optee/RPi3/optee_os/lib/libmpa/mpa_io.c:212
    f960:	a9bd7bfd 	stp	x29, x30, [sp,#-48]!
    f964:	910003fd 	mov	x29, sp
    f968:	f9000fa0 	str	x0, [x29,#24]
/home/optee/RPi3/optee_os/lib/libmpa/mpa_io.c:217
    f96c:	f9400fa0 	ldr	x0, [x29,#24]
    f970:	b9400400 	ldr	w0, [x0,#4]
    f974:	6b1f001f 	cmp	w0, wzr
    f978:	54000061 	b.ne	f984 <__mpa_size_in_base_255+0x24>
/home/optee/RPi3/optee_os/lib/libmpa/mpa_io.c:218
    f97c:	52800020 	mov	w0, #0x1                   	// #1
    f980:	14000019 	b	f9e4 <__mpa_size_in_base_255+0x84>
/home/optee/RPi3/optee_os/lib/libmpa/mpa_io.c:221
    f984:	f9400fa0 	ldr	x0, [x29,#24]
    f988:	b9400400 	ldr	w0, [x0,#4]
    f98c:	6b1f001f 	cmp	w0, wzr
    f990:	5a80a400 	cneg	w0, w0, lt
    f994:	51000400 	sub	w0, w0, #0x1
/home/optee/RPi3/optee_os/lib/libmpa/mpa_io.c:220
    f998:	f9400fa1 	ldr	x1, [x29,#24]
    f99c:	93407c00 	sxtw	x0, w0
    f9a0:	d37ef400 	lsl	x0, x0, #2
    f9a4:	8b000020 	add	x0, x1, x0
    f9a8:	b9400800 	ldr	w0, [x0,#8]
    f9ac:	97ffffd4 	bl	f8fc <__mpa_count_leading_zero_bits>
    f9b0:	b9002fa0 	str	w0, [x29,#44]
/home/optee/RPi3/optee_os/lib/libmpa/mpa_io.c:222
    f9b4:	f9400fa0 	ldr	x0, [x29,#24]
    f9b8:	b9400400 	ldr	w0, [x0,#4]
    f9bc:	6b1f001f 	cmp	w0, wzr
    f9c0:	5a80a400 	cneg	w0, w0, lt
    f9c4:	531b6800 	lsl	w0, w0, #5
    f9c8:	2a0003e1 	mov	w1, w0
    f9cc:	b9402fa0 	ldr	w0, [x29,#44]
    f9d0:	4b000020 	sub	w0, w1, w0
    f9d4:	b9002ba0 	str	w0, [x29,#40]
/home/optee/RPi3/optee_os/lib/libmpa/mpa_io.c:224
    f9d8:	b9402ba0 	ldr	w0, [x29,#40]
    f9dc:	11001c00 	add	w0, w0, #0x7
    f9e0:	53037c00 	lsr	w0, w0, #3
/home/optee/RPi3/optee_os/lib/libmpa/mpa_io.c:225
    f9e4:	a8c37bfd 	ldp	x29, x30, [sp],#48
    f9e8:	d65f03c0 	ret

000000000000f9ec <mpa_get_str_size>:
mpa_get_str_size():
/home/optee/RPi3/optee_os/lib/libmpa/mpa_io.c:234
    f9ec:	52820040 	mov	w0, #0x1002                	// #4098
/home/optee/RPi3/optee_os/lib/libmpa/mpa_io.c:235
    f9f0:	d65f03c0 	ret

000000000000f9f4 <mpa_set_str>:
mpa_set_str():
/home/optee/RPi3/optee_os/lib/libmpa/mpa_io.c:259
    f9f4:	a9ba7bfd 	stp	x29, x30, [sp,#-96]!
    f9f8:	910003fd 	mov	x29, sp
    f9fc:	f9000bf3 	str	x19, [sp,#16]
    fa00:	f90017a0 	str	x0, [x29,#40]
    fa04:	f90013a1 	str	x1, [x29,#32]
/home/optee/RPi3/optee_os/lib/libmpa/mpa_io.c:278
    fa08:	f94013a0 	ldr	x0, [x29,#32]
    fa0c:	39400000 	ldrb	w0, [x0]
    fa10:	6b1f001f 	cmp	w0, wzr
    fa14:	54000061 	b.ne	fa20 <mpa_set_str+0x2c>
/home/optee/RPi3/optee_os/lib/libmpa/mpa_io.c:279
    fa18:	52800000 	mov	w0, #0x0                   	// #0
    fa1c:	14000105 	b	fe30 <mpa_set_str+0x43c>
/home/optee/RPi3/optee_os/lib/libmpa/mpa_io.c:283 (discriminator 1)
    fa20:	f94013a0 	ldr	x0, [x29,#32]
    fa24:	91000401 	add	x1, x0, #0x1
    fa28:	f90013a1 	str	x1, [x29,#32]
    fa2c:	39400000 	ldrb	w0, [x0]
    fa30:	b9005ba0 	str	w0, [x29,#88]
/home/optee/RPi3/optee_os/lib/libmpa/mpa_io.c:284 (discriminator 1)
    fa34:	b9405ba0 	ldr	w0, [x29,#88]
    fa38:	53001c00 	uxtb	w0, w0
    fa3c:	97fffe92 	bl	f484 <__mpa_isspace>
    fa40:	6b1f001f 	cmp	w0, wzr
    fa44:	54fffee1 	b.ne	fa20 <mpa_set_str+0x2c>
/home/optee/RPi3/optee_os/lib/libmpa/mpa_io.c:287
    fa48:	b9005fbf 	str	wzr, [x29,#92]
/home/optee/RPi3/optee_os/lib/libmpa/mpa_io.c:288
    fa4c:	b9405ba0 	ldr	w0, [x29,#88]
    fa50:	7100b41f 	cmp	w0, #0x2d
    fa54:	54000101 	b.ne	fa74 <mpa_set_str+0x80>
/home/optee/RPi3/optee_os/lib/libmpa/mpa_io.c:289
    fa58:	52800020 	mov	w0, #0x1                   	// #1
    fa5c:	b9005fa0 	str	w0, [x29,#92]
/home/optee/RPi3/optee_os/lib/libmpa/mpa_io.c:290
    fa60:	f94013a0 	ldr	x0, [x29,#32]
    fa64:	91000401 	add	x1, x0, #0x1
    fa68:	f90013a1 	str	x1, [x29,#32]
    fa6c:	39400000 	ldrb	w0, [x0]
    fa70:	b9005ba0 	str	w0, [x29,#88]
/home/optee/RPi3/optee_os/lib/libmpa/mpa_io.c:292
    fa74:	b9405ba0 	ldr	w0, [x29,#88]
    fa78:	6b1f001f 	cmp	w0, wzr
    fa7c:	540000c1 	b.ne	fa94 <mpa_set_str+0xa0>
/home/optee/RPi3/optee_os/lib/libmpa/mpa_io.c:293
    fa80:	52800001 	mov	w1, #0x0                   	// #0
    fa84:	f94017a0 	ldr	x0, [x29,#40]
    fa88:	97ffeca7 	bl	ad24 <mpa_set_word>
/home/optee/RPi3/optee_os/lib/libmpa/mpa_io.c:294
    fa8c:	52800000 	mov	w0, #0x0                   	// #0
    fa90:	140000e8 	b	fe30 <mpa_set_str+0x43c>
/home/optee/RPi3/optee_os/lib/libmpa/mpa_io.c:298
    fa94:	b9405ba0 	ldr	w0, [x29,#88]
    fa98:	7100c01f 	cmp	w0, #0x30
    fa9c:	540002e1 	b.ne	faf8 <mpa_set_str+0x104>
/home/optee/RPi3/optee_os/lib/libmpa/mpa_io.c:299
    faa0:	f94013a0 	ldr	x0, [x29,#32]
    faa4:	91000401 	add	x1, x0, #0x1
    faa8:	f90013a1 	str	x1, [x29,#32]
    faac:	39400000 	ldrb	w0, [x0]
    fab0:	b9005ba0 	str	w0, [x29,#88]
/home/optee/RPi3/optee_os/lib/libmpa/mpa_io.c:300
    fab4:	b9405ba0 	ldr	w0, [x29,#88]
    fab8:	7101e01f 	cmp	w0, #0x78
    fabc:	54000080 	b.eq	facc <mpa_set_str+0xd8>
/home/optee/RPi3/optee_os/lib/libmpa/mpa_io.c:300 (discriminator 1)
    fac0:	b9405ba0 	ldr	w0, [x29,#88]
    fac4:	7101601f 	cmp	w0, #0x58
    fac8:	54000181 	b.ne	faf8 <mpa_set_str+0x104>
/home/optee/RPi3/optee_os/lib/libmpa/mpa_io.c:301
    facc:	f94013a0 	ldr	x0, [x29,#32]
    fad0:	91000401 	add	x1, x0, #0x1
    fad4:	f90013a1 	str	x1, [x29,#32]
    fad8:	39400000 	ldrb	w0, [x0]
    fadc:	b9005ba0 	str	w0, [x29,#88]
/home/optee/RPi3/optee_os/lib/libmpa/mpa_io.c:305
    fae0:	14000006 	b	faf8 <mpa_set_str+0x104>
/home/optee/RPi3/optee_os/lib/libmpa/mpa_io.c:306
    fae4:	f94013a0 	ldr	x0, [x29,#32]
    fae8:	91000401 	add	x1, x0, #0x1
    faec:	f90013a1 	str	x1, [x29,#32]
    faf0:	39400000 	ldrb	w0, [x0]
    faf4:	b9005ba0 	str	w0, [x29,#88]
/home/optee/RPi3/optee_os/lib/libmpa/mpa_io.c:305
    faf8:	b9405ba0 	ldr	w0, [x29,#88]
    fafc:	7100c01f 	cmp	w0, #0x30
    fb00:	54ffff20 	b.eq	fae4 <mpa_set_str+0xf0>
/home/optee/RPi3/optee_os/lib/libmpa/mpa_io.c:305 (discriminator 1)
    fb04:	b9405ba0 	ldr	w0, [x29,#88]
    fb08:	53001c00 	uxtb	w0, w0
    fb0c:	97fffe5e 	bl	f484 <__mpa_isspace>
    fb10:	6b1f001f 	cmp	w0, wzr
    fb14:	54fffe81 	b.ne	fae4 <mpa_set_str+0xf0>
/home/optee/RPi3/optee_os/lib/libmpa/mpa_io.c:309
    fb18:	b9405ba0 	ldr	w0, [x29,#88]
    fb1c:	6b1f001f 	cmp	w0, wzr
    fb20:	540000c1 	b.ne	fb38 <mpa_set_str+0x144>
/home/optee/RPi3/optee_os/lib/libmpa/mpa_io.c:310
    fb24:	52800001 	mov	w1, #0x0                   	// #0
    fb28:	f94017a0 	ldr	x0, [x29,#40]
    fb2c:	97ffec7e 	bl	ad24 <mpa_set_word>
/home/optee/RPi3/optee_os/lib/libmpa/mpa_io.c:311
    fb30:	52800000 	mov	w0, #0x0                   	// #0
    fb34:	140000bf 	b	fe30 <mpa_set_str+0x43c>
/home/optee/RPi3/optee_os/lib/libmpa/mpa_io.c:315
    fb38:	f94013a0 	ldr	x0, [x29,#32]
    fb3c:	f90027a0 	str	x0, [x29,#72]
/home/optee/RPi3/optee_os/lib/libmpa/mpa_io.c:316
    fb40:	14000004 	b	fb50 <mpa_set_str+0x15c>
/home/optee/RPi3/optee_os/lib/libmpa/mpa_io.c:317
    fb44:	f94027a0 	ldr	x0, [x29,#72]
    fb48:	91000400 	add	x0, x0, #0x1
    fb4c:	f90027a0 	str	x0, [x29,#72]
/home/optee/RPi3/optee_os/lib/libmpa/mpa_io.c:316
    fb50:	f94027a0 	ldr	x0, [x29,#72]
    fb54:	39400000 	ldrb	w0, [x0]
    fb58:	6b1f001f 	cmp	w0, wzr
    fb5c:	54ffff41 	b.ne	fb44 <mpa_set_str+0x150>
/home/optee/RPi3/optee_os/lib/libmpa/mpa_io.c:320
    fb60:	f94027a1 	ldr	x1, [x29,#72]
    fb64:	f94013a0 	ldr	x0, [x29,#32]
    fb68:	cb000020 	sub	x0, x1, x0
    fb6c:	11000400 	add	w0, w0, #0x1
    fb70:	b90033a0 	str	w0, [x29,#48]
/home/optee/RPi3/optee_os/lib/libmpa/mpa_io.c:321
    fb74:	b94033a1 	ldr	w1, [x29,#48]
    fb78:	52820040 	mov	w0, #0x1002                	// #4098
    fb7c:	6b00003f 	cmp	w1, w0
    fb80:	5400010d 	b.le	fba0 <mpa_set_str+0x1ac>
/home/optee/RPi3/optee_os/lib/libmpa/mpa_io.c:321 (discriminator 1)
    fb84:	f0000000 	adrp	x0, 12000 <PRIME_TABLE+0x5d0>
    fb88:	911d8001 	add	x1, x0, #0x760
    fb8c:	f0000000 	adrp	x0, 12000 <PRIME_TABLE+0x5d0>
    fb90:	911de000 	add	x0, x0, #0x778
    fb94:	52802822 	mov	w2, #0x141                 	// #321
    fb98:	97ffd46e 	bl	4d50 <_assert_log>
    fb9c:	97ffd481 	bl	4da0 <_assert_break>
/home/optee/RPi3/optee_os/lib/libmpa/mpa_io.c:323
    fba0:	b90057bf 	str	wzr, [x29,#84]
/home/optee/RPi3/optee_os/lib/libmpa/mpa_io.c:324
    fba4:	14000015 	b	fbf8 <mpa_set_str+0x204>
/home/optee/RPi3/optee_os/lib/libmpa/mpa_io.c:325
    fba8:	b9405ba0 	ldr	w0, [x29,#88]
    fbac:	53001c00 	uxtb	w0, w0
    fbb0:	97fffe35 	bl	f484 <__mpa_isspace>
    fbb4:	6b1f001f 	cmp	w0, wzr
    fbb8:	54000161 	b.ne	fbe4 <mpa_set_str+0x1f0>
/home/optee/RPi3/optee_os/lib/libmpa/mpa_io.c:326
    fbbc:	b94057b3 	ldr	w19, [x29,#84]
    fbc0:	11000660 	add	w0, w19, #0x1
    fbc4:	b90057a0 	str	w0, [x29,#84]
    fbc8:	b9405ba0 	ldr	w0, [x29,#88]
    fbcc:	97fffe78 	bl	f5ac <__mpa_digit_value>
    fbd0:	53001c02 	uxtb	w2, w0
    fbd4:	b0000060 	adrp	x0, 1c000 <mempool_u32+0xe80>
    fbd8:	91346001 	add	x1, x0, #0xd18
    fbdc:	93407e60 	sxtw	x0, w19
    fbe0:	38206822 	strb	w2, [x1,x0]
/home/optee/RPi3/optee_os/lib/libmpa/mpa_io.c:327
    fbe4:	f94013a0 	ldr	x0, [x29,#32]
    fbe8:	91000401 	add	x1, x0, #0x1
    fbec:	f90013a1 	str	x1, [x29,#32]
    fbf0:	39400000 	ldrb	w0, [x0]
    fbf4:	b9005ba0 	str	w0, [x29,#88]
/home/optee/RPi3/optee_os/lib/libmpa/mpa_io.c:324
    fbf8:	b9405ba1 	ldr	w1, [x29,#88]
    fbfc:	52800200 	mov	w0, #0x10                  	// #16
    fc00:	97fffe37 	bl	f4dc <__mpa_is_char_in_base>
    fc04:	6b1f001f 	cmp	w0, wzr
    fc08:	54fffd01 	b.ne	fba8 <mpa_set_str+0x1b4>
/home/optee/RPi3/optee_os/lib/libmpa/mpa_io.c:330
    fc0c:	b94057a0 	ldr	w0, [x29,#84]
    fc10:	6b1f001f 	cmp	w0, wzr
    fc14:	54000081 	b.ne	fc24 <mpa_set_str+0x230>
/home/optee/RPi3/optee_os/lib/libmpa/mpa_io.c:331
    fc18:	12800000 	mov	w0, #0xffffffff            	// #-1
    fc1c:	b90047a0 	str	w0, [x29,#68]
/home/optee/RPi3/optee_os/lib/libmpa/mpa_io.c:332
    fc20:	14000083 	b	fe2c <mpa_set_str+0x438>
/home/optee/RPi3/optee_os/lib/libmpa/mpa_io.c:335
    fc24:	b94057a0 	ldr	w0, [x29,#84]
    fc28:	97fffe81 	bl	f62c <__mpa_digitstr_to_binary_wsize_base_16>
    fc2c:	2a0003e1 	mov	w1, w0
    fc30:	f94017a0 	ldr	x0, [x29,#40]
    fc34:	b9400000 	ldr	w0, [x0]
    fc38:	6b00003f 	cmp	w1, w0
    fc3c:	54000109 	b.ls	fc5c <mpa_set_str+0x268>
/home/optee/RPi3/optee_os/lib/libmpa/mpa_io.c:335 (discriminator 1)
    fc40:	f0000000 	adrp	x0, 12000 <PRIME_TABLE+0x5d0>
    fc44:	911d8001 	add	x1, x0, #0x760
    fc48:	f0000000 	adrp	x0, 12000 <PRIME_TABLE+0x5d0>
    fc4c:	911e6000 	add	x0, x0, #0x798
    fc50:	52802a02 	mov	w2, #0x150                 	// #336
    fc54:	97ffd43f 	bl	4d50 <_assert_log>
    fc58:	97ffd452 	bl	4da0 <_assert_break>
/home/optee/RPi3/optee_os/lib/libmpa/mpa_io.c:338
    fc5c:	b94057a0 	ldr	w0, [x29,#84]
    fc60:	b90047a0 	str	w0, [x29,#68]
/home/optee/RPi3/optee_os/lib/libmpa/mpa_io.c:339
    fc64:	f94017a0 	ldr	x0, [x29,#40]
    fc68:	91002000 	add	x0, x0, #0x8
    fc6c:	f9001fa0 	str	x0, [x29,#56]
/home/optee/RPi3/optee_os/lib/libmpa/mpa_io.c:340
    fc70:	52800001 	mov	w1, #0x0                   	// #0
    fc74:	f94017a0 	ldr	x0, [x29,#40]
    fc78:	97ffec2b 	bl	ad24 <mpa_set_word>
/home/optee/RPi3/optee_os/lib/libmpa/mpa_io.c:342
    fc7c:	f9401fa0 	ldr	x0, [x29,#56]
    fc80:	b900001f 	str	wzr, [x0]
/home/optee/RPi3/optee_os/lib/libmpa/mpa_io.c:343
    fc84:	52800080 	mov	w0, #0x4                   	// #4
    fc88:	b90037a0 	str	w0, [x29,#52]
/home/optee/RPi3/optee_os/lib/libmpa/mpa_io.c:344
    fc8c:	f94017a0 	ldr	x0, [x29,#40]
    fc90:	52800021 	mov	w1, #0x1                   	// #1
    fc94:	b9000401 	str	w1, [x0,#4]
/home/optee/RPi3/optee_os/lib/libmpa/mpa_io.c:345
    fc98:	b94057a0 	ldr	w0, [x29,#84]
    fc9c:	51000400 	sub	w0, w0, #0x1
    fca0:	b90057a0 	str	w0, [x29,#84]
/home/optee/RPi3/optee_os/lib/libmpa/mpa_io.c:346
    fca4:	1400002c 	b	fd54 <mpa_set_str+0x360>
/home/optee/RPi3/optee_os/lib/libmpa/mpa_io.c:347
    fca8:	f9401fa0 	ldr	x0, [x29,#56]
    fcac:	b9400001 	ldr	w1, [x0]
    fcb0:	b94057a0 	ldr	w0, [x29,#84]
    fcb4:	51000403 	sub	w3, w0, #0x1
    fcb8:	b0000060 	adrp	x0, 1c000 <mempool_u32+0xe80>
    fcbc:	91346002 	add	x2, x0, #0xd18
    fcc0:	93407c60 	sxtw	x0, w3
    fcc4:	38606840 	ldrb	w0, [x2,x0]
    fcc8:	531c6c00 	lsl	w0, w0, #4
    fccc:	b0000062 	adrp	x2, 1c000 <mempool_u32+0xe80>
    fcd0:	91346043 	add	x3, x2, #0xd18
    fcd4:	b98057a2 	ldrsw	x2, [x29,#84]
    fcd8:	38626862 	ldrb	w2, [x3,x2]
    fcdc:	4a020002 	eor	w2, w0, w2
/home/optee/RPi3/optee_os/lib/libmpa/mpa_io.c:348
    fce0:	52800083 	mov	w3, #0x4                   	// #4
    fce4:	b94037a0 	ldr	w0, [x29,#52]
    fce8:	4b000060 	sub	w0, w3, w0
    fcec:	531d7000 	lsl	w0, w0, #3
/home/optee/RPi3/optee_os/lib/libmpa/mpa_io.c:347
    fcf0:	1ac02040 	lsl	w0, w2, w0
    fcf4:	4a000021 	eor	w1, w1, w0
    fcf8:	f9401fa0 	ldr	x0, [x29,#56]
    fcfc:	b9000001 	str	w1, [x0]
/home/optee/RPi3/optee_os/lib/libmpa/mpa_io.c:349
    fd00:	b94037a0 	ldr	w0, [x29,#52]
    fd04:	51000400 	sub	w0, w0, #0x1
    fd08:	b90037a0 	str	w0, [x29,#52]
/home/optee/RPi3/optee_os/lib/libmpa/mpa_io.c:350
    fd0c:	b94057a0 	ldr	w0, [x29,#84]
    fd10:	51000800 	sub	w0, w0, #0x2
    fd14:	b90057a0 	str	w0, [x29,#84]
/home/optee/RPi3/optee_os/lib/libmpa/mpa_io.c:351
    fd18:	b94037a0 	ldr	w0, [x29,#52]
    fd1c:	6b1f001f 	cmp	w0, wzr
    fd20:	540001a1 	b.ne	fd54 <mpa_set_str+0x360>
/home/optee/RPi3/optee_os/lib/libmpa/mpa_io.c:352
    fd24:	f9401fa0 	ldr	x0, [x29,#56]
    fd28:	91001000 	add	x0, x0, #0x4
    fd2c:	f9001fa0 	str	x0, [x29,#56]
/home/optee/RPi3/optee_os/lib/libmpa/mpa_io.c:353
    fd30:	f9401fa0 	ldr	x0, [x29,#56]
    fd34:	b900001f 	str	wzr, [x0]
/home/optee/RPi3/optee_os/lib/libmpa/mpa_io.c:354
    fd38:	52800080 	mov	w0, #0x4                   	// #4
    fd3c:	b90037a0 	str	w0, [x29,#52]
/home/optee/RPi3/optee_os/lib/libmpa/mpa_io.c:355
    fd40:	f94017a0 	ldr	x0, [x29,#40]
    fd44:	b9400400 	ldr	w0, [x0,#4]
    fd48:	11000401 	add	w1, w0, #0x1
    fd4c:	f94017a0 	ldr	x0, [x29,#40]
    fd50:	b9000401 	str	w1, [x0,#4]
/home/optee/RPi3/optee_os/lib/libmpa/mpa_io.c:346
    fd54:	b94057a0 	ldr	w0, [x29,#84]
    fd58:	7100041f 	cmp	w0, #0x1
    fd5c:	54fffa6c 	b.gt	fca8 <mpa_set_str+0x2b4>
/home/optee/RPi3/optee_os/lib/libmpa/mpa_io.c:358
    fd60:	b94057a0 	ldr	w0, [x29,#84]
    fd64:	7100041f 	cmp	w0, #0x1
    fd68:	540002e1 	b.ne	fdc4 <mpa_set_str+0x3d0>
/home/optee/RPi3/optee_os/lib/libmpa/mpa_io.c:359
    fd6c:	f9401fa0 	ldr	x0, [x29,#56]
    fd70:	b9400001 	ldr	w1, [x0]
    fd74:	b94057a0 	ldr	w0, [x29,#84]
    fd78:	51000403 	sub	w3, w0, #0x1
    fd7c:	b0000060 	adrp	x0, 1c000 <mempool_u32+0xe80>
    fd80:	91346002 	add	x2, x0, #0xd18
    fd84:	93407c60 	sxtw	x0, w3
    fd88:	38606840 	ldrb	w0, [x2,x0]
    fd8c:	531c6c00 	lsl	w0, w0, #4
    fd90:	b0000062 	adrp	x2, 1c000 <mempool_u32+0xe80>
    fd94:	91346043 	add	x3, x2, #0xd18
    fd98:	b98057a2 	ldrsw	x2, [x29,#84]
    fd9c:	38626862 	ldrb	w2, [x3,x2]
    fda0:	4a020002 	eor	w2, w0, w2
/home/optee/RPi3/optee_os/lib/libmpa/mpa_io.c:360
    fda4:	52800083 	mov	w3, #0x4                   	// #4
    fda8:	b94037a0 	ldr	w0, [x29,#52]
    fdac:	4b000060 	sub	w0, w3, w0
    fdb0:	531d7000 	lsl	w0, w0, #3
/home/optee/RPi3/optee_os/lib/libmpa/mpa_io.c:359
    fdb4:	1ac02040 	lsl	w0, w2, w0
    fdb8:	4a000021 	eor	w1, w1, w0
    fdbc:	f9401fa0 	ldr	x0, [x29,#56]
    fdc0:	b9000001 	str	w1, [x0]
/home/optee/RPi3/optee_os/lib/libmpa/mpa_io.c:361
    fdc4:	b94057a0 	ldr	w0, [x29,#84]
    fdc8:	6b1f001f 	cmp	w0, wzr
    fdcc:	54000201 	b.ne	fe0c <mpa_set_str+0x418>
/home/optee/RPi3/optee_os/lib/libmpa/mpa_io.c:362
    fdd0:	f9401fa0 	ldr	x0, [x29,#56]
    fdd4:	b9400001 	ldr	w1, [x0]
    fdd8:	b0000060 	adrp	x0, 1c000 <mempool_u32+0xe80>
    fddc:	91346002 	add	x2, x0, #0xd18
    fde0:	b98057a0 	ldrsw	x0, [x29,#84]
    fde4:	38606840 	ldrb	w0, [x2,x0]
    fde8:	2a0003e3 	mov	w3, w0
/home/optee/RPi3/optee_os/lib/libmpa/mpa_io.c:363
    fdec:	52800082 	mov	w2, #0x4                   	// #4
    fdf0:	b94037a0 	ldr	w0, [x29,#52]
    fdf4:	4b000040 	sub	w0, w2, w0
    fdf8:	531d7000 	lsl	w0, w0, #3
/home/optee/RPi3/optee_os/lib/libmpa/mpa_io.c:362
    fdfc:	1ac02060 	lsl	w0, w3, w0
    fe00:	4a000021 	eor	w1, w1, w0
    fe04:	f9401fa0 	ldr	x0, [x29,#56]
    fe08:	b9000001 	str	w1, [x0]
/home/optee/RPi3/optee_os/lib/libmpa/mpa_io.c:365
    fe0c:	b9405fa0 	ldr	w0, [x29,#92]
    fe10:	6b1f001f 	cmp	w0, wzr
    fe14:	540000c0 	b.eq	fe2c <mpa_set_str+0x438>
/home/optee/RPi3/optee_os/lib/libmpa/mpa_io.c:366
    fe18:	f94017a0 	ldr	x0, [x29,#40]
    fe1c:	b9400400 	ldr	w0, [x0,#4]
    fe20:	4b0003e1 	neg	w1, w0
    fe24:	f94017a0 	ldr	x0, [x29,#40]
    fe28:	b9000401 	str	w1, [x0,#4]
/home/optee/RPi3/optee_os/lib/libmpa/mpa_io.c:369
    fe2c:	b94047a0 	ldr	w0, [x29,#68]
/home/optee/RPi3/optee_os/lib/libmpa/mpa_io.c:370
    fe30:	f9400bf3 	ldr	x19, [sp,#16]
    fe34:	a8c67bfd 	ldp	x29, x30, [sp],#96
    fe38:	d65f03c0 	ret

000000000000fe3c <mpa_get_str>:
mpa_get_str():
/home/optee/RPi3/optee_os/lib/libmpa/mpa_io.c:386
    fe3c:	a9bc7bfd 	stp	x29, x30, [sp,#-64]!
    fe40:	910003fd 	mov	x29, sp
    fe44:	f90017a0 	str	x0, [x29,#40]
    fe48:	b90027a1 	str	w1, [x29,#36]
    fe4c:	f9000fa2 	str	x2, [x29,#24]
/home/optee/RPi3/optee_os/lib/libmpa/mpa_io.c:387
    fe50:	f94017a0 	ldr	x0, [x29,#40]
    fe54:	f9001fa0 	str	x0, [x29,#56]
/home/optee/RPi3/optee_os/lib/libmpa/mpa_io.c:389
    fe58:	f94017a0 	ldr	x0, [x29,#40]
    fe5c:	eb1f001f 	cmp	x0, xzr
    fe60:	54000101 	b.ne	fe80 <mpa_get_str+0x44>
/home/optee/RPi3/optee_os/lib/libmpa/mpa_io.c:389 (discriminator 1)
    fe64:	f0000000 	adrp	x0, 12000 <PRIME_TABLE+0x5d0>
    fe68:	911d8001 	add	x1, x0, #0x760
    fe6c:	f0000000 	adrp	x0, 12000 <PRIME_TABLE+0x5d0>
    fe70:	911fa000 	add	x0, x0, #0x7e8
    fe74:	528030a2 	mov	w2, #0x185                 	// #389
    fe78:	97ffd3b6 	bl	4d50 <_assert_log>
    fe7c:	97ffd3c9 	bl	4da0 <_assert_break>
/home/optee/RPi3/optee_os/lib/libmpa/mpa_io.c:392
    fe80:	f9400fa0 	ldr	x0, [x29,#24]
    fe84:	b9400400 	ldr	w0, [x0,#4]
    fe88:	6b1f001f 	cmp	w0, wzr
    fe8c:	540000ea 	b.ge	fea8 <mpa_get_str+0x6c>
/home/optee/RPi3/optee_os/lib/libmpa/mpa_io.c:393
    fe90:	f9401fa0 	ldr	x0, [x29,#56]
    fe94:	528005a1 	mov	w1, #0x2d                  	// #45
    fe98:	39000001 	strb	w1, [x0]
/home/optee/RPi3/optee_os/lib/libmpa/mpa_io.c:394
    fe9c:	f9401fa0 	ldr	x0, [x29,#56]
    fea0:	91000400 	add	x0, x0, #0x1
    fea4:	f9001fa0 	str	x0, [x29,#56]
/home/optee/RPi3/optee_os/lib/libmpa/mpa_io.c:396
    fea8:	b94027a0 	ldr	w0, [x29,#36]
    feac:	7100401f 	cmp	w0, #0x10
    feb0:	54000080 	b.eq	fec0 <mpa_get_str+0x84>
    feb4:	7100441f 	cmp	w0, #0x11
    feb8:	540000e0 	b.eq	fed4 <mpa_get_str+0x98>
    febc:	1400000b 	b	fee8 <mpa_get_str+0xac>
/home/optee/RPi3/optee_os/lib/libmpa/mpa_io.c:398
    fec0:	f9400fa2 	ldr	x2, [x29,#24]
    fec4:	52800001 	mov	w1, #0x0                   	// #0
    fec8:	f9401fa0 	ldr	x0, [x29,#56]
    fecc:	97fffe1c 	bl	f73c <__mpa_mpanum_to_hexstr>
/home/optee/RPi3/optee_os/lib/libmpa/mpa_io.c:399
    fed0:	14000008 	b	fef0 <mpa_get_str+0xb4>
/home/optee/RPi3/optee_os/lib/libmpa/mpa_io.c:401
    fed4:	f9400fa2 	ldr	x2, [x29,#24]
    fed8:	52800021 	mov	w1, #0x1                   	// #1
    fedc:	f9401fa0 	ldr	x0, [x29,#56]
    fee0:	97fffe17 	bl	f73c <__mpa_mpanum_to_hexstr>
/home/optee/RPi3/optee_os/lib/libmpa/mpa_io.c:402
    fee4:	14000003 	b	fef0 <mpa_get_str+0xb4>
/home/optee/RPi3/optee_os/lib/libmpa/mpa_io.c:404
    fee8:	d2800000 	mov	x0, #0x0                   	// #0
    feec:	14000002 	b	fef4 <mpa_get_str+0xb8>
/home/optee/RPi3/optee_os/lib/libmpa/mpa_io.c:407
    fef0:	f94017a0 	ldr	x0, [x29,#40]
/home/optee/RPi3/optee_os/lib/libmpa/mpa_io.c:408
    fef4:	a8c47bfd 	ldp	x29, x30, [sp],#64
    fef8:	d65f03c0 	ret

000000000000fefc <set_word>:
set_word():
/home/optee/RPi3/optee_os/lib/libmpa/mpa_io.c:413
    fefc:	d10083ff 	sub	sp, sp, #0x20
    ff00:	f90007e0 	str	x0, [sp,#8]
    ff04:	f90003e1 	str	x1, [sp]
/home/optee/RPi3/optee_os/lib/libmpa/mpa_io.c:417
    ff08:	b9001bff 	str	wzr, [sp,#24]
/home/optee/RPi3/optee_os/lib/libmpa/mpa_io.c:418
    ff0c:	f94003e0 	ldr	x0, [sp]
    ff10:	51000400 	sub	w0, w0, #0x1
    ff14:	b9001fe0 	str	w0, [sp,#28]
    ff18:	14000014 	b	ff68 <set_word+0x6c>
/home/optee/RPi3/optee_os/lib/libmpa/mpa_io.c:419 (discriminator 3)
    ff1c:	b9801fe0 	ldrsw	x0, [sp,#28]
    ff20:	f94007e1 	ldr	x1, [sp,#8]
    ff24:	8b000020 	add	x0, x1, x0
    ff28:	39400000 	ldrb	w0, [x0]
    ff2c:	2a0003e2 	mov	w2, w0
    ff30:	b9801fe0 	ldrsw	x0, [sp,#28]
    ff34:	f94003e1 	ldr	x1, [sp]
    ff38:	cb000020 	sub	x0, x1, x0
    ff3c:	2a0003e1 	mov	w1, w0
    ff40:	12bc0000 	mov	w0, #0x1fffffff            	// #536870911
    ff44:	0b000020 	add	w0, w1, w0
    ff48:	531d7000 	lsl	w0, w0, #3
    ff4c:	1ac02040 	lsl	w0, w2, w0
    ff50:	b9401be1 	ldr	w1, [sp,#24]
    ff54:	2a000020 	orr	w0, w1, w0
    ff58:	b9001be0 	str	w0, [sp,#24]
/home/optee/RPi3/optee_os/lib/libmpa/mpa_io.c:418 (discriminator 3)
    ff5c:	b9401fe0 	ldr	w0, [sp,#28]
    ff60:	51000400 	sub	w0, w0, #0x1
    ff64:	b9001fe0 	str	w0, [sp,#28]
/home/optee/RPi3/optee_os/lib/libmpa/mpa_io.c:418 (discriminator 1)
    ff68:	b9401fe0 	ldr	w0, [sp,#28]
    ff6c:	6b1f001f 	cmp	w0, wzr
    ff70:	54fffd6a 	b.ge	ff1c <set_word+0x20>
/home/optee/RPi3/optee_os/lib/libmpa/mpa_io.c:420
    ff74:	b9401be0 	ldr	w0, [sp,#24]
/home/optee/RPi3/optee_os/lib/libmpa/mpa_io.c:421
    ff78:	910083ff 	add	sp, sp, #0x20
    ff7c:	d65f03c0 	ret

000000000000ff80 <mpa_set_oct_str>:
mpa_set_oct_str():
/home/optee/RPi3/optee_os/lib/libmpa/mpa_io.c:425
    ff80:	a9bb7bfd 	stp	x29, x30, [sp,#-80]!
    ff84:	910003fd 	mov	x29, sp
    ff88:	f90017a0 	str	x0, [x29,#40]
    ff8c:	f90013a1 	str	x1, [x29,#32]
    ff90:	f9000fa2 	str	x2, [x29,#24]
    ff94:	39005fa3 	strb	w3, [x29,#23]
/home/optee/RPi3/optee_os/lib/libmpa/mpa_io.c:426
    ff98:	f94013a0 	ldr	x0, [x29,#32]
    ff9c:	f90027a0 	str	x0, [x29,#72]
/home/optee/RPi3/optee_os/lib/libmpa/mpa_io.c:427
    ffa0:	f9400fa0 	ldr	x0, [x29,#24]
    ffa4:	b90047a0 	str	w0, [x29,#68]
/home/optee/RPi3/optee_os/lib/libmpa/mpa_io.c:431
    ffa8:	1400000b 	b	ffd4 <mpa_set_oct_str+0x54>
/home/optee/RPi3/optee_os/lib/libmpa/mpa_io.c:432
    ffac:	f94027a0 	ldr	x0, [x29,#72]
    ffb0:	39400000 	ldrb	w0, [x0]
    ffb4:	6b1f001f 	cmp	w0, wzr
    ffb8:	54000161 	b.ne	ffe4 <mpa_set_oct_str+0x64>
/home/optee/RPi3/optee_os/lib/libmpa/mpa_io.c:434
    ffbc:	b94047a0 	ldr	w0, [x29,#68]
    ffc0:	51000400 	sub	w0, w0, #0x1
    ffc4:	b90047a0 	str	w0, [x29,#68]
/home/optee/RPi3/optee_os/lib/libmpa/mpa_io.c:435
    ffc8:	f94027a0 	ldr	x0, [x29,#72]
    ffcc:	91000400 	add	x0, x0, #0x1
    ffd0:	f90027a0 	str	x0, [x29,#72]
/home/optee/RPi3/optee_os/lib/libmpa/mpa_io.c:431
    ffd4:	b94047a0 	ldr	w0, [x29,#68]
    ffd8:	6b1f001f 	cmp	w0, wzr
    ffdc:	54fffe8c 	b.gt	ffac <mpa_set_oct_str+0x2c>
    ffe0:	14000002 	b	ffe8 <mpa_set_oct_str+0x68>
/home/optee/RPi3/optee_os/lib/libmpa/mpa_io.c:433
    ffe4:	d503201f 	nop
/home/optee/RPi3/optee_os/lib/libmpa/mpa_io.c:438
    ffe8:	b94047a0 	ldr	w0, [x29,#68]
    ffec:	6b1f001f 	cmp	w0, wzr
    fff0:	540000c1 	b.ne	10008 <mpa_set_oct_str+0x88>
/home/optee/RPi3/optee_os/lib/libmpa/mpa_io.c:439
    fff4:	52800001 	mov	w1, #0x0                   	// #0
    fff8:	f94017a0 	ldr	x0, [x29,#40]
    fffc:	97ffeb4a 	bl	ad24 <mpa_set_word>
/home/optee/RPi3/optee_os/lib/libmpa/mpa_io.c:440
   10000:	52800000 	mov	w0, #0x0                   	// #0
   10004:	1400003b 	b	100f0 <mpa_set_oct_str+0x170>
/home/optee/RPi3/optee_os/lib/libmpa/mpa_io.c:448
   10008:	b94047a0 	ldr	w0, [x29,#68]
   1000c:	51000400 	sub	w0, w0, #0x1
   10010:	93407c01 	sxtw	x1, w0
   10014:	f94017a0 	ldr	x0, [x29,#40]
   10018:	b9400000 	ldr	w0, [x0]
   1001c:	531e7400 	lsl	w0, w0, #2
   10020:	2a0003e0 	mov	w0, w0
   10024:	eb00003f 	cmp	x1, x0
   10028:	54000069 	b.ls	10034 <mpa_set_oct_str+0xb4>
/home/optee/RPi3/optee_os/lib/libmpa/mpa_io.c:449
   1002c:	12800000 	mov	w0, #0xffffffff            	// #-1
   10030:	14000030 	b	100f0 <mpa_set_oct_str+0x170>
/home/optee/RPi3/optee_os/lib/libmpa/mpa_io.c:451
   10034:	f94017a0 	ldr	x0, [x29,#40]
   10038:	91002000 	add	x0, x0, #0x8
   1003c:	f9001fa0 	str	x0, [x29,#56]
/home/optee/RPi3/optee_os/lib/libmpa/mpa_io.c:452
   10040:	52800001 	mov	w1, #0x0                   	// #0
   10044:	f94017a0 	ldr	x0, [x29,#40]
   10048:	97ffeb37 	bl	ad24 <mpa_set_word>
/home/optee/RPi3/optee_os/lib/libmpa/mpa_io.c:454
   1004c:	f94017a0 	ldr	x0, [x29,#40]
   10050:	b900041f 	str	wzr, [x0,#4]
/home/optee/RPi3/optee_os/lib/libmpa/mpa_io.c:455
   10054:	1400001b 	b	100c0 <mpa_set_oct_str+0x140>
/home/optee/RPi3/optee_os/lib/libmpa/mpa_io.c:456
   10058:	b94047a2 	ldr	w2, [x29,#68]
   1005c:	b94047a1 	ldr	w1, [x29,#68]
   10060:	52800080 	mov	w0, #0x4                   	// #4
   10064:	7100105f 	cmp	w2, #0x4
   10068:	1a80d020 	csel	w0, w1, w0, le
   1006c:	b90037a0 	str	w0, [x29,#52]
/home/optee/RPi3/optee_os/lib/libmpa/mpa_io.c:458
   10070:	b94047a1 	ldr	w1, [x29,#68]
   10074:	b94037a0 	ldr	w0, [x29,#52]
   10078:	4b000020 	sub	w0, w1, w0
   1007c:	b90047a0 	str	w0, [x29,#68]
/home/optee/RPi3/optee_os/lib/libmpa/mpa_io.c:459
   10080:	b98047a0 	ldrsw	x0, [x29,#68]
   10084:	f94027a1 	ldr	x1, [x29,#72]
   10088:	8b000020 	add	x0, x1, x0
   1008c:	b98037a1 	ldrsw	x1, [x29,#52]
   10090:	97ffff9b 	bl	fefc <set_word>
   10094:	2a0003e1 	mov	w1, w0
   10098:	f9401fa0 	ldr	x0, [x29,#56]
   1009c:	b9000001 	str	w1, [x0]
/home/optee/RPi3/optee_os/lib/libmpa/mpa_io.c:460
   100a0:	f9401fa0 	ldr	x0, [x29,#56]
   100a4:	91001000 	add	x0, x0, #0x4
   100a8:	f9001fa0 	str	x0, [x29,#56]
/home/optee/RPi3/optee_os/lib/libmpa/mpa_io.c:461
   100ac:	f94017a0 	ldr	x0, [x29,#40]
   100b0:	b9400400 	ldr	w0, [x0,#4]
   100b4:	11000401 	add	w1, w0, #0x1
   100b8:	f94017a0 	ldr	x0, [x29,#40]
   100bc:	b9000401 	str	w1, [x0,#4]
/home/optee/RPi3/optee_os/lib/libmpa/mpa_io.c:455
   100c0:	b94047a0 	ldr	w0, [x29,#68]
   100c4:	6b1f001f 	cmp	w0, wzr
   100c8:	54fffc8c 	b.gt	10058 <mpa_set_oct_str+0xd8>
/home/optee/RPi3/optee_os/lib/libmpa/mpa_io.c:464
   100cc:	39405fa0 	ldrb	w0, [x29,#23]
   100d0:	6b1f001f 	cmp	w0, wzr
   100d4:	540000c0 	b.eq	100ec <mpa_set_oct_str+0x16c>
/home/optee/RPi3/optee_os/lib/libmpa/mpa_io.c:465
   100d8:	f94017a0 	ldr	x0, [x29,#40]
   100dc:	b9400400 	ldr	w0, [x0,#4]
   100e0:	4b0003e1 	neg	w1, w0
   100e4:	f94017a0 	ldr	x0, [x29,#40]
   100e8:	b9000401 	str	w1, [x0,#4]
/home/optee/RPi3/optee_os/lib/libmpa/mpa_io.c:467
   100ec:	52800000 	mov	w0, #0x0                   	// #0
/home/optee/RPi3/optee_os/lib/libmpa/mpa_io.c:468
   100f0:	a8c57bfd 	ldp	x29, x30, [sp],#80
   100f4:	d65f03c0 	ret

00000000000100f8 <get_word>:
get_word():
/home/optee/RPi3/optee_os/lib/libmpa/mpa_io.c:471
   100f8:	d10083ff 	sub	sp, sp, #0x20
   100fc:	b9000fe0 	str	w0, [sp,#12]
   10100:	f90003e1 	str	x1, [sp]
/home/optee/RPi3/optee_os/lib/libmpa/mpa_io.c:474
   10104:	52800060 	mov	w0, #0x3                   	// #3
   10108:	b9001fe0 	str	w0, [sp,#28]
   1010c:	1400000d 	b	10140 <get_word+0x48>
/home/optee/RPi3/optee_os/lib/libmpa/mpa_io.c:475 (discriminator 3)
   10110:	b9801fe0 	ldrsw	x0, [sp,#28]
   10114:	f94003e1 	ldr	x1, [sp]
   10118:	8b000020 	add	x0, x1, x0
   1011c:	b9400fe1 	ldr	w1, [sp,#12]
   10120:	53001c21 	uxtb	w1, w1
   10124:	39000001 	strb	w1, [x0]
/home/optee/RPi3/optee_os/lib/libmpa/mpa_io.c:476 (discriminator 3)
   10128:	b9400fe0 	ldr	w0, [sp,#12]
   1012c:	53087c00 	lsr	w0, w0, #8
   10130:	b9000fe0 	str	w0, [sp,#12]
/home/optee/RPi3/optee_os/lib/libmpa/mpa_io.c:474 (discriminator 3)
   10134:	b9401fe0 	ldr	w0, [sp,#28]
   10138:	51000400 	sub	w0, w0, #0x1
   1013c:	b9001fe0 	str	w0, [sp,#28]
/home/optee/RPi3/optee_os/lib/libmpa/mpa_io.c:474 (discriminator 1)
   10140:	b9401fe0 	ldr	w0, [sp,#28]
   10144:	6b1f001f 	cmp	w0, wzr
   10148:	54fffe4a 	b.ge	10110 <get_word+0x18>
/home/optee/RPi3/optee_os/lib/libmpa/mpa_io.c:478
   1014c:	d503201f 	nop
   10150:	910083ff 	add	sp, sp, #0x20
   10154:	d65f03c0 	ret

0000000000010158 <mpa_get_oct_str>:
mpa_get_oct_str():
/home/optee/RPi3/optee_os/lib/libmpa/mpa_io.c:481
   10158:	a9bb7bfd 	stp	x29, x30, [sp,#-80]!
   1015c:	910003fd 	mov	x29, sp
   10160:	f90017a0 	str	x0, [x29,#40]
   10164:	f90013a1 	str	x1, [x29,#32]
   10168:	f9000fa2 	str	x2, [x29,#24]
/home/optee/RPi3/optee_os/lib/libmpa/mpa_io.c:482
   1016c:	f9400fa0 	ldr	x0, [x29,#24]
   10170:	97fffdfc 	bl	f960 <__mpa_size_in_base_255>
   10174:	2a0003e0 	mov	w0, w0
   10178:	f9001fa0 	str	x0, [x29,#56]
/home/optee/RPi3/optee_os/lib/libmpa/mpa_io.c:484
   1017c:	f90027bf 	str	xzr, [x29,#72]
/home/optee/RPi3/optee_os/lib/libmpa/mpa_io.c:488
   10180:	f94013a0 	ldr	x0, [x29,#32]
   10184:	f9400001 	ldr	x1, [x0]
   10188:	f9401fa0 	ldr	x0, [x29,#56]
   1018c:	eb00003f 	cmp	x1, x0
   10190:	540000c2 	b.cs	101a8 <mpa_get_oct_str+0x50>
/home/optee/RPi3/optee_os/lib/libmpa/mpa_io.c:489
   10194:	f94013a0 	ldr	x0, [x29,#32]
   10198:	f9401fa1 	ldr	x1, [x29,#56]
   1019c:	f9000001 	str	x1, [x0]
/home/optee/RPi3/optee_os/lib/libmpa/mpa_io.c:490
   101a0:	12800000 	mov	w0, #0xffffffff            	// #-1
   101a4:	1400005b 	b	10310 <mpa_get_oct_str+0x1b8>
/home/optee/RPi3/optee_os/lib/libmpa/mpa_io.c:493
   101a8:	f9400fa0 	ldr	x0, [x29,#24]
   101ac:	b9400400 	ldr	w0, [x0,#4]
   101b0:	6b1f001f 	cmp	w0, wzr
   101b4:	5a80a400 	cneg	w0, w0, lt
   101b8:	b90047a0 	str	w0, [x29,#68]
/home/optee/RPi3/optee_os/lib/libmpa/mpa_io.c:494
   101bc:	b94047a0 	ldr	w0, [x29,#68]
   101c0:	6b1f001f 	cmp	w0, wzr
   101c4:	54000101 	b.ne	101e4 <mpa_get_oct_str+0x8c>
/home/optee/RPi3/optee_os/lib/libmpa/mpa_io.c:495
   101c8:	f94013a0 	ldr	x0, [x29,#32]
   101cc:	f9400000 	ldr	x0, [x0]
   101d0:	aa0003e2 	mov	x2, x0
   101d4:	52800001 	mov	w1, #0x0                   	// #0
   101d8:	f94017a0 	ldr	x0, [x29,#40]
   101dc:	97ffdbd8 	bl	713c <memset>
/home/optee/RPi3/optee_os/lib/libmpa/mpa_io.c:496
   101e0:	14000048 	b	10300 <mpa_get_oct_str+0x1a8>
/home/optee/RPi3/optee_os/lib/libmpa/mpa_io.c:498
   101e4:	b94047a0 	ldr	w0, [x29,#68]
   101e8:	51000400 	sub	w0, w0, #0x1
   101ec:	b90047a0 	str	w0, [x29,#68]
/home/optee/RPi3/optee_os/lib/libmpa/mpa_io.c:501
   101f0:	f9400fa1 	ldr	x1, [x29,#24]
   101f4:	b98047a0 	ldrsw	x0, [x29,#68]
   101f8:	d37ef400 	lsl	x0, x0, #2
   101fc:	8b000020 	add	x0, x1, x0
   10200:	b9400800 	ldr	w0, [x0,#8]
   10204:	9100c3a1 	add	x1, x29, #0x30
   10208:	97ffffbc 	bl	100f8 <get_word>
/home/optee/RPi3/optee_os/lib/libmpa/mpa_io.c:503
   1020c:	b90043bf 	str	wzr, [x29,#64]
   10210:	1400001b 	b	1027c <mpa_get_oct_str+0x124>
/home/optee/RPi3/optee_os/lib/libmpa/mpa_io.c:504
   10214:	b98043a0 	ldrsw	x0, [x29,#64]
   10218:	d13ec3a1 	sub	x1, x29, #0xfb0
   1021c:	8b000020 	add	x0, x1, x0
   10220:	397f8000 	ldrb	w0, [x0,#4064]
   10224:	6b1f001f 	cmp	w0, wzr
   10228:	54000240 	b.eq	10270 <mpa_get_oct_str+0x118>
/home/optee/RPi3/optee_os/lib/libmpa/mpa_io.c:505
   1022c:	b98043a0 	ldrsw	x0, [x29,#64]
   10230:	9100c3a1 	add	x1, x29, #0x30
   10234:	8b000023 	add	x3, x1, x0
   10238:	52800081 	mov	w1, #0x4                   	// #4
   1023c:	b94043a0 	ldr	w0, [x29,#64]
   10240:	4b000020 	sub	w0, w1, w0
   10244:	93407c00 	sxtw	x0, w0
   10248:	aa0003e2 	mov	x2, x0
   1024c:	aa0303e1 	mov	x1, x3
   10250:	f94017a0 	ldr	x0, [x29,#40]
   10254:	97ffdad7 	bl	6db0 <memcpy>
/home/optee/RPi3/optee_os/lib/libmpa/mpa_io.c:506
   10258:	52800081 	mov	w1, #0x4                   	// #4
   1025c:	b94043a0 	ldr	w0, [x29,#64]
   10260:	4b000020 	sub	w0, w1, w0
   10264:	93407c00 	sxtw	x0, w0
   10268:	f90027a0 	str	x0, [x29,#72]
/home/optee/RPi3/optee_os/lib/libmpa/mpa_io.c:507
   1026c:	14000007 	b	10288 <mpa_get_oct_str+0x130>
/home/optee/RPi3/optee_os/lib/libmpa/mpa_io.c:503 (discriminator 2)
   10270:	b94043a0 	ldr	w0, [x29,#64]
   10274:	11000400 	add	w0, w0, #0x1
   10278:	b90043a0 	str	w0, [x29,#64]
/home/optee/RPi3/optee_os/lib/libmpa/mpa_io.c:503 (discriminator 1)
   1027c:	b94043a0 	ldr	w0, [x29,#64]
   10280:	71000c1f 	cmp	w0, #0x3
   10284:	54fffc8d 	b.le	10214 <mpa_get_oct_str+0xbc>
/home/optee/RPi3/optee_os/lib/libmpa/mpa_io.c:510
   10288:	b94047a0 	ldr	w0, [x29,#68]
   1028c:	51000400 	sub	w0, w0, #0x1
   10290:	b90047a0 	str	w0, [x29,#68]
/home/optee/RPi3/optee_os/lib/libmpa/mpa_io.c:512
   10294:	14000018 	b	102f4 <mpa_get_oct_str+0x19c>
/home/optee/RPi3/optee_os/lib/libmpa/mpa_io.c:513
   10298:	f94027a1 	ldr	x1, [x29,#72]
   1029c:	f9401fa0 	ldr	x0, [x29,#56]
   102a0:	eb00003f 	cmp	x1, x0
   102a4:	54000069 	b.ls	102b0 <mpa_get_oct_str+0x158>
/home/optee/RPi3/optee_os/lib/libmpa/mpa_io.c:514
   102a8:	12800000 	mov	w0, #0xffffffff            	// #-1
   102ac:	14000019 	b	10310 <mpa_get_oct_str+0x1b8>
/home/optee/RPi3/optee_os/lib/libmpa/mpa_io.c:515
   102b0:	f9400fa1 	ldr	x1, [x29,#24]
   102b4:	b98047a0 	ldrsw	x0, [x29,#68]
   102b8:	d37ef400 	lsl	x0, x0, #2
   102bc:	8b000020 	add	x0, x1, x0
   102c0:	b9400802 	ldr	w2, [x0,#8]
   102c4:	f94017a1 	ldr	x1, [x29,#40]
   102c8:	f94027a0 	ldr	x0, [x29,#72]
   102cc:	8b000020 	add	x0, x1, x0
   102d0:	aa0003e1 	mov	x1, x0
   102d4:	2a0203e0 	mov	w0, w2
   102d8:	97ffff88 	bl	100f8 <get_word>
/home/optee/RPi3/optee_os/lib/libmpa/mpa_io.c:517
   102dc:	f94027a0 	ldr	x0, [x29,#72]
   102e0:	91001000 	add	x0, x0, #0x4
   102e4:	f90027a0 	str	x0, [x29,#72]
/home/optee/RPi3/optee_os/lib/libmpa/mpa_io.c:518
   102e8:	b94047a0 	ldr	w0, [x29,#68]
   102ec:	51000400 	sub	w0, w0, #0x1
   102f0:	b90047a0 	str	w0, [x29,#68]
/home/optee/RPi3/optee_os/lib/libmpa/mpa_io.c:512
   102f4:	b94047a0 	ldr	w0, [x29,#68]
   102f8:	6b1f001f 	cmp	w0, wzr
   102fc:	54fffcea 	b.ge	10298 <mpa_get_oct_str+0x140>
/home/optee/RPi3/optee_os/lib/libmpa/mpa_io.c:522
   10300:	f94013a0 	ldr	x0, [x29,#32]
   10304:	f9401fa1 	ldr	x1, [x29,#56]
   10308:	f9000001 	str	x1, [x0]
/home/optee/RPi3/optee_os/lib/libmpa/mpa_io.c:523
   1030c:	52800000 	mov	w0, #0x0                   	// #0
/home/optee/RPi3/optee_os/lib/libmpa/mpa_io.c:524 (discriminator 1)
   10310:	a8c57bfd 	ldp	x29, x30, [sp],#80
   10314:	d65f03c0 	ret

0000000000010318 <mpa_mod>:
mpa_mod():
/home/optee/RPi3/optee_os/lib/libmpa/mpa_modulus.c:41
   10318:	a9bd7bfd 	stp	x29, x30, [sp,#-48]!
   1031c:	910003fd 	mov	x29, sp
   10320:	f90017a0 	str	x0, [x29,#40]
   10324:	f90013a1 	str	x1, [x29,#32]
   10328:	f9000fa2 	str	x2, [x29,#24]
   1032c:	f9000ba3 	str	x3, [x29,#16]
/home/optee/RPi3/optee_os/lib/libmpa/mpa_modulus.c:42
   10330:	f9400ba4 	ldr	x4, [x29,#16]
   10334:	f9400fa3 	ldr	x3, [x29,#24]
   10338:	f94013a2 	ldr	x2, [x29,#32]
   1033c:	f94017a1 	ldr	x1, [x29,#40]
   10340:	d2800000 	mov	x0, #0x0                   	// #0
   10344:	97ffee47 	bl	bc60 <mpa_div>
/home/optee/RPi3/optee_os/lib/libmpa/mpa_modulus.c:43
   10348:	d503201f 	nop
   1034c:	a8c37bfd 	ldp	x29, x30, [sp],#48
   10350:	d65f03c0 	ret

0000000000010354 <mpa_add_mod>:
mpa_add_mod():
/home/optee/RPi3/optee_os/lib/libmpa/mpa_modulus.c:53
   10354:	a9bb7bfd 	stp	x29, x30, [sp,#-80]!
   10358:	910003fd 	mov	x29, sp
   1035c:	f9001fa0 	str	x0, [x29,#56]
   10360:	f9001ba1 	str	x1, [x29,#48]
   10364:	f90017a2 	str	x2, [x29,#40]
   10368:	f90013a3 	str	x3, [x29,#32]
   1036c:	f9000fa4 	str	x4, [x29,#24]
/home/optee/RPi3/optee_os/lib/libmpa/mpa_modulus.c:56
   10370:	910123a0 	add	x0, x29, #0x48
   10374:	f9400fa1 	ldr	x1, [x29,#24]
   10378:	97fff20e 	bl	cbb0 <mpa_alloc_static_temp_var>
/home/optee/RPi3/optee_os/lib/libmpa/mpa_modulus.c:58
   1037c:	f94027a0 	ldr	x0, [x29,#72]
   10380:	f9400fa3 	ldr	x3, [x29,#24]
   10384:	f94017a2 	ldr	x2, [x29,#40]
   10388:	f9401ba1 	ldr	x1, [x29,#48]
   1038c:	97fff813 	bl	e3d8 <mpa_add>
/home/optee/RPi3/optee_os/lib/libmpa/mpa_modulus.c:59
   10390:	f94027a0 	ldr	x0, [x29,#72]
   10394:	f9400fa4 	ldr	x4, [x29,#24]
   10398:	f94013a3 	ldr	x3, [x29,#32]
   1039c:	aa0003e2 	mov	x2, x0
   103a0:	f9401fa1 	ldr	x1, [x29,#56]
   103a4:	d2800000 	mov	x0, #0x0                   	// #0
   103a8:	97ffee2e 	bl	bc60 <mpa_div>
/home/optee/RPi3/optee_os/lib/libmpa/mpa_modulus.c:61
   103ac:	910123a0 	add	x0, x29, #0x48
   103b0:	f9400fa1 	ldr	x1, [x29,#24]
   103b4:	97fff20a 	bl	cbdc <mpa_free_static_temp_var>
/home/optee/RPi3/optee_os/lib/libmpa/mpa_modulus.c:62
   103b8:	d503201f 	nop
   103bc:	a8c57bfd 	ldp	x29, x30, [sp],#80
   103c0:	d65f03c0 	ret

00000000000103c4 <mpa_sub_mod>:
mpa_sub_mod():
/home/optee/RPi3/optee_os/lib/libmpa/mpa_modulus.c:72
   103c4:	a9bb7bfd 	stp	x29, x30, [sp,#-80]!
   103c8:	910003fd 	mov	x29, sp
   103cc:	f9001fa0 	str	x0, [x29,#56]
   103d0:	f9001ba1 	str	x1, [x29,#48]
   103d4:	f90017a2 	str	x2, [x29,#40]
   103d8:	f90013a3 	str	x3, [x29,#32]
   103dc:	f9000fa4 	str	x4, [x29,#24]
/home/optee/RPi3/optee_os/lib/libmpa/mpa_modulus.c:75
   103e0:	910123a0 	add	x0, x29, #0x48
   103e4:	f9400fa1 	ldr	x1, [x29,#24]
   103e8:	97fff1f2 	bl	cbb0 <mpa_alloc_static_temp_var>
/home/optee/RPi3/optee_os/lib/libmpa/mpa_modulus.c:77
   103ec:	f94027a0 	ldr	x0, [x29,#72]
   103f0:	f9400fa3 	ldr	x3, [x29,#24]
   103f4:	f94017a2 	ldr	x2, [x29,#40]
   103f8:	f9401ba1 	ldr	x1, [x29,#48]
   103fc:	97fff8a6 	bl	e694 <mpa_sub>
/home/optee/RPi3/optee_os/lib/libmpa/mpa_modulus.c:78
   10400:	f94027a0 	ldr	x0, [x29,#72]
   10404:	f9400fa4 	ldr	x4, [x29,#24]
   10408:	f94013a3 	ldr	x3, [x29,#32]
   1040c:	aa0003e2 	mov	x2, x0
   10410:	f9401fa1 	ldr	x1, [x29,#56]
   10414:	d2800000 	mov	x0, #0x0                   	// #0
   10418:	97ffee12 	bl	bc60 <mpa_div>
/home/optee/RPi3/optee_os/lib/libmpa/mpa_modulus.c:80
   1041c:	910123a0 	add	x0, x29, #0x48
   10420:	f9400fa1 	ldr	x1, [x29,#24]
   10424:	97fff1ee 	bl	cbdc <mpa_free_static_temp_var>
/home/optee/RPi3/optee_os/lib/libmpa/mpa_modulus.c:81
   10428:	d503201f 	nop
   1042c:	a8c57bfd 	ldp	x29, x30, [sp],#80
   10430:	d65f03c0 	ret

0000000000010434 <mpa_mul_mod>:
mpa_mul_mod():
/home/optee/RPi3/optee_os/lib/libmpa/mpa_modulus.c:91
   10434:	a9bb7bfd 	stp	x29, x30, [sp,#-80]!
   10438:	910003fd 	mov	x29, sp
   1043c:	f9001fa0 	str	x0, [x29,#56]
   10440:	f9001ba1 	str	x1, [x29,#48]
   10444:	f90017a2 	str	x2, [x29,#40]
   10448:	f90013a3 	str	x3, [x29,#32]
   1044c:	f9000fa4 	str	x4, [x29,#24]
/home/optee/RPi3/optee_os/lib/libmpa/mpa_modulus.c:94
   10450:	910123a0 	add	x0, x29, #0x48
   10454:	f9400fa1 	ldr	x1, [x29,#24]
   10458:	97fff1d6 	bl	cbb0 <mpa_alloc_static_temp_var>
/home/optee/RPi3/optee_os/lib/libmpa/mpa_modulus.c:96
   1045c:	f94027a0 	ldr	x0, [x29,#72]
   10460:	f9400fa3 	ldr	x3, [x29,#24]
   10464:	f94017a2 	ldr	x2, [x29,#40]
   10468:	f9401ba1 	ldr	x1, [x29,#48]
   1046c:	97fff302 	bl	d074 <mpa_mul>
/home/optee/RPi3/optee_os/lib/libmpa/mpa_modulus.c:97
   10470:	f94027a0 	ldr	x0, [x29,#72]
   10474:	f9400fa4 	ldr	x4, [x29,#24]
   10478:	f94013a3 	ldr	x3, [x29,#32]
   1047c:	aa0003e2 	mov	x2, x0
   10480:	f9401fa1 	ldr	x1, [x29,#56]
   10484:	d2800000 	mov	x0, #0x0                   	// #0
   10488:	97ffedf6 	bl	bc60 <mpa_div>
/home/optee/RPi3/optee_os/lib/libmpa/mpa_modulus.c:99
   1048c:	910123a0 	add	x0, x29, #0x48
   10490:	f9400fa1 	ldr	x1, [x29,#24]
   10494:	97fff1d2 	bl	cbdc <mpa_free_static_temp_var>
/home/optee/RPi3/optee_os/lib/libmpa/mpa_modulus.c:100
   10498:	d503201f 	nop
   1049c:	a8c57bfd 	ldp	x29, x30, [sp],#80
   104a0:	d65f03c0 	ret

00000000000104a4 <mpa_inv_mod>:
mpa_inv_mod():
/home/optee/RPi3/optee_os/lib/libmpa/mpa_modulus.c:109
   104a4:	a9bb7bfd 	stp	x29, x30, [sp,#-80]!
   104a8:	910003fd 	mov	x29, sp
   104ac:	f90017a0 	str	x0, [x29,#40]
   104b0:	f90013a1 	str	x1, [x29,#32]
   104b4:	f9000fa2 	str	x2, [x29,#24]
   104b8:	f9000ba3 	str	x3, [x29,#16]
/home/optee/RPi3/optee_os/lib/libmpa/mpa_modulus.c:115
   104bc:	52800021 	mov	w1, #0x1                   	// #1
   104c0:	f94013a0 	ldr	x0, [x29,#32]
   104c4:	97fffaee 	bl	f07c <mpa_cmp_short>
   104c8:	6b1f001f 	cmp	w0, wzr
   104cc:	540000c1 	b.ne	104e4 <mpa_inv_mod+0x40>
/home/optee/RPi3/optee_os/lib/libmpa/mpa_modulus.c:116
   104d0:	52800021 	mov	w1, #0x1                   	// #1
   104d4:	f94017a0 	ldr	x0, [x29,#40]
   104d8:	97ffe9bf 	bl	abd4 <mpa_set_S32>
/home/optee/RPi3/optee_os/lib/libmpa/mpa_modulus.c:117
   104dc:	52800000 	mov	w0, #0x0                   	// #0
   104e0:	1400003c 	b	105d0 <mpa_inv_mod+0x12c>
/home/optee/RPi3/optee_os/lib/libmpa/mpa_modulus.c:120
   104e4:	f94017a1 	ldr	x1, [x29,#40]
   104e8:	f94013a0 	ldr	x0, [x29,#32]
   104ec:	eb00003f 	cmp	x1, x0
   104f0:	1a9f17e0 	cset	w0, eq
   104f4:	53001c00 	uxtb	w0, w0
   104f8:	b9004fa0 	str	w0, [x29,#76]
/home/optee/RPi3/optee_os/lib/libmpa/mpa_modulus.c:121
   104fc:	b9404fa0 	ldr	w0, [x29,#76]
   10500:	6b1f001f 	cmp	w0, wzr
   10504:	540000a0 	b.eq	10518 <mpa_inv_mod+0x74>
/home/optee/RPi3/optee_os/lib/libmpa/mpa_modulus.c:122
   10508:	9100e3a0 	add	x0, x29, #0x38
   1050c:	f9400ba1 	ldr	x1, [x29,#16]
   10510:	97fff1a8 	bl	cbb0 <mpa_alloc_static_temp_var>
   10514:	14000003 	b	10520 <mpa_inv_mod+0x7c>
/home/optee/RPi3/optee_os/lib/libmpa/mpa_modulus.c:124
   10518:	f94017a0 	ldr	x0, [x29,#40]
   1051c:	f9001fa0 	str	x0, [x29,#56]
/home/optee/RPi3/optee_os/lib/libmpa/mpa_modulus.c:126
   10520:	910103a0 	add	x0, x29, #0x40
   10524:	f9400ba1 	ldr	x1, [x29,#16]
   10528:	97fff1a2 	bl	cbb0 <mpa_alloc_static_temp_var>
/home/optee/RPi3/optee_os/lib/libmpa/mpa_modulus.c:128
   1052c:	f94023a0 	ldr	x0, [x29,#64]
   10530:	f9401fa1 	ldr	x1, [x29,#56]
   10534:	f9400ba5 	ldr	x5, [x29,#16]
   10538:	f9400fa4 	ldr	x4, [x29,#24]
   1053c:	f94013a3 	ldr	x3, [x29,#32]
   10540:	d2800002 	mov	x2, #0x0                   	// #0
   10544:	97fff02e 	bl	c5fc <mpa_extended_gcd>
/home/optee/RPi3/optee_os/lib/libmpa/mpa_modulus.c:129
   10548:	f94023a0 	ldr	x0, [x29,#64]
   1054c:	52800021 	mov	w1, #0x1                   	// #1
   10550:	97fffacb 	bl	f07c <mpa_cmp_short>
   10554:	b9004ba0 	str	w0, [x29,#72]
/home/optee/RPi3/optee_os/lib/libmpa/mpa_modulus.c:131
   10558:	b9404fa0 	ldr	w0, [x29,#76]
   1055c:	6b1f001f 	cmp	w0, wzr
   10560:	54000100 	b.eq	10580 <mpa_inv_mod+0xdc>
/home/optee/RPi3/optee_os/lib/libmpa/mpa_modulus.c:132
   10564:	f9401fa0 	ldr	x0, [x29,#56]
   10568:	aa0003e1 	mov	x1, x0
   1056c:	f94017a0 	ldr	x0, [x29,#40]
   10570:	97ffe605 	bl	9d84 <mpa_copy>
/home/optee/RPi3/optee_os/lib/libmpa/mpa_modulus.c:133
   10574:	9100e3a0 	add	x0, x29, #0x38
   10578:	f9400ba1 	ldr	x1, [x29,#16]
   1057c:	97fff198 	bl	cbdc <mpa_free_static_temp_var>
/home/optee/RPi3/optee_os/lib/libmpa/mpa_modulus.c:136
   10580:	910103a0 	add	x0, x29, #0x40
   10584:	f9400ba1 	ldr	x1, [x29,#16]
   10588:	97fff195 	bl	cbdc <mpa_free_static_temp_var>
/home/optee/RPi3/optee_os/lib/libmpa/mpa_modulus.c:137
   1058c:	b9404ba0 	ldr	w0, [x29,#72]
   10590:	6b1f001f 	cmp	w0, wzr
   10594:	540001c1 	b.ne	105cc <mpa_inv_mod+0x128>
/home/optee/RPi3/optee_os/lib/libmpa/mpa_modulus.c:138
   10598:	14000006 	b	105b0 <mpa_inv_mod+0x10c>
/home/optee/RPi3/optee_os/lib/libmpa/mpa_modulus.c:139
   1059c:	f9400ba3 	ldr	x3, [x29,#16]
   105a0:	f9400fa2 	ldr	x2, [x29,#24]
   105a4:	f94017a1 	ldr	x1, [x29,#40]
   105a8:	f94017a0 	ldr	x0, [x29,#40]
   105ac:	97fff78b 	bl	e3d8 <mpa_add>
/home/optee/RPi3/optee_os/lib/libmpa/mpa_modulus.c:138
   105b0:	52800001 	mov	w1, #0x0                   	// #0
   105b4:	f94017a0 	ldr	x0, [x29,#40]
   105b8:	97fffab1 	bl	f07c <mpa_cmp_short>
   105bc:	6b1f001f 	cmp	w0, wzr
   105c0:	54fffeeb 	b.lt	1059c <mpa_inv_mod+0xf8>
/home/optee/RPi3/optee_os/lib/libmpa/mpa_modulus.c:140
   105c4:	52800000 	mov	w0, #0x0                   	// #0
   105c8:	14000002 	b	105d0 <mpa_inv_mod+0x12c>
/home/optee/RPi3/optee_os/lib/libmpa/mpa_modulus.c:142
   105cc:	12800000 	mov	w0, #0xffffffff            	// #-1
/home/optee/RPi3/optee_os/lib/libmpa/mpa_modulus.c:144 (discriminator 1)
   105d0:	a8c57bfd 	ldp	x29, x30, [sp],#80
   105d4:	d65f03c0 	ret

00000000000105d8 <utee_return>:
utee_return():
   105d8:	d2800008 	mov	x8, #0x0                   	// #0
   105dc:	d4000001 	svc	#0x0
   105e0:	d65f03c0 	ret

00000000000105e4 <utee_log>:
utee_log():
   105e4:	d2800028 	mov	x8, #0x1                   	// #1
   105e8:	d4000001 	svc	#0x0
   105ec:	d65f03c0 	ret

00000000000105f0 <utee_panic>:
utee_panic():
   105f0:	d2800048 	mov	x8, #0x2                   	// #2
   105f4:	d4000001 	svc	#0x0
   105f8:	d65f03c0 	ret

00000000000105fc <utee_get_property>:
utee_get_property():
   105fc:	d2800068 	mov	x8, #0x3                   	// #3
   10600:	d4000001 	svc	#0x0
   10604:	d65f03c0 	ret

0000000000010608 <utee_get_property_name_to_index>:
utee_get_property_name_to_index():
   10608:	d2800088 	mov	x8, #0x4                   	// #4
   1060c:	d4000001 	svc	#0x0
   10610:	d65f03c0 	ret

0000000000010614 <utee_open_ta_session>:
utee_open_ta_session():
   10614:	d28000a8 	mov	x8, #0x5                   	// #5
   10618:	d4000001 	svc	#0x0
   1061c:	d65f03c0 	ret

0000000000010620 <utee_close_ta_session>:
utee_close_ta_session():
   10620:	d28000c8 	mov	x8, #0x6                   	// #6
   10624:	d4000001 	svc	#0x0
   10628:	d65f03c0 	ret

000000000001062c <utee_invoke_ta_command>:
utee_invoke_ta_command():
   1062c:	d28000e8 	mov	x8, #0x7                   	// #7
   10630:	d4000001 	svc	#0x0
   10634:	d65f03c0 	ret

0000000000010638 <utee_get_cancellation_flag>:
utee_get_cancellation_flag():
   10638:	d2800128 	mov	x8, #0x9                   	// #9
   1063c:	d4000001 	svc	#0x0
   10640:	d65f03c0 	ret

0000000000010644 <utee_check_access_rights>:
utee_check_access_rights():
   10644:	d2800108 	mov	x8, #0x8                   	// #8
   10648:	d4000001 	svc	#0x0
   1064c:	d65f03c0 	ret

0000000000010650 <utee_unmask_cancellation>:
utee_unmask_cancellation():
   10650:	d2800148 	mov	x8, #0xa                   	// #10
   10654:	d4000001 	svc	#0x0
   10658:	d65f03c0 	ret

000000000001065c <utee_mask_cancellation>:
utee_mask_cancellation():
   1065c:	d2800168 	mov	x8, #0xb                   	// #11
   10660:	d4000001 	svc	#0x0
   10664:	d65f03c0 	ret

0000000000010668 <utee_wait>:
utee_wait():
   10668:	d2800188 	mov	x8, #0xc                   	// #12
   1066c:	d4000001 	svc	#0x0
   10670:	d65f03c0 	ret

0000000000010674 <utee_get_time>:
utee_get_time():
   10674:	d28001a8 	mov	x8, #0xd                   	// #13
   10678:	d4000001 	svc	#0x0
   1067c:	d65f03c0 	ret

0000000000010680 <utee_set_ta_time>:
utee_set_ta_time():
   10680:	d28001c8 	mov	x8, #0xe                   	// #14
   10684:	d4000001 	svc	#0x0
   10688:	d65f03c0 	ret

000000000001068c <utee_cryp_state_alloc>:
utee_cryp_state_alloc():
   1068c:	d28001e8 	mov	x8, #0xf                   	// #15
   10690:	d4000001 	svc	#0x0
   10694:	d65f03c0 	ret

0000000000010698 <utee_cryp_state_copy>:
utee_cryp_state_copy():
   10698:	d2800208 	mov	x8, #0x10                  	// #16
   1069c:	d4000001 	svc	#0x0
   106a0:	d65f03c0 	ret

00000000000106a4 <utee_cryp_state_free>:
utee_cryp_state_free():
   106a4:	d2800228 	mov	x8, #0x11                  	// #17
   106a8:	d4000001 	svc	#0x0
   106ac:	d65f03c0 	ret

00000000000106b0 <utee_hash_init>:
utee_hash_init():
   106b0:	d2800248 	mov	x8, #0x12                  	// #18
   106b4:	d4000001 	svc	#0x0
   106b8:	d65f03c0 	ret

00000000000106bc <utee_hash_update>:
utee_hash_update():
   106bc:	d2800268 	mov	x8, #0x13                  	// #19
   106c0:	d4000001 	svc	#0x0
   106c4:	d65f03c0 	ret

00000000000106c8 <utee_hash_final>:
utee_hash_final():
   106c8:	d2800288 	mov	x8, #0x14                  	// #20
   106cc:	d4000001 	svc	#0x0
   106d0:	d65f03c0 	ret

00000000000106d4 <utee_cipher_init>:
utee_cipher_init():
   106d4:	d28002a8 	mov	x8, #0x15                  	// #21
   106d8:	d4000001 	svc	#0x0
   106dc:	d65f03c0 	ret

00000000000106e0 <utee_cipher_update>:
utee_cipher_update():
   106e0:	d28002c8 	mov	x8, #0x16                  	// #22
   106e4:	d4000001 	svc	#0x0
   106e8:	d65f03c0 	ret

00000000000106ec <utee_cipher_final>:
utee_cipher_final():
   106ec:	d28002e8 	mov	x8, #0x17                  	// #23
   106f0:	d4000001 	svc	#0x0
   106f4:	d65f03c0 	ret

00000000000106f8 <utee_cryp_obj_get_info>:
utee_cryp_obj_get_info():
   106f8:	d2800308 	mov	x8, #0x18                  	// #24
   106fc:	d4000001 	svc	#0x0
   10700:	d65f03c0 	ret

0000000000010704 <utee_cryp_obj_restrict_usage>:
utee_cryp_obj_restrict_usage():
   10704:	d2800328 	mov	x8, #0x19                  	// #25
   10708:	d4000001 	svc	#0x0
   1070c:	d65f03c0 	ret

0000000000010710 <utee_cryp_obj_get_attr>:
utee_cryp_obj_get_attr():
   10710:	d2800348 	mov	x8, #0x1a                  	// #26
   10714:	d4000001 	svc	#0x0
   10718:	d65f03c0 	ret

000000000001071c <utee_cryp_obj_alloc>:
utee_cryp_obj_alloc():
   1071c:	d2800368 	mov	x8, #0x1b                  	// #27
   10720:	d4000001 	svc	#0x0
   10724:	d65f03c0 	ret

0000000000010728 <utee_cryp_obj_close>:
utee_cryp_obj_close():
   10728:	d2800388 	mov	x8, #0x1c                  	// #28
   1072c:	d4000001 	svc	#0x0
   10730:	d65f03c0 	ret

0000000000010734 <utee_cryp_obj_reset>:
utee_cryp_obj_reset():
   10734:	d28003a8 	mov	x8, #0x1d                  	// #29
   10738:	d4000001 	svc	#0x0
   1073c:	d65f03c0 	ret

0000000000010740 <utee_cryp_obj_populate>:
utee_cryp_obj_populate():
   10740:	d28003c8 	mov	x8, #0x1e                  	// #30
   10744:	d4000001 	svc	#0x0
   10748:	d65f03c0 	ret

000000000001074c <utee_cryp_obj_copy>:
utee_cryp_obj_copy():
   1074c:	d28003e8 	mov	x8, #0x1f                  	// #31
   10750:	d4000001 	svc	#0x0
   10754:	d65f03c0 	ret

0000000000010758 <utee_cryp_derive_key>:
utee_cryp_derive_key():
   10758:	d2800408 	mov	x8, #0x20                  	// #32
   1075c:	d4000001 	svc	#0x0
   10760:	d65f03c0 	ret

0000000000010764 <utee_cryp_random_number_generate>:
utee_cryp_random_number_generate():
   10764:	d2800428 	mov	x8, #0x21                  	// #33
   10768:	d4000001 	svc	#0x0
   1076c:	d65f03c0 	ret

0000000000010770 <utee_authenc_init>:
utee_authenc_init():
   10770:	d2800448 	mov	x8, #0x22                  	// #34
   10774:	d4000001 	svc	#0x0
   10778:	d65f03c0 	ret

000000000001077c <utee_authenc_update_aad>:
utee_authenc_update_aad():
   1077c:	d2800468 	mov	x8, #0x23                  	// #35
   10780:	d4000001 	svc	#0x0
   10784:	d65f03c0 	ret

0000000000010788 <utee_authenc_update_payload>:
utee_authenc_update_payload():
   10788:	d2800488 	mov	x8, #0x24                  	// #36
   1078c:	d4000001 	svc	#0x0
   10790:	d65f03c0 	ret

0000000000010794 <utee_authenc_enc_final>:
utee_authenc_enc_final():
   10794:	d28004a8 	mov	x8, #0x25                  	// #37
   10798:	d4000001 	svc	#0x0
   1079c:	d65f03c0 	ret

00000000000107a0 <utee_authenc_dec_final>:
utee_authenc_dec_final():
   107a0:	d28004c8 	mov	x8, #0x26                  	// #38
   107a4:	d4000001 	svc	#0x0
   107a8:	d65f03c0 	ret

00000000000107ac <utee_asymm_operate>:
utee_asymm_operate():
   107ac:	d28004e8 	mov	x8, #0x27                  	// #39
   107b0:	d4000001 	svc	#0x0
   107b4:	d65f03c0 	ret

00000000000107b8 <utee_asymm_verify>:
utee_asymm_verify():
   107b8:	d2800508 	mov	x8, #0x28                  	// #40
   107bc:	d4000001 	svc	#0x0
   107c0:	d65f03c0 	ret

00000000000107c4 <utee_storage_obj_open>:
utee_storage_obj_open():
   107c4:	d2800528 	mov	x8, #0x29                  	// #41
   107c8:	d4000001 	svc	#0x0
   107cc:	d65f03c0 	ret

00000000000107d0 <utee_storage_obj_create>:
utee_storage_obj_create():
   107d0:	d2800548 	mov	x8, #0x2a                  	// #42
   107d4:	d4000001 	svc	#0x0
   107d8:	d65f03c0 	ret

00000000000107dc <utee_storage_obj_del>:
utee_storage_obj_del():
   107dc:	d2800568 	mov	x8, #0x2b                  	// #43
   107e0:	d4000001 	svc	#0x0
   107e4:	d65f03c0 	ret

00000000000107e8 <utee_storage_obj_rename>:
utee_storage_obj_rename():
   107e8:	d2800588 	mov	x8, #0x2c                  	// #44
   107ec:	d4000001 	svc	#0x0
   107f0:	d65f03c0 	ret

00000000000107f4 <utee_storage_alloc_enum>:
utee_storage_alloc_enum():
   107f4:	d28005a8 	mov	x8, #0x2d                  	// #45
   107f8:	d4000001 	svc	#0x0
   107fc:	d65f03c0 	ret

0000000000010800 <utee_storage_free_enum>:
utee_storage_free_enum():
   10800:	d28005c8 	mov	x8, #0x2e                  	// #46
   10804:	d4000001 	svc	#0x0
   10808:	d65f03c0 	ret

000000000001080c <utee_storage_reset_enum>:
utee_storage_reset_enum():
   1080c:	d28005e8 	mov	x8, #0x2f                  	// #47
   10810:	d4000001 	svc	#0x0
   10814:	d65f03c0 	ret

0000000000010818 <utee_storage_start_enum>:
utee_storage_start_enum():
   10818:	d2800608 	mov	x8, #0x30                  	// #48
   1081c:	d4000001 	svc	#0x0
   10820:	d65f03c0 	ret

0000000000010824 <utee_storage_next_enum>:
utee_storage_next_enum():
   10824:	d2800628 	mov	x8, #0x31                  	// #49
   10828:	d4000001 	svc	#0x0
   1082c:	d65f03c0 	ret

0000000000010830 <utee_storage_obj_read>:
utee_storage_obj_read():
   10830:	d2800648 	mov	x8, #0x32                  	// #50
   10834:	d4000001 	svc	#0x0
   10838:	d65f03c0 	ret

000000000001083c <utee_storage_obj_write>:
utee_storage_obj_write():
   1083c:	d2800668 	mov	x8, #0x33                  	// #51
   10840:	d4000001 	svc	#0x0
   10844:	d65f03c0 	ret

0000000000010848 <utee_storage_obj_trunc>:
utee_storage_obj_trunc():
   10848:	d2800688 	mov	x8, #0x34                  	// #52
   1084c:	d4000001 	svc	#0x0
   10850:	d65f03c0 	ret

0000000000010854 <utee_storage_obj_seek>:
utee_storage_obj_seek():
   10854:	d28006a8 	mov	x8, #0x35                  	// #53
   10858:	d4000001 	svc	#0x0
   1085c:	d65f03c0 	ret

0000000000010860 <utee_cryp_obj_generate_key>:
utee_cryp_obj_generate_key():
   10860:	d28006c8 	mov	x8, #0x36                  	// #54
   10864:	d4000001 	svc	#0x0
   10868:	d65f03c0 	ret

000000000001086c <utee_se_service_open>:
utee_se_service_open():
   1086c:	d28006e8 	mov	x8, #0x37                  	// #55
   10870:	d4000001 	svc	#0x0
   10874:	d65f03c0 	ret

0000000000010878 <utee_se_service_close>:
utee_se_service_close():
   10878:	d2800708 	mov	x8, #0x38                  	// #56
   1087c:	d4000001 	svc	#0x0
   10880:	d65f03c0 	ret

0000000000010884 <utee_se_service_get_readers>:
utee_se_service_get_readers():
   10884:	d2800728 	mov	x8, #0x39                  	// #57
   10888:	d4000001 	svc	#0x0
   1088c:	d65f03c0 	ret

0000000000010890 <utee_se_reader_get_prop>:
utee_se_reader_get_prop():
   10890:	d2800748 	mov	x8, #0x3a                  	// #58
   10894:	d4000001 	svc	#0x0
   10898:	d65f03c0 	ret

000000000001089c <utee_se_reader_get_name>:
utee_se_reader_get_name():
   1089c:	d2800768 	mov	x8, #0x3b                  	// #59
   108a0:	d4000001 	svc	#0x0
   108a4:	d65f03c0 	ret

00000000000108a8 <utee_se_reader_open_session>:
utee_se_reader_open_session():
   108a8:	d2800788 	mov	x8, #0x3c                  	// #60
   108ac:	d4000001 	svc	#0x0
   108b0:	d65f03c0 	ret

00000000000108b4 <utee_se_reader_close_sessions>:
utee_se_reader_close_sessions():
   108b4:	d28007a8 	mov	x8, #0x3d                  	// #61
   108b8:	d4000001 	svc	#0x0
   108bc:	d65f03c0 	ret

00000000000108c0 <utee_se_session_is_closed>:
utee_se_session_is_closed():
   108c0:	d28007c8 	mov	x8, #0x3e                  	// #62
   108c4:	d4000001 	svc	#0x0
   108c8:	d65f03c0 	ret

00000000000108cc <utee_se_session_get_atr>:
utee_se_session_get_atr():
   108cc:	d28007e8 	mov	x8, #0x3f                  	// #63
   108d0:	d4000001 	svc	#0x0
   108d4:	d65f03c0 	ret

00000000000108d8 <utee_se_session_open_channel>:
utee_se_session_open_channel():
   108d8:	d2800808 	mov	x8, #0x40                  	// #64
   108dc:	d4000001 	svc	#0x0
   108e0:	d65f03c0 	ret

00000000000108e4 <utee_se_session_close>:
utee_se_session_close():
   108e4:	d2800828 	mov	x8, #0x41                  	// #65
   108e8:	d4000001 	svc	#0x0
   108ec:	d65f03c0 	ret

00000000000108f0 <utee_se_channel_select_next>:
utee_se_channel_select_next():
   108f0:	d2800848 	mov	x8, #0x42                  	// #66
   108f4:	d4000001 	svc	#0x0
   108f8:	d65f03c0 	ret

00000000000108fc <utee_se_channel_get_select_resp>:
utee_se_channel_get_select_resp():
   108fc:	d2800868 	mov	x8, #0x43                  	// #67
   10900:	d4000001 	svc	#0x0
   10904:	d65f03c0 	ret

0000000000010908 <utee_se_channel_transmit>:
utee_se_channel_transmit():
   10908:	d2800888 	mov	x8, #0x44                  	// #68
   1090c:	d4000001 	svc	#0x0
   10910:	d65f03c0 	ret

0000000000010914 <utee_se_channel_close>:
utee_se_channel_close():
   10914:	d28008a8 	mov	x8, #0x45                  	// #69
   10918:	d4000001 	svc	#0x0
   1091c:	d65f03c0 	ret

0000000000010920 <utee_cache_operation>:
utee_cache_operation():
   10920:	d28008c8 	mov	x8, #0x46                  	// #70
   10924:	d4000001 	svc	#0x0
   10928:	d65f03c0 	ret
